GAS LISTING C:\Users\Karzan\AppData\Local\Temp\cci6nMTo.s 			page 1


   1              		.file	"butt.c"
   2              		.option nopic
   3              		.attribute arch, "rv32i2p0_m2p0_a2p0_c2p0"
   4              		.attribute unaligned_access, 0
   5              		.attribute stack_align, 16
   6              		.text
   7              	.Ltext0:
   8              		.cfi_sections	.debug_frame
   9              		.section	.text.init_pskiva,"ax",@progbits
  10              		.align	1
  11              		.globl	init_pskiva
  13              	init_pskiva:
  14              	.LFB5:
  15              		.file 1 "butt.c"
   1:butt.c        **** /*!
   2:butt.c        ****   \file     butt.c
   3:butt.c        ****   \brief    integrating push buttons with MCU to change clock
   4:butt.c        **** */
   5:butt.c        **** 
   6:butt.c        **** /*
   7:butt.c        ****     Copyright (c) 2019, GigaDevice Semiconductor Inc.
   8:butt.c        **** 
   9:butt.c        ****     Redistribution and use in source and binary forms, with or without modification, 
  10:butt.c        **** are permitted provided that the following conditions are met:
  11:butt.c        **** 
  12:butt.c        ****     1. Redistributions of source code must retain the above copyright notice, this 
  13:butt.c        ****        list of conditions and the following disclaimer.
  14:butt.c        ****     2. Redistributions in binary form must reproduce the above copyright notice, 
  15:butt.c        ****        this list of conditions and the following disclaimer in the documentation 
  16:butt.c        ****        and/or other materials provided with the distribution.
  17:butt.c        ****     3. Neither the name of the copyright holder nor the names of its contributors 
  18:butt.c        ****        may be used to endorse or promote products derived from this software without 
  19:butt.c        ****        specific prior written permission.
  20:butt.c        **** 
  21:butt.c        ****     THIS SOFTWARE IS PROVIDED BY THE COPYRIGHT HOLDERS AND CONTRIBUTORS "AS IS" 
  22:butt.c        **** AND ANY EXPRESS OR IMPLIED WARRANTIES, INCLUDING, BUT NOT LIMITED TO, THE IMPLIED 
  23:butt.c        **** WARRANTIES OF MERCHANTABILITY AND FITNESS FOR A PARTICULAR PURPOSE ARE DISCLAIMED. 
  24:butt.c        **** IN NO EVENT SHALL THE COPYRIGHT HOLDER OR CONTRIBUTORS BE LIABLE FOR ANY DIRECT, 
  25:butt.c        **** INDIRECT, INCIDENTAL, SPECIAL, EXEMPLARY, OR CONSEQUENTIAL DAMAGES (INCLUDING, BUT 
  26:butt.c        **** NOT LIMITED TO, PROCUREMENT OF SUBSTITUTE GOODS OR SERVICES; LOSS OF USE, DATA, OR 
  27:butt.c        **** PROFITS; OR BUSINESS INTERRUPTION) HOWEVER CAUSED AND ON ANY THEORY OF LIABILITY, 
  28:butt.c        **** WHETHER IN CONTRACT, STRICT LIABILITY, OR TORT (INCLUDING NEGLIGENCE OR OTHERWISE) 
  29:butt.c        **** ARISING IN ANY WAY OUT OF THE USE OF THIS SOFTWARE, EVEN IF ADVISED OF THE POSSIBILITY 
  30:butt.c        **** OF SUCH DAMAGE.
  31:butt.c        **** */
  32:butt.c        **** 
  33:butt.c        **** #include "gd32vf103.h"
  34:butt.c        **** #include "drivers.h"
  35:butt.c        **** #include "lcd.h"
  36:butt.c        **** #include "delay.h"
  37:butt.c        **** #include <stdio.h>
  38:butt.c        **** 
  39:butt.c        **** #define BUTTON1 GPIO_PIN_4    // closest to mcu on breadboard
  40:butt.c        **** #define BUTTON2 GPIO_PIN_5
  41:butt.c        **** #define BUTTON3 GPIO_PIN_6
  42:butt.c        **** #define BUTTON4 GPIO_PIN_7    // furthest from mcy on breadboard
  43:butt.c        **** 
GAS LISTING C:\Users\Karzan\AppData\Local\Temp\cci6nMTo.s 			page 2


  44:butt.c        **** // lookup table used on for-loop to go from index to button definition
  45:butt.c        **** #define LOOKUP_BUTT(x)        ((x) == 0 ? BUTTON1 : \
  46:butt.c        ****                                (x) == 1 ? BUTTON2 : \
  47:butt.c        ****                                (x) == 2 ? BUTTON3 : \
  48:butt.c        ****                                (x) == 3 ? BUTTON4 : -1)   // return -1 if none of the buttons reach
  49:butt.c        **** 
  50:butt.c        **** void init_pskiva(){
  16              		.loc 1 50 19
  17              		.cfi_startproc
  51:butt.c        ****   t5omsi();                                         // Initialize timer5 1kHz
  18              		.loc 1 51 3
  50:butt.c        ****   t5omsi();                                         // Initialize timer5 1kHz
  19              		.loc 1 50 19 is_stmt 0
  20 0000 4111     		addi	sp,sp,-16
  21              	.LCFI0:
  22              		.cfi_def_cfa_offset 16
  23 0002 06C6     		sw	ra,12(sp)
  24              		.cfi_offset 1, -4
  25              		.loc 1 51 3
  26 0004 97000000 		call	t5omsi
  26      E7800000 
  27              	.LVL0:
  52:butt.c        ****   Lcd_SetType(LCD_INVERTED);                        // or use LCD_INVERTED!
  28              		.loc 1 52 3 is_stmt 1
  29 000c 0545     		li	a0,1
  30 000e 97000000 		call	Lcd_SetType
  30      E7800000 
  31              	.LVL1:
  53:butt.c        ****   Lcd_Init();
  32              		.loc 1 53 3
  33 0016 97000000 		call	Lcd_Init
  33      E7800000 
  34              	.LVL2:
  54:butt.c        ****   LCD_Clear(BLACK);
  35              		.loc 1 54 3
  36 001e 0145     		li	a0,0
  37 0020 97000000 		call	LCD_Clear
  37      E7800000 
  38              	.LVL3:
  55:butt.c        ****   rcu_periph_clock_enable(RCU_GPIOA);                                         // start clock for GP
  39              		.loc 1 55 3
  40 0028 13052060 		li	a0,1538
  41 002c 97000000 		call	rcu_periph_clock_enable
  41      E7800000 
  42              	.LVL4:
  56:butt.c        ****   gpio_init(GPIOA, GPIO_MODE_IN_FLOATING, GPIO_OSPEED_50MHZ, BITS(4, 7));     // initialize GPIOA i
  43              		.loc 1 56 3
  57:butt.c        **** }
  44              		.loc 1 57 1 is_stmt 0
  45 0034 B240     		lw	ra,12(sp)
  46              		.cfi_restore 1
  56:butt.c        ****   gpio_init(GPIOA, GPIO_MODE_IN_FLOATING, GPIO_OSPEED_50MHZ, BITS(4, 7));     // initialize GPIOA i
  47              		.loc 1 56 3
  48 0036 37150140 		li	a0,1073811456
  49              		.loc 1 57 1
  56:butt.c        ****   gpio_init(GPIOA, GPIO_MODE_IN_FLOATING, GPIO_OSPEED_50MHZ, BITS(4, 7));     // initialize GPIOA i
  50              		.loc 1 56 3
GAS LISTING C:\Users\Karzan\AppData\Local\Temp\cci6nMTo.s 			page 3


  51 003a 9306000F 		li	a3,240
  52 003e 0D46     		li	a2,3
  53 0040 9145     		li	a1,4
  54 0042 13050580 		addi	a0,a0,-2048
  55              		.loc 1 57 1
  56 0046 4101     		addi	sp,sp,16
  57              	.LCFI1:
  58              		.cfi_def_cfa_offset 0
  56:butt.c        ****   gpio_init(GPIOA, GPIO_MODE_IN_FLOATING, GPIO_OSPEED_50MHZ, BITS(4, 7));     // initialize GPIOA i
  59              		.loc 1 56 3
  60 0048 17030000 		tail	gpio_init
  60      67000300 
  61              	.LVL5:
  62              		.cfi_endproc
  63              	.LFE5:
  65              		.section	.text.butt,"ax",@progbits
  66              		.align	1
  67              		.globl	butt
  69              	butt:
  70              	.LFB6:
  58:butt.c        **** 
  59:butt.c        **** void butt(int* pHour, int* pMin){
  71              		.loc 1 59 33 is_stmt 1
  72              		.cfi_startproc
  73              	.LVL6:
  60:butt.c        ****   int key = -1;
  74              		.loc 1 60 3
  61:butt.c        **** 
  62:butt.c        ****   // store all the button status in an array
  63:butt.c        ****   uint32_t butt_status[4];
  75              		.loc 1 63 3
  64:butt.c        ****   for (int i=0; i<4; i++) 
  76              		.loc 1 64 3
  77              	.LBB2:
  78              		.loc 1 64 8
  65:butt.c        ****     butt_status[i] = gpio_input_bit_get(GPIOA, LOOKUP_BUTT(i));
  79              		.loc 1 65 5
  80              	.LBE2:
  59:butt.c        ****   int key = -1;
  81              		.loc 1 59 33 is_stmt 0
  82 0000 0111     		addi	sp,sp,-32
  83              	.LCFI2:
  84              		.cfi_def_cfa_offset 32
  85 0002 4AC8     		sw	s2,16(sp)
  86              		.cfi_offset 18, -16
  87              	.LBB3:
  88              		.loc 1 65 22
  89 0004 37190140 		li	s2,1073811456
  90              	.LBE3:
  59:butt.c        ****   int key = -1;
  91              		.loc 1 59 33
  92 0008 22CC     		sw	s0,24(sp)
  93 000a 26CA     		sw	s1,20(sp)
  94              		.cfi_offset 8, -8
  95              		.cfi_offset 9, -12
  96 000c 2A84     		mv	s0,a0
  97 000e AE84     		mv	s1,a1
GAS LISTING C:\Users\Karzan\AppData\Local\Temp\cci6nMTo.s 			page 4


  98              	.LBB4:
  99              		.loc 1 65 22
 100 0010 13050980 		addi	a0,s2,-2048
 101              	.LVL7:
 102 0014 C145     		li	a1,16
 103              	.LVL8:
 104              	.LBE4:
  59:butt.c        ****   int key = -1;
 105              		.loc 1 59 33
 106 0016 06CE     		sw	ra,28(sp)
 107              		.cfi_offset 1, -4
 108              	.LBB5:
 109              		.loc 1 65 22
 110 0018 97000000 		call	gpio_input_bit_get
 110      E7800000 
 111              	.LVL9:
 112              		.loc 1 65 20
 113 0020 2AC0     		sw	a0,0(sp)
 114              	.LVL10:
 115              		.loc 1 65 5 is_stmt 1
 116              		.loc 1 65 22 is_stmt 0
 117 0022 93050002 		li	a1,32
 118 0026 13050980 		addi	a0,s2,-2048
 119 002a 97000000 		call	gpio_input_bit_get
 119      E7800000 
 120              	.LVL11:
 121              		.loc 1 65 20
 122 0032 2AC2     		sw	a0,4(sp)
 123              	.LVL12:
 124              		.loc 1 65 5 is_stmt 1
 125              		.loc 1 65 22 is_stmt 0
 126 0034 93050004 		li	a1,64
 127 0038 13050980 		addi	a0,s2,-2048
 128 003c 97000000 		call	gpio_input_bit_get
 128      E7800000 
 129              	.LVL13:
 130              		.loc 1 65 20
 131 0044 2AC4     		sw	a0,8(sp)
 132              	.LVL14:
 133              		.loc 1 65 5 is_stmt 1
 134              		.loc 1 65 22 is_stmt 0
 135 0046 93050008 		li	a1,128
 136 004a 13050980 		addi	a0,s2,-2048
 137 004e 97000000 		call	gpio_input_bit_get
 137      E7800000 
 138              	.LVL15:
 139              		.loc 1 65 20
 140 0056 2AC6     		sw	a0,12(sp)
 141              	.LVL16:
 142 0058 8A87     		mv	a5,sp
 143              	.LBE5:
 144              	.LBB6:
  66:butt.c        ****   
  67:butt.c        ****   // Used pull up resistor so low state means pressed
  68:butt.c        ****   for (int i=0; i<4; i++){        
 145              		.loc 1 68 12
 146 005a 0147     		li	a4,0
GAS LISTING C:\Users\Karzan\AppData\Local\Temp\cci6nMTo.s 			page 5


 147              		.loc 1 68 3
 148 005c 9146     		li	a3,4
 149              	.LVL17:
 150              	.L9:
  69:butt.c        ****     if (butt_status[i] == 0){     // button pressed
 151              		.loc 1 69 5 is_stmt 1
 152              		.loc 1 69 8 is_stmt 0
 153 005e 9043     		lw	a2,0(a5)
 154 0060 05E2     		bne	a2,zero,.L4
  70:butt.c        ****       key = LOOKUP_BUTT(i);      // set key to button 
 155              		.loc 1 70 7 is_stmt 1
 156              		.loc 1 70 13 is_stmt 0
 157 0062 21C7     		beq	a4,zero,.L5
 158              		.loc 1 70 13 discriminator 1
 159 0064 8547     		li	a5,1
 160 0066 6307F702 		beq	a4,a5,.L6
 161              		.loc 1 70 13 discriminator 3
 162 006a 8946     		li	a3,2
 163 006c 9C40     		lw	a5,0(s1)
 164 006e 6317D704 		bne	a4,a3,.L7
 165              	.LVL18:
  71:butt.c        ****       break;
 166              		.loc 1 71 7 is_stmt 1
 167              	.LBE6:
  72:butt.c        ****     } else key = -1;             // not pressed ? -> set default key
  73:butt.c        ****   }
  74:butt.c        **** 
  75:butt.c        ****   switch (key){
 168              		.loc 1 75 3
  76:butt.c        ****     case BUTTON1: 
  77:butt.c        ****       // Increase hour
  78:butt.c        ****       (*pHour)++;
  79:butt.c        ****       if ((*pHour) == 24){
  80:butt.c        ****         (*pHour) = 0;
  81:butt.c        ****       }
  82:butt.c        ****       break;
  83:butt.c        ****     case BUTTON2:
  84:butt.c        ****       // Decrease hour
  85:butt.c        ****       (*pHour)--;
  86:butt.c        ****       if ((*pHour) == -1){
  87:butt.c        ****         (*pHour) = 23;
  88:butt.c        ****       }
  89:butt.c        ****       break;
  90:butt.c        ****     case BUTTON3:
  91:butt.c        ****       // Increase minute
  92:butt.c        ****       (*pMin)++;
 169              		.loc 1 92 7
 170              		.loc 1 92 14 is_stmt 0
 171 0072 8507     		addi	a5,a5,1
  93:butt.c        ****       if ((*pMin) == 60){
 172              		.loc 1 93 7 is_stmt 1
 173              		.loc 1 93 10 is_stmt 0
 174 0074 1307C003 		li	a4,60
 175              	.LVL19:
 176 0078 6387E702 		beq	a5,a4,.L12
  92:butt.c        ****       if ((*pMin) == 60){
 177              		.loc 1 92 14
GAS LISTING C:\Users\Karzan\AppData\Local\Temp\cci6nMTo.s 			page 6


 178 007c 9CC0     		sw	a5,0(s1)
 179 007e 29A0     		j	.L3
 180              	.LVL20:
 181              	.L4:
 182              	.LBB7:
  72:butt.c        ****   }
 183              		.loc 1 72 12 is_stmt 1 discriminator 2
  68:butt.c        ****     if (butt_status[i] == 0){     // button pressed
 184              		.loc 1 68 23 is_stmt 0 discriminator 2
 185 0080 0507     		addi	a4,a4,1
 186              	.LVL21:
 187 0082 9107     		addi	a5,a5,4
  68:butt.c        ****     if (butt_status[i] == 0){     // button pressed
 188              		.loc 1 68 3 discriminator 2
 189 0084 E31DD7FC 		bne	a4,a3,.L9
 190              	.LVL22:
 191              	.L3:
 192              	.LBE7:
  94:butt.c        ****         (*pMin) = 0;
  95:butt.c        ****         (*pHour)++;
  96:butt.c        ****         if ((*pHour) == 24){
  97:butt.c        ****           (*pHour) = 0;
  98:butt.c        ****         }
  99:butt.c        ****       }
 100:butt.c        ****       break;
 101:butt.c        ****     case BUTTON4:
 102:butt.c        ****       // Decrease minute
 103:butt.c        ****       (*pMin)--;
 104:butt.c        ****       if ((*pMin) == -1){
 105:butt.c        ****         (*pMin) = 59;
 106:butt.c        ****         (*pHour)--;
 107:butt.c        ****         if ((*pHour) == -1){
 108:butt.c        ****           (*pHour) = 23;
 109:butt.c        ****         }
 110:butt.c        ****       }
 111:butt.c        ****       break;
 112:butt.c        ****   }
 113:butt.c        **** }
 193              		.loc 1 113 1
 194 0088 F240     		lw	ra,28(sp)
 195              		.cfi_remember_state
 196              		.cfi_restore 1
 197 008a 6244     		lw	s0,24(sp)
 198              		.cfi_restore 8
 199              	.LVL23:
 200 008c D244     		lw	s1,20(sp)
 201              		.cfi_restore 9
 202              	.LVL24:
 203 008e 4249     		lw	s2,16(sp)
 204              		.cfi_restore 18
 205 0090 0561     		addi	sp,sp,32
 206              	.LCFI3:
 207              		.cfi_def_cfa_offset 0
 208 0092 8280     		jr	ra
 209              	.LVL25:
 210              	.L6:
 211              	.LCFI4:
GAS LISTING C:\Users\Karzan\AppData\Local\Temp\cci6nMTo.s 			page 7


 212              		.cfi_restore_state
 213              	.LBB8:
  71:butt.c        ****     } else key = -1;             // not pressed ? -> set default key
 214              		.loc 1 71 7 is_stmt 1
 215              	.LBE8:
  75:butt.c        ****     case BUTTON1: 
 216              		.loc 1 75 3
  85:butt.c        ****       if ((*pHour) == -1){
 217              		.loc 1 85 7
  85:butt.c        ****       if ((*pHour) == -1){
 218              		.loc 1 85 15 is_stmt 0
 219 0094 1C40     		lw	a5,0(s0)
  86:butt.c        ****         (*pHour) = 23;
 220              		.loc 1 86 10
 221 0096 7D57     		li	a4,-1
 222              	.LVL26:
  85:butt.c        ****       if ((*pHour) == -1){
 223              		.loc 1 85 15
 224 0098 FD17     		addi	a5,a5,-1
 225 009a 1CC0     		sw	a5,0(s0)
  86:butt.c        ****         (*pHour) = 23;
 226              		.loc 1 86 7 is_stmt 1
 227              	.LVL27:
 228              	.L20:
  86:butt.c        ****         (*pHour) = 23;
 229              		.loc 1 86 10 is_stmt 0
 230 009c E396E7FE 		bne	a5,a4,.L3
  87:butt.c        ****       }
 231              		.loc 1 87 9 is_stmt 1
  87:butt.c        ****       }
 232              		.loc 1 87 18 is_stmt 0
 233 00a0 DD47     		li	a5,23
 234 00a2 1CC0     		sw	a5,0(s0)
 235 00a4 D5B7     		j	.L3
 236              	.LVL28:
 237              	.L12:
  94:butt.c        ****         (*pHour)++;
 238              		.loc 1 94 9 is_stmt 1
  94:butt.c        ****         (*pHour)++;
 239              		.loc 1 94 17 is_stmt 0
 240 00a6 23A00400 		sw	zero,0(s1)
  95:butt.c        ****         if ((*pHour) == 24){
 241              		.loc 1 95 9 is_stmt 1
 242              	.LVL29:
 243              	.L5:
 244              	.LBB9:
  71:butt.c        ****     } else key = -1;             // not pressed ? -> set default key
 245              		.loc 1 71 7
 246              	.LBE9:
  75:butt.c        ****     case BUTTON1: 
 247              		.loc 1 75 3
  78:butt.c        ****       if ((*pHour) == 24){
 248              		.loc 1 78 7
  78:butt.c        ****       if ((*pHour) == 24){
 249              		.loc 1 78 15 is_stmt 0
 250 00aa 1C40     		lw	a5,0(s0)
  79:butt.c        ****         (*pHour) = 0;
GAS LISTING C:\Users\Karzan\AppData\Local\Temp\cci6nMTo.s 			page 8


 251              		.loc 1 79 10
 252 00ac 6147     		li	a4,24
  78:butt.c        ****       if ((*pHour) == 24){
 253              		.loc 1 78 15
 254 00ae 8507     		addi	a5,a5,1
 255 00b0 1CC0     		sw	a5,0(s0)
  79:butt.c        ****         (*pHour) = 0;
 256              		.loc 1 79 7 is_stmt 1
  79:butt.c        ****         (*pHour) = 0;
 257              		.loc 1 79 10 is_stmt 0
 258 00b2 E39BE7FC 		bne	a5,a4,.L3
  80:butt.c        ****       }
 259              		.loc 1 80 9 is_stmt 1
  80:butt.c        ****       }
 260              		.loc 1 80 18 is_stmt 0
 261 00b6 23200400 		sw	zero,0(s0)
 262 00ba F9B7     		j	.L3
 263              	.LVL30:
 264              	.L7:
 265              	.LBB10:
  71:butt.c        ****     } else key = -1;             // not pressed ? -> set default key
 266              		.loc 1 71 7 is_stmt 1
 267              	.LBE10:
  75:butt.c        ****     case BUTTON1: 
 268              		.loc 1 75 3
 103:butt.c        ****       if ((*pMin) == -1){
 269              		.loc 1 103 7
 104:butt.c        ****         (*pMin) = 59;
 270              		.loc 1 104 7
 104:butt.c        ****         (*pMin) = 59;
 271              		.loc 1 104 10 is_stmt 0
 272 00bc 1387F7FF 		addi	a4,a5,-1
 273              	.LVL31:
 274 00c0 99C3     		beq	a5,zero,.L14
 103:butt.c        ****       if ((*pMin) == -1){
 275              		.loc 1 103 14
 276 00c2 98C0     		sw	a4,0(s1)
 277 00c4 D1B7     		j	.L3
 278              	.L14:
 105:butt.c        ****         (*pHour)--;
 279              		.loc 1 105 9 is_stmt 1
 105:butt.c        ****         (*pHour)--;
 280              		.loc 1 105 17 is_stmt 0
 281 00c6 9307B003 		li	a5,59
 282 00ca 9CC0     		sw	a5,0(s1)
 106:butt.c        ****         if ((*pHour) == -1){
 283              		.loc 1 106 9 is_stmt 1
 106:butt.c        ****         if ((*pHour) == -1){
 284              		.loc 1 106 17 is_stmt 0
 285 00cc 1C40     		lw	a5,0(s0)
 286 00ce FD17     		addi	a5,a5,-1
 287 00d0 1CC0     		sw	a5,0(s0)
 107:butt.c        ****           (*pHour) = 23;
 288              		.loc 1 107 9 is_stmt 1
 289 00d2 E9B7     		j	.L20
 290              		.cfi_endproc
 291              	.LFE6:
GAS LISTING C:\Users\Karzan\AppData\Local\Temp\cci6nMTo.s 			page 9


 293              		.section	.text.displayTime,"ax",@progbits
 294              		.align	1
 295              		.globl	displayTime
 297              	displayTime:
 298              	.LFB7:
 114:butt.c        **** 
 115:butt.c        **** void displayTime(int hour, int mins){
 299              		.loc 1 115 37
 300              		.cfi_startproc
 301              	.LVL32:
 116:butt.c        ****   // Update LCD display with the new time
 117:butt.c        ****   char timeStr[10];
 302              		.loc 1 117 3
 118:butt.c        ****   sprintf(timeStr, "CLOCK: %02d:%02d", hour, mins);
 303              		.loc 1 118 3
 115:butt.c        ****   // Update LCD display with the new time
 304              		.loc 1 115 37 is_stmt 0
 305 0000 0111     		addi	sp,sp,-32
 306              	.LCFI5:
 307              		.cfi_def_cfa_offset 32
 308              		.loc 1 118 3
 309 0002 AE86     		mv	a3,a1
 310 0004 B7050000 		lui	a1,%hi(.LC0)
 311              	.LVL33:
 312 0008 2A86     		mv	a2,a0
 313 000a 93850500 		addi	a1,a1,%lo(.LC0)
 314 000e 4800     		addi	a0,sp,4
 315              	.LVL34:
 115:butt.c        ****   // Update LCD display with the new time
 316              		.loc 1 115 37
 317 0010 06CE     		sw	ra,28(sp)
 318              		.cfi_offset 1, -4
 319              		.loc 1 118 3
 320 0012 97000000 		call	sprintf
 320      E7800000 
 321              	.LVL35:
 119:butt.c        ****   LCD_ShowStr(10, 30, timeStr, WHITE, OPAQUE);
 322              		.loc 1 119 3 is_stmt 1
 323 001a C166     		li	a3,65536
 324 001c 5000     		addi	a2,sp,4
 325 001e 0147     		li	a4,0
 326 0020 FD16     		addi	a3,a3,-1
 327 0022 F945     		li	a1,30
 328 0024 2945     		li	a0,10
 329 0026 97000000 		call	LCD_ShowStr
 329      E7800000 
 330              	.LVL36:
 120:butt.c        **** }...
 331              		.loc 1 120 1 is_stmt 0
 332 002e F240     		lw	ra,28(sp)
 333              		.cfi_restore 1
 334 0030 0561     		addi	sp,sp,32
 335              	.LCFI6:
 336              		.cfi_def_cfa_offset 0
 337 0032 8280     		jr	ra
 338              		.cfi_endproc
 339              	.LFE7:
GAS LISTING C:\Users\Karzan\AppData\Local\Temp\cci6nMTo.s 			page 10


 341              		.section	.rodata.displayTime.str1.4,"aMS",@progbits,1
 342              		.align	2
 343              	.LC0:
 344 0000 434C4F43 		.string	"CLOCK: %02d:%02d"
 344      4B3A2025 
 344      3032643A 
 344      25303264 
 344      00
 345              		.text
 346              	.Letext0:
 347              		.file 2 "c:\\users\\karzan\\downloads\\toolchain-gd32v-v202-win\\toolchain-gd32v-v202-win\\compile
 348              		.file 3 "c:\\users\\karzan\\downloads\\toolchain-gd32v-v202-win\\toolchain-gd32v-v202-win\\compile
 349              		.file 4 "c:\\users\\karzan\\downloads\\toolchain-gd32v-v202-win\\toolchain-gd32v-v202-win\\compile
 350              		.file 5 "c:\\users\\karzan\\downloads\\toolchain-gd32v-v202-win\\toolchain-gd32v-v202-win\\compile
 351              		.file 6 "c:\\users\\karzan\\downloads\\toolchain-gd32v-v202-win\\toolchain-gd32v-v202-win\\compile
 352              		.file 7 "c:\\users\\karzan\\downloads\\toolchain-gd32v-v202-win\\toolchain-gd32v-v202-win\\compile
 353              		.file 8 "./../../firmware/GD32VF103_standard_peripheral/system_gd32vf103.h"
 354              		.file 9 "c:\\users\\karzan\\downloads\\toolchain-gd32v-v202-win\\toolchain-gd32v-v202-win\\compile
 355              		.file 10 "lcd.h"
 356              		.file 11 "c:\\users\\karzan\\downloads\\toolchain-gd32v-v202-win\\toolchain-gd32v-v202-win\\compil
 357              		.file 12 "./../../firmware/GD32VF103_standard_peripheral/Include/gd32vf103_gpio.h"
 358              		.file 13 "drivers.h"
 359              		.file 14 "./../../firmware/GD32VF103_standard_peripheral/Include/gd32vf103_rcu.h"
GAS LISTING C:\Users\Karzan\AppData\Local\Temp\cci6nMTo.s 			page 11

