GAS LISTING C:\Users\Karzan\AppData\Local\Temp\ccea949f.s 			page 1


   1              		.file	"clock.c"
   2              		.option nopic
   3              		.attribute arch, "rv32i2p0_m2p0_a2p0_c2p0"
   4              		.attribute unaligned_access, 0
   5              		.attribute stack_align, 16
   6              		.text
   7              	.Ltext0:
   8              		.cfi_sections	.debug_frame
   9              		.section	.text.init_clock_display,"ax",@progbits
  10              		.align	1
  11              		.globl	init_clock_display
  13              	init_clock_display:
  14              	.LFB5:
  15              		.file 1 "clock.c"
   1:clock.c       **** #include "clock.h"
   2:clock.c       **** 
   3:clock.c       **** void init_clock_display(){
  16              		.loc 1 3 26
  17              		.cfi_startproc
   4:clock.c       ****   //t5omsi();                                         // Initialize timer5 1kHz
   5:clock.c       ****   Lcd_SetType(LCD_INVERTED);                          // or use LCD_INVERTED!
  18              		.loc 1 5 3
   3:clock.c       ****   //t5omsi();                                         // Initialize timer5 1kHz
  19              		.loc 1 3 26 is_stmt 0
  20 0000 4111     		addi	sp,sp,-16
  21              	.LCFI0:
  22              		.cfi_def_cfa_offset 16
  23              		.loc 1 5 3
  24 0002 0545     		li	a0,1
   3:clock.c       ****   //t5omsi();                                         // Initialize timer5 1kHz
  25              		.loc 1 3 26
  26 0004 06C6     		sw	ra,12(sp)
  27              		.cfi_offset 1, -4
  28              		.loc 1 5 3
  29 0006 97000000 		call	Lcd_SetType
  29      E7800000 
  30              	.LVL0:
   6:clock.c       ****   Lcd_Init();
  31              		.loc 1 6 3 is_stmt 1
  32 000e 97000000 		call	Lcd_Init
  32      E7800000 
  33              	.LVL1:
   7:clock.c       ****   LCD_Clear(BLACK);
  34              		.loc 1 7 3
   8:clock.c       **** }
  35              		.loc 1 8 1 is_stmt 0
  36 0016 B240     		lw	ra,12(sp)
  37              		.cfi_restore 1
   7:clock.c       ****   LCD_Clear(BLACK);
  38              		.loc 1 7 3
  39 0018 0145     		li	a0,0
  40              		.loc 1 8 1
  41 001a 4101     		addi	sp,sp,16
  42              	.LCFI1:
  43              		.cfi_def_cfa_offset 0
   7:clock.c       ****   LCD_Clear(BLACK);
  44              		.loc 1 7 3
GAS LISTING C:\Users\Karzan\AppData\Local\Temp\ccea949f.s 			page 2


  45 001c 17030000 		tail	LCD_Clear
  45      67000300 
  46              	.LVL2:
  47              		.cfi_endproc
  48              	.LFE5:
  50              		.section	.text.incrementClock,"ax",@progbits
  51              		.align	1
  52              		.globl	incrementClock
  54              	incrementClock:
  55              	.LFB6:
   9:clock.c       **** void incrementClock(int8_t *pHour, int8_t *pMinute) {
  56              		.loc 1 9 53 is_stmt 1
  57              		.cfi_startproc
  58              	.LVL3:
  10:clock.c       ****   (*pMinute)++;
  59              		.loc 1 10 3
  60              		.loc 1 10 13 is_stmt 0
  61 0000 83C70500 		lbu	a5,0(a1)
  11:clock.c       ****   if ((*pMinute) == 60) {
  62              		.loc 1 11 6
  63 0004 1307C003 		li	a4,60
  10:clock.c       ****   (*pMinute)++;
  64              		.loc 1 10 13
  65 0008 8507     		addi	a5,a5,1
  66 000a E207     		slli	a5,a5,24
  67 000c E187     		srai	a5,a5,24
  68              		.loc 1 11 3 is_stmt 1
  69              		.loc 1 11 6 is_stmt 0
  70 000e 6385E700 		beq	a5,a4,.L4
  10:clock.c       ****   (*pMinute)++;
  71              		.loc 1 10 13
  72 0012 2380F500 		sb	a5,0(a1)
  73 0016 8280     		ret
  74              	.L4:
  75              	.LVL4:
  76              	.LBB4:
  77              	.LBB5:
  12:clock.c       ****     (*pMinute) = 0;
  78              		.loc 1 12 5 is_stmt 1
  79              		.loc 1 12 16 is_stmt 0
  80 0018 23800500 		sb	zero,0(a1)
  13:clock.c       ****     (*pHour)++;
  81              		.loc 1 13 5 is_stmt 1
  82              		.loc 1 13 13 is_stmt 0
  83 001c 83470500 		lbu	a5,0(a0)
  14:clock.c       ****     if ((*pHour) == 24) {
  84              		.loc 1 14 8
  85 0020 6147     		li	a4,24
  13:clock.c       ****     (*pHour)++;
  86              		.loc 1 13 13
  87 0022 8507     		addi	a5,a5,1
  88 0024 E207     		slli	a5,a5,24
  89 0026 E187     		srai	a5,a5,24
  90              		.loc 1 14 5 is_stmt 1
  91              		.loc 1 14 8 is_stmt 0
  92 0028 6385E700 		beq	a5,a4,.L6
  13:clock.c       ****     (*pHour)++;
GAS LISTING C:\Users\Karzan\AppData\Local\Temp\ccea949f.s 			page 3


  93              		.loc 1 13 13
  94 002c 2300F500 		sb	a5,0(a0)
  95 0030 8280     		ret
  96              	.L6:
  15:clock.c       ****       (*pHour) = 0;
  97              		.loc 1 15 7 is_stmt 1
  98              		.loc 1 15 16 is_stmt 0
  99 0032 23000500 		sb	zero,0(a0)
 100              	.LBE5:
 101              	.LBE4:
  16:clock.c       ****     }
  17:clock.c       ****   }
  18:clock.c       **** }
 102              		.loc 1 18 1
 103 0036 8280     		ret
 104              		.cfi_endproc
 105              	.LFE6:
 107              		.section	.text.decrementClock,"ax",@progbits
 108              		.align	1
 109              		.globl	decrementClock
 111              	decrementClock:
 112              	.LFB7:
  19:clock.c       **** 
  20:clock.c       **** void decrementClock(int8_t *pHour, int8_t *pMinute) {
 113              		.loc 1 20 53 is_stmt 1
 114              		.cfi_startproc
 115              	.LVL5:
  21:clock.c       ****   (*pMinute)--;
 116              		.loc 1 21 3
 117              		.loc 1 21 13 is_stmt 0
 118 0000 83C70500 		lbu	a5,0(a1)
  22:clock.c       ****   if ((*pMinute) == -1) {
 119              		.loc 1 22 6
 120 0004 7D57     		li	a4,-1
  21:clock.c       ****   (*pMinute)--;
 121              		.loc 1 21 13
 122 0006 FD17     		addi	a5,a5,-1
 123 0008 E207     		slli	a5,a5,24
 124 000a E187     		srai	a5,a5,24
 125              		.loc 1 22 3 is_stmt 1
 126              		.loc 1 22 6 is_stmt 0
 127 000c 6385E700 		beq	a5,a4,.L9
  21:clock.c       ****   (*pMinute)--;
 128              		.loc 1 21 13
 129 0010 2380F500 		sb	a5,0(a1)
 130 0014 8280     		ret
 131              	.L9:
  23:clock.c       ****     (*pMinute) = 59;
 132              		.loc 1 23 5 is_stmt 1
 133              		.loc 1 23 16 is_stmt 0
 134 0016 1307B003 		li	a4,59
 135 001a 2380E500 		sb	a4,0(a1)
  24:clock.c       ****     (*pHour)--;
 136              		.loc 1 24 5 is_stmt 1
 137              		.loc 1 24 13 is_stmt 0
 138 001e 03470500 		lbu	a4,0(a0)
 139 0022 7D17     		addi	a4,a4,-1
GAS LISTING C:\Users\Karzan\AppData\Local\Temp\ccea949f.s 			page 4


 140 0024 6207     		slli	a4,a4,24
 141 0026 6187     		srai	a4,a4,24
  25:clock.c       ****     if ((*pHour) == -1) {
 142              		.loc 1 25 5 is_stmt 1
 143              		.loc 1 25 8 is_stmt 0
 144 0028 6305F700 		beq	a4,a5,.L11
  24:clock.c       ****     (*pHour)--;
 145              		.loc 1 24 13
 146 002c 2300E500 		sb	a4,0(a0)
 147 0030 8280     		ret
 148              	.L11:
  26:clock.c       ****       (*pHour) = 23;
 149              		.loc 1 26 7 is_stmt 1
 150              		.loc 1 26 16 is_stmt 0
 151 0032 DD47     		li	a5,23
 152 0034 2300F500 		sb	a5,0(a0)
  27:clock.c       ****     }
  28:clock.c       ****   }
  29:clock.c       **** }
 153              		.loc 1 29 1
 154 0038 8280     		ret
 155              		.cfi_endproc
 156              	.LFE7:
 158              		.section	.text.tick,"ax",@progbits
 159              		.align	1
 160              		.globl	tick
 162              	tick:
 163              	.LFB8:
  30:clock.c       **** 
  31:clock.c       **** void tick(int *pMs, int8_t *pHour, int8_t *pMinute) {
 164              		.loc 1 31 53 is_stmt 1
 165              		.cfi_startproc
 166              	.LVL6:
  32:clock.c       ****   (*pMs)++;
 167              		.loc 1 32 3
  31:clock.c       ****   (*pMs)++;
 168              		.loc 1 31 53 is_stmt 0
 169 0000 2A87     		mv	a4,a0
 170              		.loc 1 32 9
 171 0002 1C43     		lw	a5,0(a4)
  33:clock.c       ****   if ((*pMs) == 60000) {
 172              		.loc 1 33 6
 173 0004 BD66     		li	a3,61440
 174 0006 938606A6 		addi	a3,a3,-1440
  32:clock.c       ****   (*pMs)++;
 175              		.loc 1 32 9
 176 000a 8507     		addi	a5,a5,1
 177              		.loc 1 33 3 is_stmt 1
  31:clock.c       ****   (*pMs)++;
 178              		.loc 1 31 53 is_stmt 0
 179 000c 2E85     		mv	a0,a1
 180              	.LVL7:
 181              		.loc 1 33 6
 182 000e 6384D700 		beq	a5,a3,.L14
  32:clock.c       ****   (*pMs)++;
 183              		.loc 1 32 9
 184 0012 1CC3     		sw	a5,0(a4)
GAS LISTING C:\Users\Karzan\AppData\Local\Temp\ccea949f.s 			page 5


  34:clock.c       ****     (*pMs) = 0;
  35:clock.c       ****     incrementClock(pHour, pMinute);
  36:clock.c       ****   }
  37:clock.c       **** }
 185              		.loc 1 37 1
 186 0014 8280     		ret
 187              	.L14:
  34:clock.c       ****     (*pMs) = 0;
 188              		.loc 1 34 5 is_stmt 1
  34:clock.c       ****     (*pMs) = 0;
 189              		.loc 1 34 12 is_stmt 0
 190 0016 23200700 		sw	zero,0(a4)
  35:clock.c       ****   }
 191              		.loc 1 35 5 is_stmt 1
 192 001a B285     		mv	a1,a2
 193              	.LVL8:
 194 001c 17030000 		tail	incrementClock
 194      67000300 
 195              	.LVL9:
 196              		.cfi_endproc
 197              	.LFE8:
 199              		.section	.text.displayClock,"ax",@progbits
 200              		.align	1
 201              		.globl	displayClock
 203              	displayClock:
 204              	.LFB9:
  38:clock.c       **** 
  39:clock.c       **** void displayClock(int8_t hour, int8_t mins){
 205              		.loc 1 39 44
 206              		.cfi_startproc
 207              	.LVL10:
  40:clock.c       ****   // Update LCD display with the new time
  41:clock.c       ****   char timeStr[10];
 208              		.loc 1 41 3
  42:clock.c       ****   sprintf(timeStr, "CLOCK: %02d:%02d", hour, mins);
 209              		.loc 1 42 3
  39:clock.c       ****   // Update LCD display with the new time
 210              		.loc 1 39 44 is_stmt 0
 211 0000 0111     		addi	sp,sp,-32
 212              	.LCFI2:
 213              		.cfi_def_cfa_offset 32
 214              		.loc 1 42 3
 215 0002 AE86     		mv	a3,a1
 216 0004 B7050000 		lui	a1,%hi(.LC0)
 217              	.LVL11:
 218 0008 2A86     		mv	a2,a0
 219 000a 93850500 		addi	a1,a1,%lo(.LC0)
 220 000e 4800     		addi	a0,sp,4
 221              	.LVL12:
  39:clock.c       ****   // Update LCD display with the new time
 222              		.loc 1 39 44
 223 0010 06CE     		sw	ra,28(sp)
 224              		.cfi_offset 1, -4
 225              		.loc 1 42 3
 226 0012 97000000 		call	sprintf
 226      E7800000 
 227              	.LVL13:
GAS LISTING C:\Users\Karzan\AppData\Local\Temp\ccea949f.s 			page 6


  43:clock.c       ****   LCD_ShowStr(10, 30, timeStr, WHITE, OPAQUE);
 228              		.loc 1 43 3 is_stmt 1
 229 001a C166     		li	a3,65536
 230 001c 5000     		addi	a2,sp,4
 231 001e 0147     		li	a4,0
 232 0020 FD16     		addi	a3,a3,-1
 233 0022 F945     		li	a1,30
 234 0024 2945     		li	a0,10
 235 0026 97000000 		call	LCD_ShowStr
 235      E7800000 
 236              	.LVL14:
  44:clock.c       **** }
 237              		.loc 1 44 1 is_stmt 0
 238 002e F240     		lw	ra,28(sp)
 239              		.cfi_restore 1
 240 0030 0561     		addi	sp,sp,32
 241              	.LCFI3:
 242              		.cfi_def_cfa_offset 0
 243 0032 8280     		jr	ra
 244              		.cfi_endproc
 245              	.LFE9:
 247              		.section	.text.pskiva,"ax",@progbits
 248              		.align	1
 249              		.globl	pskiva
 251              	pskiva:
 252              	.LFB10:
  45:clock.c       **** 
  46:clock.c       **** void pskiva(uint8_t enable, int8_t hour, int8_t min){
 253              		.loc 1 46 53 is_stmt 1
 254              		.cfi_startproc
 255              	.LVL15:
  47:clock.c       ****   if (enable){
 256              		.loc 1 47 3
  46:clock.c       ****   if (enable){
 257              		.loc 1 46 53 is_stmt 0
 258 0000 4111     		addi	sp,sp,-16
 259              	.LCFI4:
 260              		.cfi_def_cfa_offset 16
 261 0002 22C4     		sw	s0,8(sp)
 262 0004 26C2     		sw	s1,4(sp)
 263 0006 06C6     		sw	ra,12(sp)
 264              		.cfi_offset 8, -8
 265              		.cfi_offset 9, -12
 266              		.cfi_offset 1, -4
  46:clock.c       ****   if (enable){
 267              		.loc 1 46 53
 268 0008 2E84     		mv	s0,a1
 269 000a B284     		mv	s1,a2
  48:clock.c       ****     // pskiva on
  49:clock.c       ****     LCD_ShowStr(10, 50, "ON ", GREEN, OPAQUE);
 270              		.loc 1 49 5
 271 000c 0147     		li	a4,0
 272 000e 9306007E 		li	a3,2016
  47:clock.c       ****     // pskiva on
 273              		.loc 1 47 6
 274 0012 1DCD     		beq	a0,zero,.L20
 275              		.loc 1 49 5 is_stmt 1
GAS LISTING C:\Users\Karzan\AppData\Local\Temp\ccea949f.s 			page 7


 276 0014 37060000 		lui	a2,%hi(.LC1)
 277              	.LVL16:
 278 0018 13060600 		addi	a2,a2,%lo(.LC1)
 279 001c 93052003 		li	a1,50
 280              	.LVL17:
 281 0020 2945     		li	a0,10
 282              	.LVL18:
 283 0022 97000000 		call	LCD_ShowStr
 283      E7800000 
 284              	.LVL19:
  50:clock.c       ****     //char tmpStr[10];
  51:clock.c       ****     
  52:clock.c       ****     if (min+30 > 60) {                                    // if the coming half hour includes a new
 285              		.loc 1 52 5
 286              		.loc 1 52 8 is_stmt 0
 287 002a F947     		li	a5,30
 288 002c 63DF9700 		ble	s1,a5,.L21
  53:clock.c       ****       displayClock(hour+1, 0);     // show minutes as 0 and hour as the coming hour (+1)
 289              		.loc 1 53 7 is_stmt 1
 290              		.loc 1 53 24 is_stmt 0
 291 0030 13051400 		addi	a0,s0,1
 292              		.loc 1 53 7
 293 0034 6205     		slli	a0,a0,24
 294 0036 8145     		li	a1,0
 295 0038 6185     		srai	a0,a0,24
 296              	.L23:
  54:clock.c       ****     } else {
  55:clock.c       ****       displayClock(hour, 30);      // otherwise keep hour and set min to 30
  56:clock.c       ****     }
  57:clock.c       ****     //displayClock(tmpStr[8], tmpStr[9]);                   // dislay pskiva
  58:clock.c       ****     return;
  59:clock.c       ****   }
  60:clock.c       ****   // otherwise..pskiva off
  61:clock.c       ****   LCD_ShowStr(10, 50, "OFF", GREEN, OPAQUE);
  62:clock.c       ****   displayClock(hour, min);
  63:clock.c       **** }
 297              		.loc 1 63 1
 298 003a 2244     		lw	s0,8(sp)
 299              		.cfi_remember_state
 300              		.cfi_restore 8
 301 003c B240     		lw	ra,12(sp)
 302              		.cfi_restore 1
 303 003e 9244     		lw	s1,4(sp)
 304              		.cfi_restore 9
 305 0040 4101     		addi	sp,sp,16
 306              	.LCFI5:
 307              		.cfi_def_cfa_offset 0
  62:clock.c       **** }
 308              		.loc 1 62 3
 309 0042 17030000 		tail	displayClock
 309      67000300 
 310              	.LVL20:
 311              	.L21:
 312              	.LCFI6:
 313              		.cfi_restore_state
  55:clock.c       ****     }
 314              		.loc 1 55 7 is_stmt 1
GAS LISTING C:\Users\Karzan\AppData\Local\Temp\ccea949f.s 			page 8


 315 004a F945     		li	a1,30
 316              	.L24:
  62:clock.c       **** }
 317              		.loc 1 62 3 is_stmt 0
 318 004c 2285     		mv	a0,s0
 319 004e F5B7     		j	.L23
 320              	.LVL21:
 321              	.L20:
  61:clock.c       ****   displayClock(hour, min);
 322              		.loc 1 61 3 is_stmt 1
 323 0050 37060000 		lui	a2,%hi(.LC2)
 324              	.LVL22:
 325 0054 93052003 		li	a1,50
 326              	.LVL23:
 327 0058 13060600 		addi	a2,a2,%lo(.LC2)
 328 005c 2945     		li	a0,10
 329              	.LVL24:
 330 005e 97000000 		call	LCD_ShowStr
 330      E7800000 
 331              	.LVL25:
  62:clock.c       **** }
 332              		.loc 1 62 3
 333 0066 A685     		mv	a1,s1
 334 0068 D5B7     		j	.L24
 335              		.cfi_endproc
 336              	.LFE10:
 338              		.section	.rodata.displayClock.str1.4,"aMS",@progbits,1
 339              		.align	2
 340              	.LC0:
 341 0000 434C4F43 		.string	"CLOCK: %02d:%02d"
 341      4B3A2025 
 341      3032643A 
 341      25303264 
 341      00
 342              		.section	.rodata.pskiva.str1.4,"aMS",@progbits,1
 343              		.align	2
 344              	.LC1:
 345 0000 4F4E2000 		.string	"ON "
 346              	.LC2:
 347 0004 4F464600 		.string	"OFF"
 348              		.text
 349              	.Letext0:
 350              		.file 2 "c:\\users\\karzan\\downloads\\toolchain-gd32v-v202-win\\toolchain-gd32v-v202-win\\compile
 351              		.file 3 "c:\\users\\karzan\\downloads\\toolchain-gd32v-v202-win\\toolchain-gd32v-v202-win\\compile
 352              		.file 4 "c:\\users\\karzan\\downloads\\toolchain-gd32v-v202-win\\toolchain-gd32v-v202-win\\compile
 353              		.file 5 "c:\\users\\karzan\\downloads\\toolchain-gd32v-v202-win\\toolchain-gd32v-v202-win\\compile
 354              		.file 6 "c:\\users\\karzan\\downloads\\toolchain-gd32v-v202-win\\toolchain-gd32v-v202-win\\compile
 355              		.file 7 "c:\\users\\karzan\\downloads\\toolchain-gd32v-v202-win\\toolchain-gd32v-v202-win\\compile
 356              		.file 8 "c:\\users\\karzan\\downloads\\toolchain-gd32v-v202-win\\toolchain-gd32v-v202-win\\compile
 357              		.file 9 "./../../firmware/GD32VF103_standard_peripheral/system_gd32vf103.h"
 358              		.file 10 "lcd.h"
 359              		.file 11 "c:\\users\\karzan\\downloads\\toolchain-gd32v-v202-win\\toolchain-gd32v-v202-win\\compil
GAS LISTING C:\Users\Karzan\AppData\Local\Temp\ccea949f.s 			page 9

