GAS LISTING C:\Users\Karzan\AppData\Local\Temp\ccOINQgD.s 			page 1


   1              		.file	"gd32vf103_bkp.c"
   2              		.option nopic
   3              		.attribute arch, "rv32i2p0_m2p0_a2p0_c2p0"
   4              		.attribute unaligned_access, 0
   5              		.attribute stack_align, 16
   6              		.text
   7              	.Ltext0:
   8              		.cfi_sections	.debug_frame
   9              		.section	.text.bkp_deinit,"ax",@progbits
  10              		.align	1
  11              		.globl	bkp_deinit
  13              	bkp_deinit:
  14              	.LFB2:
  15              		.file 1 "./../../firmware/GD32VF103_standard_peripheral/Source/gd32vf103_bkp.c"
   1:./../../firmware/GD32VF103_standard_peripheral/Source/gd32vf103_bkp.c **** /*!
   2:./../../firmware/GD32VF103_standard_peripheral/Source/gd32vf103_bkp.c ****     \file    gd32vf103_bkp.c
   3:./../../firmware/GD32VF103_standard_peripheral/Source/gd32vf103_bkp.c ****     \brief   BKP driver
   4:./../../firmware/GD32VF103_standard_peripheral/Source/gd32vf103_bkp.c **** 
   5:./../../firmware/GD32VF103_standard_peripheral/Source/gd32vf103_bkp.c ****     \version 2019-06-05, V1.0.0, firmware for GD32VF103
   6:./../../firmware/GD32VF103_standard_peripheral/Source/gd32vf103_bkp.c ****     \version 2020-08-04, V1.1.0, firmware for GD32VF103
   7:./../../firmware/GD32VF103_standard_peripheral/Source/gd32vf103_bkp.c **** */
   8:./../../firmware/GD32VF103_standard_peripheral/Source/gd32vf103_bkp.c **** 
   9:./../../firmware/GD32VF103_standard_peripheral/Source/gd32vf103_bkp.c **** /*
  10:./../../firmware/GD32VF103_standard_peripheral/Source/gd32vf103_bkp.c ****     Copyright (c) 2020, GigaDevice Semiconductor Inc.
  11:./../../firmware/GD32VF103_standard_peripheral/Source/gd32vf103_bkp.c **** 
  12:./../../firmware/GD32VF103_standard_peripheral/Source/gd32vf103_bkp.c ****     Redistribution and use in source and binary forms, with or without modification, 
  13:./../../firmware/GD32VF103_standard_peripheral/Source/gd32vf103_bkp.c **** are permitted provided that the following conditions are met:
  14:./../../firmware/GD32VF103_standard_peripheral/Source/gd32vf103_bkp.c **** 
  15:./../../firmware/GD32VF103_standard_peripheral/Source/gd32vf103_bkp.c ****     1. Redistributions of source code must retain the above copyright notice, this 
  16:./../../firmware/GD32VF103_standard_peripheral/Source/gd32vf103_bkp.c ****        list of conditions and the following disclaimer.
  17:./../../firmware/GD32VF103_standard_peripheral/Source/gd32vf103_bkp.c ****     2. Redistributions in binary form must reproduce the above copyright notice, 
  18:./../../firmware/GD32VF103_standard_peripheral/Source/gd32vf103_bkp.c ****        this list of conditions and the following disclaimer in the documentation 
  19:./../../firmware/GD32VF103_standard_peripheral/Source/gd32vf103_bkp.c ****        and/or other materials provided with the distribution.
  20:./../../firmware/GD32VF103_standard_peripheral/Source/gd32vf103_bkp.c ****     3. Neither the name of the copyright holder nor the names of its contributors 
  21:./../../firmware/GD32VF103_standard_peripheral/Source/gd32vf103_bkp.c ****        may be used to endorse or promote products derived from this software without 
  22:./../../firmware/GD32VF103_standard_peripheral/Source/gd32vf103_bkp.c ****        specific prior written permission.
  23:./../../firmware/GD32VF103_standard_peripheral/Source/gd32vf103_bkp.c **** 
  24:./../../firmware/GD32VF103_standard_peripheral/Source/gd32vf103_bkp.c ****     THIS SOFTWARE IS PROVIDED BY THE COPYRIGHT HOLDERS AND CONTRIBUTORS "AS IS" 
  25:./../../firmware/GD32VF103_standard_peripheral/Source/gd32vf103_bkp.c **** AND ANY EXPRESS OR IMPLIED WARRANTIES, INCLUDING, BUT NOT LIMITED TO, THE IMPLIED 
  26:./../../firmware/GD32VF103_standard_peripheral/Source/gd32vf103_bkp.c **** WARRANTIES OF MERCHANTABILITY AND FITNESS FOR A PARTICULAR PURPOSE ARE DISCLAIMED. 
  27:./../../firmware/GD32VF103_standard_peripheral/Source/gd32vf103_bkp.c **** IN NO EVENT SHALL THE COPYRIGHT HOLDER OR CONTRIBUTORS BE LIABLE FOR ANY DIRECT, 
  28:./../../firmware/GD32VF103_standard_peripheral/Source/gd32vf103_bkp.c **** INDIRECT, INCIDENTAL, SPECIAL, EXEMPLARY, OR CONSEQUENTIAL DAMAGES (INCLUDING, BUT 
  29:./../../firmware/GD32VF103_standard_peripheral/Source/gd32vf103_bkp.c **** NOT LIMITED TO, PROCUREMENT OF SUBSTITUTE GOODS OR SERVICES; LOSS OF USE, DATA, OR 
  30:./../../firmware/GD32VF103_standard_peripheral/Source/gd32vf103_bkp.c **** PROFITS; OR BUSINESS INTERRUPTION) HOWEVER CAUSED AND ON ANY THEORY OF LIABILITY, 
  31:./../../firmware/GD32VF103_standard_peripheral/Source/gd32vf103_bkp.c **** WHETHER IN CONTRACT, STRICT LIABILITY, OR TORT (INCLUDING NEGLIGENCE OR OTHERWISE) 
  32:./../../firmware/GD32VF103_standard_peripheral/Source/gd32vf103_bkp.c **** ARISING IN ANY WAY OUT OF THE USE OF THIS SOFTWARE, EVEN IF ADVISED OF THE POSSIBILITY 
  33:./../../firmware/GD32VF103_standard_peripheral/Source/gd32vf103_bkp.c **** OF SUCH DAMAGE.
  34:./../../firmware/GD32VF103_standard_peripheral/Source/gd32vf103_bkp.c **** */
  35:./../../firmware/GD32VF103_standard_peripheral/Source/gd32vf103_bkp.c **** 
  36:./../../firmware/GD32VF103_standard_peripheral/Source/gd32vf103_bkp.c **** #include "gd32vf103_bkp.h"
  37:./../../firmware/GD32VF103_standard_peripheral/Source/gd32vf103_bkp.c **** 
  38:./../../firmware/GD32VF103_standard_peripheral/Source/gd32vf103_bkp.c **** /* BKP register bits offset */
  39:./../../firmware/GD32VF103_standard_peripheral/Source/gd32vf103_bkp.c **** #define BKP_TAMPER_BITS_OFFSET          ((uint32_t)8U)
  40:./../../firmware/GD32VF103_standard_peripheral/Source/gd32vf103_bkp.c **** 
  41:./../../firmware/GD32VF103_standard_peripheral/Source/gd32vf103_bkp.c **** /*!
  42:./../../firmware/GD32VF103_standard_peripheral/Source/gd32vf103_bkp.c ****     \brief      reset BKP registers
  43:./../../firmware/GD32VF103_standard_peripheral/Source/gd32vf103_bkp.c ****     \param[in]  none
GAS LISTING C:\Users\Karzan\AppData\Local\Temp\ccOINQgD.s 			page 2


  44:./../../firmware/GD32VF103_standard_peripheral/Source/gd32vf103_bkp.c ****     \param[out] none
  45:./../../firmware/GD32VF103_standard_peripheral/Source/gd32vf103_bkp.c ****     \retval     none
  46:./../../firmware/GD32VF103_standard_peripheral/Source/gd32vf103_bkp.c **** */
  47:./../../firmware/GD32VF103_standard_peripheral/Source/gd32vf103_bkp.c **** void bkp_deinit(void)
  48:./../../firmware/GD32VF103_standard_peripheral/Source/gd32vf103_bkp.c **** {
  16              		.loc 1 48 1
  17              		.cfi_startproc
  49:./../../firmware/GD32VF103_standard_peripheral/Source/gd32vf103_bkp.c ****     /* reset BKP domain register*/
  50:./../../firmware/GD32VF103_standard_peripheral/Source/gd32vf103_bkp.c ****     rcu_bkp_reset_enable();
  18              		.loc 1 50 5
  48:./../../firmware/GD32VF103_standard_peripheral/Source/gd32vf103_bkp.c ****     /* reset BKP domain register*/
  19              		.loc 1 48 1 is_stmt 0
  20 0000 4111     		addi	sp,sp,-16
  21              	.LCFI0:
  22              		.cfi_def_cfa_offset 16
  23 0002 06C6     		sw	ra,12(sp)
  24              		.cfi_offset 1, -4
  25              		.loc 1 50 5
  26 0004 97000000 		call	rcu_bkp_reset_enable
  26      E7800000 
  27              	.LVL0:
  51:./../../firmware/GD32VF103_standard_peripheral/Source/gd32vf103_bkp.c ****     rcu_bkp_reset_disable();
  28              		.loc 1 51 5 is_stmt 1
  52:./../../firmware/GD32VF103_standard_peripheral/Source/gd32vf103_bkp.c **** }
  29              		.loc 1 52 1 is_stmt 0
  30 000c B240     		lw	ra,12(sp)
  31              		.cfi_restore 1
  32 000e 4101     		addi	sp,sp,16
  33              	.LCFI1:
  34              		.cfi_def_cfa_offset 0
  51:./../../firmware/GD32VF103_standard_peripheral/Source/gd32vf103_bkp.c ****     rcu_bkp_reset_disable();
  35              		.loc 1 51 5
  36 0010 17030000 		tail	rcu_bkp_reset_disable
  36      67000300 
  37              	.LVL1:
  38              		.cfi_endproc
  39              	.LFE2:
  41              		.section	.text.bkp_data_write,"ax",@progbits
  42              		.align	1
  43              		.globl	bkp_data_write
  45              	bkp_data_write:
  46              	.LFB3:
  53:./../../firmware/GD32VF103_standard_peripheral/Source/gd32vf103_bkp.c **** 
  54:./../../firmware/GD32VF103_standard_peripheral/Source/gd32vf103_bkp.c **** /*!
  55:./../../firmware/GD32VF103_standard_peripheral/Source/gd32vf103_bkp.c ****     \brief      write BKP data register
  56:./../../firmware/GD32VF103_standard_peripheral/Source/gd32vf103_bkp.c ****     \param[in]  register_number: refer to bkp_data_register_enum
  57:./../../firmware/GD32VF103_standard_peripheral/Source/gd32vf103_bkp.c ****                 only one parameter can be selected which is shown as below:
  58:./../../firmware/GD32VF103_standard_peripheral/Source/gd32vf103_bkp.c ****       \arg        BKP_DATA_x(x = 0..41): bkp data register number x
  59:./../../firmware/GD32VF103_standard_peripheral/Source/gd32vf103_bkp.c ****     \param[in]  data: the data to be write in BKP data register
  60:./../../firmware/GD32VF103_standard_peripheral/Source/gd32vf103_bkp.c ****     \param[out] none
  61:./../../firmware/GD32VF103_standard_peripheral/Source/gd32vf103_bkp.c ****     \retval     none
  62:./../../firmware/GD32VF103_standard_peripheral/Source/gd32vf103_bkp.c **** */
  63:./../../firmware/GD32VF103_standard_peripheral/Source/gd32vf103_bkp.c **** void bkp_data_write(bkp_data_register_enum register_number, uint16_t data)
  64:./../../firmware/GD32VF103_standard_peripheral/Source/gd32vf103_bkp.c **** {
  47              		.loc 1 64 1 is_stmt 1
  48              		.cfi_startproc
  49              	.LVL2:
GAS LISTING C:\Users\Karzan\AppData\Local\Temp\ccOINQgD.s 			page 3


  65:./../../firmware/GD32VF103_standard_peripheral/Source/gd32vf103_bkp.c ****     if((register_number >= BKP_DATA_10) && (register_number <= BKP_DATA_41)){
  50              		.loc 1 65 5
  51              		.loc 1 65 41 is_stmt 0
  52 0000 130755FF 		addi	a4,a0,-11
  53              		.loc 1 65 7
  54 0004 FD47     		li	a5,31
  55 0006 63EBE700 		bgtu	a4,a5,.L4
  66:./../../firmware/GD32VF103_standard_peripheral/Source/gd32vf103_bkp.c ****         BKP_DATA10_41((uint32_t)register_number - 1U) = data;
  56              		.loc 1 66 9 is_stmt 1
  57 000a B7270010 		li	a5,268443648
  58 000e 938757B0 		addi	a5,a5,-1275
  59              	.L6:
  67:./../../firmware/GD32VF103_standard_peripheral/Source/gd32vf103_bkp.c ****     }else if((register_number >= BKP_DATA_0) && (register_number <= BKP_DATA_9)){
  68:./../../firmware/GD32VF103_standard_peripheral/Source/gd32vf103_bkp.c ****         BKP_DATA0_9((uint32_t)register_number - 1U) = data;
  60              		.loc 1 68 9 is_stmt 0
  61 0012 3E95     		add	a0,a0,a5
  62              	.LVL3:
  63 0014 0A05     		slli	a0,a0,2
  64              		.loc 1 68 53
  65 0016 2310B500 		sh	a1,0(a0)
  69:./../../firmware/GD32VF103_standard_peripheral/Source/gd32vf103_bkp.c ****     }else{
  70:./../../firmware/GD32VF103_standard_peripheral/Source/gd32vf103_bkp.c ****         /* illegal parameters */
  71:./../../firmware/GD32VF103_standard_peripheral/Source/gd32vf103_bkp.c ****     }
  66              		.loc 1 71 5 is_stmt 1
  67              	.L3:
  72:./../../firmware/GD32VF103_standard_peripheral/Source/gd32vf103_bkp.c **** }
  68              		.loc 1 72 1 is_stmt 0
  69 001a 8280     		ret
  70              	.LVL4:
  71              	.L4:
  67:./../../firmware/GD32VF103_standard_peripheral/Source/gd32vf103_bkp.c ****     }else if((register_number >= BKP_DATA_0) && (register_number <= BKP_DATA_9)){
  72              		.loc 1 67 11 is_stmt 1
  67:./../../firmware/GD32VF103_standard_peripheral/Source/gd32vf103_bkp.c ****     }else if((register_number >= BKP_DATA_0) && (register_number <= BKP_DATA_9)){
  73              		.loc 1 67 46 is_stmt 0
  74 001c 9307F5FF 		addi	a5,a0,-1
  67:./../../firmware/GD32VF103_standard_peripheral/Source/gd32vf103_bkp.c ****     }else if((register_number >= BKP_DATA_0) && (register_number <= BKP_DATA_9)){
  75              		.loc 1 67 13
  76 0020 2547     		li	a4,9
  77 0022 E36CF7FE 		bgtu	a5,a4,.L3
  68:./../../firmware/GD32VF103_standard_peripheral/Source/gd32vf103_bkp.c ****     }else{
  78              		.loc 1 68 9 is_stmt 1
  79 0026 B7270010 		li	a5,268443648
  80 002a 938707B0 		addi	a5,a5,-1280
  81 002e D5B7     		j	.L6
  82              		.cfi_endproc
  83              	.LFE3:
  85              		.section	.text.bkp_data_read,"ax",@progbits
  86              		.align	1
  87              		.globl	bkp_data_read
  89              	bkp_data_read:
  90              	.LFB4:
  73:./../../firmware/GD32VF103_standard_peripheral/Source/gd32vf103_bkp.c **** 
  74:./../../firmware/GD32VF103_standard_peripheral/Source/gd32vf103_bkp.c **** /*!
  75:./../../firmware/GD32VF103_standard_peripheral/Source/gd32vf103_bkp.c ****     \brief      read BKP data register
  76:./../../firmware/GD32VF103_standard_peripheral/Source/gd32vf103_bkp.c ****     \param[in]  register_number: refer to bkp_data_register_enum
  77:./../../firmware/GD32VF103_standard_peripheral/Source/gd32vf103_bkp.c ****                 only one parameter can be selected which is shown as below:
  78:./../../firmware/GD32VF103_standard_peripheral/Source/gd32vf103_bkp.c ****       \arg        BKP_DATA_x(x = 0..41): bkp data register number x
GAS LISTING C:\Users\Karzan\AppData\Local\Temp\ccOINQgD.s 			page 4


  79:./../../firmware/GD32VF103_standard_peripheral/Source/gd32vf103_bkp.c ****     \param[out] none
  80:./../../firmware/GD32VF103_standard_peripheral/Source/gd32vf103_bkp.c ****     \retval     data of BKP data register
  81:./../../firmware/GD32VF103_standard_peripheral/Source/gd32vf103_bkp.c **** */
  82:./../../firmware/GD32VF103_standard_peripheral/Source/gd32vf103_bkp.c **** uint16_t bkp_data_read(bkp_data_register_enum register_number)
  83:./../../firmware/GD32VF103_standard_peripheral/Source/gd32vf103_bkp.c **** {
  91              		.loc 1 83 1
  92              		.cfi_startproc
  93              	.LVL5:
  84:./../../firmware/GD32VF103_standard_peripheral/Source/gd32vf103_bkp.c ****     uint16_t data = 0U;
  94              		.loc 1 84 5
  85:./../../firmware/GD32VF103_standard_peripheral/Source/gd32vf103_bkp.c ****     
  86:./../../firmware/GD32VF103_standard_peripheral/Source/gd32vf103_bkp.c ****     /* get the data from the BKP data register */
  87:./../../firmware/GD32VF103_standard_peripheral/Source/gd32vf103_bkp.c ****     if((register_number >= BKP_DATA_10) && (register_number <= BKP_DATA_41)){
  95              		.loc 1 87 5
  96              		.loc 1 87 41 is_stmt 0
  97 0000 930655FF 		addi	a3,a0,-11
  98              		.loc 1 87 7
  99 0004 7D47     		li	a4,31
  83:./../../firmware/GD32VF103_standard_peripheral/Source/gd32vf103_bkp.c ****     uint16_t data = 0U;
 100              		.loc 1 83 1
 101 0006 AA87     		mv	a5,a0
 102              		.loc 1 87 7
 103 0008 636DD700 		bgtu	a3,a4,.L8
  88:./../../firmware/GD32VF103_standard_peripheral/Source/gd32vf103_bkp.c ****         data = BKP_DATA10_41((uint32_t)register_number - 1U);
 104              		.loc 1 88 9 is_stmt 1
 105              		.loc 1 88 16 is_stmt 0
 106 000c 37250010 		li	a0,268443648
 107              	.LVL6:
 108 0010 130555B0 		addi	a0,a0,-1275
 109              	.L11:
  89:./../../firmware/GD32VF103_standard_peripheral/Source/gd32vf103_bkp.c ****     }else if((register_number >= BKP_DATA_0) && (register_number <= BKP_DATA_9)){
  90:./../../firmware/GD32VF103_standard_peripheral/Source/gd32vf103_bkp.c ****         data = BKP_DATA0_9((uint32_t)register_number - 1U);
 110              		.loc 1 90 16
 111 0014 AA97     		add	a5,a5,a0
 112              	.LVL7:
 113 0016 8A07     		slli	a5,a5,2
 114              		.loc 1 90 14
 115 0018 03D50700 		lhu	a0,0(a5)
 116 001c 4205     		slli	a0,a0,16
 117 001e 4181     		srli	a0,a0,16
 118              	.LVL8:
 119              	.L9:
  91:./../../firmware/GD32VF103_standard_peripheral/Source/gd32vf103_bkp.c ****     }else{
  92:./../../firmware/GD32VF103_standard_peripheral/Source/gd32vf103_bkp.c ****         /* illegal parameters */
  93:./../../firmware/GD32VF103_standard_peripheral/Source/gd32vf103_bkp.c ****     }
 120              		.loc 1 93 5 is_stmt 1
  94:./../../firmware/GD32VF103_standard_peripheral/Source/gd32vf103_bkp.c ****     return data;
 121              		.loc 1 94 5
  95:./../../firmware/GD32VF103_standard_peripheral/Source/gd32vf103_bkp.c **** }
 122              		.loc 1 95 1 is_stmt 0
 123 0020 8280     		ret
 124              	.LVL9:
 125              	.L8:
  89:./../../firmware/GD32VF103_standard_peripheral/Source/gd32vf103_bkp.c ****         data = BKP_DATA0_9((uint32_t)register_number - 1U);
 126              		.loc 1 89 11 is_stmt 1
  89:./../../firmware/GD32VF103_standard_peripheral/Source/gd32vf103_bkp.c ****         data = BKP_DATA0_9((uint32_t)register_number - 1U);
 127              		.loc 1 89 46 is_stmt 0
GAS LISTING C:\Users\Karzan\AppData\Local\Temp\ccOINQgD.s 			page 5


 128 0022 1307F5FF 		addi	a4,a0,-1
  89:./../../firmware/GD32VF103_standard_peripheral/Source/gd32vf103_bkp.c ****         data = BKP_DATA0_9((uint32_t)register_number - 1U);
 129              		.loc 1 89 13
 130 0026 A546     		li	a3,9
  84:./../../firmware/GD32VF103_standard_peripheral/Source/gd32vf103_bkp.c ****     
 131              		.loc 1 84 14
 132 0028 0145     		li	a0,0
 133              	.LVL10:
  89:./../../firmware/GD32VF103_standard_peripheral/Source/gd32vf103_bkp.c ****         data = BKP_DATA0_9((uint32_t)register_number - 1U);
 134              		.loc 1 89 13
 135 002a E3EBE6FE 		bgtu	a4,a3,.L9
  90:./../../firmware/GD32VF103_standard_peripheral/Source/gd32vf103_bkp.c ****     }else{
 136              		.loc 1 90 9 is_stmt 1
  90:./../../firmware/GD32VF103_standard_peripheral/Source/gd32vf103_bkp.c ****     }else{
 137              		.loc 1 90 16 is_stmt 0
 138 002e 37250010 		li	a0,268443648
 139 0032 130505B0 		addi	a0,a0,-1280
 140 0036 F9BF     		j	.L11
 141              		.cfi_endproc
 142              	.LFE4:
 144              		.section	.text.bkp_rtc_calibration_output_enable,"ax",@progbits
 145              		.align	1
 146              		.globl	bkp_rtc_calibration_output_enable
 148              	bkp_rtc_calibration_output_enable:
 149              	.LFB5:
  96:./../../firmware/GD32VF103_standard_peripheral/Source/gd32vf103_bkp.c **** 
  97:./../../firmware/GD32VF103_standard_peripheral/Source/gd32vf103_bkp.c **** /*!
  98:./../../firmware/GD32VF103_standard_peripheral/Source/gd32vf103_bkp.c ****     \brief      enable RTC clock calibration output
  99:./../../firmware/GD32VF103_standard_peripheral/Source/gd32vf103_bkp.c ****     \param[in]  none
 100:./../../firmware/GD32VF103_standard_peripheral/Source/gd32vf103_bkp.c ****     \param[out] none
 101:./../../firmware/GD32VF103_standard_peripheral/Source/gd32vf103_bkp.c ****     \retval     none
 102:./../../firmware/GD32VF103_standard_peripheral/Source/gd32vf103_bkp.c **** */
 103:./../../firmware/GD32VF103_standard_peripheral/Source/gd32vf103_bkp.c **** void bkp_rtc_calibration_output_enable(void)
 104:./../../firmware/GD32VF103_standard_peripheral/Source/gd32vf103_bkp.c **** {
 150              		.loc 1 104 1 is_stmt 1
 151              		.cfi_startproc
 105:./../../firmware/GD32VF103_standard_peripheral/Source/gd32vf103_bkp.c ****     BKP_OCTL |= (uint16_t)BKP_OCTL_COEN;
 152              		.loc 1 105 5
 153              		.loc 1 105 14 is_stmt 0
 154 0000 37770040 		li	a4,1073770496
 155 0004 8357C7C2 		lhu	a5,-980(a4)
 156 0008 93E70708 		ori	a5,a5,128
 157 000c 2316F7C2 		sh	a5,-980(a4)
 106:./../../firmware/GD32VF103_standard_peripheral/Source/gd32vf103_bkp.c **** }
 158              		.loc 1 106 1
 159 0010 8280     		ret
 160              		.cfi_endproc
 161              	.LFE5:
 163              		.section	.text.bkp_rtc_calibration_output_disable,"ax",@progbits
 164              		.align	1
 165              		.globl	bkp_rtc_calibration_output_disable
 167              	bkp_rtc_calibration_output_disable:
 168              	.LFB6:
 107:./../../firmware/GD32VF103_standard_peripheral/Source/gd32vf103_bkp.c **** 
 108:./../../firmware/GD32VF103_standard_peripheral/Source/gd32vf103_bkp.c **** /*!
 109:./../../firmware/GD32VF103_standard_peripheral/Source/gd32vf103_bkp.c ****     \brief      disable RTC clock calibration output
 110:./../../firmware/GD32VF103_standard_peripheral/Source/gd32vf103_bkp.c ****     \param[in]  none
GAS LISTING C:\Users\Karzan\AppData\Local\Temp\ccOINQgD.s 			page 6


 111:./../../firmware/GD32VF103_standard_peripheral/Source/gd32vf103_bkp.c ****     \param[out] none
 112:./../../firmware/GD32VF103_standard_peripheral/Source/gd32vf103_bkp.c ****     \retval     none
 113:./../../firmware/GD32VF103_standard_peripheral/Source/gd32vf103_bkp.c **** */
 114:./../../firmware/GD32VF103_standard_peripheral/Source/gd32vf103_bkp.c **** void bkp_rtc_calibration_output_disable(void)
 115:./../../firmware/GD32VF103_standard_peripheral/Source/gd32vf103_bkp.c **** {
 169              		.loc 1 115 1 is_stmt 1
 170              		.cfi_startproc
 116:./../../firmware/GD32VF103_standard_peripheral/Source/gd32vf103_bkp.c ****     BKP_OCTL &= (uint16_t)~BKP_OCTL_COEN;
 171              		.loc 1 116 5
 172              		.loc 1 116 14 is_stmt 0
 173 0000 37770040 		li	a4,1073770496
 174 0004 8357C7C2 		lhu	a5,-980(a4)
 175 0008 C207     		slli	a5,a5,16
 176 000a C183     		srli	a5,a5,16
 177 000c 93F7F7F7 		andi	a5,a5,-129
 178 0010 C207     		slli	a5,a5,16
 179 0012 C183     		srli	a5,a5,16
 180 0014 2316F7C2 		sh	a5,-980(a4)
 117:./../../firmware/GD32VF103_standard_peripheral/Source/gd32vf103_bkp.c **** }
 181              		.loc 1 117 1
 182 0018 8280     		ret
 183              		.cfi_endproc
 184              	.LFE6:
 186              		.section	.text.bkp_rtc_signal_output_enable,"ax",@progbits
 187              		.align	1
 188              		.globl	bkp_rtc_signal_output_enable
 190              	bkp_rtc_signal_output_enable:
 191              	.LFB7:
 118:./../../firmware/GD32VF103_standard_peripheral/Source/gd32vf103_bkp.c **** 
 119:./../../firmware/GD32VF103_standard_peripheral/Source/gd32vf103_bkp.c **** /*!
 120:./../../firmware/GD32VF103_standard_peripheral/Source/gd32vf103_bkp.c ****     \brief      enable RTC alarm or second signal output
 121:./../../firmware/GD32VF103_standard_peripheral/Source/gd32vf103_bkp.c ****     \param[in]  none
 122:./../../firmware/GD32VF103_standard_peripheral/Source/gd32vf103_bkp.c ****     \param[out] none
 123:./../../firmware/GD32VF103_standard_peripheral/Source/gd32vf103_bkp.c ****     \retval     none
 124:./../../firmware/GD32VF103_standard_peripheral/Source/gd32vf103_bkp.c **** */
 125:./../../firmware/GD32VF103_standard_peripheral/Source/gd32vf103_bkp.c **** void bkp_rtc_signal_output_enable(void)
 126:./../../firmware/GD32VF103_standard_peripheral/Source/gd32vf103_bkp.c **** {
 192              		.loc 1 126 1 is_stmt 1
 193              		.cfi_startproc
 127:./../../firmware/GD32VF103_standard_peripheral/Source/gd32vf103_bkp.c ****     BKP_OCTL |= (uint16_t)BKP_OCTL_ASOEN;
 194              		.loc 1 127 5
 195              		.loc 1 127 14 is_stmt 0
 196 0000 37770040 		li	a4,1073770496
 197 0004 8357C7C2 		lhu	a5,-980(a4)
 198 0008 93E70710 		ori	a5,a5,256
 199 000c 2316F7C2 		sh	a5,-980(a4)
 128:./../../firmware/GD32VF103_standard_peripheral/Source/gd32vf103_bkp.c **** }
 200              		.loc 1 128 1
 201 0010 8280     		ret
 202              		.cfi_endproc
 203              	.LFE7:
 205              		.section	.text.bkp_rtc_signal_output_disable,"ax",@progbits
 206              		.align	1
 207              		.globl	bkp_rtc_signal_output_disable
 209              	bkp_rtc_signal_output_disable:
 210              	.LFB8:
 129:./../../firmware/GD32VF103_standard_peripheral/Source/gd32vf103_bkp.c **** 
GAS LISTING C:\Users\Karzan\AppData\Local\Temp\ccOINQgD.s 			page 7


 130:./../../firmware/GD32VF103_standard_peripheral/Source/gd32vf103_bkp.c **** /*!
 131:./../../firmware/GD32VF103_standard_peripheral/Source/gd32vf103_bkp.c ****     \brief      disable RTC alarm or second signal output
 132:./../../firmware/GD32VF103_standard_peripheral/Source/gd32vf103_bkp.c ****     \param[in]  none
 133:./../../firmware/GD32VF103_standard_peripheral/Source/gd32vf103_bkp.c ****     \param[out] none
 134:./../../firmware/GD32VF103_standard_peripheral/Source/gd32vf103_bkp.c ****     \retval     none
 135:./../../firmware/GD32VF103_standard_peripheral/Source/gd32vf103_bkp.c **** */
 136:./../../firmware/GD32VF103_standard_peripheral/Source/gd32vf103_bkp.c **** void bkp_rtc_signal_output_disable(void)
 137:./../../firmware/GD32VF103_standard_peripheral/Source/gd32vf103_bkp.c **** {
 211              		.loc 1 137 1 is_stmt 1
 212              		.cfi_startproc
 138:./../../firmware/GD32VF103_standard_peripheral/Source/gd32vf103_bkp.c ****     BKP_OCTL &= (uint16_t)~BKP_OCTL_ASOEN;
 213              		.loc 1 138 5
 214              		.loc 1 138 14 is_stmt 0
 215 0000 37770040 		li	a4,1073770496
 216 0004 8357C7C2 		lhu	a5,-980(a4)
 217 0008 C207     		slli	a5,a5,16
 218 000a C183     		srli	a5,a5,16
 219 000c 93F7F7EF 		andi	a5,a5,-257
 220 0010 C207     		slli	a5,a5,16
 221 0012 C183     		srli	a5,a5,16
 222 0014 2316F7C2 		sh	a5,-980(a4)
 139:./../../firmware/GD32VF103_standard_peripheral/Source/gd32vf103_bkp.c **** }
 223              		.loc 1 139 1
 224 0018 8280     		ret
 225              		.cfi_endproc
 226              	.LFE8:
 228              		.section	.text.bkp_rtc_output_select,"ax",@progbits
 229              		.align	1
 230              		.globl	bkp_rtc_output_select
 232              	bkp_rtc_output_select:
 233              	.LFB9:
 140:./../../firmware/GD32VF103_standard_peripheral/Source/gd32vf103_bkp.c **** 
 141:./../../firmware/GD32VF103_standard_peripheral/Source/gd32vf103_bkp.c **** /*!
 142:./../../firmware/GD32VF103_standard_peripheral/Source/gd32vf103_bkp.c ****     \brief      select RTC output
 143:./../../firmware/GD32VF103_standard_peripheral/Source/gd32vf103_bkp.c ****     \param[in]  outputsel: RTC output selection
 144:./../../firmware/GD32VF103_standard_peripheral/Source/gd32vf103_bkp.c ****                 only one parameter can be selected which is shown as below:
 145:./../../firmware/GD32VF103_standard_peripheral/Source/gd32vf103_bkp.c ****       \arg        RTC_OUTPUT_ALARM_PULSE: RTC alarm pulse is selected as the RTC output
 146:./../../firmware/GD32VF103_standard_peripheral/Source/gd32vf103_bkp.c ****       \arg        RTC_OUTPUT_SECOND_PULSE: RTC second pulse is selected as the RTC output
 147:./../../firmware/GD32VF103_standard_peripheral/Source/gd32vf103_bkp.c ****     \param[out] none
 148:./../../firmware/GD32VF103_standard_peripheral/Source/gd32vf103_bkp.c ****     \retval     none
 149:./../../firmware/GD32VF103_standard_peripheral/Source/gd32vf103_bkp.c **** */
 150:./../../firmware/GD32VF103_standard_peripheral/Source/gd32vf103_bkp.c **** void bkp_rtc_output_select(uint16_t outputsel)
 151:./../../firmware/GD32VF103_standard_peripheral/Source/gd32vf103_bkp.c **** {
 234              		.loc 1 151 1 is_stmt 1
 235              		.cfi_startproc
 236              	.LVL11:
 152:./../../firmware/GD32VF103_standard_peripheral/Source/gd32vf103_bkp.c ****     uint16_t ctl = 0U;
 237              		.loc 1 152 5
 153:./../../firmware/GD32VF103_standard_peripheral/Source/gd32vf103_bkp.c ****     
 154:./../../firmware/GD32VF103_standard_peripheral/Source/gd32vf103_bkp.c ****     /* configure BKP_OCTL_ROSEL with outputsel */
 155:./../../firmware/GD32VF103_standard_peripheral/Source/gd32vf103_bkp.c ****     ctl = BKP_OCTL;
 238              		.loc 1 155 5
 239              		.loc 1 155 9 is_stmt 0
 240 0000 37770040 		li	a4,1073770496
 241 0004 8357C7C2 		lhu	a5,-980(a4)
 242 0008 C207     		slli	a5,a5,16
 243 000a C183     		srli	a5,a5,16
GAS LISTING C:\Users\Karzan\AppData\Local\Temp\ccOINQgD.s 			page 8


 244              	.LVL12:
 156:./../../firmware/GD32VF103_standard_peripheral/Source/gd32vf103_bkp.c ****     ctl &= (uint16_t)~BKP_OCTL_ROSEL;
 245              		.loc 1 156 5 is_stmt 1
 246              		.loc 1 156 9 is_stmt 0
 247 000c 93F7F7DF 		andi	a5,a5,-513
 248              	.LVL13:
 157:./../../firmware/GD32VF103_standard_peripheral/Source/gd32vf103_bkp.c ****     ctl |= outputsel;
 249              		.loc 1 157 5 is_stmt 1
 250              		.loc 1 157 9 is_stmt 0
 251 0010 5D8D     		or	a0,a5,a0
 252              	.LVL14:
 158:./../../firmware/GD32VF103_standard_peripheral/Source/gd32vf103_bkp.c ****     BKP_OCTL = ctl;
 253              		.loc 1 158 5 is_stmt 1
 254              		.loc 1 158 14 is_stmt 0
 255 0012 2316A7C2 		sh	a0,-980(a4)
 159:./../../firmware/GD32VF103_standard_peripheral/Source/gd32vf103_bkp.c **** }
 256              		.loc 1 159 1
 257 0016 8280     		ret
 258              		.cfi_endproc
 259              	.LFE9:
 261              		.section	.text.bkp_rtc_calibration_value_set,"ax",@progbits
 262              		.align	1
 263              		.globl	bkp_rtc_calibration_value_set
 265              	bkp_rtc_calibration_value_set:
 266              	.LFB10:
 160:./../../firmware/GD32VF103_standard_peripheral/Source/gd32vf103_bkp.c **** 
 161:./../../firmware/GD32VF103_standard_peripheral/Source/gd32vf103_bkp.c **** /*!
 162:./../../firmware/GD32VF103_standard_peripheral/Source/gd32vf103_bkp.c ****     \brief      set RTC clock calibration value 
 163:./../../firmware/GD32VF103_standard_peripheral/Source/gd32vf103_bkp.c ****     \param[in]  value: RTC clock calibration value
 164:./../../firmware/GD32VF103_standard_peripheral/Source/gd32vf103_bkp.c ****       \arg        0x00 - 0x7F
 165:./../../firmware/GD32VF103_standard_peripheral/Source/gd32vf103_bkp.c ****     \param[out] none
 166:./../../firmware/GD32VF103_standard_peripheral/Source/gd32vf103_bkp.c ****     \retval     none
 167:./../../firmware/GD32VF103_standard_peripheral/Source/gd32vf103_bkp.c **** */
 168:./../../firmware/GD32VF103_standard_peripheral/Source/gd32vf103_bkp.c **** void bkp_rtc_calibration_value_set(uint8_t value)
 169:./../../firmware/GD32VF103_standard_peripheral/Source/gd32vf103_bkp.c **** {
 267              		.loc 1 169 1 is_stmt 1
 268              		.cfi_startproc
 269              	.LVL15:
 170:./../../firmware/GD32VF103_standard_peripheral/Source/gd32vf103_bkp.c ****     uint16_t ctl;
 270              		.loc 1 170 5
 171:./../../firmware/GD32VF103_standard_peripheral/Source/gd32vf103_bkp.c ****     
 172:./../../firmware/GD32VF103_standard_peripheral/Source/gd32vf103_bkp.c ****     /* configure BKP_OCTL_RCCV with value */
 173:./../../firmware/GD32VF103_standard_peripheral/Source/gd32vf103_bkp.c ****     ctl = BKP_OCTL;
 271              		.loc 1 173 5
 272              		.loc 1 173 9 is_stmt 0
 273 0000 37770040 		li	a4,1073770496
 274 0004 8357C7C2 		lhu	a5,-980(a4)
 174:./../../firmware/GD32VF103_standard_peripheral/Source/gd32vf103_bkp.c ****     ctl &= (uint16_t)~BKP_OCTL_RCCV;
 175:./../../firmware/GD32VF103_standard_peripheral/Source/gd32vf103_bkp.c ****     ctl |= (uint16_t)OCTL_RCCV(value);
 275              		.loc 1 175 12
 276 0008 1375F507 		andi	a0,a0,127
 277              	.LVL16:
 173:./../../firmware/GD32VF103_standard_peripheral/Source/gd32vf103_bkp.c ****     ctl &= (uint16_t)~BKP_OCTL_RCCV;
 278              		.loc 1 173 9
 279 000c C207     		slli	a5,a5,16
 280 000e C183     		srli	a5,a5,16
 281              	.LVL17:
GAS LISTING C:\Users\Karzan\AppData\Local\Temp\ccOINQgD.s 			page 9


 174:./../../firmware/GD32VF103_standard_peripheral/Source/gd32vf103_bkp.c ****     ctl &= (uint16_t)~BKP_OCTL_RCCV;
 282              		.loc 1 174 5 is_stmt 1
 283              		.loc 1 175 5
 174:./../../firmware/GD32VF103_standard_peripheral/Source/gd32vf103_bkp.c ****     ctl &= (uint16_t)~BKP_OCTL_RCCV;
 284              		.loc 1 174 9 is_stmt 0
 285 0010 93F707F8 		andi	a5,a5,-128
 286              	.LVL18:
 287              		.loc 1 175 9
 288 0014 C98F     		or	a5,a5,a0
 289              	.LVL19:
 176:./../../firmware/GD32VF103_standard_peripheral/Source/gd32vf103_bkp.c ****     BKP_OCTL = ctl;
 290              		.loc 1 176 5 is_stmt 1
 291              		.loc 1 176 14 is_stmt 0
 292 0016 2316F7C2 		sh	a5,-980(a4)
 177:./../../firmware/GD32VF103_standard_peripheral/Source/gd32vf103_bkp.c **** }
 293              		.loc 1 177 1
 294 001a 8280     		ret
 295              		.cfi_endproc
 296              	.LFE10:
 298              		.section	.text.bkp_tamper_detection_enable,"ax",@progbits
 299              		.align	1
 300              		.globl	bkp_tamper_detection_enable
 302              	bkp_tamper_detection_enable:
 303              	.LFB11:
 178:./../../firmware/GD32VF103_standard_peripheral/Source/gd32vf103_bkp.c **** 
 179:./../../firmware/GD32VF103_standard_peripheral/Source/gd32vf103_bkp.c **** /*!
 180:./../../firmware/GD32VF103_standard_peripheral/Source/gd32vf103_bkp.c ****     \brief      enable tamper detection
 181:./../../firmware/GD32VF103_standard_peripheral/Source/gd32vf103_bkp.c ****     \param[in]  none
 182:./../../firmware/GD32VF103_standard_peripheral/Source/gd32vf103_bkp.c ****     \param[out] none
 183:./../../firmware/GD32VF103_standard_peripheral/Source/gd32vf103_bkp.c ****     \retval     none
 184:./../../firmware/GD32VF103_standard_peripheral/Source/gd32vf103_bkp.c **** */
 185:./../../firmware/GD32VF103_standard_peripheral/Source/gd32vf103_bkp.c **** void bkp_tamper_detection_enable(void)
 186:./../../firmware/GD32VF103_standard_peripheral/Source/gd32vf103_bkp.c **** {
 304              		.loc 1 186 1 is_stmt 1
 305              		.cfi_startproc
 187:./../../firmware/GD32VF103_standard_peripheral/Source/gd32vf103_bkp.c ****     BKP_TPCTL |= (uint16_t)BKP_TPCTL_TPEN;
 306              		.loc 1 187 5
 307              		.loc 1 187 15 is_stmt 0
 308 0000 37770040 		li	a4,1073770496
 309 0004 835707C3 		lhu	a5,-976(a4)
 310 0008 93E71700 		ori	a5,a5,1
 311 000c 2318F7C2 		sh	a5,-976(a4)
 188:./../../firmware/GD32VF103_standard_peripheral/Source/gd32vf103_bkp.c **** }
 312              		.loc 1 188 1
 313 0010 8280     		ret
 314              		.cfi_endproc
 315              	.LFE11:
 317              		.section	.text.bkp_tamper_detection_disable,"ax",@progbits
 318              		.align	1
 319              		.globl	bkp_tamper_detection_disable
 321              	bkp_tamper_detection_disable:
 322              	.LFB12:
 189:./../../firmware/GD32VF103_standard_peripheral/Source/gd32vf103_bkp.c **** 
 190:./../../firmware/GD32VF103_standard_peripheral/Source/gd32vf103_bkp.c **** /*!
 191:./../../firmware/GD32VF103_standard_peripheral/Source/gd32vf103_bkp.c ****     \brief      disable tamper detection
 192:./../../firmware/GD32VF103_standard_peripheral/Source/gd32vf103_bkp.c ****     \param[in]  none
 193:./../../firmware/GD32VF103_standard_peripheral/Source/gd32vf103_bkp.c ****     \param[out] none
GAS LISTING C:\Users\Karzan\AppData\Local\Temp\ccOINQgD.s 			page 10


 194:./../../firmware/GD32VF103_standard_peripheral/Source/gd32vf103_bkp.c ****     \retval     none
 195:./../../firmware/GD32VF103_standard_peripheral/Source/gd32vf103_bkp.c **** */
 196:./../../firmware/GD32VF103_standard_peripheral/Source/gd32vf103_bkp.c **** void bkp_tamper_detection_disable(void)
 197:./../../firmware/GD32VF103_standard_peripheral/Source/gd32vf103_bkp.c **** {
 323              		.loc 1 197 1 is_stmt 1
 324              		.cfi_startproc
 198:./../../firmware/GD32VF103_standard_peripheral/Source/gd32vf103_bkp.c ****     BKP_TPCTL &= (uint16_t)~BKP_TPCTL_TPEN;
 325              		.loc 1 198 5
 326              		.loc 1 198 15 is_stmt 0
 327 0000 37770040 		li	a4,1073770496
 328 0004 835707C3 		lhu	a5,-976(a4)
 329 0008 C207     		slli	a5,a5,16
 330 000a C183     		srli	a5,a5,16
 331 000c F99B     		andi	a5,a5,-2
 332 000e C207     		slli	a5,a5,16
 333 0010 C183     		srli	a5,a5,16
 334 0012 2318F7C2 		sh	a5,-976(a4)
 199:./../../firmware/GD32VF103_standard_peripheral/Source/gd32vf103_bkp.c **** }
 335              		.loc 1 199 1
 336 0016 8280     		ret
 337              		.cfi_endproc
 338              	.LFE12:
 340              		.section	.text.bkp_tamper_active_level_set,"ax",@progbits
 341              		.align	1
 342              		.globl	bkp_tamper_active_level_set
 344              	bkp_tamper_active_level_set:
 345              	.LFB13:
 200:./../../firmware/GD32VF103_standard_peripheral/Source/gd32vf103_bkp.c **** 
 201:./../../firmware/GD32VF103_standard_peripheral/Source/gd32vf103_bkp.c **** /*!
 202:./../../firmware/GD32VF103_standard_peripheral/Source/gd32vf103_bkp.c ****     \brief      set tamper pin active level
 203:./../../firmware/GD32VF103_standard_peripheral/Source/gd32vf103_bkp.c ****     \param[in]  level: tamper active level
 204:./../../firmware/GD32VF103_standard_peripheral/Source/gd32vf103_bkp.c ****                 only one parameter can be selected which is shown as below:
 205:./../../firmware/GD32VF103_standard_peripheral/Source/gd32vf103_bkp.c ****       \arg        TAMPER_PIN_ACTIVE_HIGH: the tamper pin is active high
 206:./../../firmware/GD32VF103_standard_peripheral/Source/gd32vf103_bkp.c ****       \arg        TAMPER_PIN_ACTIVE_LOW: the tamper pin is active low
 207:./../../firmware/GD32VF103_standard_peripheral/Source/gd32vf103_bkp.c ****     \param[out] none
 208:./../../firmware/GD32VF103_standard_peripheral/Source/gd32vf103_bkp.c ****     \retval     none
 209:./../../firmware/GD32VF103_standard_peripheral/Source/gd32vf103_bkp.c **** */
 210:./../../firmware/GD32VF103_standard_peripheral/Source/gd32vf103_bkp.c **** void bkp_tamper_active_level_set(uint16_t level)
 211:./../../firmware/GD32VF103_standard_peripheral/Source/gd32vf103_bkp.c **** {
 346              		.loc 1 211 1 is_stmt 1
 347              		.cfi_startproc
 348              	.LVL20:
 212:./../../firmware/GD32VF103_standard_peripheral/Source/gd32vf103_bkp.c ****     uint16_t ctl = 0U;
 349              		.loc 1 212 5
 213:./../../firmware/GD32VF103_standard_peripheral/Source/gd32vf103_bkp.c ****     
 214:./../../firmware/GD32VF103_standard_peripheral/Source/gd32vf103_bkp.c ****     /* configure BKP_TPCTL_TPAL with level */
 215:./../../firmware/GD32VF103_standard_peripheral/Source/gd32vf103_bkp.c ****     ctl = BKP_TPCTL;
 350              		.loc 1 215 5
 351              		.loc 1 215 9 is_stmt 0
 352 0000 37770040 		li	a4,1073770496
 353 0004 835707C3 		lhu	a5,-976(a4)
 354 0008 C207     		slli	a5,a5,16
 355 000a C183     		srli	a5,a5,16
 356              	.LVL21:
 216:./../../firmware/GD32VF103_standard_peripheral/Source/gd32vf103_bkp.c ****     ctl &= (uint16_t)~BKP_TPCTL_TPAL;
 357              		.loc 1 216 5 is_stmt 1
 358              		.loc 1 216 9 is_stmt 0
GAS LISTING C:\Users\Karzan\AppData\Local\Temp\ccOINQgD.s 			page 11


 359 000c F59B     		andi	a5,a5,-3
 360              	.LVL22:
 217:./../../firmware/GD32VF103_standard_peripheral/Source/gd32vf103_bkp.c ****     ctl |= level;
 361              		.loc 1 217 5 is_stmt 1
 362              		.loc 1 217 9 is_stmt 0
 363 000e 5D8D     		or	a0,a5,a0
 364              	.LVL23:
 218:./../../firmware/GD32VF103_standard_peripheral/Source/gd32vf103_bkp.c ****     BKP_TPCTL = ctl;
 365              		.loc 1 218 5 is_stmt 1
 366              		.loc 1 218 15 is_stmt 0
 367 0010 2318A7C2 		sh	a0,-976(a4)
 219:./../../firmware/GD32VF103_standard_peripheral/Source/gd32vf103_bkp.c **** }
 368              		.loc 1 219 1
 369 0014 8280     		ret
 370              		.cfi_endproc
 371              	.LFE13:
 373              		.section	.text.bkp_interrupt_enable,"ax",@progbits
 374              		.align	1
 375              		.globl	bkp_interrupt_enable
 377              	bkp_interrupt_enable:
 378              	.LFB14:
 220:./../../firmware/GD32VF103_standard_peripheral/Source/gd32vf103_bkp.c **** 
 221:./../../firmware/GD32VF103_standard_peripheral/Source/gd32vf103_bkp.c **** /*!
 222:./../../firmware/GD32VF103_standard_peripheral/Source/gd32vf103_bkp.c ****     \brief      enable tamper interrupt
 223:./../../firmware/GD32VF103_standard_peripheral/Source/gd32vf103_bkp.c ****     \param[in]  none
 224:./../../firmware/GD32VF103_standard_peripheral/Source/gd32vf103_bkp.c ****     \param[out] none
 225:./../../firmware/GD32VF103_standard_peripheral/Source/gd32vf103_bkp.c ****     \retval     none
 226:./../../firmware/GD32VF103_standard_peripheral/Source/gd32vf103_bkp.c **** */
 227:./../../firmware/GD32VF103_standard_peripheral/Source/gd32vf103_bkp.c **** void bkp_interrupt_enable(void)
 228:./../../firmware/GD32VF103_standard_peripheral/Source/gd32vf103_bkp.c **** {
 379              		.loc 1 228 1 is_stmt 1
 380              		.cfi_startproc
 229:./../../firmware/GD32VF103_standard_peripheral/Source/gd32vf103_bkp.c ****     BKP_TPCS |= (uint16_t)BKP_TPCS_TPIE;
 381              		.loc 1 229 5
 382              		.loc 1 229 14 is_stmt 0
 383 0000 37770040 		li	a4,1073770496
 384 0004 835747C3 		lhu	a5,-972(a4)
 385 0008 93E74700 		ori	a5,a5,4
 386 000c 231AF7C2 		sh	a5,-972(a4)
 230:./../../firmware/GD32VF103_standard_peripheral/Source/gd32vf103_bkp.c **** }
 387              		.loc 1 230 1
 388 0010 8280     		ret
 389              		.cfi_endproc
 390              	.LFE14:
 392              		.section	.text.bkp_interrupt_disable,"ax",@progbits
 393              		.align	1
 394              		.globl	bkp_interrupt_disable
 396              	bkp_interrupt_disable:
 397              	.LFB15:
 231:./../../firmware/GD32VF103_standard_peripheral/Source/gd32vf103_bkp.c **** 
 232:./../../firmware/GD32VF103_standard_peripheral/Source/gd32vf103_bkp.c **** /*!
 233:./../../firmware/GD32VF103_standard_peripheral/Source/gd32vf103_bkp.c ****     \brief      disable tamper interrupt
 234:./../../firmware/GD32VF103_standard_peripheral/Source/gd32vf103_bkp.c ****     \param[in]  none
 235:./../../firmware/GD32VF103_standard_peripheral/Source/gd32vf103_bkp.c ****     \param[out] none
 236:./../../firmware/GD32VF103_standard_peripheral/Source/gd32vf103_bkp.c ****     \retval     none
 237:./../../firmware/GD32VF103_standard_peripheral/Source/gd32vf103_bkp.c **** */
 238:./../../firmware/GD32VF103_standard_peripheral/Source/gd32vf103_bkp.c **** void bkp_interrupt_disable(void)
GAS LISTING C:\Users\Karzan\AppData\Local\Temp\ccOINQgD.s 			page 12


 239:./../../firmware/GD32VF103_standard_peripheral/Source/gd32vf103_bkp.c **** {
 398              		.loc 1 239 1 is_stmt 1
 399              		.cfi_startproc
 240:./../../firmware/GD32VF103_standard_peripheral/Source/gd32vf103_bkp.c ****     BKP_TPCS &= (uint16_t)~BKP_TPCS_TPIE;
 400              		.loc 1 240 5
 401              		.loc 1 240 14 is_stmt 0
 402 0000 37770040 		li	a4,1073770496
 403 0004 835747C3 		lhu	a5,-972(a4)
 404 0008 C207     		slli	a5,a5,16
 405 000a C183     		srli	a5,a5,16
 406 000c ED9B     		andi	a5,a5,-5
 407 000e C207     		slli	a5,a5,16
 408 0010 C183     		srli	a5,a5,16
 409 0012 231AF7C2 		sh	a5,-972(a4)
 241:./../../firmware/GD32VF103_standard_peripheral/Source/gd32vf103_bkp.c **** }
 410              		.loc 1 241 1
 411 0016 8280     		ret
 412              		.cfi_endproc
 413              	.LFE15:
 415              		.section	.text.bkp_flag_get,"ax",@progbits
 416              		.align	1
 417              		.globl	bkp_flag_get
 419              	bkp_flag_get:
 420              	.LFB16:
 242:./../../firmware/GD32VF103_standard_peripheral/Source/gd32vf103_bkp.c **** 
 243:./../../firmware/GD32VF103_standard_peripheral/Source/gd32vf103_bkp.c **** /*!
 244:./../../firmware/GD32VF103_standard_peripheral/Source/gd32vf103_bkp.c ****     \brief      get tamper flag state
 245:./../../firmware/GD32VF103_standard_peripheral/Source/gd32vf103_bkp.c ****     \param[in]  none
 246:./../../firmware/GD32VF103_standard_peripheral/Source/gd32vf103_bkp.c ****     \param[out] none
 247:./../../firmware/GD32VF103_standard_peripheral/Source/gd32vf103_bkp.c ****     \retval     FlagStatus: SET or RESET
 248:./../../firmware/GD32VF103_standard_peripheral/Source/gd32vf103_bkp.c **** */
 249:./../../firmware/GD32VF103_standard_peripheral/Source/gd32vf103_bkp.c **** FlagStatus bkp_flag_get(void)
 250:./../../firmware/GD32VF103_standard_peripheral/Source/gd32vf103_bkp.c **** {
 421              		.loc 1 250 1 is_stmt 1
 422              		.cfi_startproc
 251:./../../firmware/GD32VF103_standard_peripheral/Source/gd32vf103_bkp.c ****     if(BKP_TPCS & BKP_FLAG_TAMPER){
 423              		.loc 1 251 5
 424              		.loc 1 251 8 is_stmt 0
 425 0000 B7770040 		li	a5,1073770496
 426 0004 03D547C3 		lhu	a0,-972(a5)
 427              		.loc 1 251 7
 428 0008 2181     		srli	a0,a0,8
 252:./../../firmware/GD32VF103_standard_peripheral/Source/gd32vf103_bkp.c ****         return SET;
 253:./../../firmware/GD32VF103_standard_peripheral/Source/gd32vf103_bkp.c ****     }else{
 254:./../../firmware/GD32VF103_standard_peripheral/Source/gd32vf103_bkp.c ****         return RESET;
 255:./../../firmware/GD32VF103_standard_peripheral/Source/gd32vf103_bkp.c ****     }
 256:./../../firmware/GD32VF103_standard_peripheral/Source/gd32vf103_bkp.c **** }
 429              		.loc 1 256 1
 430 000a 0589     		andi	a0,a0,1
 431 000c 8280     		ret
 432              		.cfi_endproc
 433              	.LFE16:
 435              		.section	.text.bkp_flag_clear,"ax",@progbits
 436              		.align	1
 437              		.globl	bkp_flag_clear
 439              	bkp_flag_clear:
 440              	.LFB17:
GAS LISTING C:\Users\Karzan\AppData\Local\Temp\ccOINQgD.s 			page 13


 257:./../../firmware/GD32VF103_standard_peripheral/Source/gd32vf103_bkp.c **** 
 258:./../../firmware/GD32VF103_standard_peripheral/Source/gd32vf103_bkp.c **** /*!
 259:./../../firmware/GD32VF103_standard_peripheral/Source/gd32vf103_bkp.c ****     \brief      clear tamper flag state
 260:./../../firmware/GD32VF103_standard_peripheral/Source/gd32vf103_bkp.c ****     \param[in]  none
 261:./../../firmware/GD32VF103_standard_peripheral/Source/gd32vf103_bkp.c ****     \param[out] none
 262:./../../firmware/GD32VF103_standard_peripheral/Source/gd32vf103_bkp.c ****     \retval     none
 263:./../../firmware/GD32VF103_standard_peripheral/Source/gd32vf103_bkp.c **** */
 264:./../../firmware/GD32VF103_standard_peripheral/Source/gd32vf103_bkp.c **** void bkp_flag_clear(void)
 265:./../../firmware/GD32VF103_standard_peripheral/Source/gd32vf103_bkp.c **** {
 441              		.loc 1 265 1 is_stmt 1
 442              		.cfi_startproc
 266:./../../firmware/GD32VF103_standard_peripheral/Source/gd32vf103_bkp.c ****     BKP_TPCS |= (uint16_t)(BKP_FLAG_TAMPER >> BKP_TAMPER_BITS_OFFSET);
 443              		.loc 1 266 5
 444              		.loc 1 266 14 is_stmt 0
 445 0000 37770040 		li	a4,1073770496
 446 0004 835747C3 		lhu	a5,-972(a4)
 447 0008 93E71700 		ori	a5,a5,1
 448 000c 231AF7C2 		sh	a5,-972(a4)
 267:./../../firmware/GD32VF103_standard_peripheral/Source/gd32vf103_bkp.c **** }
 449              		.loc 1 267 1
 450 0010 8280     		ret
 451              		.cfi_endproc
 452              	.LFE17:
 454              		.section	.text.bkp_interrupt_flag_get,"ax",@progbits
 455              		.align	1
 456              		.globl	bkp_interrupt_flag_get
 458              	bkp_interrupt_flag_get:
 459              	.LFB18:
 268:./../../firmware/GD32VF103_standard_peripheral/Source/gd32vf103_bkp.c **** 
 269:./../../firmware/GD32VF103_standard_peripheral/Source/gd32vf103_bkp.c **** /*!
 270:./../../firmware/GD32VF103_standard_peripheral/Source/gd32vf103_bkp.c ****     \brief      get tamper interrupt flag state
 271:./../../firmware/GD32VF103_standard_peripheral/Source/gd32vf103_bkp.c ****     \param[in]  none
 272:./../../firmware/GD32VF103_standard_peripheral/Source/gd32vf103_bkp.c ****     \param[out] none
 273:./../../firmware/GD32VF103_standard_peripheral/Source/gd32vf103_bkp.c ****     \retval     FlagStatus: SET or RESET
 274:./../../firmware/GD32VF103_standard_peripheral/Source/gd32vf103_bkp.c **** */
 275:./../../firmware/GD32VF103_standard_peripheral/Source/gd32vf103_bkp.c **** FlagStatus bkp_interrupt_flag_get(void)
 276:./../../firmware/GD32VF103_standard_peripheral/Source/gd32vf103_bkp.c **** {
 460              		.loc 1 276 1 is_stmt 1
 461              		.cfi_startproc
 277:./../../firmware/GD32VF103_standard_peripheral/Source/gd32vf103_bkp.c ****     if(BKP_TPCS & BKP_INT_FLAG_TAMPER){
 462              		.loc 1 277 5
 463              		.loc 1 277 8 is_stmt 0
 464 0000 B7770040 		li	a5,1073770496
 465 0004 03D547C3 		lhu	a0,-972(a5)
 466              		.loc 1 277 7
 467 0008 2581     		srli	a0,a0,9
 278:./../../firmware/GD32VF103_standard_peripheral/Source/gd32vf103_bkp.c ****         return SET;
 279:./../../firmware/GD32VF103_standard_peripheral/Source/gd32vf103_bkp.c ****     }else{
 280:./../../firmware/GD32VF103_standard_peripheral/Source/gd32vf103_bkp.c ****         return RESET;
 281:./../../firmware/GD32VF103_standard_peripheral/Source/gd32vf103_bkp.c ****     }
 282:./../../firmware/GD32VF103_standard_peripheral/Source/gd32vf103_bkp.c **** }
 468              		.loc 1 282 1
 469 000a 0589     		andi	a0,a0,1
 470 000c 8280     		ret
 471              		.cfi_endproc
 472              	.LFE18:
 474              		.section	.text.bkp_interrupt_flag_clear,"ax",@progbits
GAS LISTING C:\Users\Karzan\AppData\Local\Temp\ccOINQgD.s 			page 14


 475              		.align	1
 476              		.globl	bkp_interrupt_flag_clear
 478              	bkp_interrupt_flag_clear:
 479              	.LFB19:
 283:./../../firmware/GD32VF103_standard_peripheral/Source/gd32vf103_bkp.c **** 
 284:./../../firmware/GD32VF103_standard_peripheral/Source/gd32vf103_bkp.c **** /*!
 285:./../../firmware/GD32VF103_standard_peripheral/Source/gd32vf103_bkp.c ****     \brief      clear tamper interrupt flag state
 286:./../../firmware/GD32VF103_standard_peripheral/Source/gd32vf103_bkp.c ****     \param[in]  none
 287:./../../firmware/GD32VF103_standard_peripheral/Source/gd32vf103_bkp.c ****     \param[out] none
 288:./../../firmware/GD32VF103_standard_peripheral/Source/gd32vf103_bkp.c ****     \retval     none
 289:./../../firmware/GD32VF103_standard_peripheral/Source/gd32vf103_bkp.c **** */
 290:./../../firmware/GD32VF103_standard_peripheral/Source/gd32vf103_bkp.c **** void bkp_interrupt_flag_clear(void)
 291:./../../firmware/GD32VF103_standard_peripheral/Source/gd32vf103_bkp.c **** {
 480              		.loc 1 291 1 is_stmt 1
 481              		.cfi_startproc
 292:./../../firmware/GD32VF103_standard_peripheral/Source/gd32vf103_bkp.c ****     BKP_TPCS |= (uint16_t)(BKP_INT_FLAG_TAMPER >> BKP_TAMPER_BITS_OFFSET);
 482              		.loc 1 292 5
 483              		.loc 1 292 14 is_stmt 0
 484 0000 37770040 		li	a4,1073770496
 485 0004 835747C3 		lhu	a5,-972(a4)
 486 0008 93E72700 		ori	a5,a5,2
 487 000c 231AF7C2 		sh	a5,-972(a4)
 293:./../../firmware/GD32VF103_standard_peripheral/Source/gd32vf103_bkp.c **** }
 488              		.loc 1 293 1
 489 0010 8280     		ret
 490              		.cfi_endproc
 491              	.LFE19:
 493              		.text
 494              	.Letext0:
 495              		.file 2 "c:\\users\\karzan\\downloads\\toolchain-gd32v-v202-win\\toolchain-gd32v-v202-win\\compile
 496              		.file 3 "c:\\users\\karzan\\downloads\\toolchain-gd32v-v202-win\\toolchain-gd32v-v202-win\\compile
 497              		.file 4 "./../../firmware/GD32VF103_standard_peripheral/gd32vf103.h"
 498              		.file 5 "./../../firmware/GD32VF103_standard_peripheral/Include/gd32vf103_bkp.h"
 499              		.file 6 "./../../firmware/GD32VF103_standard_peripheral/Include/gd32vf103_rcu.h"
 500              		.file 7 "./../../firmware/GD32VF103_standard_peripheral/system_gd32vf103.h"
GAS LISTING C:\Users\Karzan\AppData\Local\Temp\ccOINQgD.s 			page 15


DEFINED SYMBOLS
                            *ABS*:0000000000000000 gd32vf103_bkp.c
C:\Users\Karzan\AppData\Local\Temp\ccOINQgD.s:13     .text.bkp_deinit:0000000000000000 bkp_deinit
C:\Users\Karzan\AppData\Local\Temp\ccOINQgD.s:17     .text.bkp_deinit:0000000000000000 .L0 
C:\Users\Karzan\AppData\Local\Temp\ccOINQgD.s:18     .text.bkp_deinit:0000000000000000 .L0 
C:\Users\Karzan\AppData\Local\Temp\ccOINQgD.s:19     .text.bkp_deinit:0000000000000000 .L0 
C:\Users\Karzan\AppData\Local\Temp\ccOINQgD.s:20     .text.bkp_deinit:0000000000000000 .L0 
C:\Users\Karzan\AppData\Local\Temp\ccOINQgD.s:22     .text.bkp_deinit:0000000000000002 .L0 
C:\Users\Karzan\AppData\Local\Temp\ccOINQgD.s:24     .text.bkp_deinit:0000000000000004 .L0 
C:\Users\Karzan\AppData\Local\Temp\ccOINQgD.s:26     .text.bkp_deinit:0000000000000004 .L0 
C:\Users\Karzan\AppData\Local\Temp\ccOINQgD.s:29     .text.bkp_deinit:000000000000000c .L0 
C:\Users\Karzan\AppData\Local\Temp\ccOINQgD.s:30     .text.bkp_deinit:000000000000000c .L0 
C:\Users\Karzan\AppData\Local\Temp\ccOINQgD.s:31     .text.bkp_deinit:000000000000000e .L0 
C:\Users\Karzan\AppData\Local\Temp\ccOINQgD.s:34     .text.bkp_deinit:0000000000000010 .L0 
C:\Users\Karzan\AppData\Local\Temp\ccOINQgD.s:36     .text.bkp_deinit:0000000000000010 .L0 
C:\Users\Karzan\AppData\Local\Temp\ccOINQgD.s:38     .text.bkp_deinit:0000000000000018 .L0 
C:\Users\Karzan\AppData\Local\Temp\ccOINQgD.s:45     .text.bkp_data_write:0000000000000000 bkp_data_write
C:\Users\Karzan\AppData\Local\Temp\ccOINQgD.s:48     .text.bkp_data_write:0000000000000000 .L0 
C:\Users\Karzan\AppData\Local\Temp\ccOINQgD.s:50     .text.bkp_data_write:0000000000000000 .L0 
C:\Users\Karzan\AppData\Local\Temp\ccOINQgD.s:51     .text.bkp_data_write:0000000000000000 .L0 
C:\Users\Karzan\AppData\Local\Temp\ccOINQgD.s:52     .text.bkp_data_write:0000000000000000 .L0 
C:\Users\Karzan\AppData\Local\Temp\ccOINQgD.s:54     .text.bkp_data_write:0000000000000004 .L0 
C:\Users\Karzan\AppData\Local\Temp\ccOINQgD.s:57     .text.bkp_data_write:000000000000000a .L0 
C:\Users\Karzan\AppData\Local\Temp\ccOINQgD.s:61     .text.bkp_data_write:0000000000000012 .L0 
C:\Users\Karzan\AppData\Local\Temp\ccOINQgD.s:65     .text.bkp_data_write:0000000000000016 .L0 
C:\Users\Karzan\AppData\Local\Temp\ccOINQgD.s:68     .text.bkp_data_write:000000000000001a .L0 
C:\Users\Karzan\AppData\Local\Temp\ccOINQgD.s:69     .text.bkp_data_write:000000000000001a .L0 
C:\Users\Karzan\AppData\Local\Temp\ccOINQgD.s:73     .text.bkp_data_write:000000000000001c .L0 
C:\Users\Karzan\AppData\Local\Temp\ccOINQgD.s:74     .text.bkp_data_write:000000000000001c .L0 
C:\Users\Karzan\AppData\Local\Temp\ccOINQgD.s:76     .text.bkp_data_write:0000000000000020 .L0 
C:\Users\Karzan\AppData\Local\Temp\ccOINQgD.s:79     .text.bkp_data_write:0000000000000026 .L0 
C:\Users\Karzan\AppData\Local\Temp\ccOINQgD.s:82     .text.bkp_data_write:0000000000000030 .L0 
C:\Users\Karzan\AppData\Local\Temp\ccOINQgD.s:89     .text.bkp_data_read:0000000000000000 bkp_data_read
C:\Users\Karzan\AppData\Local\Temp\ccOINQgD.s:92     .text.bkp_data_read:0000000000000000 .L0 
C:\Users\Karzan\AppData\Local\Temp\ccOINQgD.s:94     .text.bkp_data_read:0000000000000000 .L0 
C:\Users\Karzan\AppData\Local\Temp\ccOINQgD.s:95     .text.bkp_data_read:0000000000000000 .L0 
C:\Users\Karzan\AppData\Local\Temp\ccOINQgD.s:96     .text.bkp_data_read:0000000000000000 .L0 
C:\Users\Karzan\AppData\Local\Temp\ccOINQgD.s:97     .text.bkp_data_read:0000000000000000 .L0 
C:\Users\Karzan\AppData\Local\Temp\ccOINQgD.s:99     .text.bkp_data_read:0000000000000004 .L0 
C:\Users\Karzan\AppData\Local\Temp\ccOINQgD.s:101    .text.bkp_data_read:0000000000000006 .L0 
C:\Users\Karzan\AppData\Local\Temp\ccOINQgD.s:103    .text.bkp_data_read:0000000000000008 .L0 
C:\Users\Karzan\AppData\Local\Temp\ccOINQgD.s:105    .text.bkp_data_read:000000000000000c .L0 
C:\Users\Karzan\AppData\Local\Temp\ccOINQgD.s:106    .text.bkp_data_read:000000000000000c .L0 
C:\Users\Karzan\AppData\Local\Temp\ccOINQgD.s:111    .text.bkp_data_read:0000000000000014 .L0 
C:\Users\Karzan\AppData\Local\Temp\ccOINQgD.s:115    .text.bkp_data_read:0000000000000018 .L0 
C:\Users\Karzan\AppData\Local\Temp\ccOINQgD.s:121    .text.bkp_data_read:0000000000000020 .L0 
C:\Users\Karzan\AppData\Local\Temp\ccOINQgD.s:122    .text.bkp_data_read:0000000000000020 .L0 
C:\Users\Karzan\AppData\Local\Temp\ccOINQgD.s:123    .text.bkp_data_read:0000000000000020 .L0 
C:\Users\Karzan\AppData\Local\Temp\ccOINQgD.s:127    .text.bkp_data_read:0000000000000022 .L0 
C:\Users\Karzan\AppData\Local\Temp\ccOINQgD.s:128    .text.bkp_data_read:0000000000000022 .L0 
C:\Users\Karzan\AppData\Local\Temp\ccOINQgD.s:130    .text.bkp_data_read:0000000000000026 .L0 
C:\Users\Karzan\AppData\Local\Temp\ccOINQgD.s:132    .text.bkp_data_read:0000000000000028 .L0 
C:\Users\Karzan\AppData\Local\Temp\ccOINQgD.s:135    .text.bkp_data_read:000000000000002a .L0 
C:\Users\Karzan\AppData\Local\Temp\ccOINQgD.s:137    .text.bkp_data_read:000000000000002e .L0 
C:\Users\Karzan\AppData\Local\Temp\ccOINQgD.s:138    .text.bkp_data_read:000000000000002e .L0 
C:\Users\Karzan\AppData\Local\Temp\ccOINQgD.s:141    .text.bkp_data_read:0000000000000038 .L0 
C:\Users\Karzan\AppData\Local\Temp\ccOINQgD.s:148    .text.bkp_rtc_calibration_output_enable:0000000000000000 bkp_rtc_calibration_output_enable
GAS LISTING C:\Users\Karzan\AppData\Local\Temp\ccOINQgD.s 			page 16


C:\Users\Karzan\AppData\Local\Temp\ccOINQgD.s:151    .text.bkp_rtc_calibration_output_enable:0000000000000000 .L0 
C:\Users\Karzan\AppData\Local\Temp\ccOINQgD.s:152    .text.bkp_rtc_calibration_output_enable:0000000000000000 .L0 
C:\Users\Karzan\AppData\Local\Temp\ccOINQgD.s:153    .text.bkp_rtc_calibration_output_enable:0000000000000000 .L0 
C:\Users\Karzan\AppData\Local\Temp\ccOINQgD.s:154    .text.bkp_rtc_calibration_output_enable:0000000000000000 .L0 
C:\Users\Karzan\AppData\Local\Temp\ccOINQgD.s:159    .text.bkp_rtc_calibration_output_enable:0000000000000010 .L0 
C:\Users\Karzan\AppData\Local\Temp\ccOINQgD.s:160    .text.bkp_rtc_calibration_output_enable:0000000000000012 .L0 
C:\Users\Karzan\AppData\Local\Temp\ccOINQgD.s:167    .text.bkp_rtc_calibration_output_disable:0000000000000000 bkp_rtc_calibration_output_disable
C:\Users\Karzan\AppData\Local\Temp\ccOINQgD.s:170    .text.bkp_rtc_calibration_output_disable:0000000000000000 .L0 
C:\Users\Karzan\AppData\Local\Temp\ccOINQgD.s:171    .text.bkp_rtc_calibration_output_disable:0000000000000000 .L0 
C:\Users\Karzan\AppData\Local\Temp\ccOINQgD.s:172    .text.bkp_rtc_calibration_output_disable:0000000000000000 .L0 
C:\Users\Karzan\AppData\Local\Temp\ccOINQgD.s:173    .text.bkp_rtc_calibration_output_disable:0000000000000000 .L0 
C:\Users\Karzan\AppData\Local\Temp\ccOINQgD.s:182    .text.bkp_rtc_calibration_output_disable:0000000000000018 .L0 
C:\Users\Karzan\AppData\Local\Temp\ccOINQgD.s:183    .text.bkp_rtc_calibration_output_disable:000000000000001a .L0 
C:\Users\Karzan\AppData\Local\Temp\ccOINQgD.s:190    .text.bkp_rtc_signal_output_enable:0000000000000000 bkp_rtc_signal_output_enable
C:\Users\Karzan\AppData\Local\Temp\ccOINQgD.s:193    .text.bkp_rtc_signal_output_enable:0000000000000000 .L0 
C:\Users\Karzan\AppData\Local\Temp\ccOINQgD.s:194    .text.bkp_rtc_signal_output_enable:0000000000000000 .L0 
C:\Users\Karzan\AppData\Local\Temp\ccOINQgD.s:195    .text.bkp_rtc_signal_output_enable:0000000000000000 .L0 
C:\Users\Karzan\AppData\Local\Temp\ccOINQgD.s:196    .text.bkp_rtc_signal_output_enable:0000000000000000 .L0 
C:\Users\Karzan\AppData\Local\Temp\ccOINQgD.s:201    .text.bkp_rtc_signal_output_enable:0000000000000010 .L0 
C:\Users\Karzan\AppData\Local\Temp\ccOINQgD.s:202    .text.bkp_rtc_signal_output_enable:0000000000000012 .L0 
C:\Users\Karzan\AppData\Local\Temp\ccOINQgD.s:209    .text.bkp_rtc_signal_output_disable:0000000000000000 bkp_rtc_signal_output_disable
C:\Users\Karzan\AppData\Local\Temp\ccOINQgD.s:212    .text.bkp_rtc_signal_output_disable:0000000000000000 .L0 
C:\Users\Karzan\AppData\Local\Temp\ccOINQgD.s:213    .text.bkp_rtc_signal_output_disable:0000000000000000 .L0 
C:\Users\Karzan\AppData\Local\Temp\ccOINQgD.s:214    .text.bkp_rtc_signal_output_disable:0000000000000000 .L0 
C:\Users\Karzan\AppData\Local\Temp\ccOINQgD.s:215    .text.bkp_rtc_signal_output_disable:0000000000000000 .L0 
C:\Users\Karzan\AppData\Local\Temp\ccOINQgD.s:224    .text.bkp_rtc_signal_output_disable:0000000000000018 .L0 
C:\Users\Karzan\AppData\Local\Temp\ccOINQgD.s:225    .text.bkp_rtc_signal_output_disable:000000000000001a .L0 
C:\Users\Karzan\AppData\Local\Temp\ccOINQgD.s:232    .text.bkp_rtc_output_select:0000000000000000 bkp_rtc_output_select
C:\Users\Karzan\AppData\Local\Temp\ccOINQgD.s:235    .text.bkp_rtc_output_select:0000000000000000 .L0 
C:\Users\Karzan\AppData\Local\Temp\ccOINQgD.s:237    .text.bkp_rtc_output_select:0000000000000000 .L0 
C:\Users\Karzan\AppData\Local\Temp\ccOINQgD.s:238    .text.bkp_rtc_output_select:0000000000000000 .L0 
C:\Users\Karzan\AppData\Local\Temp\ccOINQgD.s:239    .text.bkp_rtc_output_select:0000000000000000 .L0 
C:\Users\Karzan\AppData\Local\Temp\ccOINQgD.s:240    .text.bkp_rtc_output_select:0000000000000000 .L0 
C:\Users\Karzan\AppData\Local\Temp\ccOINQgD.s:246    .text.bkp_rtc_output_select:000000000000000c .L0 
C:\Users\Karzan\AppData\Local\Temp\ccOINQgD.s:247    .text.bkp_rtc_output_select:000000000000000c .L0 
C:\Users\Karzan\AppData\Local\Temp\ccOINQgD.s:250    .text.bkp_rtc_output_select:0000000000000010 .L0 
C:\Users\Karzan\AppData\Local\Temp\ccOINQgD.s:251    .text.bkp_rtc_output_select:0000000000000010 .L0 
C:\Users\Karzan\AppData\Local\Temp\ccOINQgD.s:254    .text.bkp_rtc_output_select:0000000000000012 .L0 
C:\Users\Karzan\AppData\Local\Temp\ccOINQgD.s:255    .text.bkp_rtc_output_select:0000000000000012 .L0 
C:\Users\Karzan\AppData\Local\Temp\ccOINQgD.s:257    .text.bkp_rtc_output_select:0000000000000016 .L0 
C:\Users\Karzan\AppData\Local\Temp\ccOINQgD.s:258    .text.bkp_rtc_output_select:0000000000000018 .L0 
C:\Users\Karzan\AppData\Local\Temp\ccOINQgD.s:265    .text.bkp_rtc_calibration_value_set:0000000000000000 bkp_rtc_calibration_value_set
C:\Users\Karzan\AppData\Local\Temp\ccOINQgD.s:268    .text.bkp_rtc_calibration_value_set:0000000000000000 .L0 
C:\Users\Karzan\AppData\Local\Temp\ccOINQgD.s:270    .text.bkp_rtc_calibration_value_set:0000000000000000 .L0 
C:\Users\Karzan\AppData\Local\Temp\ccOINQgD.s:271    .text.bkp_rtc_calibration_value_set:0000000000000000 .L0 
C:\Users\Karzan\AppData\Local\Temp\ccOINQgD.s:272    .text.bkp_rtc_calibration_value_set:0000000000000000 .L0 
C:\Users\Karzan\AppData\Local\Temp\ccOINQgD.s:273    .text.bkp_rtc_calibration_value_set:0000000000000000 .L0 
C:\Users\Karzan\AppData\Local\Temp\ccOINQgD.s:276    .text.bkp_rtc_calibration_value_set:0000000000000008 .L0 
C:\Users\Karzan\AppData\Local\Temp\ccOINQgD.s:279    .text.bkp_rtc_calibration_value_set:000000000000000c .L0 
C:\Users\Karzan\AppData\Local\Temp\ccOINQgD.s:283    .text.bkp_rtc_calibration_value_set:0000000000000010 .L0 
C:\Users\Karzan\AppData\Local\Temp\ccOINQgD.s:284    .text.bkp_rtc_calibration_value_set:0000000000000010 .L0 
C:\Users\Karzan\AppData\Local\Temp\ccOINQgD.s:285    .text.bkp_rtc_calibration_value_set:0000000000000010 .L0 
C:\Users\Karzan\AppData\Local\Temp\ccOINQgD.s:288    .text.bkp_rtc_calibration_value_set:0000000000000014 .L0 
C:\Users\Karzan\AppData\Local\Temp\ccOINQgD.s:291    .text.bkp_rtc_calibration_value_set:0000000000000016 .L0 
C:\Users\Karzan\AppData\Local\Temp\ccOINQgD.s:292    .text.bkp_rtc_calibration_value_set:0000000000000016 .L0 
C:\Users\Karzan\AppData\Local\Temp\ccOINQgD.s:294    .text.bkp_rtc_calibration_value_set:000000000000001a .L0 
C:\Users\Karzan\AppData\Local\Temp\ccOINQgD.s:295    .text.bkp_rtc_calibration_value_set:000000000000001c .L0 
GAS LISTING C:\Users\Karzan\AppData\Local\Temp\ccOINQgD.s 			page 17


C:\Users\Karzan\AppData\Local\Temp\ccOINQgD.s:302    .text.bkp_tamper_detection_enable:0000000000000000 bkp_tamper_detection_enable
C:\Users\Karzan\AppData\Local\Temp\ccOINQgD.s:305    .text.bkp_tamper_detection_enable:0000000000000000 .L0 
C:\Users\Karzan\AppData\Local\Temp\ccOINQgD.s:306    .text.bkp_tamper_detection_enable:0000000000000000 .L0 
C:\Users\Karzan\AppData\Local\Temp\ccOINQgD.s:307    .text.bkp_tamper_detection_enable:0000000000000000 .L0 
C:\Users\Karzan\AppData\Local\Temp\ccOINQgD.s:308    .text.bkp_tamper_detection_enable:0000000000000000 .L0 
C:\Users\Karzan\AppData\Local\Temp\ccOINQgD.s:313    .text.bkp_tamper_detection_enable:0000000000000010 .L0 
C:\Users\Karzan\AppData\Local\Temp\ccOINQgD.s:314    .text.bkp_tamper_detection_enable:0000000000000012 .L0 
C:\Users\Karzan\AppData\Local\Temp\ccOINQgD.s:321    .text.bkp_tamper_detection_disable:0000000000000000 bkp_tamper_detection_disable
C:\Users\Karzan\AppData\Local\Temp\ccOINQgD.s:324    .text.bkp_tamper_detection_disable:0000000000000000 .L0 
C:\Users\Karzan\AppData\Local\Temp\ccOINQgD.s:325    .text.bkp_tamper_detection_disable:0000000000000000 .L0 
C:\Users\Karzan\AppData\Local\Temp\ccOINQgD.s:326    .text.bkp_tamper_detection_disable:0000000000000000 .L0 
C:\Users\Karzan\AppData\Local\Temp\ccOINQgD.s:327    .text.bkp_tamper_detection_disable:0000000000000000 .L0 
C:\Users\Karzan\AppData\Local\Temp\ccOINQgD.s:336    .text.bkp_tamper_detection_disable:0000000000000016 .L0 
C:\Users\Karzan\AppData\Local\Temp\ccOINQgD.s:337    .text.bkp_tamper_detection_disable:0000000000000018 .L0 
C:\Users\Karzan\AppData\Local\Temp\ccOINQgD.s:344    .text.bkp_tamper_active_level_set:0000000000000000 bkp_tamper_active_level_set
C:\Users\Karzan\AppData\Local\Temp\ccOINQgD.s:347    .text.bkp_tamper_active_level_set:0000000000000000 .L0 
C:\Users\Karzan\AppData\Local\Temp\ccOINQgD.s:349    .text.bkp_tamper_active_level_set:0000000000000000 .L0 
C:\Users\Karzan\AppData\Local\Temp\ccOINQgD.s:350    .text.bkp_tamper_active_level_set:0000000000000000 .L0 
C:\Users\Karzan\AppData\Local\Temp\ccOINQgD.s:351    .text.bkp_tamper_active_level_set:0000000000000000 .L0 
C:\Users\Karzan\AppData\Local\Temp\ccOINQgD.s:352    .text.bkp_tamper_active_level_set:0000000000000000 .L0 
C:\Users\Karzan\AppData\Local\Temp\ccOINQgD.s:358    .text.bkp_tamper_active_level_set:000000000000000c .L0 
C:\Users\Karzan\AppData\Local\Temp\ccOINQgD.s:359    .text.bkp_tamper_active_level_set:000000000000000c .L0 
C:\Users\Karzan\AppData\Local\Temp\ccOINQgD.s:362    .text.bkp_tamper_active_level_set:000000000000000e .L0 
C:\Users\Karzan\AppData\Local\Temp\ccOINQgD.s:363    .text.bkp_tamper_active_level_set:000000000000000e .L0 
C:\Users\Karzan\AppData\Local\Temp\ccOINQgD.s:366    .text.bkp_tamper_active_level_set:0000000000000010 .L0 
C:\Users\Karzan\AppData\Local\Temp\ccOINQgD.s:367    .text.bkp_tamper_active_level_set:0000000000000010 .L0 
C:\Users\Karzan\AppData\Local\Temp\ccOINQgD.s:369    .text.bkp_tamper_active_level_set:0000000000000014 .L0 
C:\Users\Karzan\AppData\Local\Temp\ccOINQgD.s:370    .text.bkp_tamper_active_level_set:0000000000000016 .L0 
C:\Users\Karzan\AppData\Local\Temp\ccOINQgD.s:377    .text.bkp_interrupt_enable:0000000000000000 bkp_interrupt_enable
C:\Users\Karzan\AppData\Local\Temp\ccOINQgD.s:380    .text.bkp_interrupt_enable:0000000000000000 .L0 
C:\Users\Karzan\AppData\Local\Temp\ccOINQgD.s:381    .text.bkp_interrupt_enable:0000000000000000 .L0 
C:\Users\Karzan\AppData\Local\Temp\ccOINQgD.s:382    .text.bkp_interrupt_enable:0000000000000000 .L0 
C:\Users\Karzan\AppData\Local\Temp\ccOINQgD.s:383    .text.bkp_interrupt_enable:0000000000000000 .L0 
C:\Users\Karzan\AppData\Local\Temp\ccOINQgD.s:388    .text.bkp_interrupt_enable:0000000000000010 .L0 
C:\Users\Karzan\AppData\Local\Temp\ccOINQgD.s:389    .text.bkp_interrupt_enable:0000000000000012 .L0 
C:\Users\Karzan\AppData\Local\Temp\ccOINQgD.s:396    .text.bkp_interrupt_disable:0000000000000000 bkp_interrupt_disable
C:\Users\Karzan\AppData\Local\Temp\ccOINQgD.s:399    .text.bkp_interrupt_disable:0000000000000000 .L0 
C:\Users\Karzan\AppData\Local\Temp\ccOINQgD.s:400    .text.bkp_interrupt_disable:0000000000000000 .L0 
C:\Users\Karzan\AppData\Local\Temp\ccOINQgD.s:401    .text.bkp_interrupt_disable:0000000000000000 .L0 
C:\Users\Karzan\AppData\Local\Temp\ccOINQgD.s:402    .text.bkp_interrupt_disable:0000000000000000 .L0 
C:\Users\Karzan\AppData\Local\Temp\ccOINQgD.s:411    .text.bkp_interrupt_disable:0000000000000016 .L0 
C:\Users\Karzan\AppData\Local\Temp\ccOINQgD.s:412    .text.bkp_interrupt_disable:0000000000000018 .L0 
C:\Users\Karzan\AppData\Local\Temp\ccOINQgD.s:419    .text.bkp_flag_get:0000000000000000 bkp_flag_get
C:\Users\Karzan\AppData\Local\Temp\ccOINQgD.s:422    .text.bkp_flag_get:0000000000000000 .L0 
C:\Users\Karzan\AppData\Local\Temp\ccOINQgD.s:423    .text.bkp_flag_get:0000000000000000 .L0 
C:\Users\Karzan\AppData\Local\Temp\ccOINQgD.s:424    .text.bkp_flag_get:0000000000000000 .L0 
C:\Users\Karzan\AppData\Local\Temp\ccOINQgD.s:425    .text.bkp_flag_get:0000000000000000 .L0 
C:\Users\Karzan\AppData\Local\Temp\ccOINQgD.s:428    .text.bkp_flag_get:0000000000000008 .L0 
C:\Users\Karzan\AppData\Local\Temp\ccOINQgD.s:430    .text.bkp_flag_get:000000000000000a .L0 
C:\Users\Karzan\AppData\Local\Temp\ccOINQgD.s:432    .text.bkp_flag_get:000000000000000e .L0 
C:\Users\Karzan\AppData\Local\Temp\ccOINQgD.s:439    .text.bkp_flag_clear:0000000000000000 bkp_flag_clear
C:\Users\Karzan\AppData\Local\Temp\ccOINQgD.s:442    .text.bkp_flag_clear:0000000000000000 .L0 
C:\Users\Karzan\AppData\Local\Temp\ccOINQgD.s:443    .text.bkp_flag_clear:0000000000000000 .L0 
C:\Users\Karzan\AppData\Local\Temp\ccOINQgD.s:444    .text.bkp_flag_clear:0000000000000000 .L0 
C:\Users\Karzan\AppData\Local\Temp\ccOINQgD.s:445    .text.bkp_flag_clear:0000000000000000 .L0 
C:\Users\Karzan\AppData\Local\Temp\ccOINQgD.s:450    .text.bkp_flag_clear:0000000000000010 .L0 
C:\Users\Karzan\AppData\Local\Temp\ccOINQgD.s:451    .text.bkp_flag_clear:0000000000000012 .L0 
GAS LISTING C:\Users\Karzan\AppData\Local\Temp\ccOINQgD.s 			page 18


C:\Users\Karzan\AppData\Local\Temp\ccOINQgD.s:458    .text.bkp_interrupt_flag_get:0000000000000000 bkp_interrupt_flag_get
C:\Users\Karzan\AppData\Local\Temp\ccOINQgD.s:461    .text.bkp_interrupt_flag_get:0000000000000000 .L0 
C:\Users\Karzan\AppData\Local\Temp\ccOINQgD.s:462    .text.bkp_interrupt_flag_get:0000000000000000 .L0 
C:\Users\Karzan\AppData\Local\Temp\ccOINQgD.s:463    .text.bkp_interrupt_flag_get:0000000000000000 .L0 
C:\Users\Karzan\AppData\Local\Temp\ccOINQgD.s:464    .text.bkp_interrupt_flag_get:0000000000000000 .L0 
C:\Users\Karzan\AppData\Local\Temp\ccOINQgD.s:467    .text.bkp_interrupt_flag_get:0000000000000008 .L0 
C:\Users\Karzan\AppData\Local\Temp\ccOINQgD.s:469    .text.bkp_interrupt_flag_get:000000000000000a .L0 
C:\Users\Karzan\AppData\Local\Temp\ccOINQgD.s:471    .text.bkp_interrupt_flag_get:000000000000000e .L0 
C:\Users\Karzan\AppData\Local\Temp\ccOINQgD.s:478    .text.bkp_interrupt_flag_clear:0000000000000000 bkp_interrupt_flag_clear
C:\Users\Karzan\AppData\Local\Temp\ccOINQgD.s:481    .text.bkp_interrupt_flag_clear:0000000000000000 .L0 
C:\Users\Karzan\AppData\Local\Temp\ccOINQgD.s:482    .text.bkp_interrupt_flag_clear:0000000000000000 .L0 
C:\Users\Karzan\AppData\Local\Temp\ccOINQgD.s:483    .text.bkp_interrupt_flag_clear:0000000000000000 .L0 
C:\Users\Karzan\AppData\Local\Temp\ccOINQgD.s:484    .text.bkp_interrupt_flag_clear:0000000000000000 .L0 
C:\Users\Karzan\AppData\Local\Temp\ccOINQgD.s:489    .text.bkp_interrupt_flag_clear:0000000000000010 .L0 
C:\Users\Karzan\AppData\Local\Temp\ccOINQgD.s:490    .text.bkp_interrupt_flag_clear:0000000000000012 .L0 
C:\Users\Karzan\AppData\Local\Temp\ccOINQgD.s:41     .text.bkp_deinit:0000000000000018 .L0 
C:\Users\Karzan\AppData\Local\Temp\ccOINQgD.s:85     .text.bkp_data_write:0000000000000030 .L0 
C:\Users\Karzan\AppData\Local\Temp\ccOINQgD.s:144    .text.bkp_data_read:0000000000000038 .L0 
C:\Users\Karzan\AppData\Local\Temp\ccOINQgD.s:163    .text.bkp_rtc_calibration_output_enable:0000000000000012 .L0 
C:\Users\Karzan\AppData\Local\Temp\ccOINQgD.s:186    .text.bkp_rtc_calibration_output_disable:000000000000001a .L0 
C:\Users\Karzan\AppData\Local\Temp\ccOINQgD.s:205    .text.bkp_rtc_signal_output_enable:0000000000000012 .L0 
C:\Users\Karzan\AppData\Local\Temp\ccOINQgD.s:228    .text.bkp_rtc_signal_output_disable:000000000000001a .L0 
C:\Users\Karzan\AppData\Local\Temp\ccOINQgD.s:261    .text.bkp_rtc_output_select:0000000000000018 .L0 
C:\Users\Karzan\AppData\Local\Temp\ccOINQgD.s:298    .text.bkp_rtc_calibration_value_set:000000000000001c .L0 
C:\Users\Karzan\AppData\Local\Temp\ccOINQgD.s:317    .text.bkp_tamper_detection_enable:0000000000000012 .L0 
C:\Users\Karzan\AppData\Local\Temp\ccOINQgD.s:340    .text.bkp_tamper_detection_disable:0000000000000018 .L0 
C:\Users\Karzan\AppData\Local\Temp\ccOINQgD.s:373    .text.bkp_tamper_active_level_set:0000000000000016 .L0 
C:\Users\Karzan\AppData\Local\Temp\ccOINQgD.s:392    .text.bkp_interrupt_enable:0000000000000012 .L0 
C:\Users\Karzan\AppData\Local\Temp\ccOINQgD.s:415    .text.bkp_interrupt_disable:0000000000000018 .L0 
C:\Users\Karzan\AppData\Local\Temp\ccOINQgD.s:435    .text.bkp_flag_get:000000000000000e .L0 
C:\Users\Karzan\AppData\Local\Temp\ccOINQgD.s:454    .text.bkp_flag_clear:0000000000000012 .L0 
C:\Users\Karzan\AppData\Local\Temp\ccOINQgD.s:474    .text.bkp_interrupt_flag_get:000000000000000e .L0 
C:\Users\Karzan\AppData\Local\Temp\ccOINQgD.s:493    .text.bkp_interrupt_flag_clear:0000000000000012 .L0 
                     .debug_frame:0000000000000000 .L0 
C:\Users\Karzan\AppData\Local\Temp\ccOINQgD.s:71     .text.bkp_data_write:000000000000001c .L4
C:\Users\Karzan\AppData\Local\Temp\ccOINQgD.s:67     .text.bkp_data_write:000000000000001a .L3
C:\Users\Karzan\AppData\Local\Temp\ccOINQgD.s:59     .text.bkp_data_write:0000000000000012 .L6
C:\Users\Karzan\AppData\Local\Temp\ccOINQgD.s:125    .text.bkp_data_read:0000000000000022 .L8
C:\Users\Karzan\AppData\Local\Temp\ccOINQgD.s:119    .text.bkp_data_read:0000000000000020 .L9
C:\Users\Karzan\AppData\Local\Temp\ccOINQgD.s:109    .text.bkp_data_read:0000000000000014 .L11
C:\Users\Karzan\AppData\Local\Temp\ccOINQgD.s:1109   .debug_abbrev:0000000000000000 .Ldebug_abbrev0
C:\Users\Karzan\AppData\Local\Temp\ccOINQgD.s:1783   .debug_str:0000000000000032 .LASF85
C:\Users\Karzan\AppData\Local\Temp\ccOINQgD.s:1799   .debug_str:0000000000000125 .LASF86
C:\Users\Karzan\AppData\Local\Temp\ccOINQgD.s:1885   .debug_str:00000000000003dd .LASF87
C:\Users\Karzan\AppData\Local\Temp\ccOINQgD.s:1737   .debug_ranges:0000000000000000 .Ldebug_ranges0
C:\Users\Karzan\AppData\Local\Temp\ccOINQgD.s:1777   .debug_line:0000000000000000 .Ldebug_line0
C:\Users\Karzan\AppData\Local\Temp\ccOINQgD.s:1881   .debug_str:00000000000003c7 .LASF0
C:\Users\Karzan\AppData\Local\Temp\ccOINQgD.s:1785   .debug_str:00000000000000ba .LASF1
C:\Users\Karzan\AppData\Local\Temp\ccOINQgD.s:1839   .debug_str:0000000000000288 .LASF4
C:\Users\Karzan\AppData\Local\Temp\ccOINQgD.s:1853   .debug_str:000000000000030a .LASF2
C:\Users\Karzan\AppData\Local\Temp\ccOINQgD.s:1827   .debug_str:0000000000000211 .LASF3
C:\Users\Karzan\AppData\Local\Temp\ccOINQgD.s:1797   .debug_str:000000000000011a .LASF5
C:\Users\Karzan\AppData\Local\Temp\ccOINQgD.s:1907   .debug_str:00000000000004bc .LASF6
C:\Users\Karzan\AppData\Local\Temp\ccOINQgD.s:1833   .debug_str:0000000000000247 .LASF7
C:\Users\Karzan\AppData\Local\Temp\ccOINQgD.s:1927   .debug_str:0000000000000568 .LASF8
C:\Users\Karzan\AppData\Local\Temp\ccOINQgD.s:1921   .debug_str:000000000000053e .LASF9
C:\Users\Karzan\AppData\Local\Temp\ccOINQgD.s:1831   .debug_str:0000000000000239 .LASF10
GAS LISTING C:\Users\Karzan\AppData\Local\Temp\ccOINQgD.s 			page 19


C:\Users\Karzan\AppData\Local\Temp\ccOINQgD.s:1875   .debug_str:0000000000000390 .LASF11
C:\Users\Karzan\AppData\Local\Temp\ccOINQgD.s:1935   .debug_str:000000000000058e .LASF12
C:\Users\Karzan\AppData\Local\Temp\ccOINQgD.s:1883   .debug_str:00000000000003d4 .LASF13
C:\Users\Karzan\AppData\Local\Temp\ccOINQgD.s:1877   .debug_str:00000000000003a7 .LASF14
C:\Users\Karzan\AppData\Local\Temp\ccOINQgD.s:1913   .debug_str:00000000000004f1 .LASF88
C:\Users\Karzan\AppData\Local\Temp\ccOINQgD.s:1933   .debug_str:0000000000000588 .LASF15
C:\Users\Karzan\AppData\Local\Temp\ccOINQgD.s:1943   .debug_str:00000000000005c3 .LASF16
C:\Users\Karzan\AppData\Local\Temp\ccOINQgD.s:1849   .debug_str:00000000000002e1 .LASF17
C:\Users\Karzan\AppData\Local\Temp\ccOINQgD.s:1887   .debug_str:0000000000000443 .LASF18
C:\Users\Karzan\AppData\Local\Temp\ccOINQgD.s:1889   .debug_str:000000000000044e .LASF19
C:\Users\Karzan\AppData\Local\Temp\ccOINQgD.s:1891   .debug_str:0000000000000459 .LASF20
C:\Users\Karzan\AppData\Local\Temp\ccOINQgD.s:1893   .debug_str:0000000000000464 .LASF21
C:\Users\Karzan\AppData\Local\Temp\ccOINQgD.s:1895   .debug_str:000000000000046f .LASF22
C:\Users\Karzan\AppData\Local\Temp\ccOINQgD.s:1897   .debug_str:000000000000047a .LASF23
C:\Users\Karzan\AppData\Local\Temp\ccOINQgD.s:1823   .debug_str:00000000000001e9 .LASF24
C:\Users\Karzan\AppData\Local\Temp\ccOINQgD.s:1901   .debug_str:000000000000049b .LASF25
C:\Users\Karzan\AppData\Local\Temp\ccOINQgD.s:1903   .debug_str:00000000000004a6 .LASF26
C:\Users\Karzan\AppData\Local\Temp\ccOINQgD.s:1905   .debug_str:00000000000004b1 .LASF27
C:\Users\Karzan\AppData\Local\Temp\ccOINQgD.s:1939   .debug_str:00000000000005ab .LASF28
C:\Users\Karzan\AppData\Local\Temp\ccOINQgD.s:1941   .debug_str:00000000000005b7 .LASF29
C:\Users\Karzan\AppData\Local\Temp\ccOINQgD.s:1793   .debug_str:0000000000000104 .LASF30
C:\Users\Karzan\AppData\Local\Temp\ccOINQgD.s:1945   .debug_str:00000000000005ce .LASF31
C:\Users\Karzan\AppData\Local\Temp\ccOINQgD.s:1947   .debug_str:00000000000005da .LASF32
C:\Users\Karzan\AppData\Local\Temp\ccOINQgD.s:1949   .debug_str:00000000000005e6 .LASF33
C:\Users\Karzan\AppData\Local\Temp\ccOINQgD.s:1951   .debug_str:00000000000005f2 .LASF34
C:\Users\Karzan\AppData\Local\Temp\ccOINQgD.s:1953   .debug_str:00000000000005fe .LASF35
C:\Users\Karzan\AppData\Local\Temp\ccOINQgD.s:1955   .debug_str:000000000000060a .LASF36
C:\Users\Karzan\AppData\Local\Temp\ccOINQgD.s:1957   .debug_str:0000000000000616 .LASF37
C:\Users\Karzan\AppData\Local\Temp\ccOINQgD.s:1803   .debug_str:0000000000000171 .LASF38
C:\Users\Karzan\AppData\Local\Temp\ccOINQgD.s:1805   .debug_str:000000000000017d .LASF39
C:\Users\Karzan\AppData\Local\Temp\ccOINQgD.s:1807   .debug_str:0000000000000189 .LASF40
C:\Users\Karzan\AppData\Local\Temp\ccOINQgD.s:1809   .debug_str:0000000000000195 .LASF41
C:\Users\Karzan\AppData\Local\Temp\ccOINQgD.s:1811   .debug_str:00000000000001a1 .LASF42
C:\Users\Karzan\AppData\Local\Temp\ccOINQgD.s:1813   .debug_str:00000000000001ad .LASF43
C:\Users\Karzan\AppData\Local\Temp\ccOINQgD.s:1815   .debug_str:00000000000001b9 .LASF44
C:\Users\Karzan\AppData\Local\Temp\ccOINQgD.s:1817   .debug_str:00000000000001c5 .LASF45
C:\Users\Karzan\AppData\Local\Temp\ccOINQgD.s:1819   .debug_str:00000000000001d1 .LASF46
C:\Users\Karzan\AppData\Local\Temp\ccOINQgD.s:1821   .debug_str:00000000000001dd .LASF47
C:\Users\Karzan\AppData\Local\Temp\ccOINQgD.s:1855   .debug_str:0000000000000318 .LASF48
C:\Users\Karzan\AppData\Local\Temp\ccOINQgD.s:1857   .debug_str:0000000000000324 .LASF49
C:\Users\Karzan\AppData\Local\Temp\ccOINQgD.s:1859   .debug_str:0000000000000330 .LASF50
C:\Users\Karzan\AppData\Local\Temp\ccOINQgD.s:1861   .debug_str:000000000000033c .LASF51
C:\Users\Karzan\AppData\Local\Temp\ccOINQgD.s:1863   .debug_str:0000000000000348 .LASF52
C:\Users\Karzan\AppData\Local\Temp\ccOINQgD.s:1865   .debug_str:0000000000000354 .LASF53
C:\Users\Karzan\AppData\Local\Temp\ccOINQgD.s:1867   .debug_str:0000000000000360 .LASF54
C:\Users\Karzan\AppData\Local\Temp\ccOINQgD.s:1869   .debug_str:000000000000036c .LASF55
C:\Users\Karzan\AppData\Local\Temp\ccOINQgD.s:1871   .debug_str:0000000000000378 .LASF56
C:\Users\Karzan\AppData\Local\Temp\ccOINQgD.s:1873   .debug_str:0000000000000384 .LASF57
C:\Users\Karzan\AppData\Local\Temp\ccOINQgD.s:1923   .debug_str:0000000000000550 .LASF58
C:\Users\Karzan\AppData\Local\Temp\ccOINQgD.s:1925   .debug_str:000000000000055c .LASF59
C:\Users\Karzan\AppData\Local\Temp\ccOINQgD.s:1911   .debug_str:00000000000004da .LASF60
C:\Users\Karzan\AppData\Local\Temp\ccOINQgD.s:1789   .debug_str:00000000000000db .LASF61
C:\Users\Karzan\AppData\Local\Temp\ccOINQgD.s:479    .text.bkp_interrupt_flag_clear:0000000000000000 .LFB19
C:\Users\Karzan\AppData\Local\Temp\ccOINQgD.s:491    .text.bkp_interrupt_flag_clear:0000000000000012 .LFE19
C:\Users\Karzan\AppData\Local\Temp\ccOINQgD.s:1879   .debug_str:00000000000003b0 .LASF63
C:\Users\Karzan\AppData\Local\Temp\ccOINQgD.s:459    .text.bkp_interrupt_flag_get:0000000000000000 .LFB18
C:\Users\Karzan\AppData\Local\Temp\ccOINQgD.s:472    .text.bkp_interrupt_flag_get:000000000000000e .LFE18
GAS LISTING C:\Users\Karzan\AppData\Local\Temp\ccOINQgD.s 			page 20


C:\Users\Karzan\AppData\Local\Temp\ccOINQgD.s:1929   .debug_str:0000000000000573 .LASF62
C:\Users\Karzan\AppData\Local\Temp\ccOINQgD.s:440    .text.bkp_flag_clear:0000000000000000 .LFB17
C:\Users\Karzan\AppData\Local\Temp\ccOINQgD.s:452    .text.bkp_flag_clear:0000000000000012 .LFE17
C:\Users\Karzan\AppData\Local\Temp\ccOINQgD.s:1843   .debug_str:00000000000002a8 .LASF64
C:\Users\Karzan\AppData\Local\Temp\ccOINQgD.s:420    .text.bkp_flag_get:0000000000000000 .LFB16
C:\Users\Karzan\AppData\Local\Temp\ccOINQgD.s:433    .text.bkp_flag_get:000000000000000e .LFE16
C:\Users\Karzan\AppData\Local\Temp\ccOINQgD.s:1899   .debug_str:0000000000000485 .LASF65
C:\Users\Karzan\AppData\Local\Temp\ccOINQgD.s:397    .text.bkp_interrupt_disable:0000000000000000 .LFB15
C:\Users\Karzan\AppData\Local\Temp\ccOINQgD.s:413    .text.bkp_interrupt_disable:0000000000000018 .LFE15
C:\Users\Karzan\AppData\Local\Temp\ccOINQgD.s:1787   .debug_str:00000000000000c6 .LASF66
C:\Users\Karzan\AppData\Local\Temp\ccOINQgD.s:378    .text.bkp_interrupt_enable:0000000000000000 .LFB14
C:\Users\Karzan\AppData\Local\Temp\ccOINQgD.s:390    .text.bkp_interrupt_enable:0000000000000012 .LFE14
C:\Users\Karzan\AppData\Local\Temp\ccOINQgD.s:1835   .debug_str:0000000000000250 .LASF69
C:\Users\Karzan\AppData\Local\Temp\ccOINQgD.s:345    .text.bkp_tamper_active_level_set:0000000000000000 .LFB13
C:\Users\Karzan\AppData\Local\Temp\ccOINQgD.s:371    .text.bkp_tamper_active_level_set:0000000000000016 .LFE13
C:\Users\Karzan\AppData\Local\Temp\ccOINQgD.s:1931   .debug_str:0000000000000582 .LASF71
C:\Users\Karzan\AppData\Local\Temp\ccOINQgD.s:1521   .debug_loc:0000000000000000 .LLST8
C:\Users\Karzan\AppData\Local\Temp\ccOINQgD.s:1535   .debug_loc:0000000000000021 .LLST9
C:\Users\Karzan\AppData\Local\Temp\ccOINQgD.s:1851   .debug_str:00000000000002ed .LASF67
C:\Users\Karzan\AppData\Local\Temp\ccOINQgD.s:322    .text.bkp_tamper_detection_disable:0000000000000000 .LFB12
C:\Users\Karzan\AppData\Local\Temp\ccOINQgD.s:338    .text.bkp_tamper_detection_disable:0000000000000018 .LFE12
C:\Users\Karzan\AppData\Local\Temp\ccOINQgD.s:1837   .debug_str:000000000000026c .LASF68
C:\Users\Karzan\AppData\Local\Temp\ccOINQgD.s:303    .text.bkp_tamper_detection_enable:0000000000000000 .LFB11
C:\Users\Karzan\AppData\Local\Temp\ccOINQgD.s:315    .text.bkp_tamper_detection_enable:0000000000000012 .LFE11
C:\Users\Karzan\AppData\Local\Temp\ccOINQgD.s:1829   .debug_str:000000000000021b .LASF70
C:\Users\Karzan\AppData\Local\Temp\ccOINQgD.s:266    .text.bkp_rtc_calibration_value_set:0000000000000000 .LFB10
C:\Users\Karzan\AppData\Local\Temp\ccOINQgD.s:296    .text.bkp_rtc_calibration_value_set:000000000000001c .LFE10
C:\Users\Karzan\AppData\Local\Temp\ccOINQgD.s:1801   .debug_str:000000000000016b .LASF72
C:\Users\Karzan\AppData\Local\Temp\ccOINQgD.s:1551   .debug_loc:000000000000004b .LLST6
C:\Users\Karzan\AppData\Local\Temp\ccOINQgD.s:1565   .debug_loc:000000000000006c .LLST7
C:\Users\Karzan\AppData\Local\Temp\ccOINQgD.s:1917   .debug_str:0000000000000506 .LASF73
C:\Users\Karzan\AppData\Local\Temp\ccOINQgD.s:233    .text.bkp_rtc_output_select:0000000000000000 .LFB9
C:\Users\Karzan\AppData\Local\Temp\ccOINQgD.s:259    .text.bkp_rtc_output_select:0000000000000018 .LFE9
C:\Users\Karzan\AppData\Local\Temp\ccOINQgD.s:1795   .debug_str:0000000000000110 .LASF74
C:\Users\Karzan\AppData\Local\Temp\ccOINQgD.s:1581   .debug_loc:000000000000008f .LLST4
C:\Users\Karzan\AppData\Local\Temp\ccOINQgD.s:1595   .debug_loc:00000000000000b0 .LLST5
C:\Users\Karzan\AppData\Local\Temp\ccOINQgD.s:1845   .debug_str:00000000000002b5 .LASF75
C:\Users\Karzan\AppData\Local\Temp\ccOINQgD.s:210    .text.bkp_rtc_signal_output_disable:0000000000000000 .LFB8
C:\Users\Karzan\AppData\Local\Temp\ccOINQgD.s:226    .text.bkp_rtc_signal_output_disable:000000000000001a .LFE8
C:\Users\Karzan\AppData\Local\Temp\ccOINQgD.s:1825   .debug_str:00000000000001f4 .LASF76
C:\Users\Karzan\AppData\Local\Temp\ccOINQgD.s:191    .text.bkp_rtc_signal_output_enable:0000000000000000 .LFB7
C:\Users\Karzan\AppData\Local\Temp\ccOINQgD.s:203    .text.bkp_rtc_signal_output_enable:0000000000000012 .LFE7
C:\Users\Karzan\AppData\Local\Temp\ccOINQgD.s:1781   .debug_str:000000000000000f .LASF77
C:\Users\Karzan\AppData\Local\Temp\ccOINQgD.s:168    .text.bkp_rtc_calibration_output_disable:0000000000000000 .LFB6
C:\Users\Karzan\AppData\Local\Temp\ccOINQgD.s:184    .text.bkp_rtc_calibration_output_disable:000000000000001a .LFE6
C:\Users\Karzan\AppData\Local\Temp\ccOINQgD.s:1919   .debug_str:000000000000051c .LASF78
C:\Users\Karzan\AppData\Local\Temp\ccOINQgD.s:149    .text.bkp_rtc_calibration_output_enable:0000000000000000 .LFB5
C:\Users\Karzan\AppData\Local\Temp\ccOINQgD.s:161    .text.bkp_rtc_calibration_output_enable:0000000000000012 .LFE5
C:\Users\Karzan\AppData\Local\Temp\ccOINQgD.s:1847   .debug_str:00000000000002d3 .LASF89
C:\Users\Karzan\AppData\Local\Temp\ccOINQgD.s:90     .text.bkp_data_read:0000000000000000 .LFB4
C:\Users\Karzan\AppData\Local\Temp\ccOINQgD.s:142    .text.bkp_data_read:0000000000000038 .LFE4
C:\Users\Karzan\AppData\Local\Temp\ccOINQgD.s:1791   .debug_str:00000000000000f4 .LASF79
C:\Users\Karzan\AppData\Local\Temp\ccOINQgD.s:1611   .debug_loc:00000000000000da .LLST2
C:\Users\Karzan\AppData\Local\Temp\ccOINQgD.s:1915   .debug_str:0000000000000501 .LASF80
C:\Users\Karzan\AppData\Local\Temp\ccOINQgD.s:1637   .debug_loc:000000000000011c .LLST3
C:\Users\Karzan\AppData\Local\Temp\ccOINQgD.s:1779   .debug_str:0000000000000000 .LASF81
C:\Users\Karzan\AppData\Local\Temp\ccOINQgD.s:46     .text.bkp_data_write:0000000000000000 .LFB3
GAS LISTING C:\Users\Karzan\AppData\Local\Temp\ccOINQgD.s 			page 21


C:\Users\Karzan\AppData\Local\Temp\ccOINQgD.s:83     .text.bkp_data_write:0000000000000030 .LFE3
C:\Users\Karzan\AppData\Local\Temp\ccOINQgD.s:1654   .debug_loc:0000000000000147 .LLST1
C:\Users\Karzan\AppData\Local\Temp\ccOINQgD.s:1909   .debug_str:00000000000004cf .LASF82
C:\Users\Karzan\AppData\Local\Temp\ccOINQgD.s:14     .text.bkp_deinit:0000000000000000 .LFB2
C:\Users\Karzan\AppData\Local\Temp\ccOINQgD.s:39     .text.bkp_deinit:0000000000000018 .LFE2
C:\Users\Karzan\AppData\Local\Temp\ccOINQgD.s:1672   .debug_loc:0000000000000173 .LLST0
C:\Users\Karzan\AppData\Local\Temp\ccOINQgD.s:27     .text.bkp_deinit:000000000000000c .LVL0
C:\Users\Karzan\AppData\Local\Temp\ccOINQgD.s:37     .text.bkp_deinit:0000000000000018 .LVL1
C:\Users\Karzan\AppData\Local\Temp\ccOINQgD.s:1937   .debug_str:0000000000000596 .LASF83
C:\Users\Karzan\AppData\Local\Temp\ccOINQgD.s:1841   .debug_str:0000000000000292 .LASF84
C:\Users\Karzan\AppData\Local\Temp\ccOINQgD.s:348    .text.bkp_tamper_active_level_set:0000000000000000 .LVL20
C:\Users\Karzan\AppData\Local\Temp\ccOINQgD.s:364    .text.bkp_tamper_active_level_set:0000000000000010 .LVL23
C:\Users\Karzan\AppData\Local\Temp\ccOINQgD.s:356    .text.bkp_tamper_active_level_set:000000000000000c .LVL21
C:\Users\Karzan\AppData\Local\Temp\ccOINQgD.s:269    .text.bkp_rtc_calibration_value_set:0000000000000000 .LVL15
C:\Users\Karzan\AppData\Local\Temp\ccOINQgD.s:277    .text.bkp_rtc_calibration_value_set:000000000000000c .LVL16
C:\Users\Karzan\AppData\Local\Temp\ccOINQgD.s:281    .text.bkp_rtc_calibration_value_set:0000000000000010 .LVL17
C:\Users\Karzan\AppData\Local\Temp\ccOINQgD.s:286    .text.bkp_rtc_calibration_value_set:0000000000000014 .LVL18
C:\Users\Karzan\AppData\Local\Temp\ccOINQgD.s:289    .text.bkp_rtc_calibration_value_set:0000000000000016 .LVL19
C:\Users\Karzan\AppData\Local\Temp\ccOINQgD.s:236    .text.bkp_rtc_output_select:0000000000000000 .LVL11
C:\Users\Karzan\AppData\Local\Temp\ccOINQgD.s:252    .text.bkp_rtc_output_select:0000000000000012 .LVL14
C:\Users\Karzan\AppData\Local\Temp\ccOINQgD.s:244    .text.bkp_rtc_output_select:000000000000000c .LVL12
C:\Users\Karzan\AppData\Local\Temp\ccOINQgD.s:93     .text.bkp_data_read:0000000000000000 .LVL5
C:\Users\Karzan\AppData\Local\Temp\ccOINQgD.s:107    .text.bkp_data_read:0000000000000010 .LVL6
C:\Users\Karzan\AppData\Local\Temp\ccOINQgD.s:112    .text.bkp_data_read:0000000000000016 .LVL7
C:\Users\Karzan\AppData\Local\Temp\ccOINQgD.s:124    .text.bkp_data_read:0000000000000022 .LVL9
C:\Users\Karzan\AppData\Local\Temp\ccOINQgD.s:133    .text.bkp_data_read:000000000000002a .LVL10
C:\Users\Karzan\AppData\Local\Temp\ccOINQgD.s:118    .text.bkp_data_read:0000000000000020 .LVL8
C:\Users\Karzan\AppData\Local\Temp\ccOINQgD.s:49     .text.bkp_data_write:0000000000000000 .LVL2
C:\Users\Karzan\AppData\Local\Temp\ccOINQgD.s:62     .text.bkp_data_write:0000000000000014 .LVL3
C:\Users\Karzan\AppData\Local\Temp\ccOINQgD.s:70     .text.bkp_data_write:000000000000001c .LVL4
C:\Users\Karzan\AppData\Local\Temp\ccOINQgD.s:21     .text.bkp_deinit:0000000000000002 .LCFI0
C:\Users\Karzan\AppData\Local\Temp\ccOINQgD.s:33     .text.bkp_deinit:0000000000000010 .LCFI1
C:\Users\Karzan\AppData\Local\Temp\ccOINQgD.s:502    .debug_info:0000000000000000 .Ldebug_info0

UNDEFINED SYMBOLS
rcu_bkp_reset_enable
rcu_bkp_reset_disable
