GAS LISTING C:\Users\Karzan\AppData\Local\Temp\ccEvsa5o.s 			page 1


   1              		.file	"gd32v_mpu6500_if.c"
   2              		.option nopic
   3              		.attribute arch, "rv32i2p0_m2p0_a2p0_c2p0"
   4              		.attribute unaligned_access, 0
   5              		.attribute stack_align, 16
   6              		.text
   7              	.Ltext0:
   8              		.cfi_sections	.debug_frame
   9              		.globl	__floatundidf
  10              		.globl	__floatunsidf
  11              		.globl	__divdf3
  12              		.globl	__floatsidf
  13              		.globl	__muldf3
  14              		.globl	__ltdf2
  15              		.section	.text.mpu_delay,"ax",@progbits
  16              		.align	1
  17              		.globl	mpu_delay
  19              	mpu_delay:
  20              	.LFB7:
  21              		.file 1 "gd32v_mpu6500_if.c"
   1:gd32v_mpu6500_if.c **** #include "gd32v_mpu6500_if.h"
   2:gd32v_mpu6500_if.c **** #include "mpu6500_driver.h"
   3:gd32v_mpu6500_if.c **** #include "gd32vf103.h"
   4:gd32v_mpu6500_if.c **** 
   5:gd32v_mpu6500_if.c **** 
   6:gd32v_mpu6500_if.c **** uint32_t i2c_port;
   7:gd32v_mpu6500_if.c **** 
   8:gd32v_mpu6500_if.c **** 
   9:gd32v_mpu6500_if.c **** void mpu6500_install(uint32_t port){
  10:gd32v_mpu6500_if.c **** 	i2c_port = port;
  11:gd32v_mpu6500_if.c **** 	i2c_master_init(i2c_port);
  12:gd32v_mpu6500_if.c **** 	mpu6500_init(&i2c_master_read_register, &i2c_master_write_register, &mpu_delay, (void*)&i2c_port);
  13:gd32v_mpu6500_if.c **** }
  14:gd32v_mpu6500_if.c **** 
  15:gd32v_mpu6500_if.c **** void i2c_master_init(uint32_t port)
  16:gd32v_mpu6500_if.c **** {
  17:gd32v_mpu6500_if.c ****     i2c_clock_config(port, 100000, I2C_DTCY_2);
  18:gd32v_mpu6500_if.c ****     i2c_enable(port);
  19:gd32v_mpu6500_if.c **** }
  20:gd32v_mpu6500_if.c **** 
  21:gd32v_mpu6500_if.c **** void mpu_delay(int millis){
  22              		.loc 1 21 27
  23              		.cfi_startproc
  24              	.LVL0:
  22:gd32v_mpu6500_if.c ****     uint64_t start_mtime, delta_mtime;
  25              		.loc 1 22 5
  23:gd32v_mpu6500_if.c **** 
  24:gd32v_mpu6500_if.c **** 	// Don't start measuruing until we see an mtime tick
  25:gd32v_mpu6500_if.c **** 	uint64_t tmp = get_timer_value();
  26              		.loc 1 25 2
  21:gd32v_mpu6500_if.c ****     uint64_t start_mtime, delta_mtime;
  27              		.loc 1 21 27 is_stmt 0
  28 0000 7971     		addi	sp,sp,-48
  29              	.LCFI0:
  30              		.cfi_def_cfa_offset 48
  31 0002 4AD0     		sw	s2,32(sp)
  32 0004 4ECE     		sw	s3,28(sp)
GAS LISTING C:\Users\Karzan\AppData\Local\Temp\ccEvsa5o.s 			page 2


  33 0006 5AC8     		sw	s6,16(sp)
  34 0008 06D6     		sw	ra,44(sp)
  35 000a 22D4     		sw	s0,40(sp)
  36 000c 26D2     		sw	s1,36(sp)
  37 000e 52CC     		sw	s4,24(sp)
  38 0010 56CA     		sw	s5,20(sp)
  39 0012 5EC6     		sw	s7,12(sp)
  40 0014 62C4     		sw	s8,8(sp)
  41 0016 66C2     		sw	s9,4(sp)
  42              		.cfi_offset 18, -16
  43              		.cfi_offset 19, -20
  44              		.cfi_offset 22, -32
  45              		.cfi_offset 1, -4
  46              		.cfi_offset 8, -8
  47              		.cfi_offset 9, -12
  48              		.cfi_offset 20, -24
  49              		.cfi_offset 21, -28
  50              		.cfi_offset 23, -36
  51              		.cfi_offset 24, -40
  52              		.cfi_offset 25, -44
  21:gd32v_mpu6500_if.c ****     uint64_t start_mtime, delta_mtime;
  53              		.loc 1 21 27
  54 0018 2A8B     		mv	s6,a0
  55              		.loc 1 25 17
  56 001a 97000000 		call	get_timer_value
  56      E7800000 
  57              	.LVL1:
  58 0022 AA89     		mv	s3,a0
  59 0024 2E89     		mv	s2,a1
  60              	.LVL2:
  61              	.L2:
  26:gd32v_mpu6500_if.c **** 	do {
  62              		.loc 1 26 2 is_stmt 1 discriminator 1
  27:gd32v_mpu6500_if.c **** 	start_mtime = get_timer_value();
  63              		.loc 1 27 2 discriminator 1
  64              		.loc 1 27 16 is_stmt 0 discriminator 1
  65 0026 97000000 		call	get_timer_value
  65      E7800000 
  66              	.LVL3:
  67 002e AA84     		mv	s1,a0
  68 0030 2E84     		mv	s0,a1
  69              	.LVL4:
  28:gd32v_mpu6500_if.c **** 	} while (start_mtime == tmp);
  70              		.loc 1 28 2 discriminator 1
  71 0032 6394A900 		bne	s3,a0,.L3
  72 0036 E308B9FE 		beq	s2,a1,.L2
  73              	.L3:
  29:gd32v_mpu6500_if.c **** 
  30:gd32v_mpu6500_if.c **** 	do {
  31:gd32v_mpu6500_if.c **** 	delta_mtime = get_timer_value() - start_mtime;
  32:gd32v_mpu6500_if.c **** 	}while(delta_mtime <(SystemCoreClock/4000.0 * millis ));
  74              		.loc 1 32 38 discriminator 1
  75 003a B7070000 		lui	a5,%hi(.LC0)
  76 003e 03A90700 		lw	s2,%lo(.LC0)(a5)
  77              	.LVL5:
  78 0042 83A94700 		lw	s3,%lo(.LC0+4)(a5)
  79 0046 B70B0000 		lui	s7,%hi(SystemCoreClock)
GAS LISTING C:\Users\Karzan\AppData\Local\Temp\ccEvsa5o.s 			page 3


  80              	.L4:
  30:gd32v_mpu6500_if.c **** 	delta_mtime = get_timer_value() - start_mtime;
  81              		.loc 1 30 2 is_stmt 1 discriminator 1
  31:gd32v_mpu6500_if.c **** 	}while(delta_mtime <(SystemCoreClock/4000.0 * millis ));
  82              		.loc 1 31 2 discriminator 1
  31:gd32v_mpu6500_if.c **** 	}while(delta_mtime <(SystemCoreClock/4000.0 * millis ));
  83              		.loc 1 31 16 is_stmt 0 discriminator 1
  84 004a 97000000 		call	get_timer_value
  84      E7800000 
  85              	.LVL6:
  86 0052 AA87     		mv	a5,a0
  31:gd32v_mpu6500_if.c **** 	}while(delta_mtime <(SystemCoreClock/4000.0 * millis ));
  87              		.loc 1 31 14 discriminator 1
  88 0054 058D     		sub	a0,a0,s1
  89              	.LVL7:
  90 0056 B3B7A700 		sgtu	a5,a0,a5
  91              	.LVL8:
  92 005a 818D     		sub	a1,a1,s0
  93              		.loc 1 32 21 discriminator 1
  94 005c 9D8D     		sub	a1,a1,a5
  95 005e 97000000 		call	__floatundidf
  95      E7800000 
  96              	.LVL9:
  97 0066 2A8A     		mv	s4,a0
  98              		.loc 1 32 38 discriminator 1
  99 0068 03A50B00 		lw	a0,%lo(SystemCoreClock)(s7)
 100              		.loc 1 32 21 discriminator 1
 101 006c AE8A     		mv	s5,a1
 102              		.loc 1 32 38 discriminator 1
 103 006e 97000000 		call	__floatunsidf
 103      E7800000 
 104              	.LVL10:
 105 0076 4A86     		mv	a2,s2
 106 0078 CE86     		mv	a3,s3
 107 007a 97000000 		call	__divdf3
 107      E7800000 
 108              	.LVL11:
 109 0082 2A8C     		mv	s8,a0
 110              		.loc 1 32 46 discriminator 1
 111 0084 5A85     		mv	a0,s6
 112              		.loc 1 32 38 discriminator 1
 113 0086 AE8C     		mv	s9,a1
 114              		.loc 1 32 46 discriminator 1
 115 0088 97000000 		call	__floatsidf
 115      E7800000 
 116              	.LVL12:
 117 0090 2A86     		mv	a2,a0
 118 0092 AE86     		mv	a3,a1
 119 0094 6285     		mv	a0,s8
 120 0096 E685     		mv	a1,s9
 121 0098 97000000 		call	__muldf3
 121      E7800000 
 122              	.LVL13:
 123              		.loc 1 32 2 discriminator 1
 124 00a0 2A86     		mv	a2,a0
 125 00a2 AE86     		mv	a3,a1
 126 00a4 5285     		mv	a0,s4
GAS LISTING C:\Users\Karzan\AppData\Local\Temp\ccEvsa5o.s 			page 4


 127 00a6 D685     		mv	a1,s5
 128 00a8 97000000 		call	__ltdf2
 128      E7800000 
 129              	.LVL14:
 130 00b0 E34D05F8 		blt	a0,zero,.L4
  33:gd32v_mpu6500_if.c **** }
 131              		.loc 1 33 1
 132 00b4 B250     		lw	ra,44(sp)
 133              		.cfi_restore 1
 134 00b6 2254     		lw	s0,40(sp)
 135              		.cfi_restore 8
 136              	.LVL15:
 137 00b8 9254     		lw	s1,36(sp)
 138              		.cfi_restore 9
 139 00ba 0259     		lw	s2,32(sp)
 140              		.cfi_restore 18
 141 00bc F249     		lw	s3,28(sp)
 142              		.cfi_restore 19
 143 00be 624A     		lw	s4,24(sp)
 144              		.cfi_restore 20
 145 00c0 D24A     		lw	s5,20(sp)
 146              		.cfi_restore 21
 147 00c2 424B     		lw	s6,16(sp)
 148              		.cfi_restore 22
 149              	.LVL16:
 150 00c4 B24B     		lw	s7,12(sp)
 151              		.cfi_restore 23
 152 00c6 224C     		lw	s8,8(sp)
 153              		.cfi_restore 24
 154 00c8 924C     		lw	s9,4(sp)
 155              		.cfi_restore 25
 156 00ca 4561     		addi	sp,sp,48
 157              	.LCFI1:
 158              		.cfi_def_cfa_offset 0
 159 00cc 8280     		jr	ra
 160              		.cfi_endproc
 161              	.LFE7:
 163              		.section	.text.i2c_master_read_register,"ax",@progbits
 164              		.align	1
 165              		.globl	i2c_master_read_register
 167              	i2c_master_read_register:
 168              	.LFB8:
  34:gd32v_mpu6500_if.c **** 
  35:gd32v_mpu6500_if.c **** void i2c_master_read_register(void* handle, uint8_t addr, uint8_t reg, uint8_t size, uint8_t *data)
  36:gd32v_mpu6500_if.c **** {
 169              		.loc 1 36 1 is_stmt 1
 170              		.cfi_startproc
 171              	.LVL17:
  37:gd32v_mpu6500_if.c ****     int32_t port = *((uint32_t*)handle);
 172              		.loc 1 37 5
  36:gd32v_mpu6500_if.c ****     int32_t port = *((uint32_t*)handle);
 173              		.loc 1 36 1 is_stmt 0
 174 0000 0111     		addi	sp,sp,-32
 175              	.LCFI2:
 176              		.cfi_def_cfa_offset 32
 177 0002 22CC     		sw	s0,24(sp)
 178              		.cfi_offset 8, -8
GAS LISTING C:\Users\Karzan\AppData\Local\Temp\ccEvsa5o.s 			page 5


 179              		.loc 1 37 20
 180 0004 0041     		lw	s0,0(a0)
 181              	.LVL18:
  38:gd32v_mpu6500_if.c ****     
  39:gd32v_mpu6500_if.c ****     /* send a NACK for the next data byte which will be received into the shift register */
  40:gd32v_mpu6500_if.c **** 	//i2c_ackpos_config(port, I2C_ACKPOS_NEXT);
  41:gd32v_mpu6500_if.c ****     //while(i2c_flag_get(port, I2C_FLAG_I2CBSY));
  42:gd32v_mpu6500_if.c **** 
  43:gd32v_mpu6500_if.c ****     /* send a start condition to I2C bus */
  44:gd32v_mpu6500_if.c ****     i2c_start_on_bus(port);
 182              		.loc 1 44 5 is_stmt 1
  36:gd32v_mpu6500_if.c ****     int32_t port = *((uint32_t*)handle);
 183              		.loc 1 36 1 is_stmt 0
 184 0006 26CA     		sw	s1,20(sp)
 185 0008 4AC8     		sw	s2,16(sp)
 186              		.loc 1 44 5
 187 000a 2285     		mv	a0,s0
 188              	.LVL19:
  36:gd32v_mpu6500_if.c ****     int32_t port = *((uint32_t*)handle);
 189              		.loc 1 36 1
 190 000c 4EC6     		sw	s3,12(sp)
 191 000e 52C4     		sw	s4,8(sp)
 192 0010 06CE     		sw	ra,28(sp)
 193              		.cfi_offset 9, -12
 194              		.cfi_offset 18, -16
 195              		.cfi_offset 19, -20
 196              		.cfi_offset 20, -24
 197              		.cfi_offset 1, -4
  36:gd32v_mpu6500_if.c ****     int32_t port = *((uint32_t*)handle);
 198              		.loc 1 36 1
 199 0012 AE84     		mv	s1,a1
 200 0014 328A     		mv	s4,a2
 201 0016 3689     		mv	s2,a3
 202 0018 BA89     		mv	s3,a4
 203              		.loc 1 44 5
 204 001a 97000000 		call	i2c_start_on_bus
 204      E7800000 
 205              	.LVL20:
  45:gd32v_mpu6500_if.c ****     while(!i2c_flag_get(port, I2C_FLAG_SBSEND));
 206              		.loc 1 45 5 is_stmt 1
 207              	.L8:
 208              		.loc 1 45 48 discriminator 1
 209              		.loc 1 45 12 is_stmt 0 discriminator 1
 210 0022 93050050 		li	a1,1280
 211 0026 2285     		mv	a0,s0
 212 0028 97000000 		call	i2c_flag_get
 212      E7800000 
 213              	.LVL21:
 214              		.loc 1 45 10 discriminator 1
 215 0030 6DD9     		beq	a0,zero,.L8
  46:gd32v_mpu6500_if.c **** 
  47:gd32v_mpu6500_if.c ****     /* send slave address to I2C bus */
  48:gd32v_mpu6500_if.c ****     i2c_master_addressing(port, addr << 1, I2C_TRANSMITTER);
 216              		.loc 1 48 5 is_stmt 1
 217              		.loc 1 48 38 is_stmt 0
 218 0032 8604     		slli	s1,s1,1
 219              		.loc 1 48 5
GAS LISTING C:\Users\Karzan\AppData\Local\Temp\ccEvsa5o.s 			page 6


 220 0034 7956     		li	a2,-2
 221 0036 A685     		mv	a1,s1
 222 0038 2285     		mv	a0,s0
 223 003a 97000000 		call	i2c_master_addressing
 223      E7800000 
 224              	.LVL22:
  49:gd32v_mpu6500_if.c ****     /* disable ACK before clearing ADDSEND bit */
  50:gd32v_mpu6500_if.c ****     //i2c_ack_config(port, I2C_ACK_DISABLE);
  51:gd32v_mpu6500_if.c ****     while(!i2c_flag_get(port, I2C_FLAG_ADDSEND));
 225              		.loc 1 51 5 is_stmt 1
 226              	.L9:
 227              		.loc 1 51 49 discriminator 1
 228              		.loc 1 51 12 is_stmt 0 discriminator 1
 229 0042 93051050 		li	a1,1281
 230 0046 2285     		mv	a0,s0
 231 0048 97000000 		call	i2c_flag_get
 231      E7800000 
 232              	.LVL23:
 233              		.loc 1 51 10 discriminator 1
 234 0050 6DD9     		beq	a0,zero,.L9
  52:gd32v_mpu6500_if.c ****     i2c_flag_clear(port, I2C_FLAG_ADDSEND);
 235              		.loc 1 52 5 is_stmt 1
 236 0052 93051050 		li	a1,1281
 237 0056 2285     		mv	a0,s0
 238 0058 97000000 		call	i2c_flag_clear
 238      E7800000 
 239              	.LVL24:
  53:gd32v_mpu6500_if.c ****     while(!i2c_flag_get(port, I2C_FLAG_TBE));
 240              		.loc 1 53 5
 241              	.L10:
 242              		.loc 1 53 45 discriminator 1
 243              		.loc 1 53 12 is_stmt 0 discriminator 1
 244 0060 93057050 		li	a1,1287
 245 0064 2285     		mv	a0,s0
 246 0066 97000000 		call	i2c_flag_get
 246      E7800000 
 247              	.LVL25:
 248              		.loc 1 53 10 discriminator 1
 249 006e 6DD9     		beq	a0,zero,.L10
  54:gd32v_mpu6500_if.c **** 
  55:gd32v_mpu6500_if.c **** 
  56:gd32v_mpu6500_if.c ****     i2c_data_transmit(port, reg);
 250              		.loc 1 56 5 is_stmt 1
 251 0070 D285     		mv	a1,s4
 252 0072 2285     		mv	a0,s0
 253 0074 97000000 		call	i2c_data_transmit
 253      E7800000 
 254              	.LVL26:
  57:gd32v_mpu6500_if.c ****     /* wait until the TBE bit is set */
  58:gd32v_mpu6500_if.c ****     while(!i2c_flag_get(port, I2C_FLAG_TBE));
 255              		.loc 1 58 5
 256              	.L11:
 257              		.loc 1 58 45 discriminator 1
 258              		.loc 1 58 12 is_stmt 0 discriminator 1
 259 007c 93057050 		li	a1,1287
 260 0080 2285     		mv	a0,s0
 261 0082 97000000 		call	i2c_flag_get
GAS LISTING C:\Users\Karzan\AppData\Local\Temp\ccEvsa5o.s 			page 7


 261      E7800000 
 262              	.LVL27:
 263              		.loc 1 58 10 discriminator 1
 264 008a 6DD9     		beq	a0,zero,.L11
  59:gd32v_mpu6500_if.c **** 
  60:gd32v_mpu6500_if.c ****     i2c_start_on_bus(port);
 265              		.loc 1 60 5 is_stmt 1
 266 008c 2285     		mv	a0,s0
 267 008e 97000000 		call	i2c_start_on_bus
 267      E7800000 
 268              	.LVL28:
  61:gd32v_mpu6500_if.c ****     while( ! i2c_flag_get(port, I2C_FLAG_SBSEND) );
 269              		.loc 1 61 5
 270              	.L12:
 271              		.loc 1 61 51 discriminator 1
 272              		.loc 1 61 14 is_stmt 0 discriminator 1
 273 0096 93050050 		li	a1,1280
 274 009a 2285     		mv	a0,s0
 275 009c 97000000 		call	i2c_flag_get
 275      E7800000 
 276              	.LVL29:
 277              		.loc 1 61 10 discriminator 1
 278 00a4 6DD9     		beq	a0,zero,.L12
  62:gd32v_mpu6500_if.c **** 
  63:gd32v_mpu6500_if.c ****     i2c_master_addressing(port, addr << 1, I2C_RECEIVER);
 279              		.loc 1 63 5 is_stmt 1
 280 00a6 0546     		li	a2,1
 281 00a8 A685     		mv	a1,s1
 282 00aa 2285     		mv	a0,s0
 283 00ac 97000000 		call	i2c_master_addressing
 283      E7800000 
 284              	.LVL30:
  64:gd32v_mpu6500_if.c ****     while( ! i2c_flag_get(port, I2C_FLAG_ADDSEND) );
 285              		.loc 1 64 5
 286              	.L13:
 287              		.loc 1 64 52 discriminator 1
 288              		.loc 1 64 14 is_stmt 0 discriminator 1
 289 00b4 93051050 		li	a1,1281
 290 00b8 2285     		mv	a0,s0
 291 00ba 97000000 		call	i2c_flag_get
 291      E7800000 
 292              	.LVL31:
 293              		.loc 1 64 10 discriminator 1
 294 00c2 6DD9     		beq	a0,zero,.L13
  65:gd32v_mpu6500_if.c ****     i2c_flag_clear(port, I2C_FLAG_ADDSEND);
 295              		.loc 1 65 5 is_stmt 1
 296 00c4 93051050 		li	a1,1281
 297 00c8 2285     		mv	a0,s0
 298 00ca 97000000 		call	i2c_flag_clear
 298      E7800000 
 299              	.LVL32:
  66:gd32v_mpu6500_if.c **** 
  67:gd32v_mpu6500_if.c ****     i2c_ack_config(port, I2C_ACK_ENABLE);
 300              		.loc 1 67 5
 301 00d2 8545     		li	a1,1
 302 00d4 2285     		mv	a0,s0
 303 00d6 97000000 		call	i2c_ack_config
GAS LISTING C:\Users\Karzan\AppData\Local\Temp\ccEvsa5o.s 			page 8


 303      E7800000 
 304              	.LVL33:
  68:gd32v_mpu6500_if.c **** 
  69:gd32v_mpu6500_if.c ****     for(int i = 0; i < size; i++) {
 305              		.loc 1 69 5
 306              	.LBB2:
 307              		.loc 1 69 9
 308              		.loc 1 69 13 is_stmt 0
 309 00de 8144     		li	s1,0
  70:gd32v_mpu6500_if.c ****         if(i == size - 1) {
 310              		.loc 1 70 22
 311 00e0 130AF9FF 		addi	s4,s2,-1
 312              	.LVL34:
 313              	.L14:
  69:gd32v_mpu6500_if.c ****         if(i == size - 1) {
 314              		.loc 1 69 5 discriminator 1
 315 00e4 63C32403 		bgt	s2,s1,.L17
 316              	.LBE2:
  71:gd32v_mpu6500_if.c ****             i2c_ack_config(port, I2C_ACK_DISABLE);
  72:gd32v_mpu6500_if.c ****         }
  73:gd32v_mpu6500_if.c ****         while(!i2c_flag_get(port, I2C_FLAG_RBNE));
  74:gd32v_mpu6500_if.c ****         *data++ = i2c_data_receive(port);
  75:gd32v_mpu6500_if.c ****     }
  76:gd32v_mpu6500_if.c **** 
  77:gd32v_mpu6500_if.c ****     i2c_stop_on_bus(port);
 317              		.loc 1 77 5 is_stmt 1
 318 00e8 2285     		mv	a0,s0
 319 00ea 97000000 		call	i2c_stop_on_bus
 319      E7800000 
 320              	.LVL35:
  78:gd32v_mpu6500_if.c ****     while( I2C_CTL0(port) & I2C_CTL0_STOP );
 321              		.loc 1 78 5
 322              	.L18:
 323              		.loc 1 78 44 discriminator 1
 324              		.loc 1 78 12 is_stmt 0 discriminator 1
 325 00f2 1C40     		lw	a5,0(s0)
 326              		.loc 1 78 27 discriminator 1
 327 00f4 93F70720 		andi	a5,a5,512
 328              		.loc 1 78 10 discriminator 1
 329 00f8 EDFF     		bne	a5,zero,.L18
  79:gd32v_mpu6500_if.c **** }
 330              		.loc 1 79 1
 331 00fa F240     		lw	ra,28(sp)
 332              		.cfi_remember_state
 333              		.cfi_restore 1
 334 00fc 6244     		lw	s0,24(sp)
 335              		.cfi_restore 8
 336              	.LVL36:
 337 00fe D244     		lw	s1,20(sp)
 338              		.cfi_restore 9
 339              	.LVL37:
 340 0100 4249     		lw	s2,16(sp)
 341              		.cfi_restore 18
 342 0102 B249     		lw	s3,12(sp)
 343              		.cfi_restore 19
 344 0104 224A     		lw	s4,8(sp)
 345              		.cfi_restore 20
GAS LISTING C:\Users\Karzan\AppData\Local\Temp\ccEvsa5o.s 			page 9


 346 0106 0561     		addi	sp,sp,32
 347              	.LCFI3:
 348              		.cfi_def_cfa_offset 0
 349 0108 8280     		jr	ra
 350              	.LVL38:
 351              	.L17:
 352              	.LCFI4:
 353              		.cfi_restore_state
 354              	.LBB3:
  70:gd32v_mpu6500_if.c ****             i2c_ack_config(port, I2C_ACK_DISABLE);
 355              		.loc 1 70 9 is_stmt 1
  70:gd32v_mpu6500_if.c ****             i2c_ack_config(port, I2C_ACK_DISABLE);
 356              		.loc 1 70 11 is_stmt 0
 357 010a 63189A00 		bne	s4,s1,.L16
  71:gd32v_mpu6500_if.c ****         }
 358              		.loc 1 71 13 is_stmt 1
 359 010e 8145     		li	a1,0
 360 0110 2285     		mv	a0,s0
 361 0112 97000000 		call	i2c_ack_config
 361      E7800000 
 362              	.LVL39:
 363              	.L16:
  73:gd32v_mpu6500_if.c ****         *data++ = i2c_data_receive(port);
 364              		.loc 1 73 50 discriminator 1
  73:gd32v_mpu6500_if.c ****         *data++ = i2c_data_receive(port);
 365              		.loc 1 73 16 is_stmt 0 discriminator 1
 366 011a 93056050 		li	a1,1286
 367 011e 2285     		mv	a0,s0
 368 0120 97000000 		call	i2c_flag_get
 368      E7800000 
 369              	.LVL40:
  73:gd32v_mpu6500_if.c ****         *data++ = i2c_data_receive(port);
 370              		.loc 1 73 14 discriminator 1
 371 0128 6DD9     		beq	a0,zero,.L16
  74:gd32v_mpu6500_if.c ****     }
 372              		.loc 1 74 9 is_stmt 1 discriminator 2
 373              	.LVL41:
  74:gd32v_mpu6500_if.c ****     }
 374              		.loc 1 74 19 is_stmt 0 discriminator 2
 375 012a 2285     		mv	a0,s0
 376 012c 97000000 		call	i2c_data_receive
 376      E7800000 
 377              	.LVL42:
  74:gd32v_mpu6500_if.c ****     }
 378              		.loc 1 74 17 discriminator 2
 379 0134 B3879900 		add	a5,s3,s1
 380 0138 2380A700 		sb	a0,0(a5)
  69:gd32v_mpu6500_if.c ****         if(i == size - 1) {
 381              		.loc 1 69 31 discriminator 2
 382 013c 8504     		addi	s1,s1,1
 383              	.LVL43:
 384 013e 5DB7     		j	.L14
 385              	.LBE3:
 386              		.cfi_endproc
 387              	.LFE8:
 389              		.section	.text.i2c_master_write_register,"ax",@progbits
 390              		.align	1
GAS LISTING C:\Users\Karzan\AppData\Local\Temp\ccEvsa5o.s 			page 10


 391              		.globl	i2c_master_write_register
 393              	i2c_master_write_register:
 394              	.LFB9:
  80:gd32v_mpu6500_if.c **** 
  81:gd32v_mpu6500_if.c **** 
  82:gd32v_mpu6500_if.c **** void i2c_master_write_register(void* handle, uint8_t addr, uint8_t reg, uint8_t size, uint8_t *data
  83:gd32v_mpu6500_if.c **** {
 395              		.loc 1 83 1 is_stmt 1
 396              		.cfi_startproc
 397              	.LVL44:
  84:gd32v_mpu6500_if.c ****     int32_t port = *((uint32_t*)handle);
 398              		.loc 1 84 5
  83:gd32v_mpu6500_if.c ****     int32_t port = *((uint32_t*)handle);
 399              		.loc 1 83 1 is_stmt 0
 400 0000 0111     		addi	sp,sp,-32
 401              	.LCFI5:
 402              		.cfi_def_cfa_offset 32
 403 0002 22CC     		sw	s0,24(sp)
 404              		.cfi_offset 8, -8
 405              		.loc 1 84 20
 406 0004 0041     		lw	s0,0(a0)
 407              	.LVL45:
  85:gd32v_mpu6500_if.c ****     
  86:gd32v_mpu6500_if.c ****     /* send a NACK for the next data byte which will be received into the shift register */
  87:gd32v_mpu6500_if.c **** 	//i2c_ackpos_config(port, I2C_ACKPOS_NEXT);
  88:gd32v_mpu6500_if.c ****     while(i2c_flag_get(port, I2C_FLAG_I2CBSY));
 408              		.loc 1 88 5 is_stmt 1
  83:gd32v_mpu6500_if.c ****     int32_t port = *((uint32_t*)handle);
 409              		.loc 1 83 1 is_stmt 0
 410 0006 26CA     		sw	s1,20(sp)
 411 0008 4AC8     		sw	s2,16(sp)
 412 000a 4EC6     		sw	s3,12(sp)
 413 000c 52C4     		sw	s4,8(sp)
 414 000e 06CE     		sw	ra,28(sp)
 415              		.cfi_offset 9, -12
 416              		.cfi_offset 18, -16
 417              		.cfi_offset 19, -20
 418              		.cfi_offset 20, -24
 419              		.cfi_offset 1, -4
  83:gd32v_mpu6500_if.c ****     int32_t port = *((uint32_t*)handle);
 420              		.loc 1 83 1
 421 0010 2E8A     		mv	s4,a1
 422 0012 B284     		mv	s1,a2
 423 0014 3689     		mv	s2,a3
 424 0016 BA89     		mv	s3,a4
 425              	.LVL46:
 426              	.L36:
 427              		.loc 1 88 47 is_stmt 1 discriminator 1
 428              		.loc 1 88 11 is_stmt 0 discriminator 1
 429 0018 93051060 		li	a1,1537
 430 001c 2285     		mv	a0,s0
 431 001e 97000000 		call	i2c_flag_get
 431      E7800000 
 432              	.LVL47:
 433              		.loc 1 88 10 discriminator 1
 434 0026 6DF9     		bne	a0,zero,.L36
  89:gd32v_mpu6500_if.c **** 
GAS LISTING C:\Users\Karzan\AppData\Local\Temp\ccEvsa5o.s 			page 11


  90:gd32v_mpu6500_if.c ****     /* send a start condition to I2C bus */
  91:gd32v_mpu6500_if.c ****     i2c_start_on_bus(port);
 435              		.loc 1 91 5 is_stmt 1
 436 0028 2285     		mv	a0,s0
 437 002a 97000000 		call	i2c_start_on_bus
 437      E7800000 
 438              	.LVL48:
  92:gd32v_mpu6500_if.c ****     while(!i2c_flag_get(port, I2C_FLAG_SBSEND));
 439              		.loc 1 92 5
 440              	.L37:
 441              		.loc 1 92 48 discriminator 1
 442              		.loc 1 92 12 is_stmt 0 discriminator 1
 443 0032 93050050 		li	a1,1280
 444 0036 2285     		mv	a0,s0
 445 0038 97000000 		call	i2c_flag_get
 445      E7800000 
 446              	.LVL49:
 447              		.loc 1 92 10 discriminator 1
 448 0040 6DD9     		beq	a0,zero,.L37
  93:gd32v_mpu6500_if.c **** 
  94:gd32v_mpu6500_if.c ****     /* send slave address to I2C bus */
  95:gd32v_mpu6500_if.c ****     i2c_master_addressing(port, addr << 1, I2C_TRANSMITTER);
 449              		.loc 1 95 5 is_stmt 1
 450 0042 7956     		li	a2,-2
 451 0044 93151A00 		slli	a1,s4,1
 452 0048 2285     		mv	a0,s0
 453 004a 97000000 		call	i2c_master_addressing
 453      E7800000 
 454              	.LVL50:
  96:gd32v_mpu6500_if.c ****     /* disable ACK before clearing ADDSEND bit */
  97:gd32v_mpu6500_if.c ****     //i2c_ack_config(port, I2C_ACK_DISABLE);
  98:gd32v_mpu6500_if.c ****     while(!i2c_flag_get(port, I2C_FLAG_ADDSEND));
 455              		.loc 1 98 5
 456              	.L38:
 457              		.loc 1 98 49 discriminator 1
 458              		.loc 1 98 12 is_stmt 0 discriminator 1
 459 0052 93051050 		li	a1,1281
 460 0056 2285     		mv	a0,s0
 461 0058 97000000 		call	i2c_flag_get
 461      E7800000 
 462              	.LVL51:
 463              		.loc 1 98 10 discriminator 1
 464 0060 6DD9     		beq	a0,zero,.L38
  99:gd32v_mpu6500_if.c ****     i2c_flag_clear(port, I2C_FLAG_ADDSEND);
 465              		.loc 1 99 5 is_stmt 1
 466 0062 93051050 		li	a1,1281
 467 0066 2285     		mv	a0,s0
 468 0068 97000000 		call	i2c_flag_clear
 468      E7800000 
 469              	.LVL52:
 100:gd32v_mpu6500_if.c ****     while(!i2c_flag_get(port, I2C_FLAG_TBE));
 470              		.loc 1 100 5
 471              	.L39:
 472              		.loc 1 100 45 discriminator 1
 473              		.loc 1 100 12 is_stmt 0 discriminator 1
 474 0070 93057050 		li	a1,1287
 475 0074 2285     		mv	a0,s0
GAS LISTING C:\Users\Karzan\AppData\Local\Temp\ccEvsa5o.s 			page 12


 476 0076 97000000 		call	i2c_flag_get
 476      E7800000 
 477              	.LVL53:
 478              		.loc 1 100 10 discriminator 1
 479 007e 6DD9     		beq	a0,zero,.L39
 101:gd32v_mpu6500_if.c **** 
 102:gd32v_mpu6500_if.c ****     i2c_data_transmit(port, reg);
 480              		.loc 1 102 5 is_stmt 1
 481 0080 A685     		mv	a1,s1
 482 0082 2285     		mv	a0,s0
 483 0084 97000000 		call	i2c_data_transmit
 483      E7800000 
 484              	.LVL54:
 103:gd32v_mpu6500_if.c ****         /* wait until the TBE bit is set */
 104:gd32v_mpu6500_if.c ****     while(!i2c_flag_get(port, I2C_FLAG_TBE));
 485              		.loc 1 104 5
 486              	.L40:
 487              		.loc 1 104 45 discriminator 1
 488              		.loc 1 104 12 is_stmt 0 discriminator 1
 489 008c 93057050 		li	a1,1287
 490 0090 2285     		mv	a0,s0
 491 0092 97000000 		call	i2c_flag_get
 491      E7800000 
 492              	.LVL55:
 493              		.loc 1 104 10 discriminator 1
 494 009a 6DD9     		beq	a0,zero,.L40
 495              	.LBB4:
 105:gd32v_mpu6500_if.c **** 
 106:gd32v_mpu6500_if.c ****     for(int i = 0; i < size; i++){
 496              		.loc 1 106 13
 497 009c 8144     		li	s1,0
 498              	.LVL56:
 499              	.L41:
 500              		.loc 1 106 5 discriminator 1
 501 009e 63C32403 		bgt	s2,s1,.L43
 502              	.LBE4:
 107:gd32v_mpu6500_if.c ****         i2c_data_transmit(port, *data++);
 108:gd32v_mpu6500_if.c ****         /* wait until the TBE bit is set */
 109:gd32v_mpu6500_if.c ****         while(!i2c_flag_get(port, I2C_FLAG_TBE));
 110:gd32v_mpu6500_if.c ****     }
 111:gd32v_mpu6500_if.c **** 
 112:gd32v_mpu6500_if.c ****     i2c_stop_on_bus(port);
 503              		.loc 1 112 5 is_stmt 1
 504 00a2 2285     		mv	a0,s0
 505 00a4 97000000 		call	i2c_stop_on_bus
 505      E7800000 
 506              	.LVL57:
 113:gd32v_mpu6500_if.c ****     while( I2C_CTL0(port) & I2C_CTL0_STOP );
 507              		.loc 1 113 5
 508              	.L44:
 509              		.loc 1 113 44 discriminator 1
 510              		.loc 1 113 12 is_stmt 0 discriminator 1
 511 00ac 1C40     		lw	a5,0(s0)
 512              		.loc 1 113 27 discriminator 1
 513 00ae 93F70720 		andi	a5,a5,512
 514              		.loc 1 113 10 discriminator 1
 515 00b2 EDFF     		bne	a5,zero,.L44
GAS LISTING C:\Users\Karzan\AppData\Local\Temp\ccEvsa5o.s 			page 13


 114:gd32v_mpu6500_if.c **** }...
 516              		.loc 1 114 1
 517 00b4 F240     		lw	ra,28(sp)
 518              		.cfi_remember_state
 519              		.cfi_restore 1
 520 00b6 6244     		lw	s0,24(sp)
 521              		.cfi_restore 8
 522              	.LVL58:
 523 00b8 D244     		lw	s1,20(sp)
 524              		.cfi_restore 9
 525              	.LVL59:
 526 00ba 4249     		lw	s2,16(sp)
 527              		.cfi_restore 18
 528 00bc B249     		lw	s3,12(sp)
 529              		.cfi_restore 19
 530 00be 224A     		lw	s4,8(sp)
 531              		.cfi_restore 20
 532 00c0 0561     		addi	sp,sp,32
 533              	.LCFI6:
 534              		.cfi_def_cfa_offset 0
 535 00c2 8280     		jr	ra
 536              	.LVL60:
 537              	.L43:
 538              	.LCFI7:
 539              		.cfi_restore_state
 540              	.LBB5:
 107:gd32v_mpu6500_if.c ****         i2c_data_transmit(port, *data++);
 541              		.loc 1 107 9 is_stmt 1
 542 00c4 B3879900 		add	a5,s3,s1
 543 00c8 83C50700 		lbu	a1,0(a5)
 544 00cc 2285     		mv	a0,s0
 545 00ce 97000000 		call	i2c_data_transmit
 545      E7800000 
 546              	.LVL61:
 109:gd32v_mpu6500_if.c ****         while(!i2c_flag_get(port, I2C_FLAG_TBE));
 547              		.loc 1 109 9
 548              	.L42:
 109:gd32v_mpu6500_if.c ****         while(!i2c_flag_get(port, I2C_FLAG_TBE));
 549              		.loc 1 109 49 discriminator 1
 109:gd32v_mpu6500_if.c ****         while(!i2c_flag_get(port, I2C_FLAG_TBE));
 550              		.loc 1 109 16 is_stmt 0 discriminator 1
 551 00d6 93057050 		li	a1,1287
 552 00da 2285     		mv	a0,s0
 553 00dc 97000000 		call	i2c_flag_get
 553      E7800000 
 554              	.LVL62:
 109:gd32v_mpu6500_if.c ****         while(!i2c_flag_get(port, I2C_FLAG_TBE));
 555              		.loc 1 109 14 discriminator 1
 556 00e4 6DD9     		beq	a0,zero,.L42
 106:gd32v_mpu6500_if.c ****     for(int i = 0; i < size; i++){
 557              		.loc 1 106 31 discriminator 2
 558 00e6 8504     		addi	s1,s1,1
 559              	.LVL63:
 560 00e8 5DBF     		j	.L41
 561              	.LBE5:
 562              		.cfi_endproc
 563              	.LFE9:
GAS LISTING C:\Users\Karzan\AppData\Local\Temp\ccEvsa5o.s 			page 14


 565              		.section	.text.i2c_master_init,"ax",@progbits
 566              		.align	1
 567              		.globl	i2c_master_init
 569              	i2c_master_init:
 570              	.LFB6:
  16:gd32v_mpu6500_if.c **** {
 571              		.loc 1 16 1 is_stmt 1
 572              		.cfi_startproc
 573              	.LVL64:
  17:gd32v_mpu6500_if.c ****     i2c_clock_config(port, 100000, I2C_DTCY_2);
 574              		.loc 1 17 5
 575 0000 E165     		li	a1,98304
  16:gd32v_mpu6500_if.c **** {
 576              		.loc 1 16 1 is_stmt 0
 577 0002 4111     		addi	sp,sp,-16
 578              	.LCFI8:
 579              		.cfi_def_cfa_offset 16
  17:gd32v_mpu6500_if.c ****     i2c_clock_config(port, 100000, I2C_DTCY_2);
 580              		.loc 1 17 5
 581 0004 0146     		li	a2,0
 582 0006 9385056A 		addi	a1,a1,1696
  16:gd32v_mpu6500_if.c **** {
 583              		.loc 1 16 1
 584 000a 22C4     		sw	s0,8(sp)
 585 000c 06C6     		sw	ra,12(sp)
 586              		.cfi_offset 8, -8
 587              		.cfi_offset 1, -4
  16:gd32v_mpu6500_if.c **** {
 588              		.loc 1 16 1
 589 000e 2A84     		mv	s0,a0
  17:gd32v_mpu6500_if.c ****     i2c_clock_config(port, 100000, I2C_DTCY_2);
 590              		.loc 1 17 5
 591 0010 97000000 		call	i2c_clock_config
 591      E7800000 
 592              	.LVL65:
  18:gd32v_mpu6500_if.c ****     i2c_enable(port);
 593              		.loc 1 18 5 is_stmt 1
 594 0018 2285     		mv	a0,s0
  19:gd32v_mpu6500_if.c **** }
 595              		.loc 1 19 1 is_stmt 0
 596 001a 2244     		lw	s0,8(sp)
 597              		.cfi_restore 8
 598              	.LVL66:
 599 001c B240     		lw	ra,12(sp)
 600              		.cfi_restore 1
 601 001e 4101     		addi	sp,sp,16
 602              	.LCFI9:
 603              		.cfi_def_cfa_offset 0
  18:gd32v_mpu6500_if.c ****     i2c_enable(port);
 604              		.loc 1 18 5
 605 0020 17030000 		tail	i2c_enable
 605      67000300 
 606              	.LVL67:
 607              		.cfi_endproc
 608              	.LFE6:
 610              		.section	.text.mpu6500_install,"ax",@progbits
 611              		.align	1
GAS LISTING C:\Users\Karzan\AppData\Local\Temp\ccEvsa5o.s 			page 15


 612              		.globl	mpu6500_install
 614              	mpu6500_install:
 615              	.LFB5:
   9:gd32v_mpu6500_if.c **** void mpu6500_install(uint32_t port){
 616              		.loc 1 9 36 is_stmt 1
 617              		.cfi_startproc
 618              	.LVL68:
  10:gd32v_mpu6500_if.c **** 	i2c_port = port;
 619              		.loc 1 10 2
   9:gd32v_mpu6500_if.c **** void mpu6500_install(uint32_t port){
 620              		.loc 1 9 36 is_stmt 0
 621 0000 4111     		addi	sp,sp,-16
 622              	.LCFI10:
 623              		.cfi_def_cfa_offset 16
 624 0002 22C4     		sw	s0,8(sp)
 625              		.cfi_offset 8, -8
  10:gd32v_mpu6500_if.c **** 	i2c_port = port;
 626              		.loc 1 10 11
 627 0004 37040000 		lui	s0,%hi(i2c_port)
   9:gd32v_mpu6500_if.c **** void mpu6500_install(uint32_t port){
 628              		.loc 1 9 36
 629 0008 06C6     		sw	ra,12(sp)
 630              		.cfi_offset 1, -4
  10:gd32v_mpu6500_if.c **** 	i2c_port = port;
 631              		.loc 1 10 11
 632 000a 2320A400 		sw	a0,%lo(i2c_port)(s0)
  11:gd32v_mpu6500_if.c **** 	i2c_master_init(i2c_port);
 633              		.loc 1 11 2 is_stmt 1
 634 000e 97000000 		call	i2c_master_init
 634      E7800000 
 635              	.LVL69:
  12:gd32v_mpu6500_if.c **** 	mpu6500_init(&i2c_master_read_register, &i2c_master_write_register, &mpu_delay, (void*)&i2c_port);
 636              		.loc 1 12 2
 637 0016 93060400 		addi	a3,s0,%lo(i2c_port)
  13:gd32v_mpu6500_if.c **** }
 638              		.loc 1 13 1 is_stmt 0
 639 001a 2244     		lw	s0,8(sp)
 640              		.cfi_restore 8
 641 001c B240     		lw	ra,12(sp)
 642              		.cfi_restore 1
  12:gd32v_mpu6500_if.c **** 	mpu6500_init(&i2c_master_read_register, &i2c_master_write_register, &mpu_delay, (void*)&i2c_port);
 643              		.loc 1 12 2
 644 001e 37060000 		lui	a2,%hi(mpu_delay)
 645 0022 B7050000 		lui	a1,%hi(i2c_master_write_register)
 646 0026 37050000 		lui	a0,%hi(i2c_master_read_register)
  13:gd32v_mpu6500_if.c **** }
 647              		.loc 1 13 1
  12:gd32v_mpu6500_if.c **** 	mpu6500_init(&i2c_master_read_register, &i2c_master_write_register, &mpu_delay, (void*)&i2c_port);
 648              		.loc 1 12 2
 649 002a 13060600 		addi	a2,a2,%lo(mpu_delay)
 650 002e 93850500 		addi	a1,a1,%lo(i2c_master_write_register)
 651 0032 13050500 		addi	a0,a0,%lo(i2c_master_read_register)
  13:gd32v_mpu6500_if.c **** }
 652              		.loc 1 13 1
 653 0036 4101     		addi	sp,sp,16
 654              	.LCFI11:
 655              		.cfi_def_cfa_offset 0
GAS LISTING C:\Users\Karzan\AppData\Local\Temp\ccEvsa5o.s 			page 16


  12:gd32v_mpu6500_if.c **** 	mpu6500_init(&i2c_master_read_register, &i2c_master_write_register, &mpu_delay, (void*)&i2c_port);
 656              		.loc 1 12 2
 657 0038 17030000 		tail	mpu6500_init
 657      67000300 
 658              	.LVL70:
 659              		.cfi_endproc
 660              	.LFE5:
 662              		.comm	i2c_port,4,4
 663              		.section	.rodata.mpu_delay.cst8,"aM",@progbits,8
 664              		.align	3
 665              	.LC0:
 666 0000 00000000 		.word	0
 667 0004 0040AF40 		.word	1085227008
 668              		.text
 669              	.Letext0:
 670              		.file 2 "c:\\users\\karzan\\downloads\\toolchain-gd32v-v202-win\\toolchain-gd32v-v202-win\\compile
 671              		.file 3 "c:\\users\\karzan\\downloads\\toolchain-gd32v-v202-win\\toolchain-gd32v-v202-win\\compile
 672              		.file 4 "c:\\users\\karzan\\downloads\\toolchain-gd32v-v202-win\\toolchain-gd32v-v202-win\\compile
 673              		.file 5 "c:\\users\\karzan\\downloads\\toolchain-gd32v-v202-win\\toolchain-gd32v-v202-win\\compile
 674              		.file 6 "c:\\users\\karzan\\downloads\\toolchain-gd32v-v202-win\\toolchain-gd32v-v202-win\\compile
 675              		.file 7 "c:\\users\\karzan\\downloads\\toolchain-gd32v-v202-win\\toolchain-gd32v-v202-win\\compile
 676              		.file 8 "./../../firmware/GD32VF103_standard_peripheral/system_gd32vf103.h"
 677              		.file 9 "./../../firmware/GD32VF103_standard_peripheral/Include/gd32vf103_i2c.h"
 678              		.file 10 "./../../firmware/RISCV/drivers/n200_func.h"
 679              		.file 11 "mpu6500_driver.h"
GAS LISTING C:\Users\Karzan\AppData\Local\Temp\ccEvsa5o.s 			page 17

