GAS LISTING C:\Users\Karzan\AppData\Local\Temp\cctocLKe.s 			page 1


   1              		.file	"gd32vf103_i2c.c"
   2              		.option nopic
   3              		.attribute arch, "rv32i2p0_m2p0_a2p0_c2p0"
   4              		.attribute unaligned_access, 0
   5              		.attribute stack_align, 16
   6              		.text
   7              	.Ltext0:
   8              		.cfi_sections	.debug_frame
   9              		.section	.text.i2c_deinit,"ax",@progbits
  10              		.align	1
  11              		.globl	i2c_deinit
  13              	i2c_deinit:
  14              	.LFB2:
  15              		.file 1 "./../../firmware/GD32VF103_standard_peripheral/Source/gd32vf103_i2c.c"
   1:./../../firmware/GD32VF103_standard_peripheral/Source/gd32vf103_i2c.c **** /*!
   2:./../../firmware/GD32VF103_standard_peripheral/Source/gd32vf103_i2c.c ****     \file    gd32vf103_i2c.c
   3:./../../firmware/GD32VF103_standard_peripheral/Source/gd32vf103_i2c.c ****     \brief   I2C driver
   4:./../../firmware/GD32VF103_standard_peripheral/Source/gd32vf103_i2c.c **** 
   5:./../../firmware/GD32VF103_standard_peripheral/Source/gd32vf103_i2c.c ****     \version 2019-06-05, V1.0.0, firmware for GD32VF103
   6:./../../firmware/GD32VF103_standard_peripheral/Source/gd32vf103_i2c.c ****     \version 2020-08-04, V1.1.0, firmware for GD32VF103
   7:./../../firmware/GD32VF103_standard_peripheral/Source/gd32vf103_i2c.c **** */
   8:./../../firmware/GD32VF103_standard_peripheral/Source/gd32vf103_i2c.c **** 
   9:./../../firmware/GD32VF103_standard_peripheral/Source/gd32vf103_i2c.c **** /*
  10:./../../firmware/GD32VF103_standard_peripheral/Source/gd32vf103_i2c.c ****     Copyright (c) 2020, GigaDevice Semiconductor Inc.
  11:./../../firmware/GD32VF103_standard_peripheral/Source/gd32vf103_i2c.c **** 
  12:./../../firmware/GD32VF103_standard_peripheral/Source/gd32vf103_i2c.c ****     Redistribution and use in source and binary forms, with or without modification, 
  13:./../../firmware/GD32VF103_standard_peripheral/Source/gd32vf103_i2c.c **** are permitted provided that the following conditions are met:
  14:./../../firmware/GD32VF103_standard_peripheral/Source/gd32vf103_i2c.c **** 
  15:./../../firmware/GD32VF103_standard_peripheral/Source/gd32vf103_i2c.c ****     1. Redistributions of source code must retain the above copyright notice, this 
  16:./../../firmware/GD32VF103_standard_peripheral/Source/gd32vf103_i2c.c ****        list of conditions and the following disclaimer.
  17:./../../firmware/GD32VF103_standard_peripheral/Source/gd32vf103_i2c.c ****     2. Redistributions in binary form must reproduce the above copyright notice, 
  18:./../../firmware/GD32VF103_standard_peripheral/Source/gd32vf103_i2c.c ****        this list of conditions and the following disclaimer in the documentation 
  19:./../../firmware/GD32VF103_standard_peripheral/Source/gd32vf103_i2c.c ****        and/or other materials provided with the distribution.
  20:./../../firmware/GD32VF103_standard_peripheral/Source/gd32vf103_i2c.c ****     3. Neither the name of the copyright holder nor the names of its contributors 
  21:./../../firmware/GD32VF103_standard_peripheral/Source/gd32vf103_i2c.c ****        may be used to endorse or promote products derived from this software without 
  22:./../../firmware/GD32VF103_standard_peripheral/Source/gd32vf103_i2c.c ****        specific prior written permission.
  23:./../../firmware/GD32VF103_standard_peripheral/Source/gd32vf103_i2c.c **** 
  24:./../../firmware/GD32VF103_standard_peripheral/Source/gd32vf103_i2c.c ****     THIS SOFTWARE IS PROVIDED BY THE COPYRIGHT HOLDERS AND CONTRIBUTORS "AS IS" 
  25:./../../firmware/GD32VF103_standard_peripheral/Source/gd32vf103_i2c.c **** AND ANY EXPRESS OR IMPLIED WARRANTIES, INCLUDING, BUT NOT LIMITED TO, THE IMPLIED 
  26:./../../firmware/GD32VF103_standard_peripheral/Source/gd32vf103_i2c.c **** WARRANTIES OF MERCHANTABILITY AND FITNESS FOR A PARTICULAR PURPOSE ARE DISCLAIMED. 
  27:./../../firmware/GD32VF103_standard_peripheral/Source/gd32vf103_i2c.c **** IN NO EVENT SHALL THE COPYRIGHT HOLDER OR CONTRIBUTORS BE LIABLE FOR ANY DIRECT, 
  28:./../../firmware/GD32VF103_standard_peripheral/Source/gd32vf103_i2c.c **** INDIRECT, INCIDENTAL, SPECIAL, EXEMPLARY, OR CONSEQUENTIAL DAMAGES (INCLUDING, BUT 
  29:./../../firmware/GD32VF103_standard_peripheral/Source/gd32vf103_i2c.c **** NOT LIMITED TO, PROCUREMENT OF SUBSTITUTE GOODS OR SERVICES; LOSS OF USE, DATA, OR 
  30:./../../firmware/GD32VF103_standard_peripheral/Source/gd32vf103_i2c.c **** PROFITS; OR BUSINESS INTERRUPTION) HOWEVER CAUSED AND ON ANY THEORY OF LIABILITY, 
  31:./../../firmware/GD32VF103_standard_peripheral/Source/gd32vf103_i2c.c **** WHETHER IN CONTRACT, STRICT LIABILITY, OR TORT (INCLUDING NEGLIGENCE OR OTHERWISE) 
  32:./../../firmware/GD32VF103_standard_peripheral/Source/gd32vf103_i2c.c **** ARISING IN ANY WAY OUT OF THE USE OF THIS SOFTWARE, EVEN IF ADVISED OF THE POSSIBILITY 
  33:./../../firmware/GD32VF103_standard_peripheral/Source/gd32vf103_i2c.c **** OF SUCH DAMAGE.
  34:./../../firmware/GD32VF103_standard_peripheral/Source/gd32vf103_i2c.c **** */
  35:./../../firmware/GD32VF103_standard_peripheral/Source/gd32vf103_i2c.c **** 
  36:./../../firmware/GD32VF103_standard_peripheral/Source/gd32vf103_i2c.c **** #include "gd32vf103_i2c.h"
  37:./../../firmware/GD32VF103_standard_peripheral/Source/gd32vf103_i2c.c **** 
  38:./../../firmware/GD32VF103_standard_peripheral/Source/gd32vf103_i2c.c **** /* I2C register bit mask */
  39:./../../firmware/GD32VF103_standard_peripheral/Source/gd32vf103_i2c.c **** #define I2CCLK_MAX                    ((uint32_t)0x00000036U)             /*!< i2cclk maximum value
  40:./../../firmware/GD32VF103_standard_peripheral/Source/gd32vf103_i2c.c **** #define I2CCLK_MIN                    ((uint32_t)0x00000002U)             /*!< i2cclk minimum value
  41:./../../firmware/GD32VF103_standard_peripheral/Source/gd32vf103_i2c.c **** #define I2C_FLAG_MASK                 ((uint32_t)0x0000FFFFU)             /*!< i2c flag mask */
  42:./../../firmware/GD32VF103_standard_peripheral/Source/gd32vf103_i2c.c **** #define I2C_ADDRESS_MASK              ((uint32_t)0x000003FFU)             /*!< i2c address mask */
  43:./../../firmware/GD32VF103_standard_peripheral/Source/gd32vf103_i2c.c **** #define I2C_ADDRESS2_MASK             ((uint32_t)0x000000FEU)             /*!< the second i2c addre
GAS LISTING C:\Users\Karzan\AppData\Local\Temp\cctocLKe.s 			page 2


  44:./../../firmware/GD32VF103_standard_peripheral/Source/gd32vf103_i2c.c **** 
  45:./../../firmware/GD32VF103_standard_peripheral/Source/gd32vf103_i2c.c **** /* I2C register bit offset */
  46:./../../firmware/GD32VF103_standard_peripheral/Source/gd32vf103_i2c.c **** #define STAT1_PECV_OFFSET             ((uint32_t)8U)     /* bit offset of PECV in I2C_STAT1 */
  47:./../../firmware/GD32VF103_standard_peripheral/Source/gd32vf103_i2c.c **** 
  48:./../../firmware/GD32VF103_standard_peripheral/Source/gd32vf103_i2c.c **** /*!
  49:./../../firmware/GD32VF103_standard_peripheral/Source/gd32vf103_i2c.c ****     \brief      reset I2C
  50:./../../firmware/GD32VF103_standard_peripheral/Source/gd32vf103_i2c.c ****     \param[in]  i2c_periph: I2Cx(x=0,1)
  51:./../../firmware/GD32VF103_standard_peripheral/Source/gd32vf103_i2c.c ****     \param[out] none
  52:./../../firmware/GD32VF103_standard_peripheral/Source/gd32vf103_i2c.c ****     \retval     none
  53:./../../firmware/GD32VF103_standard_peripheral/Source/gd32vf103_i2c.c ****  */
  54:./../../firmware/GD32VF103_standard_peripheral/Source/gd32vf103_i2c.c **** void i2c_deinit(uint32_t i2c_periph) 
  55:./../../firmware/GD32VF103_standard_peripheral/Source/gd32vf103_i2c.c **** {
  16              		.loc 1 55 1
  17              		.cfi_startproc
  18              	.LVL0:
  56:./../../firmware/GD32VF103_standard_peripheral/Source/gd32vf103_i2c.c ****     switch (i2c_periph) {
  19              		.loc 1 56 5
  55:./../../firmware/GD32VF103_standard_peripheral/Source/gd32vf103_i2c.c ****     switch (i2c_periph) {
  20              		.loc 1 55 1 is_stmt 0
  21 0000 4111     		addi	sp,sp,-16
  22              	.LCFI0:
  23              		.cfi_def_cfa_offset 16
  24              		.loc 1 56 5
  25 0002 B7570040 		li	a5,1073762304
  55:./../../firmware/GD32VF103_standard_peripheral/Source/gd32vf103_i2c.c ****     switch (i2c_periph) {
  26              		.loc 1 55 1
  27 0006 06C6     		sw	ra,12(sp)
  28              		.cfi_offset 1, -4
  29              		.loc 1 56 5
  30 0008 93870740 		addi	a5,a5,1024
  31 000c 630BF500 		beq	a0,a5,.L2
  32 0010 B7670040 		li	a5,1073766400
  33 0014 93870780 		addi	a5,a5,-2048
  34 0018 6303F502 		beq	a0,a5,.L3
  57:./../../firmware/GD32VF103_standard_peripheral/Source/gd32vf103_i2c.c ****     case I2C0:
  58:./../../firmware/GD32VF103_standard_peripheral/Source/gd32vf103_i2c.c ****         /* reset I2C0 */
  59:./../../firmware/GD32VF103_standard_peripheral/Source/gd32vf103_i2c.c ****         rcu_periph_reset_enable(RCU_I2C0RST);
  60:./../../firmware/GD32VF103_standard_peripheral/Source/gd32vf103_i2c.c ****         rcu_periph_reset_disable(RCU_I2C0RST);
  61:./../../firmware/GD32VF103_standard_peripheral/Source/gd32vf103_i2c.c ****         break;
  62:./../../firmware/GD32VF103_standard_peripheral/Source/gd32vf103_i2c.c ****     case I2C1:
  63:./../../firmware/GD32VF103_standard_peripheral/Source/gd32vf103_i2c.c ****         /* reset I2C1 */
  64:./../../firmware/GD32VF103_standard_peripheral/Source/gd32vf103_i2c.c ****         rcu_periph_reset_enable(RCU_I2C1RST);
  65:./../../firmware/GD32VF103_standard_peripheral/Source/gd32vf103_i2c.c ****         rcu_periph_reset_disable(RCU_I2C1RST);
  66:./../../firmware/GD32VF103_standard_peripheral/Source/gd32vf103_i2c.c ****         break;
  67:./../../firmware/GD32VF103_standard_peripheral/Source/gd32vf103_i2c.c ****     default:
  68:./../../firmware/GD32VF103_standard_peripheral/Source/gd32vf103_i2c.c ****         break;
  69:./../../firmware/GD32VF103_standard_peripheral/Source/gd32vf103_i2c.c ****     }
  70:./../../firmware/GD32VF103_standard_peripheral/Source/gd32vf103_i2c.c **** }
  35              		.loc 1 70 1
  36 001c B240     		lw	ra,12(sp)
  37              		.cfi_remember_state
  38              		.cfi_restore 1
  39 001e 4101     		addi	sp,sp,16
  40              	.LCFI1:
  41              		.cfi_def_cfa_offset 0
  42 0020 8280     		jr	ra
  43              	.L2:
GAS LISTING C:\Users\Karzan\AppData\Local\Temp\cctocLKe.s 			page 3


  44              	.LCFI2:
  45              		.cfi_restore_state
  59:./../../firmware/GD32VF103_standard_peripheral/Source/gd32vf103_i2c.c ****         rcu_periph_reset_disable(RCU_I2C0RST);
  46              		.loc 1 59 9 is_stmt 1
  47 0022 13055041 		li	a0,1045
  48              	.LVL1:
  49 0026 97000000 		call	rcu_periph_reset_enable
  49      E7800000 
  50              	.LVL2:
  60:./../../firmware/GD32VF103_standard_peripheral/Source/gd32vf103_i2c.c ****         break;
  51              		.loc 1 60 9
  52 002e 13055041 		li	a0,1045
  53              	.L7:
  54              		.loc 1 70 1 is_stmt 0
  55 0032 B240     		lw	ra,12(sp)
  56              		.cfi_remember_state
  57              		.cfi_restore 1
  58 0034 4101     		addi	sp,sp,16
  59              	.LCFI3:
  60              		.cfi_def_cfa_offset 0
  65:./../../firmware/GD32VF103_standard_peripheral/Source/gd32vf103_i2c.c ****         break;
  61              		.loc 1 65 9
  62 0036 17030000 		tail	rcu_periph_reset_disable
  62      67000300 
  63              	.LVL3:
  64              	.L3:
  65              	.LCFI4:
  66              		.cfi_restore_state
  64:./../../firmware/GD32VF103_standard_peripheral/Source/gd32vf103_i2c.c ****         rcu_periph_reset_disable(RCU_I2C1RST);
  67              		.loc 1 64 9 is_stmt 1
  68 003e 13056041 		li	a0,1046
  69              	.LVL4:
  70 0042 97000000 		call	rcu_periph_reset_enable
  70      E7800000 
  71              	.LVL5:
  65:./../../firmware/GD32VF103_standard_peripheral/Source/gd32vf103_i2c.c ****         break;
  72              		.loc 1 65 9
  73 004a 13056041 		li	a0,1046
  74 004e D5B7     		j	.L7
  75              		.cfi_endproc
  76              	.LFE2:
  78              		.section	.text.i2c_clock_config,"ax",@progbits
  79              		.align	1
  80              		.globl	i2c_clock_config
  82              	i2c_clock_config:
  83              	.LFB3:
  71:./../../firmware/GD32VF103_standard_peripheral/Source/gd32vf103_i2c.c **** 
  72:./../../firmware/GD32VF103_standard_peripheral/Source/gd32vf103_i2c.c **** /*!
  73:./../../firmware/GD32VF103_standard_peripheral/Source/gd32vf103_i2c.c ****     \brief      configure I2C clock
  74:./../../firmware/GD32VF103_standard_peripheral/Source/gd32vf103_i2c.c ****     \param[in]  i2c_periph: I2Cx(x=0,1)
  75:./../../firmware/GD32VF103_standard_peripheral/Source/gd32vf103_i2c.c ****     \param[in]  clkspeed: I2C clock speed, supports standard mode (up to 100 kHz), fast mode (up to
  76:./../../firmware/GD32VF103_standard_peripheral/Source/gd32vf103_i2c.c ****                           and fast mode plus (up to 1MHz)
  77:./../../firmware/GD32VF103_standard_peripheral/Source/gd32vf103_i2c.c ****     \param[in]  dutycyc: duty cycle in fast mode or fast mode plus
  78:./../../firmware/GD32VF103_standard_peripheral/Source/gd32vf103_i2c.c ****                 only one parameter can be selected which is shown as below:
  79:./../../firmware/GD32VF103_standard_peripheral/Source/gd32vf103_i2c.c ****      \arg        I2C_DTCY_2: T_low/T_high=2 
  80:./../../firmware/GD32VF103_standard_peripheral/Source/gd32vf103_i2c.c ****      \arg        I2C_DTCY_16_9: T_low/T_high=16/9
  81:./../../firmware/GD32VF103_standard_peripheral/Source/gd32vf103_i2c.c ****     \param[out] none
GAS LISTING C:\Users\Karzan\AppData\Local\Temp\cctocLKe.s 			page 4


  82:./../../firmware/GD32VF103_standard_peripheral/Source/gd32vf103_i2c.c ****     \retval     none
  83:./../../firmware/GD32VF103_standard_peripheral/Source/gd32vf103_i2c.c ****  */
  84:./../../firmware/GD32VF103_standard_peripheral/Source/gd32vf103_i2c.c **** void i2c_clock_config(uint32_t i2c_periph, uint32_t clkspeed, uint32_t dutycyc)
  85:./../../firmware/GD32VF103_standard_peripheral/Source/gd32vf103_i2c.c **** {
  84              		.loc 1 85 1
  85              		.cfi_startproc
  86              	.LVL6:
  86:./../../firmware/GD32VF103_standard_peripheral/Source/gd32vf103_i2c.c ****     uint32_t pclk1, clkc, freq, risetime;
  87              		.loc 1 86 5
  87:./../../firmware/GD32VF103_standard_peripheral/Source/gd32vf103_i2c.c ****     uint32_t temp;
  88              		.loc 1 87 5
  88:./../../firmware/GD32VF103_standard_peripheral/Source/gd32vf103_i2c.c ****     
  89:./../../firmware/GD32VF103_standard_peripheral/Source/gd32vf103_i2c.c ****     pclk1 = rcu_clock_freq_get(CK_APB1);
  89              		.loc 1 89 5
  85:./../../firmware/GD32VF103_standard_peripheral/Source/gd32vf103_i2c.c ****     uint32_t pclk1, clkc, freq, risetime;
  90              		.loc 1 85 1 is_stmt 0
  91 0000 0111     		addi	sp,sp,-32
  92              	.LCFI5:
  93              		.cfi_def_cfa_offset 32
  94 0002 22CC     		sw	s0,24(sp)
  95              		.cfi_offset 8, -8
  96 0004 2A84     		mv	s0,a0
  97              		.loc 1 89 13
  98 0006 0945     		li	a0,2
  99              	.LVL7:
  85:./../../firmware/GD32VF103_standard_peripheral/Source/gd32vf103_i2c.c ****     uint32_t pclk1, clkc, freq, risetime;
 100              		.loc 1 85 1
 101 0008 26CA     		sw	s1,20(sp)
 102 000a 32C6     		sw	a2,12(sp)
 103 000c 06CE     		sw	ra,28(sp)
 104              		.cfi_offset 9, -12
 105              		.cfi_offset 1, -4
  85:./../../firmware/GD32VF103_standard_peripheral/Source/gd32vf103_i2c.c ****     uint32_t pclk1, clkc, freq, risetime;
 106              		.loc 1 85 1
 107 000e AE84     		mv	s1,a1
 108              		.loc 1 89 13
 109 0010 97000000 		call	rcu_clock_freq_get
 109      E7800000 
 110              	.LVL8:
  90:./../../firmware/GD32VF103_standard_peripheral/Source/gd32vf103_i2c.c ****     /* I2C peripheral clock frequency */
  91:./../../firmware/GD32VF103_standard_peripheral/Source/gd32vf103_i2c.c ****     freq = (uint32_t) (pclk1 / 1000000U);
 111              		.loc 1 91 5 is_stmt 1
 112              		.loc 1 91 10 is_stmt 0
 113 0018 B7470F00 		li	a5,999424
  92:./../../firmware/GD32VF103_standard_peripheral/Source/gd32vf103_i2c.c ****     if (freq >= I2CCLK_MAX) {
 114              		.loc 1 92 8
 115 001c B7063803 		li	a3,54001664
  91:./../../firmware/GD32VF103_standard_peripheral/Source/gd32vf103_i2c.c ****     if (freq >= I2CCLK_MAX) {
 116              		.loc 1 91 10
 117 0020 93870724 		addi	a5,a5,576
 118              		.loc 1 92 8
 119 0024 9386F697 		addi	a3,a3,-1665
  91:./../../firmware/GD32VF103_standard_peripheral/Source/gd32vf103_i2c.c ****     if (freq >= I2CCLK_MAX) {
 120              		.loc 1 91 10
 121 0028 3357F502 		divu	a4,a0,a5
 122              	.LVL9:
 123              		.loc 1 92 5 is_stmt 1
GAS LISTING C:\Users\Karzan\AppData\Local\Temp\cctocLKe.s 			page 5


 124              		.loc 1 92 8 is_stmt 0
 125 002c 3246     		lw	a2,12(sp)
  93:./../../firmware/GD32VF103_standard_peripheral/Source/gd32vf103_i2c.c ****         freq = I2CCLK_MAX;
 126              		.loc 1 93 14
 127 002e 93076003 		li	a5,54
  92:./../../firmware/GD32VF103_standard_peripheral/Source/gd32vf103_i2c.c ****     if (freq >= I2CCLK_MAX) {
 128              		.loc 1 92 8
 129 0032 63E3A600 		bgtu	a0,a3,.L9
 130 0036 BA87     		mv	a5,a4
 131              	.L9:
 132              	.LVL10:
  94:./../../firmware/GD32VF103_standard_peripheral/Source/gd32vf103_i2c.c ****     }
  95:./../../firmware/GD32VF103_standard_peripheral/Source/gd32vf103_i2c.c ****     temp = I2C_CTL1(i2c_periph);
 133              		.loc 1 95 5 is_stmt 1
 134              		.loc 1 95 10 is_stmt 0
 135 0038 5440     		lw	a3,4(s0)
 136              	.LVL11:
  96:./../../firmware/GD32VF103_standard_peripheral/Source/gd32vf103_i2c.c ****     temp &= ~I2C_CTL1_I2CCLK;
 137              		.loc 1 96 5 is_stmt 1
 138              		.loc 1 96 10 is_stmt 0
 139 003a 93F606FC 		andi	a3,a3,-64
 140              	.LVL12:
  97:./../../firmware/GD32VF103_standard_peripheral/Source/gd32vf103_i2c.c ****     temp |= freq;
 141              		.loc 1 97 5 is_stmt 1
 142              		.loc 1 97 10 is_stmt 0
 143 003e DD8E     		or	a3,a5,a3
 144              	.LVL13:
  98:./../../firmware/GD32VF103_standard_peripheral/Source/gd32vf103_i2c.c ****     
  99:./../../firmware/GD32VF103_standard_peripheral/Source/gd32vf103_i2c.c ****     I2C_CTL1(i2c_periph) = temp;
 145              		.loc 1 99 5 is_stmt 1
 146              		.loc 1 99 26 is_stmt 0
 147 0040 54C0     		sw	a3,4(s0)
 100:./../../firmware/GD32VF103_standard_peripheral/Source/gd32vf103_i2c.c ****     
 101:./../../firmware/GD32VF103_standard_peripheral/Source/gd32vf103_i2c.c ****     if (100000U >= clkspeed) {
 148              		.loc 1 101 5 is_stmt 1
 149              		.loc 1 101 8 is_stmt 0
 150 0042 E166     		li	a3,98304
 151              	.LVL14:
 152 0044 9386066A 		addi	a3,a3,1696
 153 0048 63E19604 		bgtu	s1,a3,.L10
 102:./../../firmware/GD32VF103_standard_peripheral/Source/gd32vf103_i2c.c ****         /* the maximum SCL rise time is 1000ns in standard mode */
 103:./../../firmware/GD32VF103_standard_peripheral/Source/gd32vf103_i2c.c ****         risetime = (uint32_t) ((pclk1 / 1000000U) + 1U);
 154              		.loc 1 103 9 is_stmt 1
 155              		.loc 1 103 18 is_stmt 0
 156 004c 93071700 		addi	a5,a4,1
 157              	.LVL15:
 104:./../../firmware/GD32VF103_standard_peripheral/Source/gd32vf103_i2c.c ****         if (risetime >= I2CCLK_MAX) {
 158              		.loc 1 104 9 is_stmt 1
 159              		.loc 1 104 12 is_stmt 0
 160 0050 13075003 		li	a4,53
 161 0054 6376F700 		bleu	a5,a4,.L11
 105:./../../firmware/GD32VF103_standard_peripheral/Source/gd32vf103_i2c.c ****             I2C_RT(i2c_periph) = I2CCLK_MAX;
 162              		.loc 1 105 13 is_stmt 1
 163              		.loc 1 105 32 is_stmt 0
 164 0058 93076003 		li	a5,54
 165              	.LVL16:
 166              	.L13:
GAS LISTING C:\Users\Karzan\AppData\Local\Temp\cctocLKe.s 			page 6


 106:./../../firmware/GD32VF103_standard_peripheral/Source/gd32vf103_i2c.c ****         } else if (risetime <= I2CCLK_MIN) {
 107:./../../firmware/GD32VF103_standard_peripheral/Source/gd32vf103_i2c.c ****             I2C_RT(i2c_periph) = I2CCLK_MIN;
 108:./../../firmware/GD32VF103_standard_peripheral/Source/gd32vf103_i2c.c ****         } else {
 109:./../../firmware/GD32VF103_standard_peripheral/Source/gd32vf103_i2c.c ****             I2C_RT(i2c_periph) = risetime;
 167              		.loc 1 109 13 is_stmt 1
 168              		.loc 1 109 32 is_stmt 0
 169 005c 1CD0     		sw	a5,32(s0)
 170              	.LVL17:
 171 005e 29A0     		j	.L12
 172              	.LVL18:
 173              	.L11:
 106:./../../firmware/GD32VF103_standard_peripheral/Source/gd32vf103_i2c.c ****         } else if (risetime <= I2CCLK_MIN) {
 174              		.loc 1 106 16 is_stmt 1
 106:./../../firmware/GD32VF103_standard_peripheral/Source/gd32vf103_i2c.c ****         } else if (risetime <= I2CCLK_MIN) {
 175              		.loc 1 106 19 is_stmt 0
 176 0060 0947     		li	a4,2
 177 0062 E36DF7FE 		bgtu	a5,a4,.L13
 107:./../../firmware/GD32VF103_standard_peripheral/Source/gd32vf103_i2c.c ****         } else {
 178              		.loc 1 107 13 is_stmt 1
 107:./../../firmware/GD32VF103_standard_peripheral/Source/gd32vf103_i2c.c ****         } else {
 179              		.loc 1 107 32 is_stmt 0
 180 0066 18D0     		sw	a4,32(s0)
 181              	.LVL19:
 182              	.L12:
 110:./../../firmware/GD32VF103_standard_peripheral/Source/gd32vf103_i2c.c ****         }
 111:./../../firmware/GD32VF103_standard_peripheral/Source/gd32vf103_i2c.c ****         clkc = (uint32_t) (pclk1 / (clkspeed * 2U)); 
 183              		.loc 1 111 9 is_stmt 1
 184              		.loc 1 111 46 is_stmt 0
 185 0068 8604     		slli	s1,s1,1
 186              	.LVL20:
 112:./../../firmware/GD32VF103_standard_peripheral/Source/gd32vf103_i2c.c ****         if (clkc < 0x04U) {
 187              		.loc 1 112 9 is_stmt 1
 113:./../../firmware/GD32VF103_standard_peripheral/Source/gd32vf103_i2c.c ****             /* the CLKC in standard mode minmum value is 4 */
 114:./../../firmware/GD32VF103_standard_peripheral/Source/gd32vf103_i2c.c ****             clkc = 0x04U;
 115:./../../firmware/GD32VF103_standard_peripheral/Source/gd32vf103_i2c.c ****         }
 116:./../../firmware/GD32VF103_standard_peripheral/Source/gd32vf103_i2c.c ****         I2C_CKCFG(i2c_periph) |= (I2C_CKCFG_CLKC & clkc);
 188              		.loc 1 116 9
 189              		.loc 1 116 50 is_stmt 0
 190 006a 33559502 		divu	a0,a0,s1
 191              	.LVL21:
 192              		.loc 1 116 31
 193 006e 5C4C     		lw	a5,28(s0)
 194              		.loc 1 116 50
 195 0070 1147     		li	a4,4
 196 0072 6373E500 		bgeu	a0,a4,.L14
 197 0076 1145     		li	a0,4
 198              	.LVL22:
 199              	.L14:
 200 0078 5205     		slli	a0,a0,20
 201 007a 5181     		srli	a0,a0,20
 202              		.loc 1 116 31
 203 007c 5D8D     		or	a0,a0,a5
 204              	.L27:
 117:./../../firmware/GD32VF103_standard_peripheral/Source/gd32vf103_i2c.c **** 
 118:./../../firmware/GD32VF103_standard_peripheral/Source/gd32vf103_i2c.c ****     } else if (400000U >= clkspeed) {
 119:./../../firmware/GD32VF103_standard_peripheral/Source/gd32vf103_i2c.c ****         /* the maximum SCL rise time is 300ns in fast mode */
 120:./../../firmware/GD32VF103_standard_peripheral/Source/gd32vf103_i2c.c ****         I2C_RT(i2c_periph) = (uint32_t) (((freq * (uint32_t) 300U)/(uint32_t)1000U)+(uint32_t)1U);
GAS LISTING C:\Users\Karzan\AppData\Local\Temp\cctocLKe.s 			page 7


 121:./../../firmware/GD32VF103_standard_peripheral/Source/gd32vf103_i2c.c ****         if (I2C_DTCY_2 == dutycyc){
 122:./../../firmware/GD32VF103_standard_peripheral/Source/gd32vf103_i2c.c ****             /* I2C duty cycle is 2 */
 123:./../../firmware/GD32VF103_standard_peripheral/Source/gd32vf103_i2c.c ****             clkc = (uint32_t) (pclk1 / (clkspeed * 3U));
 124:./../../firmware/GD32VF103_standard_peripheral/Source/gd32vf103_i2c.c ****             I2C_CKCFG(i2c_periph) &= ~I2C_CKCFG_DTCY;
 125:./../../firmware/GD32VF103_standard_peripheral/Source/gd32vf103_i2c.c ****         } else {
 126:./../../firmware/GD32VF103_standard_peripheral/Source/gd32vf103_i2c.c ****             /* I2C duty cycle is 16/9 */
 127:./../../firmware/GD32VF103_standard_peripheral/Source/gd32vf103_i2c.c ****             clkc = (uint32_t) (pclk1 / (clkspeed * 25U));
 128:./../../firmware/GD32VF103_standard_peripheral/Source/gd32vf103_i2c.c ****             I2C_CKCFG(i2c_periph) |= I2C_CKCFG_DTCY;
 129:./../../firmware/GD32VF103_standard_peripheral/Source/gd32vf103_i2c.c ****         }
 130:./../../firmware/GD32VF103_standard_peripheral/Source/gd32vf103_i2c.c ****         if (0U == (clkc & I2C_CKCFG_CLKC)) {
 131:./../../firmware/GD32VF103_standard_peripheral/Source/gd32vf103_i2c.c ****             /* the CLKC in fast mode minmum value is 1 */
 132:./../../firmware/GD32VF103_standard_peripheral/Source/gd32vf103_i2c.c ****             clkc |= 0x0001U;  
 133:./../../firmware/GD32VF103_standard_peripheral/Source/gd32vf103_i2c.c ****         }
 134:./../../firmware/GD32VF103_standard_peripheral/Source/gd32vf103_i2c.c ****         I2C_CKCFG(i2c_periph) |= I2C_CKCFG_FAST;
 135:./../../firmware/GD32VF103_standard_peripheral/Source/gd32vf103_i2c.c ****         I2C_CKCFG(i2c_periph) |= clkc;
 205              		.loc 1 135 31
 206 007e 48CC     		sw	a0,28(s0)
 207              	.L8:
 136:./../../firmware/GD32VF103_standard_peripheral/Source/gd32vf103_i2c.c ****     } else {
 137:./../../firmware/GD32VF103_standard_peripheral/Source/gd32vf103_i2c.c ****         /* fast mode plus, the maximum SCL rise time is 120ns */
 138:./../../firmware/GD32VF103_standard_peripheral/Source/gd32vf103_i2c.c ****         I2C_RT (i2c_periph) = (uint32_t) (((freq * (uint32_t) 120U) / (uint32_t) 1000U)+(uint32_t) 
 139:./../../firmware/GD32VF103_standard_peripheral/Source/gd32vf103_i2c.c ****         if (I2C_DTCY_2 == dutycyc) {
 140:./../../firmware/GD32VF103_standard_peripheral/Source/gd32vf103_i2c.c ****             /* I2C duty cycle is 2 */
 141:./../../firmware/GD32VF103_standard_peripheral/Source/gd32vf103_i2c.c ****             clkc = (uint32_t) (pclk1 / (clkspeed * 3U));
 142:./../../firmware/GD32VF103_standard_peripheral/Source/gd32vf103_i2c.c ****             I2C_CKCFG(i2c_periph) &= ~I2C_CKCFG_DTCY;
 143:./../../firmware/GD32VF103_standard_peripheral/Source/gd32vf103_i2c.c ****         } else {
 144:./../../firmware/GD32VF103_standard_peripheral/Source/gd32vf103_i2c.c ****             /* I2C duty cycle is 16/9 */
 145:./../../firmware/GD32VF103_standard_peripheral/Source/gd32vf103_i2c.c ****             clkc = (uint32_t) (pclk1 / (clkspeed * 25U));
 146:./../../firmware/GD32VF103_standard_peripheral/Source/gd32vf103_i2c.c ****             I2C_CKCFG(i2c_periph) |= I2C_CKCFG_DTCY;
 147:./../../firmware/GD32VF103_standard_peripheral/Source/gd32vf103_i2c.c ****         }
 148:./../../firmware/GD32VF103_standard_peripheral/Source/gd32vf103_i2c.c ****         /* enable fast mode */
 149:./../../firmware/GD32VF103_standard_peripheral/Source/gd32vf103_i2c.c ****         I2C_CKCFG(i2c_periph) |= I2C_CKCFG_FAST;
 150:./../../firmware/GD32VF103_standard_peripheral/Source/gd32vf103_i2c.c ****         I2C_CKCFG(i2c_periph) |= clkc;
 151:./../../firmware/GD32VF103_standard_peripheral/Source/gd32vf103_i2c.c ****         /* enable I2C fast mode plus */
 152:./../../firmware/GD32VF103_standard_peripheral/Source/gd32vf103_i2c.c ****         I2C_FMPCFG(i2c_periph) |= I2C_FMPCFG_FMPEN;
 153:./../../firmware/GD32VF103_standard_peripheral/Source/gd32vf103_i2c.c ****     }
 154:./../../firmware/GD32VF103_standard_peripheral/Source/gd32vf103_i2c.c **** }
 208              		.loc 1 154 1
 209 0080 F240     		lw	ra,28(sp)
 210              		.cfi_remember_state
 211              		.cfi_restore 1
 212 0082 6244     		lw	s0,24(sp)
 213              		.cfi_restore 8
 214              	.LVL23:
 215 0084 D244     		lw	s1,20(sp)
 216              		.cfi_restore 9
 217 0086 0561     		addi	sp,sp,32
 218              	.LCFI6:
 219              		.cfi_def_cfa_offset 0
 220              	.LVL24:
 221 0088 8280     		jr	ra
 222              	.LVL25:
 223              	.L10:
 224              	.LCFI7:
 225              		.cfi_restore_state
 118:./../../firmware/GD32VF103_standard_peripheral/Source/gd32vf103_i2c.c ****         /* the maximum SCL rise time is 300ns in fast mode */
 226              		.loc 1 118 12 is_stmt 1
GAS LISTING C:\Users\Karzan\AppData\Local\Temp\cctocLKe.s 			page 8


 118:./../../firmware/GD32VF103_standard_peripheral/Source/gd32vf103_i2c.c ****         /* the maximum SCL rise time is 300ns in fast mode */
 227              		.loc 1 118 15 is_stmt 0
 228 008a 37270600 		li	a4,401408
 229 008e 130707A8 		addi	a4,a4,-1408
 230 0092 636C9704 		bgtu	s1,a4,.L16
 120:./../../firmware/GD32VF103_standard_peripheral/Source/gd32vf103_i2c.c ****         if (I2C_DTCY_2 == dutycyc){
 231              		.loc 1 120 9 is_stmt 1
 120:./../../firmware/GD32VF103_standard_peripheral/Source/gd32vf103_i2c.c ****         if (I2C_DTCY_2 == dutycyc){
 232              		.loc 1 120 49 is_stmt 0
 233 0096 1307C012 		li	a4,300
 234 009a B387E702 		mul	a5,a5,a4
 235              	.LVL26:
 120:./../../firmware/GD32VF103_standard_peripheral/Source/gd32vf103_i2c.c ****         if (I2C_DTCY_2 == dutycyc){
 236              		.loc 1 120 67
 237 009e 1307803E 		li	a4,1000
 238 00a2 B3D7E702 		divu	a5,a5,a4
 120:./../../firmware/GD32VF103_standard_peripheral/Source/gd32vf103_i2c.c ****         if (I2C_DTCY_2 == dutycyc){
 239              		.loc 1 120 30
 240 00a6 8507     		addi	a5,a5,1
 120:./../../firmware/GD32VF103_standard_peripheral/Source/gd32vf103_i2c.c ****         if (I2C_DTCY_2 == dutycyc){
 241              		.loc 1 120 28
 242 00a8 1CD0     		sw	a5,32(s0)
 243              	.LVL27:
 121:./../../firmware/GD32VF103_standard_peripheral/Source/gd32vf103_i2c.c ****             /* I2C duty cycle is 2 */
 244              		.loc 1 121 9 is_stmt 1
 121:./../../firmware/GD32VF103_standard_peripheral/Source/gd32vf103_i2c.c ****             /* I2C duty cycle is 2 */
 245              		.loc 1 121 12 is_stmt 0
 246 00aa 1DE6     		bne	a2,zero,.L17
 123:./../../firmware/GD32VF103_standard_peripheral/Source/gd32vf103_i2c.c ****             I2C_CKCFG(i2c_periph) &= ~I2C_CKCFG_DTCY;
 247              		.loc 1 123 13 is_stmt 1
 123:./../../firmware/GD32VF103_standard_peripheral/Source/gd32vf103_i2c.c ****             I2C_CKCFG(i2c_periph) &= ~I2C_CKCFG_DTCY;
 248              		.loc 1 123 50 is_stmt 0
 249 00ac 8D47     		li	a5,3
 250 00ae B384F402 		mul	s1,s1,a5
 251              	.LVL28:
 124:./../../firmware/GD32VF103_standard_peripheral/Source/gd32vf103_i2c.c ****         } else {
 252              		.loc 1 124 35
 253 00b2 5C4C     		lw	a5,28(s0)
 254 00b4 7177     		li	a4,-16384
 255 00b6 7D17     		addi	a4,a4,-1
 256 00b8 F98F     		and	a5,a5,a4
 123:./../../firmware/GD32VF103_standard_peripheral/Source/gd32vf103_i2c.c ****             I2C_CKCFG(i2c_periph) &= ~I2C_CKCFG_DTCY;
 257              		.loc 1 123 18
 258 00ba 33559502 		divu	a0,a0,s1
 259              	.LVL29:
 124:./../../firmware/GD32VF103_standard_peripheral/Source/gd32vf103_i2c.c ****         } else {
 260              		.loc 1 124 13 is_stmt 1
 261              	.L25:
 128:./../../firmware/GD32VF103_standard_peripheral/Source/gd32vf103_i2c.c ****         }
 262              		.loc 1 128 35 is_stmt 0
 263 00be 5CCC     		sw	a5,28(s0)
 130:./../../firmware/GD32VF103_standard_peripheral/Source/gd32vf103_i2c.c ****             /* the CLKC in fast mode minmum value is 1 */
 264              		.loc 1 130 9 is_stmt 1
 130:./../../firmware/GD32VF103_standard_peripheral/Source/gd32vf103_i2c.c ****             /* the CLKC in fast mode minmum value is 1 */
 265              		.loc 1 130 12 is_stmt 0
 266 00c0 93174501 		slli	a5,a0,20
 267 00c4 99E3     		bne	a5,zero,.L19
GAS LISTING C:\Users\Karzan\AppData\Local\Temp\cctocLKe.s 			page 9


 132:./../../firmware/GD32VF103_standard_peripheral/Source/gd32vf103_i2c.c ****         }
 268              		.loc 1 132 13 is_stmt 1
 132:./../../firmware/GD32VF103_standard_peripheral/Source/gd32vf103_i2c.c ****         }
 269              		.loc 1 132 18 is_stmt 0
 270 00c6 13651500 		ori	a0,a0,1
 271              	.LVL30:
 272              	.L19:
 134:./../../firmware/GD32VF103_standard_peripheral/Source/gd32vf103_i2c.c ****         I2C_CKCFG(i2c_periph) |= clkc;
 273              		.loc 1 134 9 is_stmt 1
 134:./../../firmware/GD32VF103_standard_peripheral/Source/gd32vf103_i2c.c ****         I2C_CKCFG(i2c_periph) |= clkc;
 274              		.loc 1 134 31 is_stmt 0
 275 00ca 5C4C     		lw	a5,28(s0)
 276 00cc 2167     		li	a4,32768
 277 00ce D98F     		or	a5,a5,a4
 278 00d0 5CCC     		sw	a5,28(s0)
 135:./../../firmware/GD32VF103_standard_peripheral/Source/gd32vf103_i2c.c ****     } else {
 279              		.loc 1 135 9 is_stmt 1
 135:./../../firmware/GD32VF103_standard_peripheral/Source/gd32vf103_i2c.c ****     } else {
 280              		.loc 1 135 31 is_stmt 0
 281 00d2 444C     		lw	s1,28(s0)
 282 00d4 458D     		or	a0,s1,a0
 283              	.LVL31:
 284 00d6 65B7     		j	.L27
 285              	.LVL32:
 286              	.L17:
 127:./../../firmware/GD32VF103_standard_peripheral/Source/gd32vf103_i2c.c ****             I2C_CKCFG(i2c_periph) |= I2C_CKCFG_DTCY;
 287              		.loc 1 127 13 is_stmt 1
 127:./../../firmware/GD32VF103_standard_peripheral/Source/gd32vf103_i2c.c ****             I2C_CKCFG(i2c_periph) |= I2C_CKCFG_DTCY;
 288              		.loc 1 127 50 is_stmt 0
 289 00d8 E547     		li	a5,25
 290 00da B384F402 		mul	s1,s1,a5
 291              	.LVL33:
 128:./../../firmware/GD32VF103_standard_peripheral/Source/gd32vf103_i2c.c ****         }
 292              		.loc 1 128 35
 293 00de 5C4C     		lw	a5,28(s0)
 294 00e0 1167     		li	a4,16384
 295 00e2 D98F     		or	a5,a5,a4
 127:./../../firmware/GD32VF103_standard_peripheral/Source/gd32vf103_i2c.c ****             I2C_CKCFG(i2c_periph) |= I2C_CKCFG_DTCY;
 296              		.loc 1 127 18
 297 00e4 33559502 		divu	a0,a0,s1
 298              	.LVL34:
 128:./../../firmware/GD32VF103_standard_peripheral/Source/gd32vf103_i2c.c ****         }
 299              		.loc 1 128 13 is_stmt 1
 300 00e8 D9BF     		j	.L25
 301              	.LVL35:
 302              	.L16:
 138:./../../firmware/GD32VF103_standard_peripheral/Source/gd32vf103_i2c.c ****         if (I2C_DTCY_2 == dutycyc) {
 303              		.loc 1 138 9
 138:./../../firmware/GD32VF103_standard_peripheral/Source/gd32vf103_i2c.c ****         if (I2C_DTCY_2 == dutycyc) {
 304              		.loc 1 138 50 is_stmt 0
 305 00ea 13078007 		li	a4,120
 306 00ee B387E702 		mul	a5,a5,a4
 307              	.LVL36:
 138:./../../firmware/GD32VF103_standard_peripheral/Source/gd32vf103_i2c.c ****         if (I2C_DTCY_2 == dutycyc) {
 308              		.loc 1 138 69
 309 00f2 1307803E 		li	a4,1000
 310 00f6 B3D7E702 		divu	a5,a5,a4
GAS LISTING C:\Users\Karzan\AppData\Local\Temp\cctocLKe.s 			page 10


 138:./../../firmware/GD32VF103_standard_peripheral/Source/gd32vf103_i2c.c ****         if (I2C_DTCY_2 == dutycyc) {
 311              		.loc 1 138 31
 312 00fa 8507     		addi	a5,a5,1
 138:./../../firmware/GD32VF103_standard_peripheral/Source/gd32vf103_i2c.c ****         if (I2C_DTCY_2 == dutycyc) {
 313              		.loc 1 138 29
 314 00fc 1CD0     		sw	a5,32(s0)
 315              	.LVL37:
 139:./../../firmware/GD32VF103_standard_peripheral/Source/gd32vf103_i2c.c ****             /* I2C duty cycle is 2 */
 316              		.loc 1 139 9 is_stmt 1
 139:./../../firmware/GD32VF103_standard_peripheral/Source/gd32vf103_i2c.c ****             /* I2C duty cycle is 2 */
 317              		.loc 1 139 12 is_stmt 0
 318 00fe 0DEA     		bne	a2,zero,.L20
 141:./../../firmware/GD32VF103_standard_peripheral/Source/gd32vf103_i2c.c ****             I2C_CKCFG(i2c_periph) &= ~I2C_CKCFG_DTCY;
 319              		.loc 1 141 13 is_stmt 1
 141:./../../firmware/GD32VF103_standard_peripheral/Source/gd32vf103_i2c.c ****             I2C_CKCFG(i2c_periph) &= ~I2C_CKCFG_DTCY;
 320              		.loc 1 141 50 is_stmt 0
 321 0100 8D45     		li	a1,3
 322 0102 B384B402 		mul	s1,s1,a1
 323              	.LVL38:
 142:./../../firmware/GD32VF103_standard_peripheral/Source/gd32vf103_i2c.c ****         } else {
 324              		.loc 1 142 35
 325 0106 5C4C     		lw	a5,28(s0)
 326 0108 7177     		li	a4,-16384
 327 010a 7D17     		addi	a4,a4,-1
 328 010c F98F     		and	a5,a5,a4
 141:./../../firmware/GD32VF103_standard_peripheral/Source/gd32vf103_i2c.c ****             I2C_CKCFG(i2c_periph) &= ~I2C_CKCFG_DTCY;
 329              		.loc 1 141 18
 330 010e 33559502 		divu	a0,a0,s1
 331              	.LVL39:
 142:./../../firmware/GD32VF103_standard_peripheral/Source/gd32vf103_i2c.c ****         } else {
 332              		.loc 1 142 13 is_stmt 1
 333              	.L26:
 146:./../../firmware/GD32VF103_standard_peripheral/Source/gd32vf103_i2c.c ****         }
 334              		.loc 1 146 35 is_stmt 0
 335 0112 5CCC     		sw	a5,28(s0)
 149:./../../firmware/GD32VF103_standard_peripheral/Source/gd32vf103_i2c.c ****         I2C_CKCFG(i2c_periph) |= clkc;
 336              		.loc 1 149 9 is_stmt 1
 149:./../../firmware/GD32VF103_standard_peripheral/Source/gd32vf103_i2c.c ****         I2C_CKCFG(i2c_periph) |= clkc;
 337              		.loc 1 149 31 is_stmt 0
 338 0114 5C4C     		lw	a5,28(s0)
 339 0116 2167     		li	a4,32768
 340 0118 D98F     		or	a5,a5,a4
 341 011a 5CCC     		sw	a5,28(s0)
 150:./../../firmware/GD32VF103_standard_peripheral/Source/gd32vf103_i2c.c ****         /* enable I2C fast mode plus */
 342              		.loc 1 150 9 is_stmt 1
 150:./../../firmware/GD32VF103_standard_peripheral/Source/gd32vf103_i2c.c ****         /* enable I2C fast mode plus */
 343              		.loc 1 150 31 is_stmt 0
 344 011c 444C     		lw	s1,28(s0)
 345 011e 458D     		or	a0,s1,a0
 346              	.LVL40:
 347 0120 48CC     		sw	a0,28(s0)
 152:./../../firmware/GD32VF103_standard_peripheral/Source/gd32vf103_i2c.c ****     }
 348              		.loc 1 152 9 is_stmt 1
 152:./../../firmware/GD32VF103_standard_peripheral/Source/gd32vf103_i2c.c ****     }
 349              		.loc 1 152 32 is_stmt 0
 350 0122 83270409 		lw	a5,144(s0)
 351 0126 93E71700 		ori	a5,a5,1
GAS LISTING C:\Users\Karzan\AppData\Local\Temp\cctocLKe.s 			page 11


 352 012a 2328F408 		sw	a5,144(s0)
 353              		.loc 1 154 1
 354 012e 89BF     		j	.L8
 355              	.LVL41:
 356              	.L20:
 145:./../../firmware/GD32VF103_standard_peripheral/Source/gd32vf103_i2c.c ****             I2C_CKCFG(i2c_periph) |= I2C_CKCFG_DTCY;
 357              		.loc 1 145 13 is_stmt 1
 145:./../../firmware/GD32VF103_standard_peripheral/Source/gd32vf103_i2c.c ****             I2C_CKCFG(i2c_periph) |= I2C_CKCFG_DTCY;
 358              		.loc 1 145 50 is_stmt 0
 359 0130 E545     		li	a1,25
 360 0132 B384B402 		mul	s1,s1,a1
 361              	.LVL42:
 146:./../../firmware/GD32VF103_standard_peripheral/Source/gd32vf103_i2c.c ****         }
 362              		.loc 1 146 35
 363 0136 5C4C     		lw	a5,28(s0)
 364 0138 1167     		li	a4,16384
 365 013a D98F     		or	a5,a5,a4
 145:./../../firmware/GD32VF103_standard_peripheral/Source/gd32vf103_i2c.c ****             I2C_CKCFG(i2c_periph) |= I2C_CKCFG_DTCY;
 366              		.loc 1 145 18
 367 013c 33559502 		divu	a0,a0,s1
 368              	.LVL43:
 146:./../../firmware/GD32VF103_standard_peripheral/Source/gd32vf103_i2c.c ****         }
 369              		.loc 1 146 13 is_stmt 1
 370 0140 C9BF     		j	.L26
 371              		.cfi_endproc
 372              	.LFE3:
 374              		.section	.text.i2c_mode_addr_config,"ax",@progbits
 375              		.align	1
 376              		.globl	i2c_mode_addr_config
 378              	i2c_mode_addr_config:
 379              	.LFB4:
 155:./../../firmware/GD32VF103_standard_peripheral/Source/gd32vf103_i2c.c **** 
 156:./../../firmware/GD32VF103_standard_peripheral/Source/gd32vf103_i2c.c **** /*!
 157:./../../firmware/GD32VF103_standard_peripheral/Source/gd32vf103_i2c.c ****     \brief      configure I2C address 
 158:./../../firmware/GD32VF103_standard_peripheral/Source/gd32vf103_i2c.c ****     \param[in]  i2c_periph: I2Cx(x=0,1)
 159:./../../firmware/GD32VF103_standard_peripheral/Source/gd32vf103_i2c.c ****     \param[in]  mode:
 160:./../../firmware/GD32VF103_standard_peripheral/Source/gd32vf103_i2c.c ****                 only one parameter can be selected which is shown as below:
 161:./../../firmware/GD32VF103_standard_peripheral/Source/gd32vf103_i2c.c ****     \arg        I2C_I2CMODE_ENABLE: I2C mode
 162:./../../firmware/GD32VF103_standard_peripheral/Source/gd32vf103_i2c.c ****     \arg        I2C_SMBUSMODE_ENABLE: SMBus mode
 163:./../../firmware/GD32VF103_standard_peripheral/Source/gd32vf103_i2c.c ****     \param[in]  addformat: 7bits or 10bits
 164:./../../firmware/GD32VF103_standard_peripheral/Source/gd32vf103_i2c.c ****                 only one parameter can be selected which is shown as below:
 165:./../../firmware/GD32VF103_standard_peripheral/Source/gd32vf103_i2c.c ****     \arg        I2C_ADDFORMAT_7BITS: 7bits
 166:./../../firmware/GD32VF103_standard_peripheral/Source/gd32vf103_i2c.c ****     \arg        I2C_ADDFORMAT_10BITS: 10bits
 167:./../../firmware/GD32VF103_standard_peripheral/Source/gd32vf103_i2c.c ****     \param[in]  addr: I2C address
 168:./../../firmware/GD32VF103_standard_peripheral/Source/gd32vf103_i2c.c ****     \param[out] none
 169:./../../firmware/GD32VF103_standard_peripheral/Source/gd32vf103_i2c.c ****     \retval     none
 170:./../../firmware/GD32VF103_standard_peripheral/Source/gd32vf103_i2c.c ****  */
 171:./../../firmware/GD32VF103_standard_peripheral/Source/gd32vf103_i2c.c **** void i2c_mode_addr_config(uint32_t i2c_periph, uint32_t mode,uint32_t addformat, uint32_t addr) 
 172:./../../firmware/GD32VF103_standard_peripheral/Source/gd32vf103_i2c.c **** {
 380              		.loc 1 172 1
 381              		.cfi_startproc
 382              	.LVL44:
 173:./../../firmware/GD32VF103_standard_peripheral/Source/gd32vf103_i2c.c ****     /* SMBus/I2C mode selected */
 174:./../../firmware/GD32VF103_standard_peripheral/Source/gd32vf103_i2c.c ****     uint32_t ctl = 0U;
 383              		.loc 1 174 5
 175:./../../firmware/GD32VF103_standard_peripheral/Source/gd32vf103_i2c.c **** 
 176:./../../firmware/GD32VF103_standard_peripheral/Source/gd32vf103_i2c.c ****     ctl = I2C_CTL0(i2c_periph);
GAS LISTING C:\Users\Karzan\AppData\Local\Temp\cctocLKe.s 			page 12


 384              		.loc 1 176 5
 385              		.loc 1 176 9 is_stmt 0
 386 0000 1C41     		lw	a5,0(a0)
 387              	.LVL45:
 177:./../../firmware/GD32VF103_standard_peripheral/Source/gd32vf103_i2c.c ****     ctl &= ~(I2C_CTL0_SMBEN);
 388              		.loc 1 177 5 is_stmt 1
 178:./../../firmware/GD32VF103_standard_peripheral/Source/gd32vf103_i2c.c ****     ctl |= mode;
 179:./../../firmware/GD32VF103_standard_peripheral/Source/gd32vf103_i2c.c ****     I2C_CTL0(i2c_periph) = ctl;
 180:./../../firmware/GD32VF103_standard_peripheral/Source/gd32vf103_i2c.c ****     /* configure address */
 181:./../../firmware/GD32VF103_standard_peripheral/Source/gd32vf103_i2c.c ****     addr = addr & I2C_ADDRESS_MASK;
 389              		.loc 1 181 10 is_stmt 0
 390 0002 93F6F63F 		andi	a3,a3,1023
 391              	.LVL46:
 182:./../../firmware/GD32VF103_standard_peripheral/Source/gd32vf103_i2c.c ****     I2C_SADDR0(i2c_periph) = (addformat | addr);
 392              		.loc 1 182 41
 393 0006 D18E     		or	a3,a3,a2
 177:./../../firmware/GD32VF103_standard_peripheral/Source/gd32vf103_i2c.c ****     ctl &= ~(I2C_CTL0_SMBEN);
 394              		.loc 1 177 9
 395 0008 F59B     		andi	a5,a5,-3
 396              	.LVL47:
 178:./../../firmware/GD32VF103_standard_peripheral/Source/gd32vf103_i2c.c ****     ctl |= mode;
 397              		.loc 1 178 5 is_stmt 1
 178:./../../firmware/GD32VF103_standard_peripheral/Source/gd32vf103_i2c.c ****     ctl |= mode;
 398              		.loc 1 178 9 is_stmt 0
 399 000a DD8D     		or	a1,a5,a1
 400              	.LVL48:
 179:./../../firmware/GD32VF103_standard_peripheral/Source/gd32vf103_i2c.c ****     /* configure address */
 401              		.loc 1 179 5 is_stmt 1
 179:./../../firmware/GD32VF103_standard_peripheral/Source/gd32vf103_i2c.c ****     /* configure address */
 402              		.loc 1 179 26 is_stmt 0
 403 000c 0CC1     		sw	a1,0(a0)
 181:./../../firmware/GD32VF103_standard_peripheral/Source/gd32vf103_i2c.c ****     I2C_SADDR0(i2c_periph) = (addformat | addr);
 404              		.loc 1 181 5 is_stmt 1
 405              	.LVL49:
 406              		.loc 1 182 5
 407              		.loc 1 182 28 is_stmt 0
 408 000e 14C5     		sw	a3,8(a0)
 183:./../../firmware/GD32VF103_standard_peripheral/Source/gd32vf103_i2c.c **** }
 409              		.loc 1 183 1
 410 0010 8280     		ret
 411              		.cfi_endproc
 412              	.LFE4:
 414              		.section	.text.i2c_smbus_type_config,"ax",@progbits
 415              		.align	1
 416              		.globl	i2c_smbus_type_config
 418              	i2c_smbus_type_config:
 419              	.LFB5:
 184:./../../firmware/GD32VF103_standard_peripheral/Source/gd32vf103_i2c.c **** 
 185:./../../firmware/GD32VF103_standard_peripheral/Source/gd32vf103_i2c.c **** /*!
 186:./../../firmware/GD32VF103_standard_peripheral/Source/gd32vf103_i2c.c ****     \brief      SMBus type selection
 187:./../../firmware/GD32VF103_standard_peripheral/Source/gd32vf103_i2c.c ****     \param[in]  i2c_periph: I2Cx(x=0,1)
 188:./../../firmware/GD32VF103_standard_peripheral/Source/gd32vf103_i2c.c ****     \param[in]  type:
 189:./../../firmware/GD32VF103_standard_peripheral/Source/gd32vf103_i2c.c ****                 only one parameter can be selected which is shown as below:
 190:./../../firmware/GD32VF103_standard_peripheral/Source/gd32vf103_i2c.c ****     \arg        I2C_SMBUS_DEVICE: device
 191:./../../firmware/GD32VF103_standard_peripheral/Source/gd32vf103_i2c.c ****     \arg        I2C_SMBUS_HOST: host
 192:./../../firmware/GD32VF103_standard_peripheral/Source/gd32vf103_i2c.c ****     \param[out] none
 193:./../../firmware/GD32VF103_standard_peripheral/Source/gd32vf103_i2c.c ****     \retval     none
GAS LISTING C:\Users\Karzan\AppData\Local\Temp\cctocLKe.s 			page 13


 194:./../../firmware/GD32VF103_standard_peripheral/Source/gd32vf103_i2c.c ****  */
 195:./../../firmware/GD32VF103_standard_peripheral/Source/gd32vf103_i2c.c **** void i2c_smbus_type_config(uint32_t i2c_periph, uint32_t type)
 196:./../../firmware/GD32VF103_standard_peripheral/Source/gd32vf103_i2c.c **** {
 420              		.loc 1 196 1 is_stmt 1
 421              		.cfi_startproc
 422              	.LVL50:
 197:./../../firmware/GD32VF103_standard_peripheral/Source/gd32vf103_i2c.c ****     if (I2C_SMBUS_HOST == type) {
 423              		.loc 1 197 5
 424              		.loc 1 197 8 is_stmt 0
 425 0000 A147     		li	a5,8
 426 0002 6397F500 		bne	a1,a5,.L30
 198:./../../firmware/GD32VF103_standard_peripheral/Source/gd32vf103_i2c.c ****         I2C_CTL0(i2c_periph) |= I2C_CTL0_SMBSEL;
 427              		.loc 1 198 9 is_stmt 1
 428              		.loc 1 198 30 is_stmt 0
 429 0006 1C41     		lw	a5,0(a0)
 430 0008 93E78700 		ori	a5,a5,8
 431              	.L32:
 199:./../../firmware/GD32VF103_standard_peripheral/Source/gd32vf103_i2c.c ****     } else {
 200:./../../firmware/GD32VF103_standard_peripheral/Source/gd32vf103_i2c.c ****         I2C_CTL0(i2c_periph) &= ~(I2C_CTL0_SMBSEL);
 432              		.loc 1 200 30
 433 000c 1CC1     		sw	a5,0(a0)
 201:./../../firmware/GD32VF103_standard_peripheral/Source/gd32vf103_i2c.c ****     }
 202:./../../firmware/GD32VF103_standard_peripheral/Source/gd32vf103_i2c.c **** }
 434              		.loc 1 202 1
 435 000e 8280     		ret
 436              	.L30:
 200:./../../firmware/GD32VF103_standard_peripheral/Source/gd32vf103_i2c.c ****     }
 437              		.loc 1 200 9 is_stmt 1
 200:./../../firmware/GD32VF103_standard_peripheral/Source/gd32vf103_i2c.c ****     }
 438              		.loc 1 200 30 is_stmt 0
 439 0010 1C41     		lw	a5,0(a0)
 440 0012 DD9B     		andi	a5,a5,-9
 441 0014 E5BF     		j	.L32
 442              		.cfi_endproc
 443              	.LFE5:
 445              		.section	.text.i2c_ack_config,"ax",@progbits
 446              		.align	1
 447              		.globl	i2c_ack_config
 449              	i2c_ack_config:
 450              	.LFB6:
 203:./../../firmware/GD32VF103_standard_peripheral/Source/gd32vf103_i2c.c **** 
 204:./../../firmware/GD32VF103_standard_peripheral/Source/gd32vf103_i2c.c **** /*!
 205:./../../firmware/GD32VF103_standard_peripheral/Source/gd32vf103_i2c.c ****     \brief      whether or not to send an ACK
 206:./../../firmware/GD32VF103_standard_peripheral/Source/gd32vf103_i2c.c ****     \param[in]  i2c_periph: I2Cx(x=0,1)
 207:./../../firmware/GD32VF103_standard_peripheral/Source/gd32vf103_i2c.c ****     \param[in]  ack:
 208:./../../firmware/GD32VF103_standard_peripheral/Source/gd32vf103_i2c.c ****                 only one parameter can be selected which is shown as below:
 209:./../../firmware/GD32VF103_standard_peripheral/Source/gd32vf103_i2c.c ****     \arg        I2C_ACK_ENABLE: ACK will be sent
 210:./../../firmware/GD32VF103_standard_peripheral/Source/gd32vf103_i2c.c ****     \arg        I2C_ACK_DISABLE: ACK will not be sent
 211:./../../firmware/GD32VF103_standard_peripheral/Source/gd32vf103_i2c.c ****     \param[out] none
 212:./../../firmware/GD32VF103_standard_peripheral/Source/gd32vf103_i2c.c ****     \retval     none
 213:./../../firmware/GD32VF103_standard_peripheral/Source/gd32vf103_i2c.c ****  */
 214:./../../firmware/GD32VF103_standard_peripheral/Source/gd32vf103_i2c.c **** void i2c_ack_config(uint32_t i2c_periph, uint32_t ack) 
 215:./../../firmware/GD32VF103_standard_peripheral/Source/gd32vf103_i2c.c **** {
 451              		.loc 1 215 1 is_stmt 1
 452              		.cfi_startproc
 453              	.LVL51:
 216:./../../firmware/GD32VF103_standard_peripheral/Source/gd32vf103_i2c.c ****     if (I2C_ACK_ENABLE == ack) {
GAS LISTING C:\Users\Karzan\AppData\Local\Temp\cctocLKe.s 			page 14


 454              		.loc 1 216 5
 455              		.loc 1 216 8 is_stmt 0
 456 0000 8547     		li	a5,1
 457 0002 6397F500 		bne	a1,a5,.L34
 217:./../../firmware/GD32VF103_standard_peripheral/Source/gd32vf103_i2c.c ****         I2C_CTL0(i2c_periph) |= I2C_CTL0_ACKEN;
 458              		.loc 1 217 9 is_stmt 1
 459              		.loc 1 217 30 is_stmt 0
 460 0006 1C41     		lw	a5,0(a0)
 461 0008 93E70740 		ori	a5,a5,1024
 462              	.L36:
 218:./../../firmware/GD32VF103_standard_peripheral/Source/gd32vf103_i2c.c ****     } else {
 219:./../../firmware/GD32VF103_standard_peripheral/Source/gd32vf103_i2c.c ****         I2C_CTL0(i2c_periph) &= ~(I2C_CTL0_ACKEN);
 463              		.loc 1 219 30
 464 000c 1CC1     		sw	a5,0(a0)
 220:./../../firmware/GD32VF103_standard_peripheral/Source/gd32vf103_i2c.c ****     }
 221:./../../firmware/GD32VF103_standard_peripheral/Source/gd32vf103_i2c.c **** }
 465              		.loc 1 221 1
 466 000e 8280     		ret
 467              	.L34:
 219:./../../firmware/GD32VF103_standard_peripheral/Source/gd32vf103_i2c.c ****     }
 468              		.loc 1 219 9 is_stmt 1
 219:./../../firmware/GD32VF103_standard_peripheral/Source/gd32vf103_i2c.c ****     }
 469              		.loc 1 219 30 is_stmt 0
 470 0010 1C41     		lw	a5,0(a0)
 471 0012 93F7F7BF 		andi	a5,a5,-1025
 472 0016 DDBF     		j	.L36
 473              		.cfi_endproc
 474              	.LFE6:
 476              		.section	.text.i2c_ackpos_config,"ax",@progbits
 477              		.align	1
 478              		.globl	i2c_ackpos_config
 480              	i2c_ackpos_config:
 481              	.LFB7:
 222:./../../firmware/GD32VF103_standard_peripheral/Source/gd32vf103_i2c.c **** 
 223:./../../firmware/GD32VF103_standard_peripheral/Source/gd32vf103_i2c.c **** /*!
 224:./../../firmware/GD32VF103_standard_peripheral/Source/gd32vf103_i2c.c ****     \brief      configure I2C POAP position
 225:./../../firmware/GD32VF103_standard_peripheral/Source/gd32vf103_i2c.c ****     \param[in]  i2c_periph: I2Cx(x=0,1)
 226:./../../firmware/GD32VF103_standard_peripheral/Source/gd32vf103_i2c.c ****     \param[in]  pos:
 227:./../../firmware/GD32VF103_standard_peripheral/Source/gd32vf103_i2c.c ****                 only one parameter can be selected which is shown as below:
 228:./../../firmware/GD32VF103_standard_peripheral/Source/gd32vf103_i2c.c ****     \arg        I2C_ACKPOS_CURRENT: whether to send ACK or not for the current
 229:./../../firmware/GD32VF103_standard_peripheral/Source/gd32vf103_i2c.c ****     \arg        I2C_ACKPOS_NEXT: whether to send ACK or not for the next byte
 230:./../../firmware/GD32VF103_standard_peripheral/Source/gd32vf103_i2c.c ****     \param[out] none
 231:./../../firmware/GD32VF103_standard_peripheral/Source/gd32vf103_i2c.c ****     \retval     none
 232:./../../firmware/GD32VF103_standard_peripheral/Source/gd32vf103_i2c.c ****  */
 233:./../../firmware/GD32VF103_standard_peripheral/Source/gd32vf103_i2c.c **** void i2c_ackpos_config(uint32_t i2c_periph, uint32_t pos) 
 234:./../../firmware/GD32VF103_standard_peripheral/Source/gd32vf103_i2c.c **** {
 482              		.loc 1 234 1 is_stmt 1
 483              		.cfi_startproc
 484              	.LVL52:
 235:./../../firmware/GD32VF103_standard_peripheral/Source/gd32vf103_i2c.c ****     /* configure I2C POAP position */
 236:./../../firmware/GD32VF103_standard_peripheral/Source/gd32vf103_i2c.c ****     if (I2C_ACKPOS_NEXT == pos) {
 485              		.loc 1 236 5
 237:./../../firmware/GD32VF103_standard_peripheral/Source/gd32vf103_i2c.c ****         I2C_CTL0(i2c_periph) |= I2C_CTL0_POAP;
 486              		.loc 1 237 30 is_stmt 0
 487 0000 1C41     		lw	a5,0(a0)
 236:./../../firmware/GD32VF103_standard_peripheral/Source/gd32vf103_i2c.c ****         I2C_CTL0(i2c_periph) |= I2C_CTL0_POAP;
 488              		.loc 1 236 8
GAS LISTING C:\Users\Karzan\AppData\Local\Temp\cctocLKe.s 			page 15


 489 0002 99E5     		bne	a1,zero,.L38
 490              		.loc 1 237 9 is_stmt 1
 491              		.loc 1 237 30 is_stmt 0
 492 0004 0567     		li	a4,4096
 493 0006 13070780 		addi	a4,a4,-2048
 494 000a D98F     		or	a5,a5,a4
 495              	.L40:
 238:./../../firmware/GD32VF103_standard_peripheral/Source/gd32vf103_i2c.c ****     } else {
 239:./../../firmware/GD32VF103_standard_peripheral/Source/gd32vf103_i2c.c ****         I2C_CTL0(i2c_periph) &= ~(I2C_CTL0_POAP);
 496              		.loc 1 239 30
 497 000c 1CC1     		sw	a5,0(a0)
 240:./../../firmware/GD32VF103_standard_peripheral/Source/gd32vf103_i2c.c ****     }
 241:./../../firmware/GD32VF103_standard_peripheral/Source/gd32vf103_i2c.c **** }
 498              		.loc 1 241 1
 499 000e 8280     		ret
 500              	.L38:
 239:./../../firmware/GD32VF103_standard_peripheral/Source/gd32vf103_i2c.c ****     }
 501              		.loc 1 239 9 is_stmt 1
 239:./../../firmware/GD32VF103_standard_peripheral/Source/gd32vf103_i2c.c ****     }
 502              		.loc 1 239 30 is_stmt 0
 503 0010 7D77     		li	a4,-4096
 504 0012 1307F77F 		addi	a4,a4,2047
 505 0016 F98F     		and	a5,a5,a4
 506 0018 D5BF     		j	.L40
 507              		.cfi_endproc
 508              	.LFE7:
 510              		.section	.text.i2c_master_addressing,"ax",@progbits
 511              		.align	1
 512              		.globl	i2c_master_addressing
 514              	i2c_master_addressing:
 515              	.LFB8:
 242:./../../firmware/GD32VF103_standard_peripheral/Source/gd32vf103_i2c.c **** 
 243:./../../firmware/GD32VF103_standard_peripheral/Source/gd32vf103_i2c.c **** /*!
 244:./../../firmware/GD32VF103_standard_peripheral/Source/gd32vf103_i2c.c ****     \brief      master sends slave address
 245:./../../firmware/GD32VF103_standard_peripheral/Source/gd32vf103_i2c.c ****     \param[in]  i2c_periph: I2Cx(x=0,1)
 246:./../../firmware/GD32VF103_standard_peripheral/Source/gd32vf103_i2c.c ****     \param[in]  addr: slave address  
 247:./../../firmware/GD32VF103_standard_peripheral/Source/gd32vf103_i2c.c ****     \param[in]  trandirection: transmitter or receiver
 248:./../../firmware/GD32VF103_standard_peripheral/Source/gd32vf103_i2c.c ****                 only one parameter can be selected which is shown as below:
 249:./../../firmware/GD32VF103_standard_peripheral/Source/gd32vf103_i2c.c ****     \arg        I2C_TRANSMITTER: transmitter  
 250:./../../firmware/GD32VF103_standard_peripheral/Source/gd32vf103_i2c.c ****     \arg        I2C_RECEIVER:    receiver  
 251:./../../firmware/GD32VF103_standard_peripheral/Source/gd32vf103_i2c.c ****     \param[out] none
 252:./../../firmware/GD32VF103_standard_peripheral/Source/gd32vf103_i2c.c ****     \retval     none
 253:./../../firmware/GD32VF103_standard_peripheral/Source/gd32vf103_i2c.c ****  */
 254:./../../firmware/GD32VF103_standard_peripheral/Source/gd32vf103_i2c.c **** void i2c_master_addressing(uint32_t i2c_periph, uint32_t addr,uint32_t trandirection) 
 255:./../../firmware/GD32VF103_standard_peripheral/Source/gd32vf103_i2c.c **** {
 516              		.loc 1 255 1 is_stmt 1
 517              		.cfi_startproc
 518              	.LVL53:
 256:./../../firmware/GD32VF103_standard_peripheral/Source/gd32vf103_i2c.c ****     /* master is a transmitter or a receiver */
 257:./../../firmware/GD32VF103_standard_peripheral/Source/gd32vf103_i2c.c ****     if (I2C_TRANSMITTER == trandirection) {
 519              		.loc 1 257 5
 520              		.loc 1 257 8 is_stmt 0
 521 0000 7957     		li	a4,-2
 258:./../../firmware/GD32VF103_standard_peripheral/Source/gd32vf103_i2c.c ****         addr = addr & I2C_TRANSMITTER;
 259:./../../firmware/GD32VF103_standard_peripheral/Source/gd32vf103_i2c.c ****     } else {
 260:./../../firmware/GD32VF103_standard_peripheral/Source/gd32vf103_i2c.c ****         addr = addr | I2C_RECEIVER;
 522              		.loc 1 260 14
GAS LISTING C:\Users\Karzan\AppData\Local\Temp\cctocLKe.s 			page 16


 523 0002 93E71500 		ori	a5,a1,1
 257:./../../firmware/GD32VF103_standard_peripheral/Source/gd32vf103_i2c.c ****         addr = addr & I2C_TRANSMITTER;
 524              		.loc 1 257 8
 525 0006 6314E600 		bne	a2,a4,.L43
 258:./../../firmware/GD32VF103_standard_peripheral/Source/gd32vf103_i2c.c ****         addr = addr & I2C_TRANSMITTER;
 526              		.loc 1 258 9 is_stmt 1
 258:./../../firmware/GD32VF103_standard_peripheral/Source/gd32vf103_i2c.c ****         addr = addr & I2C_TRANSMITTER;
 527              		.loc 1 258 14 is_stmt 0
 528 000a 93F7E5FF 		andi	a5,a1,-2
 529              	.LVL54:
 530              	.L43:
 261:./../../firmware/GD32VF103_standard_peripheral/Source/gd32vf103_i2c.c ****     }
 262:./../../firmware/GD32VF103_standard_peripheral/Source/gd32vf103_i2c.c ****     /* send slave address */
 263:./../../firmware/GD32VF103_standard_peripheral/Source/gd32vf103_i2c.c ****     I2C_DATA(i2c_periph) = addr;
 531              		.loc 1 263 5 is_stmt 1
 532              		.loc 1 263 26 is_stmt 0
 533 000e 1CC9     		sw	a5,16(a0)
 264:./../../firmware/GD32VF103_standard_peripheral/Source/gd32vf103_i2c.c **** }
 534              		.loc 1 264 1
 535 0010 8280     		ret
 536              		.cfi_endproc
 537              	.LFE8:
 539              		.section	.text.i2c_dualaddr_enable,"ax",@progbits
 540              		.align	1
 541              		.globl	i2c_dualaddr_enable
 543              	i2c_dualaddr_enable:
 544              	.LFB9:
 265:./../../firmware/GD32VF103_standard_peripheral/Source/gd32vf103_i2c.c **** 
 266:./../../firmware/GD32VF103_standard_peripheral/Source/gd32vf103_i2c.c **** /*!
 267:./../../firmware/GD32VF103_standard_peripheral/Source/gd32vf103_i2c.c ****     \brief      enable dual-address mode
 268:./../../firmware/GD32VF103_standard_peripheral/Source/gd32vf103_i2c.c ****     \param[in]  i2c_periph: I2Cx(x=0,1)
 269:./../../firmware/GD32VF103_standard_peripheral/Source/gd32vf103_i2c.c ****     \param[in]  dualaddr: the second address in dual-address mode
 270:./../../firmware/GD32VF103_standard_peripheral/Source/gd32vf103_i2c.c ****     \param[out] none
 271:./../../firmware/GD32VF103_standard_peripheral/Source/gd32vf103_i2c.c ****     \retval     none
 272:./../../firmware/GD32VF103_standard_peripheral/Source/gd32vf103_i2c.c **** */
 273:./../../firmware/GD32VF103_standard_peripheral/Source/gd32vf103_i2c.c **** void i2c_dualaddr_enable(uint32_t i2c_periph, uint32_t dualaddr) 
 274:./../../firmware/GD32VF103_standard_peripheral/Source/gd32vf103_i2c.c **** {
 545              		.loc 1 274 1 is_stmt 1
 546              		.cfi_startproc
 547              	.LVL55:
 275:./../../firmware/GD32VF103_standard_peripheral/Source/gd32vf103_i2c.c ****     /* configure address */
 276:./../../firmware/GD32VF103_standard_peripheral/Source/gd32vf103_i2c.c ****     dualaddr = dualaddr & I2C_ADDRESS2_MASK;
 548              		.loc 1 276 5
 277:./../../firmware/GD32VF103_standard_peripheral/Source/gd32vf103_i2c.c ****     I2C_SADDR1(i2c_periph) = (I2C_SADDR1_DUADEN | dualaddr);
 549              		.loc 1 277 5
 276:./../../firmware/GD32VF103_standard_peripheral/Source/gd32vf103_i2c.c ****     I2C_SADDR1(i2c_periph) = (I2C_SADDR1_DUADEN | dualaddr);
 550              		.loc 1 276 14 is_stmt 0
 551 0000 93F5E50F 		andi	a1,a1,254
 552              	.LVL56:
 553              		.loc 1 277 49
 554 0004 93E51500 		ori	a1,a1,1
 555              	.LVL57:
 556              		.loc 1 277 28
 557 0008 4CC5     		sw	a1,12(a0)
 278:./../../firmware/GD32VF103_standard_peripheral/Source/gd32vf103_i2c.c **** }
 558              		.loc 1 278 1
 559 000a 8280     		ret
GAS LISTING C:\Users\Karzan\AppData\Local\Temp\cctocLKe.s 			page 17


 560              		.cfi_endproc
 561              	.LFE9:
 563              		.section	.text.i2c_dualaddr_disable,"ax",@progbits
 564              		.align	1
 565              		.globl	i2c_dualaddr_disable
 567              	i2c_dualaddr_disable:
 568              	.LFB10:
 279:./../../firmware/GD32VF103_standard_peripheral/Source/gd32vf103_i2c.c **** 
 280:./../../firmware/GD32VF103_standard_peripheral/Source/gd32vf103_i2c.c **** /*!
 281:./../../firmware/GD32VF103_standard_peripheral/Source/gd32vf103_i2c.c ****     \brief      disable dual-address mode
 282:./../../firmware/GD32VF103_standard_peripheral/Source/gd32vf103_i2c.c ****     \param[in]  i2c_periph: I2Cx(x=0,1) 
 283:./../../firmware/GD32VF103_standard_peripheral/Source/gd32vf103_i2c.c ****     \param[out] none
 284:./../../firmware/GD32VF103_standard_peripheral/Source/gd32vf103_i2c.c ****     \retval     none
 285:./../../firmware/GD32VF103_standard_peripheral/Source/gd32vf103_i2c.c **** */
 286:./../../firmware/GD32VF103_standard_peripheral/Source/gd32vf103_i2c.c **** void i2c_dualaddr_disable(uint32_t i2c_periph)
 287:./../../firmware/GD32VF103_standard_peripheral/Source/gd32vf103_i2c.c **** {
 569              		.loc 1 287 1 is_stmt 1
 570              		.cfi_startproc
 571              	.LVL58:
 288:./../../firmware/GD32VF103_standard_peripheral/Source/gd32vf103_i2c.c ****     I2C_SADDR1(i2c_periph) &= ~(I2C_SADDR1_DUADEN);
 572              		.loc 1 288 5
 573              		.loc 1 288 28 is_stmt 0
 574 0000 5C45     		lw	a5,12(a0)
 575 0002 F99B     		andi	a5,a5,-2
 576 0004 5CC5     		sw	a5,12(a0)
 289:./../../firmware/GD32VF103_standard_peripheral/Source/gd32vf103_i2c.c **** }
 577              		.loc 1 289 1
 578 0006 8280     		ret
 579              		.cfi_endproc
 580              	.LFE10:
 582              		.section	.text.i2c_enable,"ax",@progbits
 583              		.align	1
 584              		.globl	i2c_enable
 586              	i2c_enable:
 587              	.LFB11:
 290:./../../firmware/GD32VF103_standard_peripheral/Source/gd32vf103_i2c.c **** 
 291:./../../firmware/GD32VF103_standard_peripheral/Source/gd32vf103_i2c.c **** /*!
 292:./../../firmware/GD32VF103_standard_peripheral/Source/gd32vf103_i2c.c ****     \brief      enable I2C
 293:./../../firmware/GD32VF103_standard_peripheral/Source/gd32vf103_i2c.c ****     \param[in]  i2c_periph: I2Cx(x=0,1) 
 294:./../../firmware/GD32VF103_standard_peripheral/Source/gd32vf103_i2c.c ****     \param[out] none
 295:./../../firmware/GD32VF103_standard_peripheral/Source/gd32vf103_i2c.c ****     \retval     none
 296:./../../firmware/GD32VF103_standard_peripheral/Source/gd32vf103_i2c.c ****  */
 297:./../../firmware/GD32VF103_standard_peripheral/Source/gd32vf103_i2c.c **** void i2c_enable(uint32_t i2c_periph) 
 298:./../../firmware/GD32VF103_standard_peripheral/Source/gd32vf103_i2c.c **** {
 588              		.loc 1 298 1 is_stmt 1
 589              		.cfi_startproc
 590              	.LVL59:
 299:./../../firmware/GD32VF103_standard_peripheral/Source/gd32vf103_i2c.c ****     I2C_CTL0(i2c_periph) |= I2C_CTL0_I2CEN;
 591              		.loc 1 299 5
 592              		.loc 1 299 26 is_stmt 0
 593 0000 1C41     		lw	a5,0(a0)
 594 0002 93E71700 		ori	a5,a5,1
 595 0006 1CC1     		sw	a5,0(a0)
 300:./../../firmware/GD32VF103_standard_peripheral/Source/gd32vf103_i2c.c **** }
 596              		.loc 1 300 1
 597 0008 8280     		ret
 598              		.cfi_endproc
GAS LISTING C:\Users\Karzan\AppData\Local\Temp\cctocLKe.s 			page 18


 599              	.LFE11:
 601              		.section	.text.i2c_disable,"ax",@progbits
 602              		.align	1
 603              		.globl	i2c_disable
 605              	i2c_disable:
 606              	.LFB12:
 301:./../../firmware/GD32VF103_standard_peripheral/Source/gd32vf103_i2c.c **** 
 302:./../../firmware/GD32VF103_standard_peripheral/Source/gd32vf103_i2c.c **** /*!
 303:./../../firmware/GD32VF103_standard_peripheral/Source/gd32vf103_i2c.c ****     \brief      disable I2C
 304:./../../firmware/GD32VF103_standard_peripheral/Source/gd32vf103_i2c.c ****     \param[in]  i2c_periph: I2Cx(x=0,1) 
 305:./../../firmware/GD32VF103_standard_peripheral/Source/gd32vf103_i2c.c ****     \param[out] none
 306:./../../firmware/GD32VF103_standard_peripheral/Source/gd32vf103_i2c.c ****     \retval     none
 307:./../../firmware/GD32VF103_standard_peripheral/Source/gd32vf103_i2c.c ****  */
 308:./../../firmware/GD32VF103_standard_peripheral/Source/gd32vf103_i2c.c **** void i2c_disable(uint32_t i2c_periph) 
 309:./../../firmware/GD32VF103_standard_peripheral/Source/gd32vf103_i2c.c **** {
 607              		.loc 1 309 1 is_stmt 1
 608              		.cfi_startproc
 609              	.LVL60:
 310:./../../firmware/GD32VF103_standard_peripheral/Source/gd32vf103_i2c.c ****     I2C_CTL0(i2c_periph) &= ~(I2C_CTL0_I2CEN);
 610              		.loc 1 310 5
 611              		.loc 1 310 26 is_stmt 0
 612 0000 1C41     		lw	a5,0(a0)
 613 0002 F99B     		andi	a5,a5,-2
 614 0004 1CC1     		sw	a5,0(a0)
 311:./../../firmware/GD32VF103_standard_peripheral/Source/gd32vf103_i2c.c **** }
 615              		.loc 1 311 1
 616 0006 8280     		ret
 617              		.cfi_endproc
 618              	.LFE12:
 620              		.section	.text.i2c_start_on_bus,"ax",@progbits
 621              		.align	1
 622              		.globl	i2c_start_on_bus
 624              	i2c_start_on_bus:
 625              	.LFB13:
 312:./../../firmware/GD32VF103_standard_peripheral/Source/gd32vf103_i2c.c **** 
 313:./../../firmware/GD32VF103_standard_peripheral/Source/gd32vf103_i2c.c **** /*!
 314:./../../firmware/GD32VF103_standard_peripheral/Source/gd32vf103_i2c.c ****     \brief      generate a START condition on I2C bus
 315:./../../firmware/GD32VF103_standard_peripheral/Source/gd32vf103_i2c.c ****     \param[in]  i2c_periph: I2Cx(x=0,1)
 316:./../../firmware/GD32VF103_standard_peripheral/Source/gd32vf103_i2c.c ****     \param[out] none
 317:./../../firmware/GD32VF103_standard_peripheral/Source/gd32vf103_i2c.c ****     \retval     none
 318:./../../firmware/GD32VF103_standard_peripheral/Source/gd32vf103_i2c.c ****  */
 319:./../../firmware/GD32VF103_standard_peripheral/Source/gd32vf103_i2c.c **** void i2c_start_on_bus(uint32_t i2c_periph) 
 320:./../../firmware/GD32VF103_standard_peripheral/Source/gd32vf103_i2c.c **** {
 626              		.loc 1 320 1 is_stmt 1
 627              		.cfi_startproc
 628              	.LVL61:
 321:./../../firmware/GD32VF103_standard_peripheral/Source/gd32vf103_i2c.c ****     I2C_CTL0(i2c_periph) |= I2C_CTL0_START;
 629              		.loc 1 321 5
 630              		.loc 1 321 26 is_stmt 0
 631 0000 1C41     		lw	a5,0(a0)
 632 0002 93E70710 		ori	a5,a5,256
 633 0006 1CC1     		sw	a5,0(a0)
 322:./../../firmware/GD32VF103_standard_peripheral/Source/gd32vf103_i2c.c **** }
 634              		.loc 1 322 1
 635 0008 8280     		ret
 636              		.cfi_endproc
 637              	.LFE13:
GAS LISTING C:\Users\Karzan\AppData\Local\Temp\cctocLKe.s 			page 19


 639              		.section	.text.i2c_stop_on_bus,"ax",@progbits
 640              		.align	1
 641              		.globl	i2c_stop_on_bus
 643              	i2c_stop_on_bus:
 644              	.LFB14:
 323:./../../firmware/GD32VF103_standard_peripheral/Source/gd32vf103_i2c.c **** 
 324:./../../firmware/GD32VF103_standard_peripheral/Source/gd32vf103_i2c.c **** /*!
 325:./../../firmware/GD32VF103_standard_peripheral/Source/gd32vf103_i2c.c ****     \brief      generate a STOP condition on I2C bus
 326:./../../firmware/GD32VF103_standard_peripheral/Source/gd32vf103_i2c.c ****     \param[in]  i2c_periph: I2Cx(x=0,1)
 327:./../../firmware/GD32VF103_standard_peripheral/Source/gd32vf103_i2c.c ****     \param[out] none
 328:./../../firmware/GD32VF103_standard_peripheral/Source/gd32vf103_i2c.c ****     \retval     none
 329:./../../firmware/GD32VF103_standard_peripheral/Source/gd32vf103_i2c.c ****  */
 330:./../../firmware/GD32VF103_standard_peripheral/Source/gd32vf103_i2c.c **** void i2c_stop_on_bus(uint32_t i2c_periph)
 331:./../../firmware/GD32VF103_standard_peripheral/Source/gd32vf103_i2c.c **** {
 645              		.loc 1 331 1 is_stmt 1
 646              		.cfi_startproc
 647              	.LVL62:
 332:./../../firmware/GD32VF103_standard_peripheral/Source/gd32vf103_i2c.c ****     I2C_CTL0(i2c_periph) |= I2C_CTL0_STOP;
 648              		.loc 1 332 5
 649              		.loc 1 332 26 is_stmt 0
 650 0000 1C41     		lw	a5,0(a0)
 651 0002 93E70720 		ori	a5,a5,512
 652 0006 1CC1     		sw	a5,0(a0)
 333:./../../firmware/GD32VF103_standard_peripheral/Source/gd32vf103_i2c.c **** }
 653              		.loc 1 333 1
 654 0008 8280     		ret
 655              		.cfi_endproc
 656              	.LFE14:
 658              		.section	.text.i2c_data_transmit,"ax",@progbits
 659              		.align	1
 660              		.globl	i2c_data_transmit
 662              	i2c_data_transmit:
 663              	.LFB15:
 334:./../../firmware/GD32VF103_standard_peripheral/Source/gd32vf103_i2c.c **** 
 335:./../../firmware/GD32VF103_standard_peripheral/Source/gd32vf103_i2c.c **** /*!
 336:./../../firmware/GD32VF103_standard_peripheral/Source/gd32vf103_i2c.c ****     \brief      I2C transmit data function
 337:./../../firmware/GD32VF103_standard_peripheral/Source/gd32vf103_i2c.c ****     \param[in]  i2c_periph: I2Cx(x=0,1)
 338:./../../firmware/GD32VF103_standard_peripheral/Source/gd32vf103_i2c.c ****     \param[in]  data: data of transmission 
 339:./../../firmware/GD32VF103_standard_peripheral/Source/gd32vf103_i2c.c ****     \param[out] none
 340:./../../firmware/GD32VF103_standard_peripheral/Source/gd32vf103_i2c.c ****     \retval     none
 341:./../../firmware/GD32VF103_standard_peripheral/Source/gd32vf103_i2c.c ****  */
 342:./../../firmware/GD32VF103_standard_peripheral/Source/gd32vf103_i2c.c **** void i2c_data_transmit(uint32_t i2c_periph, uint8_t data) 
 343:./../../firmware/GD32VF103_standard_peripheral/Source/gd32vf103_i2c.c **** {
 664              		.loc 1 343 1 is_stmt 1
 665              		.cfi_startproc
 666              	.LVL63:
 344:./../../firmware/GD32VF103_standard_peripheral/Source/gd32vf103_i2c.c ****     I2C_DATA(i2c_periph) = DATA_TRANS(data);
 667              		.loc 1 344 5
 668              		.loc 1 344 26 is_stmt 0
 669 0000 0CC9     		sw	a1,16(a0)
 345:./../../firmware/GD32VF103_standard_peripheral/Source/gd32vf103_i2c.c **** }
 670              		.loc 1 345 1
 671 0002 8280     		ret
 672              		.cfi_endproc
 673              	.LFE15:
 675              		.section	.text.i2c_data_receive,"ax",@progbits
 676              		.align	1
GAS LISTING C:\Users\Karzan\AppData\Local\Temp\cctocLKe.s 			page 20


 677              		.globl	i2c_data_receive
 679              	i2c_data_receive:
 680              	.LFB16:
 346:./../../firmware/GD32VF103_standard_peripheral/Source/gd32vf103_i2c.c **** 
 347:./../../firmware/GD32VF103_standard_peripheral/Source/gd32vf103_i2c.c **** /*!
 348:./../../firmware/GD32VF103_standard_peripheral/Source/gd32vf103_i2c.c ****     \brief      I2C receive data function
 349:./../../firmware/GD32VF103_standard_peripheral/Source/gd32vf103_i2c.c ****     \param[in]  i2c_periph: I2Cx(x=0,1)
 350:./../../firmware/GD32VF103_standard_peripheral/Source/gd32vf103_i2c.c ****     \param[out] none
 351:./../../firmware/GD32VF103_standard_peripheral/Source/gd32vf103_i2c.c ****     \retval     data of received
 352:./../../firmware/GD32VF103_standard_peripheral/Source/gd32vf103_i2c.c ****  */
 353:./../../firmware/GD32VF103_standard_peripheral/Source/gd32vf103_i2c.c **** uint8_t i2c_data_receive(uint32_t i2c_periph) 
 354:./../../firmware/GD32VF103_standard_peripheral/Source/gd32vf103_i2c.c **** {
 681              		.loc 1 354 1 is_stmt 1
 682              		.cfi_startproc
 683              	.LVL64:
 355:./../../firmware/GD32VF103_standard_peripheral/Source/gd32vf103_i2c.c ****     return (uint8_t) DATA_RECV(I2C_DATA(i2c_periph));
 684              		.loc 1 355 5
 685              		.loc 1 355 22 is_stmt 0
 686 0000 0849     		lw	a0,16(a0)
 687              	.LVL65:
 356:./../../firmware/GD32VF103_standard_peripheral/Source/gd32vf103_i2c.c **** }
 688              		.loc 1 356 1
 689 0002 1375F50F 		andi	a0,a0,0xff
 690 0006 8280     		ret
 691              		.cfi_endproc
 692              	.LFE16:
 694              		.section	.text.i2c_dma_enable,"ax",@progbits
 695              		.align	1
 696              		.globl	i2c_dma_enable
 698              	i2c_dma_enable:
 699              	.LFB17:
 357:./../../firmware/GD32VF103_standard_peripheral/Source/gd32vf103_i2c.c **** 
 358:./../../firmware/GD32VF103_standard_peripheral/Source/gd32vf103_i2c.c **** /*!
 359:./../../firmware/GD32VF103_standard_peripheral/Source/gd32vf103_i2c.c ****     \brief      enable I2C DMA mode 
 360:./../../firmware/GD32VF103_standard_peripheral/Source/gd32vf103_i2c.c ****     \param[in]  i2c_periph: I2Cx(x=0,1)
 361:./../../firmware/GD32VF103_standard_peripheral/Source/gd32vf103_i2c.c ****     \param[in]  dmastate:
 362:./../../firmware/GD32VF103_standard_peripheral/Source/gd32vf103_i2c.c ****                 only one parameter can be selected which is shown as below:
 363:./../../firmware/GD32VF103_standard_peripheral/Source/gd32vf103_i2c.c ****     \arg        I2C_DMA_ON: DMA mode enable
 364:./../../firmware/GD32VF103_standard_peripheral/Source/gd32vf103_i2c.c ****     \arg        I2C_DMA_OFF: DMA mode disable
 365:./../../firmware/GD32VF103_standard_peripheral/Source/gd32vf103_i2c.c ****     \param[out] none
 366:./../../firmware/GD32VF103_standard_peripheral/Source/gd32vf103_i2c.c ****     \retval     none
 367:./../../firmware/GD32VF103_standard_peripheral/Source/gd32vf103_i2c.c ****  */
 368:./../../firmware/GD32VF103_standard_peripheral/Source/gd32vf103_i2c.c **** void i2c_dma_enable(uint32_t i2c_periph, uint32_t dmastate) 
 369:./../../firmware/GD32VF103_standard_peripheral/Source/gd32vf103_i2c.c **** {
 700              		.loc 1 369 1 is_stmt 1
 701              		.cfi_startproc
 702              	.LVL66:
 370:./../../firmware/GD32VF103_standard_peripheral/Source/gd32vf103_i2c.c ****     /* configure I2C DMA function */
 371:./../../firmware/GD32VF103_standard_peripheral/Source/gd32vf103_i2c.c ****     uint32_t ctl = 0U;
 703              		.loc 1 371 5
 372:./../../firmware/GD32VF103_standard_peripheral/Source/gd32vf103_i2c.c **** 
 373:./../../firmware/GD32VF103_standard_peripheral/Source/gd32vf103_i2c.c ****     ctl = I2C_CTL1(i2c_periph);
 704              		.loc 1 373 5
 705              		.loc 1 373 9 is_stmt 0
 706 0000 5C41     		lw	a5,4(a0)
 707              	.LVL67:
 374:./../../firmware/GD32VF103_standard_peripheral/Source/gd32vf103_i2c.c ****     ctl &= ~(I2C_CTL1_DMAON);
GAS LISTING C:\Users\Karzan\AppData\Local\Temp\cctocLKe.s 			page 21


 708              		.loc 1 374 5 is_stmt 1
 709              		.loc 1 374 9 is_stmt 0
 710 0002 7D77     		li	a4,-4096
 711 0004 1307F77F 		addi	a4,a4,2047
 712 0008 F98F     		and	a5,a5,a4
 713              	.LVL68:
 375:./../../firmware/GD32VF103_standard_peripheral/Source/gd32vf103_i2c.c ****     ctl |= dmastate;
 714              		.loc 1 375 5 is_stmt 1
 715              		.loc 1 375 9 is_stmt 0
 716 000a DD8D     		or	a1,a5,a1
 717              	.LVL69:
 376:./../../firmware/GD32VF103_standard_peripheral/Source/gd32vf103_i2c.c ****     I2C_CTL1(i2c_periph) = ctl;
 718              		.loc 1 376 5 is_stmt 1
 719              		.loc 1 376 26 is_stmt 0
 720 000c 4CC1     		sw	a1,4(a0)
 377:./../../firmware/GD32VF103_standard_peripheral/Source/gd32vf103_i2c.c **** }
 721              		.loc 1 377 1
 722 000e 8280     		ret
 723              		.cfi_endproc
 724              	.LFE17:
 726              		.section	.text.i2c_dma_last_transfer_config,"ax",@progbits
 727              		.align	1
 728              		.globl	i2c_dma_last_transfer_config
 730              	i2c_dma_last_transfer_config:
 731              	.LFB18:
 378:./../../firmware/GD32VF103_standard_peripheral/Source/gd32vf103_i2c.c **** 
 379:./../../firmware/GD32VF103_standard_peripheral/Source/gd32vf103_i2c.c **** /*!
 380:./../../firmware/GD32VF103_standard_peripheral/Source/gd32vf103_i2c.c ****     \brief      configure whether next DMA EOT is DMA last transfer or not
 381:./../../firmware/GD32VF103_standard_peripheral/Source/gd32vf103_i2c.c ****     \param[in]  i2c_periph: I2Cx(x=0,1)
 382:./../../firmware/GD32VF103_standard_peripheral/Source/gd32vf103_i2c.c ****     \param[in]  dmalast:
 383:./../../firmware/GD32VF103_standard_peripheral/Source/gd32vf103_i2c.c ****                 only one parameter can be selected which is shown as below:
 384:./../../firmware/GD32VF103_standard_peripheral/Source/gd32vf103_i2c.c ****     \arg        I2C_DMALST_ON: next DMA EOT is the last transfer
 385:./../../firmware/GD32VF103_standard_peripheral/Source/gd32vf103_i2c.c ****     \arg        I2C_DMALST_OFF: next DMA EOT is not the last transfer
 386:./../../firmware/GD32VF103_standard_peripheral/Source/gd32vf103_i2c.c ****     \param[out] none
 387:./../../firmware/GD32VF103_standard_peripheral/Source/gd32vf103_i2c.c ****     \retval     none
 388:./../../firmware/GD32VF103_standard_peripheral/Source/gd32vf103_i2c.c ****  */
 389:./../../firmware/GD32VF103_standard_peripheral/Source/gd32vf103_i2c.c **** void i2c_dma_last_transfer_config(uint32_t i2c_periph, uint32_t dmalast) 
 390:./../../firmware/GD32VF103_standard_peripheral/Source/gd32vf103_i2c.c **** {
 732              		.loc 1 390 1 is_stmt 1
 733              		.cfi_startproc
 734              	.LVL70:
 391:./../../firmware/GD32VF103_standard_peripheral/Source/gd32vf103_i2c.c ****     /* configure DMA last transfer */
 392:./../../firmware/GD32VF103_standard_peripheral/Source/gd32vf103_i2c.c ****     uint32_t ctl = 0U;
 735              		.loc 1 392 5
 393:./../../firmware/GD32VF103_standard_peripheral/Source/gd32vf103_i2c.c **** 
 394:./../../firmware/GD32VF103_standard_peripheral/Source/gd32vf103_i2c.c ****     ctl = I2C_CTL1(i2c_periph);
 736              		.loc 1 394 5
 737              		.loc 1 394 9 is_stmt 0
 738 0000 5C41     		lw	a5,4(a0)
 739              	.LVL71:
 395:./../../firmware/GD32VF103_standard_peripheral/Source/gd32vf103_i2c.c ****     ctl &= ~(I2C_CTL1_DMALST);
 740              		.loc 1 395 5 is_stmt 1
 741              		.loc 1 395 9 is_stmt 0
 742 0002 7D77     		li	a4,-4096
 743 0004 7D17     		addi	a4,a4,-1
 744 0006 F98F     		and	a5,a5,a4
 745              	.LVL72:
GAS LISTING C:\Users\Karzan\AppData\Local\Temp\cctocLKe.s 			page 22


 396:./../../firmware/GD32VF103_standard_peripheral/Source/gd32vf103_i2c.c ****     ctl |= dmalast;
 746              		.loc 1 396 5 is_stmt 1
 747              		.loc 1 396 9 is_stmt 0
 748 0008 DD8D     		or	a1,a5,a1
 749              	.LVL73:
 397:./../../firmware/GD32VF103_standard_peripheral/Source/gd32vf103_i2c.c ****     I2C_CTL1(i2c_periph) = ctl;
 750              		.loc 1 397 5 is_stmt 1
 751              		.loc 1 397 26 is_stmt 0
 752 000a 4CC1     		sw	a1,4(a0)
 398:./../../firmware/GD32VF103_standard_peripheral/Source/gd32vf103_i2c.c **** }
 753              		.loc 1 398 1
 754 000c 8280     		ret
 755              		.cfi_endproc
 756              	.LFE18:
 758              		.section	.text.i2c_stretch_scl_low_config,"ax",@progbits
 759              		.align	1
 760              		.globl	i2c_stretch_scl_low_config
 762              	i2c_stretch_scl_low_config:
 763              	.LFB19:
 399:./../../firmware/GD32VF103_standard_peripheral/Source/gd32vf103_i2c.c **** 
 400:./../../firmware/GD32VF103_standard_peripheral/Source/gd32vf103_i2c.c **** /*!
 401:./../../firmware/GD32VF103_standard_peripheral/Source/gd32vf103_i2c.c ****     \brief      whether to stretch SCL low when data is not ready in slave mode 
 402:./../../firmware/GD32VF103_standard_peripheral/Source/gd32vf103_i2c.c ****     \param[in]  i2c_periph: I2Cx(x=0,1)
 403:./../../firmware/GD32VF103_standard_peripheral/Source/gd32vf103_i2c.c ****     \param[in]  stretchpara:
 404:./../../firmware/GD32VF103_standard_peripheral/Source/gd32vf103_i2c.c ****                 only one parameter can be selected which is shown as below:
 405:./../../firmware/GD32VF103_standard_peripheral/Source/gd32vf103_i2c.c ****     \arg        I2C_SCLSTRETCH_ENABLE: SCL stretching is enabled
 406:./../../firmware/GD32VF103_standard_peripheral/Source/gd32vf103_i2c.c ****     \arg        I2C_SCLSTRETCH_DISABLE: SCL stretching is disabled
 407:./../../firmware/GD32VF103_standard_peripheral/Source/gd32vf103_i2c.c ****     \param[out] none
 408:./../../firmware/GD32VF103_standard_peripheral/Source/gd32vf103_i2c.c ****     \retval     none
 409:./../../firmware/GD32VF103_standard_peripheral/Source/gd32vf103_i2c.c ****  */
 410:./../../firmware/GD32VF103_standard_peripheral/Source/gd32vf103_i2c.c **** void i2c_stretch_scl_low_config(uint32_t i2c_periph, uint32_t stretchpara) 
 411:./../../firmware/GD32VF103_standard_peripheral/Source/gd32vf103_i2c.c **** {
 764              		.loc 1 411 1 is_stmt 1
 765              		.cfi_startproc
 766              	.LVL74:
 412:./../../firmware/GD32VF103_standard_peripheral/Source/gd32vf103_i2c.c ****     /* configure I2C SCL strerching enable or disable */
 413:./../../firmware/GD32VF103_standard_peripheral/Source/gd32vf103_i2c.c ****     uint32_t ctl = 0U;
 767              		.loc 1 413 5
 414:./../../firmware/GD32VF103_standard_peripheral/Source/gd32vf103_i2c.c **** 
 415:./../../firmware/GD32VF103_standard_peripheral/Source/gd32vf103_i2c.c ****     ctl = I2C_CTL0(i2c_periph);
 768              		.loc 1 415 5
 769              		.loc 1 415 9 is_stmt 0
 770 0000 1C41     		lw	a5,0(a0)
 771              	.LVL75:
 416:./../../firmware/GD32VF103_standard_peripheral/Source/gd32vf103_i2c.c ****     ctl &= ~(I2C_CTL0_SS);
 772              		.loc 1 416 5 is_stmt 1
 773              		.loc 1 416 9 is_stmt 0
 774 0002 93F7F7F7 		andi	a5,a5,-129
 775              	.LVL76:
 417:./../../firmware/GD32VF103_standard_peripheral/Source/gd32vf103_i2c.c ****     ctl |= stretchpara;
 776              		.loc 1 417 5 is_stmt 1
 777              		.loc 1 417 9 is_stmt 0
 778 0006 DD8D     		or	a1,a5,a1
 779              	.LVL77:
 418:./../../firmware/GD32VF103_standard_peripheral/Source/gd32vf103_i2c.c ****     I2C_CTL0(i2c_periph) = ctl;
 780              		.loc 1 418 5 is_stmt 1
 781              		.loc 1 418 26 is_stmt 0
GAS LISTING C:\Users\Karzan\AppData\Local\Temp\cctocLKe.s 			page 23


 782 0008 0CC1     		sw	a1,0(a0)
 419:./../../firmware/GD32VF103_standard_peripheral/Source/gd32vf103_i2c.c **** }
 783              		.loc 1 419 1
 784 000a 8280     		ret
 785              		.cfi_endproc
 786              	.LFE19:
 788              		.section	.text.i2c_slave_response_to_gcall_config,"ax",@progbits
 789              		.align	1
 790              		.globl	i2c_slave_response_to_gcall_config
 792              	i2c_slave_response_to_gcall_config:
 793              	.LFB20:
 420:./../../firmware/GD32VF103_standard_peripheral/Source/gd32vf103_i2c.c **** 
 421:./../../firmware/GD32VF103_standard_peripheral/Source/gd32vf103_i2c.c **** /*!
 422:./../../firmware/GD32VF103_standard_peripheral/Source/gd32vf103_i2c.c ****     \brief      whether or not to response to a general call 
 423:./../../firmware/GD32VF103_standard_peripheral/Source/gd32vf103_i2c.c ****     \param[in]  i2c_periph: I2Cx(x=0,1)
 424:./../../firmware/GD32VF103_standard_peripheral/Source/gd32vf103_i2c.c ****     \param[in]  gcallpara:
 425:./../../firmware/GD32VF103_standard_peripheral/Source/gd32vf103_i2c.c ****                 only one parameter can be selected which is shown as below:
 426:./../../firmware/GD32VF103_standard_peripheral/Source/gd32vf103_i2c.c ****     \arg        I2C_GCEN_ENABLE: slave will response to a general call
 427:./../../firmware/GD32VF103_standard_peripheral/Source/gd32vf103_i2c.c ****     \arg        I2C_GCEN_DISABLE: slave will not response to a general call
 428:./../../firmware/GD32VF103_standard_peripheral/Source/gd32vf103_i2c.c ****     \param[out] none
 429:./../../firmware/GD32VF103_standard_peripheral/Source/gd32vf103_i2c.c ****     \retval     none
 430:./../../firmware/GD32VF103_standard_peripheral/Source/gd32vf103_i2c.c ****  */
 431:./../../firmware/GD32VF103_standard_peripheral/Source/gd32vf103_i2c.c **** void i2c_slave_response_to_gcall_config(uint32_t i2c_periph, uint32_t gcallpara)
 432:./../../firmware/GD32VF103_standard_peripheral/Source/gd32vf103_i2c.c **** {
 794              		.loc 1 432 1 is_stmt 1
 795              		.cfi_startproc
 796              	.LVL78:
 433:./../../firmware/GD32VF103_standard_peripheral/Source/gd32vf103_i2c.c ****     /* configure slave response to a general call enable or disable */
 434:./../../firmware/GD32VF103_standard_peripheral/Source/gd32vf103_i2c.c ****     uint32_t ctl = 0U;
 797              		.loc 1 434 5
 435:./../../firmware/GD32VF103_standard_peripheral/Source/gd32vf103_i2c.c **** 
 436:./../../firmware/GD32VF103_standard_peripheral/Source/gd32vf103_i2c.c ****     ctl = I2C_CTL0(i2c_periph);
 798              		.loc 1 436 5
 799              		.loc 1 436 9 is_stmt 0
 800 0000 1C41     		lw	a5,0(a0)
 801              	.LVL79:
 437:./../../firmware/GD32VF103_standard_peripheral/Source/gd32vf103_i2c.c ****     ctl &= ~(I2C_CTL0_GCEN);
 802              		.loc 1 437 5 is_stmt 1
 803              		.loc 1 437 9 is_stmt 0
 804 0002 93F7F7FB 		andi	a5,a5,-65
 805              	.LVL80:
 438:./../../firmware/GD32VF103_standard_peripheral/Source/gd32vf103_i2c.c ****     ctl |= gcallpara;
 806              		.loc 1 438 5 is_stmt 1
 807              		.loc 1 438 9 is_stmt 0
 808 0006 DD8D     		or	a1,a5,a1
 809              	.LVL81:
 439:./../../firmware/GD32VF103_standard_peripheral/Source/gd32vf103_i2c.c ****     I2C_CTL0(i2c_periph) = ctl;
 810              		.loc 1 439 5 is_stmt 1
 811              		.loc 1 439 26 is_stmt 0
 812 0008 0CC1     		sw	a1,0(a0)
 440:./../../firmware/GD32VF103_standard_peripheral/Source/gd32vf103_i2c.c **** }
 813              		.loc 1 440 1
 814 000a 8280     		ret
 815              		.cfi_endproc
 816              	.LFE20:
 818              		.section	.text.i2c_software_reset_config,"ax",@progbits
 819              		.align	1
GAS LISTING C:\Users\Karzan\AppData\Local\Temp\cctocLKe.s 			page 24


 820              		.globl	i2c_software_reset_config
 822              	i2c_software_reset_config:
 823              	.LFB21:
 441:./../../firmware/GD32VF103_standard_peripheral/Source/gd32vf103_i2c.c **** 
 442:./../../firmware/GD32VF103_standard_peripheral/Source/gd32vf103_i2c.c **** /*!
 443:./../../firmware/GD32VF103_standard_peripheral/Source/gd32vf103_i2c.c ****     \brief      software reset I2C 
 444:./../../firmware/GD32VF103_standard_peripheral/Source/gd32vf103_i2c.c ****     \param[in]  i2c_periph: I2Cx(x=0,1)
 445:./../../firmware/GD32VF103_standard_peripheral/Source/gd32vf103_i2c.c ****     \param[in]  sreset:
 446:./../../firmware/GD32VF103_standard_peripheral/Source/gd32vf103_i2c.c ****                 only one parameter can be selected which is shown as below:
 447:./../../firmware/GD32VF103_standard_peripheral/Source/gd32vf103_i2c.c ****     \arg        I2C_SRESET_SET: I2C is under reset
 448:./../../firmware/GD32VF103_standard_peripheral/Source/gd32vf103_i2c.c ****     \arg        I2C_SRESET_RESET: I2C is not under reset
 449:./../../firmware/GD32VF103_standard_peripheral/Source/gd32vf103_i2c.c ****     \param[out] none
 450:./../../firmware/GD32VF103_standard_peripheral/Source/gd32vf103_i2c.c ****     \retval     none
 451:./../../firmware/GD32VF103_standard_peripheral/Source/gd32vf103_i2c.c ****  */
 452:./../../firmware/GD32VF103_standard_peripheral/Source/gd32vf103_i2c.c **** void i2c_software_reset_config(uint32_t i2c_periph, uint32_t sreset)
 453:./../../firmware/GD32VF103_standard_peripheral/Source/gd32vf103_i2c.c **** {
 824              		.loc 1 453 1 is_stmt 1
 825              		.cfi_startproc
 826              	.LVL82:
 454:./../../firmware/GD32VF103_standard_peripheral/Source/gd32vf103_i2c.c ****     /* modify CTL0 and configure software reset I2C state */
 455:./../../firmware/GD32VF103_standard_peripheral/Source/gd32vf103_i2c.c ****     uint32_t ctl = 0U;
 827              		.loc 1 455 5
 456:./../../firmware/GD32VF103_standard_peripheral/Source/gd32vf103_i2c.c **** 
 457:./../../firmware/GD32VF103_standard_peripheral/Source/gd32vf103_i2c.c ****     ctl = I2C_CTL0(i2c_periph);
 828              		.loc 1 457 5
 829              		.loc 1 457 9 is_stmt 0
 830 0000 1C41     		lw	a5,0(a0)
 831              	.LVL83:
 458:./../../firmware/GD32VF103_standard_peripheral/Source/gd32vf103_i2c.c ****     ctl &= ~(I2C_CTL0_SRESET);
 832              		.loc 1 458 5 is_stmt 1
 833              		.loc 1 458 9 is_stmt 0
 834 0002 6177     		li	a4,-32768
 835 0004 7D17     		addi	a4,a4,-1
 836 0006 F98F     		and	a5,a5,a4
 837              	.LVL84:
 459:./../../firmware/GD32VF103_standard_peripheral/Source/gd32vf103_i2c.c ****     ctl |= sreset;
 838              		.loc 1 459 5 is_stmt 1
 839              		.loc 1 459 9 is_stmt 0
 840 0008 DD8D     		or	a1,a5,a1
 841              	.LVL85:
 460:./../../firmware/GD32VF103_standard_peripheral/Source/gd32vf103_i2c.c ****     I2C_CTL0(i2c_periph) = ctl;
 842              		.loc 1 460 5 is_stmt 1
 843              		.loc 1 460 26 is_stmt 0
 844 000a 0CC1     		sw	a1,0(a0)
 461:./../../firmware/GD32VF103_standard_peripheral/Source/gd32vf103_i2c.c **** }
 845              		.loc 1 461 1
 846 000c 8280     		ret
 847              		.cfi_endproc
 848              	.LFE21:
 850              		.section	.text.i2c_pec_enable,"ax",@progbits
 851              		.align	1
 852              		.globl	i2c_pec_enable
 854              	i2c_pec_enable:
 855              	.LFB22:
 462:./../../firmware/GD32VF103_standard_peripheral/Source/gd32vf103_i2c.c **** 
 463:./../../firmware/GD32VF103_standard_peripheral/Source/gd32vf103_i2c.c **** /*!
 464:./../../firmware/GD32VF103_standard_peripheral/Source/gd32vf103_i2c.c ****     \brief      I2C PEC calculation on or off
GAS LISTING C:\Users\Karzan\AppData\Local\Temp\cctocLKe.s 			page 25


 465:./../../firmware/GD32VF103_standard_peripheral/Source/gd32vf103_i2c.c ****     \param[in]  i2c_periph: I2Cx(x=0,1)
 466:./../../firmware/GD32VF103_standard_peripheral/Source/gd32vf103_i2c.c ****     \param[in]  pecpara:
 467:./../../firmware/GD32VF103_standard_peripheral/Source/gd32vf103_i2c.c ****                 only one parameter can be selected which is shown as below:
 468:./../../firmware/GD32VF103_standard_peripheral/Source/gd32vf103_i2c.c ****     \arg        I2C_PEC_ENABLE: PEC calculation on 
 469:./../../firmware/GD32VF103_standard_peripheral/Source/gd32vf103_i2c.c ****     \arg        I2C_PEC_DISABLE: PEC calculation off 
 470:./../../firmware/GD32VF103_standard_peripheral/Source/gd32vf103_i2c.c ****     \param[out] none
 471:./../../firmware/GD32VF103_standard_peripheral/Source/gd32vf103_i2c.c ****     \retval     none
 472:./../../firmware/GD32VF103_standard_peripheral/Source/gd32vf103_i2c.c ****  */
 473:./../../firmware/GD32VF103_standard_peripheral/Source/gd32vf103_i2c.c **** void i2c_pec_enable(uint32_t i2c_periph, uint32_t pecstate) 
 474:./../../firmware/GD32VF103_standard_peripheral/Source/gd32vf103_i2c.c **** {
 856              		.loc 1 474 1 is_stmt 1
 857              		.cfi_startproc
 858              	.LVL86:
 475:./../../firmware/GD32VF103_standard_peripheral/Source/gd32vf103_i2c.c ****     /* on/off PEC calculation */
 476:./../../firmware/GD32VF103_standard_peripheral/Source/gd32vf103_i2c.c ****     uint32_t ctl = 0U;
 859              		.loc 1 476 5
 477:./../../firmware/GD32VF103_standard_peripheral/Source/gd32vf103_i2c.c **** 
 478:./../../firmware/GD32VF103_standard_peripheral/Source/gd32vf103_i2c.c ****     ctl = I2C_CTL0(i2c_periph);
 860              		.loc 1 478 5
 861              		.loc 1 478 9 is_stmt 0
 862 0000 1C41     		lw	a5,0(a0)
 863              	.LVL87:
 479:./../../firmware/GD32VF103_standard_peripheral/Source/gd32vf103_i2c.c ****     ctl &= ~(I2C_CTL0_PECEN);
 864              		.loc 1 479 5 is_stmt 1
 865              		.loc 1 479 9 is_stmt 0
 866 0002 93F7F7FD 		andi	a5,a5,-33
 867              	.LVL88:
 480:./../../firmware/GD32VF103_standard_peripheral/Source/gd32vf103_i2c.c ****     ctl |= pecstate;
 868              		.loc 1 480 5 is_stmt 1
 869              		.loc 1 480 9 is_stmt 0
 870 0006 DD8D     		or	a1,a5,a1
 871              	.LVL89:
 481:./../../firmware/GD32VF103_standard_peripheral/Source/gd32vf103_i2c.c ****     I2C_CTL0(i2c_periph) = ctl;
 872              		.loc 1 481 5 is_stmt 1
 873              		.loc 1 481 26 is_stmt 0
 874 0008 0CC1     		sw	a1,0(a0)
 482:./../../firmware/GD32VF103_standard_peripheral/Source/gd32vf103_i2c.c **** }
 875              		.loc 1 482 1
 876 000a 8280     		ret
 877              		.cfi_endproc
 878              	.LFE22:
 880              		.section	.text.i2c_pec_transfer_enable,"ax",@progbits
 881              		.align	1
 882              		.globl	i2c_pec_transfer_enable
 884              	i2c_pec_transfer_enable:
 885              	.LFB23:
 483:./../../firmware/GD32VF103_standard_peripheral/Source/gd32vf103_i2c.c **** 
 484:./../../firmware/GD32VF103_standard_peripheral/Source/gd32vf103_i2c.c **** /*!
 485:./../../firmware/GD32VF103_standard_peripheral/Source/gd32vf103_i2c.c ****     \brief      I2C whether to transfer PEC value
 486:./../../firmware/GD32VF103_standard_peripheral/Source/gd32vf103_i2c.c ****     \param[in]  i2c_periph: I2Cx(x=0,1)
 487:./../../firmware/GD32VF103_standard_peripheral/Source/gd32vf103_i2c.c ****     \param[in]  pecpara:
 488:./../../firmware/GD32VF103_standard_peripheral/Source/gd32vf103_i2c.c ****                 only one parameter can be selected which is shown as below:
 489:./../../firmware/GD32VF103_standard_peripheral/Source/gd32vf103_i2c.c ****     \arg        I2C_PECTRANS_ENABLE: transfer PEC 
 490:./../../firmware/GD32VF103_standard_peripheral/Source/gd32vf103_i2c.c ****     \arg        I2C_PECTRANS_DISABLE: not transfer PEC 
 491:./../../firmware/GD32VF103_standard_peripheral/Source/gd32vf103_i2c.c ****     \param[out] none
 492:./../../firmware/GD32VF103_standard_peripheral/Source/gd32vf103_i2c.c ****     \retval     none
 493:./../../firmware/GD32VF103_standard_peripheral/Source/gd32vf103_i2c.c ****  */
GAS LISTING C:\Users\Karzan\AppData\Local\Temp\cctocLKe.s 			page 26


 494:./../../firmware/GD32VF103_standard_peripheral/Source/gd32vf103_i2c.c **** void i2c_pec_transfer_enable(uint32_t i2c_periph, uint32_t pecpara) 
 495:./../../firmware/GD32VF103_standard_peripheral/Source/gd32vf103_i2c.c **** {
 886              		.loc 1 495 1 is_stmt 1
 887              		.cfi_startproc
 888              	.LVL90:
 496:./../../firmware/GD32VF103_standard_peripheral/Source/gd32vf103_i2c.c ****     /* whether to transfer PEC */
 497:./../../firmware/GD32VF103_standard_peripheral/Source/gd32vf103_i2c.c ****     uint32_t ctl = 0U;
 889              		.loc 1 497 5
 498:./../../firmware/GD32VF103_standard_peripheral/Source/gd32vf103_i2c.c **** 
 499:./../../firmware/GD32VF103_standard_peripheral/Source/gd32vf103_i2c.c ****     ctl = I2C_CTL0(i2c_periph);
 890              		.loc 1 499 5
 891              		.loc 1 499 9 is_stmt 0
 892 0000 1C41     		lw	a5,0(a0)
 893              	.LVL91:
 500:./../../firmware/GD32VF103_standard_peripheral/Source/gd32vf103_i2c.c ****     ctl &= ~(I2C_CTL0_PECTRANS);
 894              		.loc 1 500 5 is_stmt 1
 895              		.loc 1 500 9 is_stmt 0
 896 0002 7D77     		li	a4,-4096
 897 0004 7D17     		addi	a4,a4,-1
 898 0006 F98F     		and	a5,a5,a4
 899              	.LVL92:
 501:./../../firmware/GD32VF103_standard_peripheral/Source/gd32vf103_i2c.c ****     ctl |= pecpara;
 900              		.loc 1 501 5 is_stmt 1
 901              		.loc 1 501 9 is_stmt 0
 902 0008 DD8D     		or	a1,a5,a1
 903              	.LVL93:
 502:./../../firmware/GD32VF103_standard_peripheral/Source/gd32vf103_i2c.c ****     I2C_CTL0(i2c_periph) = ctl;
 904              		.loc 1 502 5 is_stmt 1
 905              		.loc 1 502 26 is_stmt 0
 906 000a 0CC1     		sw	a1,0(a0)
 503:./../../firmware/GD32VF103_standard_peripheral/Source/gd32vf103_i2c.c **** }
 907              		.loc 1 503 1
 908 000c 8280     		ret
 909              		.cfi_endproc
 910              	.LFE23:
 912              		.section	.text.i2c_pec_value_get,"ax",@progbits
 913              		.align	1
 914              		.globl	i2c_pec_value_get
 916              	i2c_pec_value_get:
 917              	.LFB24:
 504:./../../firmware/GD32VF103_standard_peripheral/Source/gd32vf103_i2c.c **** 
 505:./../../firmware/GD32VF103_standard_peripheral/Source/gd32vf103_i2c.c **** /*!
 506:./../../firmware/GD32VF103_standard_peripheral/Source/gd32vf103_i2c.c ****     \brief      get packet error checking value 
 507:./../../firmware/GD32VF103_standard_peripheral/Source/gd32vf103_i2c.c ****     \param[in]  i2c_periph: I2Cx(x=0,1)
 508:./../../firmware/GD32VF103_standard_peripheral/Source/gd32vf103_i2c.c ****     \param[out] none
 509:./../../firmware/GD32VF103_standard_peripheral/Source/gd32vf103_i2c.c ****     \retval     PEC value
 510:./../../firmware/GD32VF103_standard_peripheral/Source/gd32vf103_i2c.c ****  */
 511:./../../firmware/GD32VF103_standard_peripheral/Source/gd32vf103_i2c.c **** uint8_t i2c_pec_value_get(uint32_t i2c_periph) 
 512:./../../firmware/GD32VF103_standard_peripheral/Source/gd32vf103_i2c.c **** {
 918              		.loc 1 512 1 is_stmt 1
 919              		.cfi_startproc
 920              	.LVL94:
 513:./../../firmware/GD32VF103_standard_peripheral/Source/gd32vf103_i2c.c ****     return (uint8_t) ((I2C_STAT1(i2c_periph) & I2C_STAT1_PECV)>> STAT1_PECV_OFFSET);
 921              		.loc 1 513 5
 922              		.loc 1 513 24 is_stmt 0
 923 0000 084D     		lw	a0,24(a0)
 924              	.LVL95:
GAS LISTING C:\Users\Karzan\AppData\Local\Temp\cctocLKe.s 			page 27


 925              		.loc 1 513 63
 926 0002 2181     		srli	a0,a0,8
 514:./../../firmware/GD32VF103_standard_peripheral/Source/gd32vf103_i2c.c **** }
 927              		.loc 1 514 1
 928 0004 1375F50F 		andi	a0,a0,0xff
 929 0008 8280     		ret
 930              		.cfi_endproc
 931              	.LFE24:
 933              		.section	.text.i2c_smbus_issue_alert,"ax",@progbits
 934              		.align	1
 935              		.globl	i2c_smbus_issue_alert
 937              	i2c_smbus_issue_alert:
 938              	.LFB25:
 515:./../../firmware/GD32VF103_standard_peripheral/Source/gd32vf103_i2c.c **** 
 516:./../../firmware/GD32VF103_standard_peripheral/Source/gd32vf103_i2c.c **** /*!
 517:./../../firmware/GD32VF103_standard_peripheral/Source/gd32vf103_i2c.c ****     \brief      I2C issue alert through SMBA pin 
 518:./../../firmware/GD32VF103_standard_peripheral/Source/gd32vf103_i2c.c ****     \param[in]  i2c_periph: I2Cx(x=0,1)
 519:./../../firmware/GD32VF103_standard_peripheral/Source/gd32vf103_i2c.c ****     \param[in]  smbuspara:
 520:./../../firmware/GD32VF103_standard_peripheral/Source/gd32vf103_i2c.c ****                 only one parameter can be selected which is shown as below:
 521:./../../firmware/GD32VF103_standard_peripheral/Source/gd32vf103_i2c.c ****     \arg        I2C_SALTSEND_ENABLE: issue alert through SMBA pin 
 522:./../../firmware/GD32VF103_standard_peripheral/Source/gd32vf103_i2c.c ****     \arg        I2C_SALTSEND_DISABLE: not issue alert through SMBA pin 
 523:./../../firmware/GD32VF103_standard_peripheral/Source/gd32vf103_i2c.c ****     \param[out] none
 524:./../../firmware/GD32VF103_standard_peripheral/Source/gd32vf103_i2c.c ****     \retval     none
 525:./../../firmware/GD32VF103_standard_peripheral/Source/gd32vf103_i2c.c ****  */
 526:./../../firmware/GD32VF103_standard_peripheral/Source/gd32vf103_i2c.c **** void i2c_smbus_issue_alert(uint32_t i2c_periph, uint32_t smbuspara) 
 527:./../../firmware/GD32VF103_standard_peripheral/Source/gd32vf103_i2c.c **** {
 939              		.loc 1 527 1 is_stmt 1
 940              		.cfi_startproc
 941              	.LVL96:
 528:./../../firmware/GD32VF103_standard_peripheral/Source/gd32vf103_i2c.c ****     /* issue alert through SMBA pin configure*/
 529:./../../firmware/GD32VF103_standard_peripheral/Source/gd32vf103_i2c.c ****     uint32_t ctl = 0U;
 942              		.loc 1 529 5
 530:./../../firmware/GD32VF103_standard_peripheral/Source/gd32vf103_i2c.c **** 
 531:./../../firmware/GD32VF103_standard_peripheral/Source/gd32vf103_i2c.c ****     ctl = I2C_CTL0(i2c_periph);
 943              		.loc 1 531 5
 944              		.loc 1 531 9 is_stmt 0
 945 0000 1C41     		lw	a5,0(a0)
 946              	.LVL97:
 532:./../../firmware/GD32VF103_standard_peripheral/Source/gd32vf103_i2c.c ****     ctl &= ~(I2C_CTL0_SALT);
 947              		.loc 1 532 5 is_stmt 1
 948              		.loc 1 532 9 is_stmt 0
 949 0002 7977     		li	a4,-8192
 950 0004 7D17     		addi	a4,a4,-1
 951 0006 F98F     		and	a5,a5,a4
 952              	.LVL98:
 533:./../../firmware/GD32VF103_standard_peripheral/Source/gd32vf103_i2c.c ****     ctl |= smbuspara;
 953              		.loc 1 533 5 is_stmt 1
 954              		.loc 1 533 9 is_stmt 0
 955 0008 DD8D     		or	a1,a5,a1
 956              	.LVL99:
 534:./../../firmware/GD32VF103_standard_peripheral/Source/gd32vf103_i2c.c ****     I2C_CTL0(i2c_periph) = ctl;
 957              		.loc 1 534 5 is_stmt 1
 958              		.loc 1 534 26 is_stmt 0
 959 000a 0CC1     		sw	a1,0(a0)
 535:./../../firmware/GD32VF103_standard_peripheral/Source/gd32vf103_i2c.c **** }
 960              		.loc 1 535 1
 961 000c 8280     		ret
GAS LISTING C:\Users\Karzan\AppData\Local\Temp\cctocLKe.s 			page 28


 962              		.cfi_endproc
 963              	.LFE25:
 965              		.section	.text.i2c_smbus_arp_enable,"ax",@progbits
 966              		.align	1
 967              		.globl	i2c_smbus_arp_enable
 969              	i2c_smbus_arp_enable:
 970              	.LFB26:
 536:./../../firmware/GD32VF103_standard_peripheral/Source/gd32vf103_i2c.c **** 
 537:./../../firmware/GD32VF103_standard_peripheral/Source/gd32vf103_i2c.c **** /*!
 538:./../../firmware/GD32VF103_standard_peripheral/Source/gd32vf103_i2c.c ****     \brief      enable or disable I2C ARP protocol in SMBus switch
 539:./../../firmware/GD32VF103_standard_peripheral/Source/gd32vf103_i2c.c ****     \param[in]  i2c_periph: I2Cx(x=0,1)
 540:./../../firmware/GD32VF103_standard_peripheral/Source/gd32vf103_i2c.c ****     \param[in]  arpstate:
 541:./../../firmware/GD32VF103_standard_peripheral/Source/gd32vf103_i2c.c ****                 only one parameter can be selected which is shown as below:
 542:./../../firmware/GD32VF103_standard_peripheral/Source/gd32vf103_i2c.c ****     \arg        I2C_ARP_ENABLE: enable ARP
 543:./../../firmware/GD32VF103_standard_peripheral/Source/gd32vf103_i2c.c ****     \arg        I2C_ARP_DISABLE: disable ARP
 544:./../../firmware/GD32VF103_standard_peripheral/Source/gd32vf103_i2c.c ****     \param[out] none
 545:./../../firmware/GD32VF103_standard_peripheral/Source/gd32vf103_i2c.c ****     \retval     none
 546:./../../firmware/GD32VF103_standard_peripheral/Source/gd32vf103_i2c.c ****  */
 547:./../../firmware/GD32VF103_standard_peripheral/Source/gd32vf103_i2c.c **** void i2c_smbus_arp_enable(uint32_t i2c_periph, uint32_t arpstate)
 548:./../../firmware/GD32VF103_standard_peripheral/Source/gd32vf103_i2c.c **** {
 971              		.loc 1 548 1 is_stmt 1
 972              		.cfi_startproc
 973              	.LVL100:
 549:./../../firmware/GD32VF103_standard_peripheral/Source/gd32vf103_i2c.c ****     /* enable or disable I2C ARP protocol*/
 550:./../../firmware/GD32VF103_standard_peripheral/Source/gd32vf103_i2c.c ****     uint32_t ctl = 0U;
 974              		.loc 1 550 5
 551:./../../firmware/GD32VF103_standard_peripheral/Source/gd32vf103_i2c.c **** 
 552:./../../firmware/GD32VF103_standard_peripheral/Source/gd32vf103_i2c.c ****     ctl = I2C_CTL0(i2c_periph);
 975              		.loc 1 552 5
 976              		.loc 1 552 9 is_stmt 0
 977 0000 1C41     		lw	a5,0(a0)
 978              	.LVL101:
 553:./../../firmware/GD32VF103_standard_peripheral/Source/gd32vf103_i2c.c ****     ctl &= ~(I2C_CTL0_ARPEN);
 979              		.loc 1 553 5 is_stmt 1
 980              		.loc 1 553 9 is_stmt 0
 981 0002 BD9B     		andi	a5,a5,-17
 982              	.LVL102:
 554:./../../firmware/GD32VF103_standard_peripheral/Source/gd32vf103_i2c.c ****     ctl |= arpstate;
 983              		.loc 1 554 5 is_stmt 1
 984              		.loc 1 554 9 is_stmt 0
 985 0004 DD8D     		or	a1,a5,a1
 986              	.LVL103:
 555:./../../firmware/GD32VF103_standard_peripheral/Source/gd32vf103_i2c.c ****     I2C_CTL0(i2c_periph) = ctl;
 987              		.loc 1 555 5 is_stmt 1
 988              		.loc 1 555 26 is_stmt 0
 989 0006 0CC1     		sw	a1,0(a0)
 556:./../../firmware/GD32VF103_standard_peripheral/Source/gd32vf103_i2c.c **** }
 990              		.loc 1 556 1
 991 0008 8280     		ret
 992              		.cfi_endproc
 993              	.LFE26:
 995              		.section	.text.i2c_flag_get,"ax",@progbits
 996              		.align	1
 997              		.globl	i2c_flag_get
 999              	i2c_flag_get:
 1000              	.LFB27:
 557:./../../firmware/GD32VF103_standard_peripheral/Source/gd32vf103_i2c.c **** 
GAS LISTING C:\Users\Karzan\AppData\Local\Temp\cctocLKe.s 			page 29


 558:./../../firmware/GD32VF103_standard_peripheral/Source/gd32vf103_i2c.c **** /*!
 559:./../../firmware/GD32VF103_standard_peripheral/Source/gd32vf103_i2c.c ****     \brief      check I2C flag is set or not
 560:./../../firmware/GD32VF103_standard_peripheral/Source/gd32vf103_i2c.c ****     \param[in]  i2c_periph: I2Cx(x=0,1)
 561:./../../firmware/GD32VF103_standard_peripheral/Source/gd32vf103_i2c.c ****     \param[in]  flag: I2C flags, refer to i2c_flag_enum
 562:./../../firmware/GD32VF103_standard_peripheral/Source/gd32vf103_i2c.c ****                 only one parameter can be selected which is shown as below:
 563:./../../firmware/GD32VF103_standard_peripheral/Source/gd32vf103_i2c.c ****     \arg        I2C_FLAG_SBSEND: start condition send out 
 564:./../../firmware/GD32VF103_standard_peripheral/Source/gd32vf103_i2c.c ****     \arg        I2C_FLAG_ADDSEND: address is sent in master mode or received and matches in slave m
 565:./../../firmware/GD32VF103_standard_peripheral/Source/gd32vf103_i2c.c ****     \arg        I2C_FLAG_BTC: byte transmission finishes
 566:./../../firmware/GD32VF103_standard_peripheral/Source/gd32vf103_i2c.c ****     \arg        I2C_FLAG_ADD10SEND: header of 10-bit address is sent in master mode
 567:./../../firmware/GD32VF103_standard_peripheral/Source/gd32vf103_i2c.c ****     \arg        I2C_FLAG_STPDET: stop condition detected in slave mode
 568:./../../firmware/GD32VF103_standard_peripheral/Source/gd32vf103_i2c.c ****     \arg        I2C_FLAG_RBNE: I2C_DATA is not Empty during receiving
 569:./../../firmware/GD32VF103_standard_peripheral/Source/gd32vf103_i2c.c ****     \arg        I2C_FLAG_TBE: I2C_DATA is empty during transmitting
 570:./../../firmware/GD32VF103_standard_peripheral/Source/gd32vf103_i2c.c ****     \arg        I2C_FLAG_BERR: a bus error occurs indication a unexpected start or stop condition o
 571:./../../firmware/GD32VF103_standard_peripheral/Source/gd32vf103_i2c.c ****     \arg        I2C_FLAG_LOSTARB: arbitration lost in master mode
 572:./../../firmware/GD32VF103_standard_peripheral/Source/gd32vf103_i2c.c ****     \arg        I2C_FLAG_AERR: acknowledge error
 573:./../../firmware/GD32VF103_standard_peripheral/Source/gd32vf103_i2c.c ****     \arg        I2C_FLAG_OUERR: overrun or underrun situation occurs in slave mode
 574:./../../firmware/GD32VF103_standard_peripheral/Source/gd32vf103_i2c.c ****     \arg        I2C_FLAG_PECERR: PEC error when receiving data
 575:./../../firmware/GD32VF103_standard_peripheral/Source/gd32vf103_i2c.c ****     \arg        I2C_FLAG_SMBTO: timeout signal in SMBus mode
 576:./../../firmware/GD32VF103_standard_peripheral/Source/gd32vf103_i2c.c ****     \arg        I2C_FLAG_SMBALT: SMBus alert status
 577:./../../firmware/GD32VF103_standard_peripheral/Source/gd32vf103_i2c.c ****     \arg        I2C_FLAG_MASTER: a flag indicating whether I2C block is in master or slave mode
 578:./../../firmware/GD32VF103_standard_peripheral/Source/gd32vf103_i2c.c ****     \arg        I2C_FLAG_I2CBSY: busy flag
 579:./../../firmware/GD32VF103_standard_peripheral/Source/gd32vf103_i2c.c ****     \arg        I2C_FLAG_TR: whether the I2C is a transmitter or a receiver
 580:./../../firmware/GD32VF103_standard_peripheral/Source/gd32vf103_i2c.c ****     \arg        I2C_FLAG_RXGC: general call address (00h) received
 581:./../../firmware/GD32VF103_standard_peripheral/Source/gd32vf103_i2c.c ****     \arg        I2C_FLAG_DEFSMB: default address of SMBus device
 582:./../../firmware/GD32VF103_standard_peripheral/Source/gd32vf103_i2c.c ****     \arg        I2C_FLAG_HSTSMB: SMBus host header detected in slave mode
 583:./../../firmware/GD32VF103_standard_peripheral/Source/gd32vf103_i2c.c ****     \arg        I2C_FLAG_DUMODF: dual flag in slave mode indicating which address is matched in dua
 584:./../../firmware/GD32VF103_standard_peripheral/Source/gd32vf103_i2c.c ****     \param[out] none
 585:./../../firmware/GD32VF103_standard_peripheral/Source/gd32vf103_i2c.c ****     \retval     FlagStatus: SET or RESET
 586:./../../firmware/GD32VF103_standard_peripheral/Source/gd32vf103_i2c.c ****  */
 587:./../../firmware/GD32VF103_standard_peripheral/Source/gd32vf103_i2c.c **** FlagStatus i2c_flag_get(uint32_t i2c_periph, i2c_flag_enum flag) 
 588:./../../firmware/GD32VF103_standard_peripheral/Source/gd32vf103_i2c.c **** {
 1001              		.loc 1 588 1 is_stmt 1
 1002              		.cfi_startproc
 1003              	.LVL104:
 589:./../../firmware/GD32VF103_standard_peripheral/Source/gd32vf103_i2c.c ****     if (RESET != (I2C_REG_VAL(i2c_periph, flag) & BIT(I2C_BIT_POS(flag)))) {
 1004              		.loc 1 589 5
 1005              		.loc 1 589 19 is_stmt 0
 1006 0000 93D76500 		srli	a5,a1,6
 1007 0004 93F7F73F 		andi	a5,a5,1023
 1008 0008 3E95     		add	a0,a5,a0
 1009              	.LVL105:
 1010 000a 0841     		lw	a0,0(a0)
 1011              		.loc 1 589 15
 1012 000c 3355B500 		srl	a0,a0,a1
 590:./../../firmware/GD32VF103_standard_peripheral/Source/gd32vf103_i2c.c ****         return SET;
 591:./../../firmware/GD32VF103_standard_peripheral/Source/gd32vf103_i2c.c ****     } else {
 592:./../../firmware/GD32VF103_standard_peripheral/Source/gd32vf103_i2c.c ****         return RESET;
 593:./../../firmware/GD32VF103_standard_peripheral/Source/gd32vf103_i2c.c ****     }
 594:./../../firmware/GD32VF103_standard_peripheral/Source/gd32vf103_i2c.c **** }
 1013              		.loc 1 594 1
 1014 0010 0589     		andi	a0,a0,1
 1015 0012 8280     		ret
 1016              		.cfi_endproc
 1017              	.LFE27:
 1019              		.section	.text.i2c_flag_clear,"ax",@progbits
 1020              		.align	1
 1021              		.globl	i2c_flag_clear
GAS LISTING C:\Users\Karzan\AppData\Local\Temp\cctocLKe.s 			page 30


 1023              	i2c_flag_clear:
 1024              	.LFB28:
 595:./../../firmware/GD32VF103_standard_peripheral/Source/gd32vf103_i2c.c **** 
 596:./../../firmware/GD32VF103_standard_peripheral/Source/gd32vf103_i2c.c **** /*!
 597:./../../firmware/GD32VF103_standard_peripheral/Source/gd32vf103_i2c.c ****     \brief      clear I2C flag
 598:./../../firmware/GD32VF103_standard_peripheral/Source/gd32vf103_i2c.c ****     \param[in]  i2c_periph: I2Cx(x=0,1)
 599:./../../firmware/GD32VF103_standard_peripheral/Source/gd32vf103_i2c.c ****     \param[in]  flag: I2C flags, refer to i2c_flag_enum
 600:./../../firmware/GD32VF103_standard_peripheral/Source/gd32vf103_i2c.c ****                 only one parameter can be selected which is shown as below:
 601:./../../firmware/GD32VF103_standard_peripheral/Source/gd32vf103_i2c.c ****     \arg        I2C_FLAG_SMBALT: SMBus Alert status
 602:./../../firmware/GD32VF103_standard_peripheral/Source/gd32vf103_i2c.c ****     \arg        I2C_FLAG_SMBTO: timeout signal in SMBus mode
 603:./../../firmware/GD32VF103_standard_peripheral/Source/gd32vf103_i2c.c ****     \arg        I2C_FLAG_PECERR: PEC error when receiving data
 604:./../../firmware/GD32VF103_standard_peripheral/Source/gd32vf103_i2c.c ****     \arg        I2C_FLAG_OUERR: over-run or under-run situation occurs in slave mode    
 605:./../../firmware/GD32VF103_standard_peripheral/Source/gd32vf103_i2c.c ****     \arg        I2C_FLAG_AERR: acknowledge error
 606:./../../firmware/GD32VF103_standard_peripheral/Source/gd32vf103_i2c.c ****     \arg        I2C_FLAG_LOSTARB: arbitration lost in master mode   
 607:./../../firmware/GD32VF103_standard_peripheral/Source/gd32vf103_i2c.c ****     \arg        I2C_FLAG_BERR: a bus error   
 608:./../../firmware/GD32VF103_standard_peripheral/Source/gd32vf103_i2c.c ****     \arg        I2C_FLAG_ADDSEND: cleared by reading I2C_STAT0 and reading I2C_STAT1
 609:./../../firmware/GD32VF103_standard_peripheral/Source/gd32vf103_i2c.c ****     \param[out] none
 610:./../../firmware/GD32VF103_standard_peripheral/Source/gd32vf103_i2c.c ****     \retval     none
 611:./../../firmware/GD32VF103_standard_peripheral/Source/gd32vf103_i2c.c ****  */
 612:./../../firmware/GD32VF103_standard_peripheral/Source/gd32vf103_i2c.c **** void i2c_flag_clear(uint32_t i2c_periph, i2c_flag_enum flag) 
 613:./../../firmware/GD32VF103_standard_peripheral/Source/gd32vf103_i2c.c **** {
 1025              		.loc 1 613 1 is_stmt 1
 1026              		.cfi_startproc
 1027              	.LVL106:
 614:./../../firmware/GD32VF103_standard_peripheral/Source/gd32vf103_i2c.c ****     if (I2C_FLAG_ADDSEND == flag) {
 1028              		.loc 1 614 5
 1029              		.loc 1 614 8 is_stmt 0
 1030 0000 93071050 		li	a5,1281
 1031 0004 6395F500 		bne	a1,a5,.L64
 615:./../../firmware/GD32VF103_standard_peripheral/Source/gd32vf103_i2c.c ****         /* read I2C_STAT0 and then read I2C_STAT1 to clear ADDSEND */
 616:./../../firmware/GD32VF103_standard_peripheral/Source/gd32vf103_i2c.c ****         I2C_STAT0(i2c_periph);
 1032              		.loc 1 616 9 is_stmt 1
 1033 0008 5C49     		lw	a5,20(a0)
 617:./../../firmware/GD32VF103_standard_peripheral/Source/gd32vf103_i2c.c ****         I2C_STAT1(i2c_periph);
 1034              		.loc 1 617 9
 1035 000a 1C4D     		lw	a5,24(a0)
 1036 000c 8280     		ret
 1037              	.L64:
 618:./../../firmware/GD32VF103_standard_peripheral/Source/gd32vf103_i2c.c ****     } else {
 619:./../../firmware/GD32VF103_standard_peripheral/Source/gd32vf103_i2c.c ****         I2C_REG_VAL(i2c_periph, flag) &= ~BIT(I2C_BIT_POS(flag));
 1038              		.loc 1 619 9
 1039              		.loc 1 619 39 is_stmt 0
 1040 000e 13D76500 		srli	a4,a1,6
 1041 0012 1377F73F 		andi	a4,a4,1023
 1042 0016 3A95     		add	a0,a4,a0
 1043              	.LVL107:
 1044 0018 1841     		lw	a4,0(a0)
 1045              		.loc 1 619 43
 1046 001a 8547     		li	a5,1
 1047 001c B397B700 		sll	a5,a5,a1
 1048              		.loc 1 619 42
 1049 0020 93C7F7FF 		not	a5,a5
 1050              		.loc 1 619 39
 1051 0024 F98F     		and	a5,a5,a4
 1052 0026 1CC1     		sw	a5,0(a0)
 620:./../../firmware/GD32VF103_standard_peripheral/Source/gd32vf103_i2c.c ****     }
 621:./../../firmware/GD32VF103_standard_peripheral/Source/gd32vf103_i2c.c **** }
GAS LISTING C:\Users\Karzan\AppData\Local\Temp\cctocLKe.s 			page 31


 1053              		.loc 1 621 1
 1054 0028 8280     		ret
 1055              		.cfi_endproc
 1056              	.LFE28:
 1058              		.section	.text.i2c_interrupt_enable,"ax",@progbits
 1059              		.align	1
 1060              		.globl	i2c_interrupt_enable
 1062              	i2c_interrupt_enable:
 1063              	.LFB29:
 622:./../../firmware/GD32VF103_standard_peripheral/Source/gd32vf103_i2c.c **** 
 623:./../../firmware/GD32VF103_standard_peripheral/Source/gd32vf103_i2c.c **** /*!
 624:./../../firmware/GD32VF103_standard_peripheral/Source/gd32vf103_i2c.c ****     \brief      enable I2C interrupt
 625:./../../firmware/GD32VF103_standard_peripheral/Source/gd32vf103_i2c.c ****     \param[in]  i2c_periph: I2Cx(x=0,1)
 626:./../../firmware/GD32VF103_standard_peripheral/Source/gd32vf103_i2c.c ****     \param[in]  interrupt: I2C interrupts, refer to i2c_interrupt_enum
 627:./../../firmware/GD32VF103_standard_peripheral/Source/gd32vf103_i2c.c ****                 only one parameter can be selected which is shown as below:
 628:./../../firmware/GD32VF103_standard_peripheral/Source/gd32vf103_i2c.c ****     \arg        I2C_INT_ERR: error interrupt enable 
 629:./../../firmware/GD32VF103_standard_peripheral/Source/gd32vf103_i2c.c ****     \arg        I2C_INT_EV: event interrupt enable 
 630:./../../firmware/GD32VF103_standard_peripheral/Source/gd32vf103_i2c.c ****     \arg        I2C_INT_BUF: buffer interrupt enable
 631:./../../firmware/GD32VF103_standard_peripheral/Source/gd32vf103_i2c.c ****     \param[out] none
 632:./../../firmware/GD32VF103_standard_peripheral/Source/gd32vf103_i2c.c ****     \retval     none
 633:./../../firmware/GD32VF103_standard_peripheral/Source/gd32vf103_i2c.c ****  */
 634:./../../firmware/GD32VF103_standard_peripheral/Source/gd32vf103_i2c.c **** void i2c_interrupt_enable(uint32_t i2c_periph, i2c_interrupt_enum interrupt) 
 635:./../../firmware/GD32VF103_standard_peripheral/Source/gd32vf103_i2c.c **** {
 1064              		.loc 1 635 1 is_stmt 1
 1065              		.cfi_startproc
 1066              	.LVL108:
 636:./../../firmware/GD32VF103_standard_peripheral/Source/gd32vf103_i2c.c ****     I2C_REG_VAL(i2c_periph, interrupt) |= BIT(I2C_BIT_POS(interrupt));
 1067              		.loc 1 636 5
 1068              		.loc 1 636 40 is_stmt 0
 1069 0000 93D76500 		srli	a5,a1,6
 1070 0004 93F7F73F 		andi	a5,a5,1023
 1071 0008 3E95     		add	a0,a5,a0
 1072              	.LVL109:
 1073 000a 1841     		lw	a4,0(a0)
 1074              		.loc 1 636 43
 1075 000c 8547     		li	a5,1
 1076 000e B397B700 		sll	a5,a5,a1
 1077              		.loc 1 636 40
 1078 0012 D98F     		or	a5,a5,a4
 1079 0014 1CC1     		sw	a5,0(a0)
 637:./../../firmware/GD32VF103_standard_peripheral/Source/gd32vf103_i2c.c **** }
 1080              		.loc 1 637 1
 1081 0016 8280     		ret
 1082              		.cfi_endproc
 1083              	.LFE29:
 1085              		.section	.text.i2c_interrupt_disable,"ax",@progbits
 1086              		.align	1
 1087              		.globl	i2c_interrupt_disable
 1089              	i2c_interrupt_disable:
 1090              	.LFB30:
 638:./../../firmware/GD32VF103_standard_peripheral/Source/gd32vf103_i2c.c **** 
 639:./../../firmware/GD32VF103_standard_peripheral/Source/gd32vf103_i2c.c **** /*!
 640:./../../firmware/GD32VF103_standard_peripheral/Source/gd32vf103_i2c.c ****     \brief      disable I2C interrupt
 641:./../../firmware/GD32VF103_standard_peripheral/Source/gd32vf103_i2c.c ****     \param[in]  i2c_periph: I2Cx(x=0,1)
 642:./../../firmware/GD32VF103_standard_peripheral/Source/gd32vf103_i2c.c ****     \param[in]  interrupt: I2C interrupts, refer to i2c_flag_enum
 643:./../../firmware/GD32VF103_standard_peripheral/Source/gd32vf103_i2c.c ****                 only one parameter can be selected which is shown as below:
 644:./../../firmware/GD32VF103_standard_peripheral/Source/gd32vf103_i2c.c ****     \arg        I2C_INT_ERR: error interrupt enable 
GAS LISTING C:\Users\Karzan\AppData\Local\Temp\cctocLKe.s 			page 32


 645:./../../firmware/GD32VF103_standard_peripheral/Source/gd32vf103_i2c.c ****     \arg        I2C_INT_EV: event interrupt enable 
 646:./../../firmware/GD32VF103_standard_peripheral/Source/gd32vf103_i2c.c ****     \arg        I2C_INT_BUF: buffer interrupt enable
 647:./../../firmware/GD32VF103_standard_peripheral/Source/gd32vf103_i2c.c ****     \param[out] none
 648:./../../firmware/GD32VF103_standard_peripheral/Source/gd32vf103_i2c.c ****     \retval     none
 649:./../../firmware/GD32VF103_standard_peripheral/Source/gd32vf103_i2c.c ****  */
 650:./../../firmware/GD32VF103_standard_peripheral/Source/gd32vf103_i2c.c **** void i2c_interrupt_disable(uint32_t i2c_periph, i2c_interrupt_enum interrupt) 
 651:./../../firmware/GD32VF103_standard_peripheral/Source/gd32vf103_i2c.c **** {
 1091              		.loc 1 651 1 is_stmt 1
 1092              		.cfi_startproc
 1093              	.LVL110:
 652:./../../firmware/GD32VF103_standard_peripheral/Source/gd32vf103_i2c.c ****     I2C_REG_VAL(i2c_periph, interrupt) &= ~BIT(I2C_BIT_POS(interrupt));
 1094              		.loc 1 652 5
 1095              		.loc 1 652 40 is_stmt 0
 1096 0000 13D76500 		srli	a4,a1,6
 1097 0004 1377F73F 		andi	a4,a4,1023
 1098 0008 3A95     		add	a0,a4,a0
 1099              	.LVL111:
 1100 000a 1841     		lw	a4,0(a0)
 1101              		.loc 1 652 44
 1102 000c 8547     		li	a5,1
 1103 000e B397B700 		sll	a5,a5,a1
 1104              		.loc 1 652 43
 1105 0012 93C7F7FF 		not	a5,a5
 1106              		.loc 1 652 40
 1107 0016 F98F     		and	a5,a5,a4
 1108 0018 1CC1     		sw	a5,0(a0)
 653:./../../firmware/GD32VF103_standard_peripheral/Source/gd32vf103_i2c.c **** }
 1109              		.loc 1 653 1
 1110 001a 8280     		ret
 1111              		.cfi_endproc
 1112              	.LFE30:
 1114              		.section	.text.i2c_interrupt_flag_get,"ax",@progbits
 1115              		.align	1
 1116              		.globl	i2c_interrupt_flag_get
 1118              	i2c_interrupt_flag_get:
 1119              	.LFB31:
 654:./../../firmware/GD32VF103_standard_peripheral/Source/gd32vf103_i2c.c **** 
 655:./../../firmware/GD32VF103_standard_peripheral/Source/gd32vf103_i2c.c **** /*!
 656:./../../firmware/GD32VF103_standard_peripheral/Source/gd32vf103_i2c.c ****     \brief      check I2C interrupt flag
 657:./../../firmware/GD32VF103_standard_peripheral/Source/gd32vf103_i2c.c ****     \param[in]  i2c_periph: I2Cx(x=0,1)
 658:./../../firmware/GD32VF103_standard_peripheral/Source/gd32vf103_i2c.c ****     \param[in]  int_flag: I2C interrupt flags, refer to i2c_interrupt_flag_enum
 659:./../../firmware/GD32VF103_standard_peripheral/Source/gd32vf103_i2c.c ****                 only one parameter can be selected which is shown as below:
 660:./../../firmware/GD32VF103_standard_peripheral/Source/gd32vf103_i2c.c ****     \arg        I2C_INT_FLAG_SBSEND: start condition sent out in master mode interrupt flag
 661:./../../firmware/GD32VF103_standard_peripheral/Source/gd32vf103_i2c.c ****     \arg        I2C_INT_FLAG_ADDSEND: address is sent in master mode or received and matches in sla
 662:./../../firmware/GD32VF103_standard_peripheral/Source/gd32vf103_i2c.c ****     \arg        I2C_INT_FLAG_BTC: byte transmission finishes
 663:./../../firmware/GD32VF103_standard_peripheral/Source/gd32vf103_i2c.c ****     \arg        I2C_INT_FLAG_ADD10SEND: header of 10-bit address is sent in master mode interrupt f
 664:./../../firmware/GD32VF103_standard_peripheral/Source/gd32vf103_i2c.c ****     \arg        I2C_INT_FLAG_STPDET: etop condition detected in slave mode interrupt flag
 665:./../../firmware/GD32VF103_standard_peripheral/Source/gd32vf103_i2c.c ****     \arg        I2C_INT_FLAG_RBNE: I2C_DATA is not Empty during receiving interrupt flag
 666:./../../firmware/GD32VF103_standard_peripheral/Source/gd32vf103_i2c.c ****     \arg        I2C_INT_FLAG_TBE: I2C_DATA is empty during transmitting interrupt flag
 667:./../../firmware/GD32VF103_standard_peripheral/Source/gd32vf103_i2c.c ****     \arg        I2C_INT_FLAG_BERR: a bus error occurs indication a unexpected start or stop conditi
 668:./../../firmware/GD32VF103_standard_peripheral/Source/gd32vf103_i2c.c ****     \arg        I2C_INT_FLAG_LOSTARB: arbitration lost in master mode interrupt flag
 669:./../../firmware/GD32VF103_standard_peripheral/Source/gd32vf103_i2c.c ****     \arg        I2C_INT_FLAG_AERR: acknowledge error interrupt flag
 670:./../../firmware/GD32VF103_standard_peripheral/Source/gd32vf103_i2c.c ****     \arg        I2C_INT_FLAG_OUERR: over-run or under-run situation occurs in slave mode interrupt 
 671:./../../firmware/GD32VF103_standard_peripheral/Source/gd32vf103_i2c.c ****     \arg        I2C_INT_FLAG_PECERR: PEC error when receiving data interrupt flag
 672:./../../firmware/GD32VF103_standard_peripheral/Source/gd32vf103_i2c.c ****     \arg        I2C_INT_FLAG_SMBTO: timeout signal in SMBus mode interrupt flag
 673:./../../firmware/GD32VF103_standard_peripheral/Source/gd32vf103_i2c.c ****     \arg        I2C_INT_FLAG_SMBALT: SMBus Alert status interrupt flag
 674:./../../firmware/GD32VF103_standard_peripheral/Source/gd32vf103_i2c.c ****     \param[out] none
GAS LISTING C:\Users\Karzan\AppData\Local\Temp\cctocLKe.s 			page 33


 675:./../../firmware/GD32VF103_standard_peripheral/Source/gd32vf103_i2c.c ****     \retval     FlagStatus: SET or RESET
 676:./../../firmware/GD32VF103_standard_peripheral/Source/gd32vf103_i2c.c ****  */
 677:./../../firmware/GD32VF103_standard_peripheral/Source/gd32vf103_i2c.c **** FlagStatus i2c_interrupt_flag_get(uint32_t i2c_periph,i2c_interrupt_flag_enum int_flag) 
 678:./../../firmware/GD32VF103_standard_peripheral/Source/gd32vf103_i2c.c **** {
 1120              		.loc 1 678 1 is_stmt 1
 1121              		.cfi_startproc
 1122              	.LVL112:
 679:./../../firmware/GD32VF103_standard_peripheral/Source/gd32vf103_i2c.c ****     uint32_t intenable = 0U, flagstatus = 0U, bufie;
 1123              		.loc 1 679 5
 680:./../../firmware/GD32VF103_standard_peripheral/Source/gd32vf103_i2c.c **** 
 681:./../../firmware/GD32VF103_standard_peripheral/Source/gd32vf103_i2c.c ****     /* check BUFIE */
 682:./../../firmware/GD32VF103_standard_peripheral/Source/gd32vf103_i2c.c ****     bufie = I2C_CTL1(i2c_periph) & I2C_CTL1_BUFIE;
 1124              		.loc 1 682 5
 683:./../../firmware/GD32VF103_standard_peripheral/Source/gd32vf103_i2c.c **** 
 684:./../../firmware/GD32VF103_standard_peripheral/Source/gd32vf103_i2c.c ****     /* get the interrupt enable bit status */
 685:./../../firmware/GD32VF103_standard_peripheral/Source/gd32vf103_i2c.c ****     intenable = (I2C_REG_VAL(i2c_periph, int_flag) & BIT(I2C_BIT_POS(int_flag)));
 1125              		.loc 1 685 18 is_stmt 0
 1126 0000 93D76500 		srli	a5,a1,6
 1127 0004 93F7F73F 		andi	a5,a5,1023
 1128 0008 AA97     		add	a5,a5,a0
 682:./../../firmware/GD32VF103_standard_peripheral/Source/gd32vf103_i2c.c **** 
 1129              		.loc 1 682 13
 1130 000a 5041     		lw	a2,4(a0)
 1131              	.LVL113:
 1132              		.loc 1 685 5 is_stmt 1
 1133              		.loc 1 685 18 is_stmt 0
 1134 000c 9443     		lw	a3,0(a5)
 1135              		.loc 1 685 54
 1136 000e 0547     		li	a4,1
 1137 0010 B317B700 		sll	a5,a4,a1
 1138              		.loc 1 685 15
 1139 0014 F58F     		and	a5,a5,a3
 1140              	.LVL114:
 686:./../../firmware/GD32VF103_standard_peripheral/Source/gd32vf103_i2c.c ****     /* get the corresponding flag bit status */
 687:./../../firmware/GD32VF103_standard_peripheral/Source/gd32vf103_i2c.c ****     flagstatus = (I2C_REG_VAL2(i2c_periph, int_flag)& BIT(I2C_BIT_POS2(int_flag)));
 1141              		.loc 1 687 5 is_stmt 1
 1142              		.loc 1 687 19 is_stmt 0
 1143 0016 93D66501 		srli	a3,a1,22
 1144 001a AA96     		add	a3,a3,a0
 1145 001c 9442     		lw	a3,0(a3)
 1146              		.loc 1 687 55
 1147 001e 13D50501 		srli	a0,a1,16
 1148              	.LVL115:
 1149 0022 3317A700 		sll	a4,a4,a0
 1150              		.loc 1 687 16
 1151 0026 758F     		and	a4,a4,a3
 1152              	.LVL116:
 688:./../../firmware/GD32VF103_standard_peripheral/Source/gd32vf103_i2c.c **** 
 689:./../../firmware/GD32VF103_standard_peripheral/Source/gd32vf103_i2c.c ****     if ((I2C_INT_FLAG_RBNE == int_flag) || (I2C_INT_FLAG_TBE == int_flag)) {
 1153              		.loc 1 689 5 is_stmt 1
 1154              		.loc 1 689 8 is_stmt 0
 1155 0028 C176     		li	a3,-65536
 1156 002a FD16     		addi	a3,a3,-1
 1157 002c F58D     		and	a1,a1,a3
 1158              	.LVL117:
 1159 002e B7060605 		li	a3,84279296
 1160 0032 93869610 		addi	a3,a3,265
GAS LISTING C:\Users\Karzan\AppData\Local\Temp\cctocLKe.s 			page 34


 1161 0036 6398D500 		bne	a1,a3,.L69
 690:./../../firmware/GD32VF103_standard_peripheral/Source/gd32vf103_i2c.c ****         if (intenable && bufie) {
 1162              		.loc 1 690 9 is_stmt 1
 1163              		.loc 1 690 12 is_stmt 0
 1164 003a 81C7     		beq	a5,zero,.L68
 682:./../../firmware/GD32VF103_standard_peripheral/Source/gd32vf103_i2c.c **** 
 1165              		.loc 1 682 11 discriminator 1
 1166 003c 93770640 		andi	a5,a2,1024
 1167              	.LVL118:
 1168              		.loc 1 690 23 discriminator 1
 1169 0040 81EB     		bne	a5,zero,.L71
 1170              	.LVL119:
 1171              	.L68:
 691:./../../firmware/GD32VF103_standard_peripheral/Source/gd32vf103_i2c.c ****             intenable = 1U;
 692:./../../firmware/GD32VF103_standard_peripheral/Source/gd32vf103_i2c.c ****         } else {
 693:./../../firmware/GD32VF103_standard_peripheral/Source/gd32vf103_i2c.c ****             intenable = 0U;
 694:./../../firmware/GD32VF103_standard_peripheral/Source/gd32vf103_i2c.c ****         }
 695:./../../firmware/GD32VF103_standard_peripheral/Source/gd32vf103_i2c.c ****     }
 696:./../../firmware/GD32VF103_standard_peripheral/Source/gd32vf103_i2c.c ****     if ((0U != flagstatus) && (0U != intenable)) {
 697:./../../firmware/GD32VF103_standard_peripheral/Source/gd32vf103_i2c.c ****         return SET;
 698:./../../firmware/GD32VF103_standard_peripheral/Source/gd32vf103_i2c.c ****     } else {
 699:./../../firmware/GD32VF103_standard_peripheral/Source/gd32vf103_i2c.c ****         return RESET;
 700:./../../firmware/GD32VF103_standard_peripheral/Source/gd32vf103_i2c.c ****     }
 701:./../../firmware/GD32VF103_standard_peripheral/Source/gd32vf103_i2c.c **** }
 1172              		.loc 1 701 1
 1173 0042 3E85     		mv	a0,a5
 1174 0044 8280     		ret
 1175              	.LVL120:
 1176              	.L69:
 696:./../../firmware/GD32VF103_standard_peripheral/Source/gd32vf103_i2c.c ****         return SET;
 1177              		.loc 1 696 5 is_stmt 1
 696:./../../firmware/GD32VF103_standard_peripheral/Source/gd32vf103_i2c.c ****         return SET;
 1178              		.loc 1 696 28 is_stmt 0
 1179 0046 B337F000 		snez	a5,a5
 1180              	.LVL121:
 696:./../../firmware/GD32VF103_standard_peripheral/Source/gd32vf103_i2c.c ****         return SET;
 1181              		.loc 1 696 8
 1182 004a 65FF     		bne	a4,zero,.L68
 699:./../../firmware/GD32VF103_standard_peripheral/Source/gd32vf103_i2c.c ****     }
 1183              		.loc 1 699 16
 1184 004c 8147     		li	a5,0
 1185 004e D5BF     		j	.L68
 1186              	.LVL122:
 1187              	.L71:
 696:./../../firmware/GD32VF103_standard_peripheral/Source/gd32vf103_i2c.c ****         return SET;
 1188              		.loc 1 696 5 is_stmt 1
 696:./../../firmware/GD32VF103_standard_peripheral/Source/gd32vf103_i2c.c ****         return SET;
 1189              		.loc 1 696 8 is_stmt 0
 1190 0050 B337E000 		snez	a5,a4
 1191              	.LVL123:
 1192 0054 FDB7     		j	.L68
 1193              		.cfi_endproc
 1194              	.LFE31:
 1196              		.section	.text.i2c_interrupt_flag_clear,"ax",@progbits
 1197              		.align	1
 1198              		.globl	i2c_interrupt_flag_clear
 1200              	i2c_interrupt_flag_clear:
GAS LISTING C:\Users\Karzan\AppData\Local\Temp\cctocLKe.s 			page 35


 1201              	.LFB32:
 702:./../../firmware/GD32VF103_standard_peripheral/Source/gd32vf103_i2c.c **** 
 703:./../../firmware/GD32VF103_standard_peripheral/Source/gd32vf103_i2c.c **** /*!
 704:./../../firmware/GD32VF103_standard_peripheral/Source/gd32vf103_i2c.c ****     \brief      clear I2C interrupt flag
 705:./../../firmware/GD32VF103_standard_peripheral/Source/gd32vf103_i2c.c ****     \param[in]  i2c_periph: I2Cx(x=0,1)
 706:./../../firmware/GD32VF103_standard_peripheral/Source/gd32vf103_i2c.c ****     \param[in]  int_flag: I2C interrupt flags, refer to i2c_interrupt_flag_enum
 707:./../../firmware/GD32VF103_standard_peripheral/Source/gd32vf103_i2c.c ****                 only one parameter can be selected which is shown as below:
 708:./../../firmware/GD32VF103_standard_peripheral/Source/gd32vf103_i2c.c ****     \arg        I2C_INT_FLAG_ADDSEND: address is sent in master mode or received and matches in sla
 709:./../../firmware/GD32VF103_standard_peripheral/Source/gd32vf103_i2c.c ****     \arg        I2C_INT_FLAG_BERR: a bus error occurs indication a unexpected start or stop conditi
 710:./../../firmware/GD32VF103_standard_peripheral/Source/gd32vf103_i2c.c ****     \arg        I2C_INT_FLAG_LOSTARB: arbitration lost in master mode interrupt flag
 711:./../../firmware/GD32VF103_standard_peripheral/Source/gd32vf103_i2c.c ****     \arg        I2C_INT_FLAG_AERR: acknowledge error interrupt flag
 712:./../../firmware/GD32VF103_standard_peripheral/Source/gd32vf103_i2c.c ****     \arg        I2C_INT_FLAG_OUERR: over-run or under-run situation occurs in slave mode interrupt 
 713:./../../firmware/GD32VF103_standard_peripheral/Source/gd32vf103_i2c.c ****     \arg        I2C_INT_FLAG_PECERR: PEC error when receiving data interrupt flag
 714:./../../firmware/GD32VF103_standard_peripheral/Source/gd32vf103_i2c.c ****     \arg        I2C_INT_FLAG_SMBTO: timeout signal in SMBus mode interrupt flag
 715:./../../firmware/GD32VF103_standard_peripheral/Source/gd32vf103_i2c.c ****     \arg        I2C_INT_FLAG_SMBALT: SMBus Alert status interrupt flag
 716:./../../firmware/GD32VF103_standard_peripheral/Source/gd32vf103_i2c.c ****     \param[out] none
 717:./../../firmware/GD32VF103_standard_peripheral/Source/gd32vf103_i2c.c ****     \retval     none
 718:./../../firmware/GD32VF103_standard_peripheral/Source/gd32vf103_i2c.c ****  */
 719:./../../firmware/GD32VF103_standard_peripheral/Source/gd32vf103_i2c.c **** void i2c_interrupt_flag_clear(uint32_t i2c_periph,i2c_interrupt_flag_enum int_flag) 
 720:./../../firmware/GD32VF103_standard_peripheral/Source/gd32vf103_i2c.c **** {
 1202              		.loc 1 720 1 is_stmt 1
 1203              		.cfi_startproc
 1204              	.LVL124:
 721:./../../firmware/GD32VF103_standard_peripheral/Source/gd32vf103_i2c.c ****     if (I2C_INT_FLAG_ADDSEND == int_flag) {
 1205              		.loc 1 721 5
 1206              		.loc 1 721 8 is_stmt 0
 1207 0000 B7070105 		li	a5,83951616
 1208 0004 93879710 		addi	a5,a5,265
 1209 0008 6395F500 		bne	a1,a5,.L77
 722:./../../firmware/GD32VF103_standard_peripheral/Source/gd32vf103_i2c.c ****         /* read I2C_STAT0 and then read I2C_STAT1 to clear ADDSEND */
 723:./../../firmware/GD32VF103_standard_peripheral/Source/gd32vf103_i2c.c ****         I2C_STAT0(i2c_periph);
 1210              		.loc 1 723 9 is_stmt 1
 1211 000c 5C49     		lw	a5,20(a0)
 724:./../../firmware/GD32VF103_standard_peripheral/Source/gd32vf103_i2c.c ****         I2C_STAT1(i2c_periph);
 1212              		.loc 1 724 9
 1213 000e 1C4D     		lw	a5,24(a0)
 1214 0010 8280     		ret
 1215              	.L77:
 725:./../../firmware/GD32VF103_standard_peripheral/Source/gd32vf103_i2c.c ****     } else {
 726:./../../firmware/GD32VF103_standard_peripheral/Source/gd32vf103_i2c.c ****         I2C_REG_VAL2(i2c_periph, int_flag) &= ~BIT(I2C_BIT_POS2(int_flag));
 1216              		.loc 1 726 9
 1217              		.loc 1 726 44 is_stmt 0
 1218 0012 93D76501 		srli	a5,a1,22
 1219 0016 3E95     		add	a0,a5,a0
 1220              	.LVL125:
 1221 0018 1841     		lw	a4,0(a0)
 1222              		.loc 1 726 48
 1223 001a C181     		srli	a1,a1,16
 1224              	.LVL126:
 1225 001c 8547     		li	a5,1
 1226 001e B397B700 		sll	a5,a5,a1
 1227              		.loc 1 726 47
 1228 0022 93C7F7FF 		not	a5,a5
 1229              		.loc 1 726 44
 1230 0026 F98F     		and	a5,a5,a4
 1231 0028 1CC1     		sw	a5,0(a0)
 727:./../../firmware/GD32VF103_standard_peripheral/Source/gd32vf103_i2c.c ****     }
GAS LISTING C:\Users\Karzan\AppData\Local\Temp\cctocLKe.s 			page 36


 728:./../../firmware/GD32VF103_standard_peripheral/Source/gd32vf103_i2c.c **** }
 1232              		.loc 1 728 1
 1233 002a 8280     		ret
 1234              		.cfi_endproc
 1235              	.LFE32:
 1237              		.text
 1238              	.Letext0:
 1239              		.file 2 "c:\\users\\karzan\\downloads\\toolchain-gd32v-v202-win\\toolchain-gd32v-v202-win\\compile
 1240              		.file 3 "c:\\users\\karzan\\downloads\\toolchain-gd32v-v202-win\\toolchain-gd32v-v202-win\\compile
 1241              		.file 4 "./../../firmware/GD32VF103_standard_peripheral/gd32vf103.h"
 1242              		.file 5 "./../../firmware/GD32VF103_standard_peripheral/Include/gd32vf103_rcu.h"
 1243              		.file 6 "./../../firmware/GD32VF103_standard_peripheral/Include/gd32vf103_i2c.h"
 1244              		.file 7 "./../../firmware/GD32VF103_standard_peripheral/system_gd32vf103.h"
GAS LISTING C:\Users\Karzan\AppData\Local\Temp\cctocLKe.s 			page 37

