GAS LISTING C:\Users\Karzan\AppData\Local\Temp\ccI1LKW9.s 			page 1


   1              		.file	"gd32vf103_fwdgt.c"
   2              		.option nopic
   3              		.attribute arch, "rv32i2p0_m2p0_a2p0_c2p0"
   4              		.attribute unaligned_access, 0
   5              		.attribute stack_align, 16
   6              		.text
   7              	.Ltext0:
   8              		.cfi_sections	.debug_frame
   9              		.section	.text.fwdgt_write_enable,"ax",@progbits
  10              		.align	1
  11              		.globl	fwdgt_write_enable
  13              	fwdgt_write_enable:
  14              	.LFB2:
  15              		.file 1 "./../../firmware/GD32VF103_standard_peripheral/Source/gd32vf103_fwdgt.c"
   1:./../../firmware/GD32VF103_standard_peripheral/Source/gd32vf103_fwdgt.c **** /*!
   2:./../../firmware/GD32VF103_standard_peripheral/Source/gd32vf103_fwdgt.c ****     \file    gd32vf103_fwdgt.c
   3:./../../firmware/GD32VF103_standard_peripheral/Source/gd32vf103_fwdgt.c ****     \brief   FWDGT driver
   4:./../../firmware/GD32VF103_standard_peripheral/Source/gd32vf103_fwdgt.c ****        
   5:./../../firmware/GD32VF103_standard_peripheral/Source/gd32vf103_fwdgt.c ****     \version 2019-06-05, V1.0.0, firmware for GD32VF103
   6:./../../firmware/GD32VF103_standard_peripheral/Source/gd32vf103_fwdgt.c ****     \version 2020-08-04, V1.1.0, firmware for GD32VF103
   7:./../../firmware/GD32VF103_standard_peripheral/Source/gd32vf103_fwdgt.c **** */
   8:./../../firmware/GD32VF103_standard_peripheral/Source/gd32vf103_fwdgt.c **** 
   9:./../../firmware/GD32VF103_standard_peripheral/Source/gd32vf103_fwdgt.c **** /*
  10:./../../firmware/GD32VF103_standard_peripheral/Source/gd32vf103_fwdgt.c ****     Copyright (c) 2020, GigaDevice Semiconductor Inc.
  11:./../../firmware/GD32VF103_standard_peripheral/Source/gd32vf103_fwdgt.c **** 
  12:./../../firmware/GD32VF103_standard_peripheral/Source/gd32vf103_fwdgt.c ****     Redistribution and use in source and binary forms, with or without modification, 
  13:./../../firmware/GD32VF103_standard_peripheral/Source/gd32vf103_fwdgt.c **** are permitted provided that the following conditions are met:
  14:./../../firmware/GD32VF103_standard_peripheral/Source/gd32vf103_fwdgt.c **** 
  15:./../../firmware/GD32VF103_standard_peripheral/Source/gd32vf103_fwdgt.c ****     1. Redistributions of source code must retain the above copyright notice, this 
  16:./../../firmware/GD32VF103_standard_peripheral/Source/gd32vf103_fwdgt.c ****        list of conditions and the following disclaimer.
  17:./../../firmware/GD32VF103_standard_peripheral/Source/gd32vf103_fwdgt.c ****     2. Redistributions in binary form must reproduce the above copyright notice, 
  18:./../../firmware/GD32VF103_standard_peripheral/Source/gd32vf103_fwdgt.c ****        this list of conditions and the following disclaimer in the documentation 
  19:./../../firmware/GD32VF103_standard_peripheral/Source/gd32vf103_fwdgt.c ****        and/or other materials provided with the distribution.
  20:./../../firmware/GD32VF103_standard_peripheral/Source/gd32vf103_fwdgt.c ****     3. Neither the name of the copyright holder nor the names of its contributors 
  21:./../../firmware/GD32VF103_standard_peripheral/Source/gd32vf103_fwdgt.c ****        may be used to endorse or promote products derived from this software without 
  22:./../../firmware/GD32VF103_standard_peripheral/Source/gd32vf103_fwdgt.c ****        specific prior written permission.
  23:./../../firmware/GD32VF103_standard_peripheral/Source/gd32vf103_fwdgt.c **** 
  24:./../../firmware/GD32VF103_standard_peripheral/Source/gd32vf103_fwdgt.c ****     THIS SOFTWARE IS PROVIDED BY THE COPYRIGHT HOLDERS AND CONTRIBUTORS "AS IS" 
  25:./../../firmware/GD32VF103_standard_peripheral/Source/gd32vf103_fwdgt.c **** AND ANY EXPRESS OR IMPLIED WARRANTIES, INCLUDING, BUT NOT LIMITED TO, THE IMPLIED 
  26:./../../firmware/GD32VF103_standard_peripheral/Source/gd32vf103_fwdgt.c **** WARRANTIES OF MERCHANTABILITY AND FITNESS FOR A PARTICULAR PURPOSE ARE DISCLAIMED. 
  27:./../../firmware/GD32VF103_standard_peripheral/Source/gd32vf103_fwdgt.c **** IN NO EVENT SHALL THE COPYRIGHT HOLDER OR CONTRIBUTORS BE LIABLE FOR ANY DIRECT, 
  28:./../../firmware/GD32VF103_standard_peripheral/Source/gd32vf103_fwdgt.c **** INDIRECT, INCIDENTAL, SPECIAL, EXEMPLARY, OR CONSEQUENTIAL DAMAGES (INCLUDING, BUT 
  29:./../../firmware/GD32VF103_standard_peripheral/Source/gd32vf103_fwdgt.c **** NOT LIMITED TO, PROCUREMENT OF SUBSTITUTE GOODS OR SERVICES; LOSS OF USE, DATA, OR 
  30:./../../firmware/GD32VF103_standard_peripheral/Source/gd32vf103_fwdgt.c **** PROFITS; OR BUSINESS INTERRUPTION) HOWEVER CAUSED AND ON ANY THEORY OF LIABILITY, 
  31:./../../firmware/GD32VF103_standard_peripheral/Source/gd32vf103_fwdgt.c **** WHETHER IN CONTRACT, STRICT LIABILITY, OR TORT (INCLUDING NEGLIGENCE OR OTHERWISE) 
  32:./../../firmware/GD32VF103_standard_peripheral/Source/gd32vf103_fwdgt.c **** ARISING IN ANY WAY OUT OF THE USE OF THIS SOFTWARE, EVEN IF ADVISED OF THE POSSIBILITY 
  33:./../../firmware/GD32VF103_standard_peripheral/Source/gd32vf103_fwdgt.c **** OF SUCH DAMAGE.
  34:./../../firmware/GD32VF103_standard_peripheral/Source/gd32vf103_fwdgt.c **** */
  35:./../../firmware/GD32VF103_standard_peripheral/Source/gd32vf103_fwdgt.c **** 
  36:./../../firmware/GD32VF103_standard_peripheral/Source/gd32vf103_fwdgt.c **** #include "gd32vf103_fwdgt.h"
  37:./../../firmware/GD32VF103_standard_peripheral/Source/gd32vf103_fwdgt.c **** 
  38:./../../firmware/GD32VF103_standard_peripheral/Source/gd32vf103_fwdgt.c **** /* write value to FWDGT_CTL_CMD bit field */
  39:./../../firmware/GD32VF103_standard_peripheral/Source/gd32vf103_fwdgt.c **** #define CTL_CMD(regval)             (BITS(0,15) & ((uint32_t)(regval) << 0))
  40:./../../firmware/GD32VF103_standard_peripheral/Source/gd32vf103_fwdgt.c **** /* write value to FWDGT_RLD_RLD bit field */
  41:./../../firmware/GD32VF103_standard_peripheral/Source/gd32vf103_fwdgt.c **** #define RLD_RLD(regval)             (BITS(0,11) & ((uint32_t)(regval) << 0))
  42:./../../firmware/GD32VF103_standard_peripheral/Source/gd32vf103_fwdgt.c **** 
  43:./../../firmware/GD32VF103_standard_peripheral/Source/gd32vf103_fwdgt.c **** /*!
GAS LISTING C:\Users\Karzan\AppData\Local\Temp\ccI1LKW9.s 			page 2


  44:./../../firmware/GD32VF103_standard_peripheral/Source/gd32vf103_fwdgt.c ****     \brief      enable write access to FWDGT_PSC and FWDGT_RLD
  45:./../../firmware/GD32VF103_standard_peripheral/Source/gd32vf103_fwdgt.c ****     \param[in]  none
  46:./../../firmware/GD32VF103_standard_peripheral/Source/gd32vf103_fwdgt.c ****     \param[out] none
  47:./../../firmware/GD32VF103_standard_peripheral/Source/gd32vf103_fwdgt.c ****     \retval     none
  48:./../../firmware/GD32VF103_standard_peripheral/Source/gd32vf103_fwdgt.c **** */
  49:./../../firmware/GD32VF103_standard_peripheral/Source/gd32vf103_fwdgt.c **** void fwdgt_write_enable(void)
  50:./../../firmware/GD32VF103_standard_peripheral/Source/gd32vf103_fwdgt.c **** {
  16              		.loc 1 50 1
  17              		.cfi_startproc
  51:./../../firmware/GD32VF103_standard_peripheral/Source/gd32vf103_fwdgt.c ****     FWDGT_CTL = FWDGT_WRITEACCESS_ENABLE;
  18              		.loc 1 51 5
  19              		.loc 1 51 15 is_stmt 0
  20 0000 9567     		li	a5,20480
  21 0002 37370040 		li	a4,1073754112
  22 0006 93875755 		addi	a5,a5,1365
  23 000a 1CC3     		sw	a5,0(a4)
  52:./../../firmware/GD32VF103_standard_peripheral/Source/gd32vf103_fwdgt.c **** }
  24              		.loc 1 52 1
  25 000c 8280     		ret
  26              		.cfi_endproc
  27              	.LFE2:
  29              		.section	.text.fwdgt_write_disable,"ax",@progbits
  30              		.align	1
  31              		.globl	fwdgt_write_disable
  33              	fwdgt_write_disable:
  34              	.LFB3:
  53:./../../firmware/GD32VF103_standard_peripheral/Source/gd32vf103_fwdgt.c **** 
  54:./../../firmware/GD32VF103_standard_peripheral/Source/gd32vf103_fwdgt.c **** /*!
  55:./../../firmware/GD32VF103_standard_peripheral/Source/gd32vf103_fwdgt.c ****     \brief      disable write access to FWDGT_PSC and FWDGT_RLD
  56:./../../firmware/GD32VF103_standard_peripheral/Source/gd32vf103_fwdgt.c ****     \param[in]  none
  57:./../../firmware/GD32VF103_standard_peripheral/Source/gd32vf103_fwdgt.c ****     \param[out] none
  58:./../../firmware/GD32VF103_standard_peripheral/Source/gd32vf103_fwdgt.c ****     \retval     none
  59:./../../firmware/GD32VF103_standard_peripheral/Source/gd32vf103_fwdgt.c **** */
  60:./../../firmware/GD32VF103_standard_peripheral/Source/gd32vf103_fwdgt.c **** void fwdgt_write_disable(void)
  61:./../../firmware/GD32VF103_standard_peripheral/Source/gd32vf103_fwdgt.c **** {
  35              		.loc 1 61 1 is_stmt 1
  36              		.cfi_startproc
  62:./../../firmware/GD32VF103_standard_peripheral/Source/gd32vf103_fwdgt.c ****     FWDGT_CTL = FWDGT_WRITEACCESS_DISABLE;
  37              		.loc 1 62 5
  38              		.loc 1 62 15 is_stmt 0
  39 0000 B7370040 		li	a5,1073754112
  40 0004 23A00700 		sw	zero,0(a5)
  63:./../../firmware/GD32VF103_standard_peripheral/Source/gd32vf103_fwdgt.c **** }
  41              		.loc 1 63 1
  42 0008 8280     		ret
  43              		.cfi_endproc
  44              	.LFE3:
  46              		.section	.text.fwdgt_enable,"ax",@progbits
  47              		.align	1
  48              		.globl	fwdgt_enable
  50              	fwdgt_enable:
  51              	.LFB4:
  64:./../../firmware/GD32VF103_standard_peripheral/Source/gd32vf103_fwdgt.c **** 
  65:./../../firmware/GD32VF103_standard_peripheral/Source/gd32vf103_fwdgt.c **** /*!
  66:./../../firmware/GD32VF103_standard_peripheral/Source/gd32vf103_fwdgt.c ****     \brief      start the free watchdog timer counter
  67:./../../firmware/GD32VF103_standard_peripheral/Source/gd32vf103_fwdgt.c ****     \param[in]  none
  68:./../../firmware/GD32VF103_standard_peripheral/Source/gd32vf103_fwdgt.c ****     \param[out] none
GAS LISTING C:\Users\Karzan\AppData\Local\Temp\ccI1LKW9.s 			page 3


  69:./../../firmware/GD32VF103_standard_peripheral/Source/gd32vf103_fwdgt.c ****     \retval     none
  70:./../../firmware/GD32VF103_standard_peripheral/Source/gd32vf103_fwdgt.c **** */
  71:./../../firmware/GD32VF103_standard_peripheral/Source/gd32vf103_fwdgt.c **** void fwdgt_enable(void)
  72:./../../firmware/GD32VF103_standard_peripheral/Source/gd32vf103_fwdgt.c **** {
  52              		.loc 1 72 1 is_stmt 1
  53              		.cfi_startproc
  73:./../../firmware/GD32VF103_standard_peripheral/Source/gd32vf103_fwdgt.c ****     FWDGT_CTL = FWDGT_KEY_ENABLE;
  54              		.loc 1 73 5
  55              		.loc 1 73 15 is_stmt 0
  56 0000 B567     		li	a5,53248
  57 0002 37370040 		li	a4,1073754112
  58 0006 9387C7CC 		addi	a5,a5,-820
  59 000a 1CC3     		sw	a5,0(a4)
  74:./../../firmware/GD32VF103_standard_peripheral/Source/gd32vf103_fwdgt.c **** }
  60              		.loc 1 74 1
  61 000c 8280     		ret
  62              		.cfi_endproc
  63              	.LFE4:
  65              		.section	.text.fwdgt_counter_reload,"ax",@progbits
  66              		.align	1
  67              		.globl	fwdgt_counter_reload
  69              	fwdgt_counter_reload:
  70              	.LFB5:
  75:./../../firmware/GD32VF103_standard_peripheral/Source/gd32vf103_fwdgt.c **** 
  76:./../../firmware/GD32VF103_standard_peripheral/Source/gd32vf103_fwdgt.c **** /*!
  77:./../../firmware/GD32VF103_standard_peripheral/Source/gd32vf103_fwdgt.c ****     \brief      reload the counter of FWDGT
  78:./../../firmware/GD32VF103_standard_peripheral/Source/gd32vf103_fwdgt.c ****     \param[in]  none
  79:./../../firmware/GD32VF103_standard_peripheral/Source/gd32vf103_fwdgt.c ****     \param[out] none
  80:./../../firmware/GD32VF103_standard_peripheral/Source/gd32vf103_fwdgt.c ****     \retval     none
  81:./../../firmware/GD32VF103_standard_peripheral/Source/gd32vf103_fwdgt.c **** */
  82:./../../firmware/GD32VF103_standard_peripheral/Source/gd32vf103_fwdgt.c **** void fwdgt_counter_reload(void)
  83:./../../firmware/GD32VF103_standard_peripheral/Source/gd32vf103_fwdgt.c **** {
  71              		.loc 1 83 1 is_stmt 1
  72              		.cfi_startproc
  84:./../../firmware/GD32VF103_standard_peripheral/Source/gd32vf103_fwdgt.c ****     FWDGT_CTL = FWDGT_KEY_RELOAD;
  73              		.loc 1 84 5
  74              		.loc 1 84 15 is_stmt 0
  75 0000 AD67     		li	a5,45056
  76 0002 37370040 		li	a4,1073754112
  77 0006 9387A7AA 		addi	a5,a5,-1366
  78 000a 1CC3     		sw	a5,0(a4)
  85:./../../firmware/GD32VF103_standard_peripheral/Source/gd32vf103_fwdgt.c **** }
  79              		.loc 1 85 1
  80 000c 8280     		ret
  81              		.cfi_endproc
  82              	.LFE5:
  84              		.section	.text.fwdgt_config,"ax",@progbits
  85              		.align	1
  86              		.globl	fwdgt_config
  88              	fwdgt_config:
  89              	.LFB6:
  86:./../../firmware/GD32VF103_standard_peripheral/Source/gd32vf103_fwdgt.c **** 
  87:./../../firmware/GD32VF103_standard_peripheral/Source/gd32vf103_fwdgt.c **** /*!
  88:./../../firmware/GD32VF103_standard_peripheral/Source/gd32vf103_fwdgt.c ****     \brief      configure counter reload value, and prescaler divider value
  89:./../../firmware/GD32VF103_standard_peripheral/Source/gd32vf103_fwdgt.c ****     \param[in]  reload_value: specify reload value(0x0000 - 0x0FFF)
  90:./../../firmware/GD32VF103_standard_peripheral/Source/gd32vf103_fwdgt.c ****     \param[in]  prescaler_div: FWDGT prescaler value
  91:./../../firmware/GD32VF103_standard_peripheral/Source/gd32vf103_fwdgt.c ****                 only one parameter can be selected which is shown as below:
GAS LISTING C:\Users\Karzan\AppData\Local\Temp\ccI1LKW9.s 			page 4


  92:./../../firmware/GD32VF103_standard_peripheral/Source/gd32vf103_fwdgt.c ****       \arg        FWDGT_PSC_DIV4: FWDGT prescaler set to 4
  93:./../../firmware/GD32VF103_standard_peripheral/Source/gd32vf103_fwdgt.c ****       \arg        FWDGT_PSC_DIV8: FWDGT prescaler set to 8
  94:./../../firmware/GD32VF103_standard_peripheral/Source/gd32vf103_fwdgt.c ****       \arg        FWDGT_PSC_DIV16: FWDGT prescaler set to 16
  95:./../../firmware/GD32VF103_standard_peripheral/Source/gd32vf103_fwdgt.c ****       \arg        FWDGT_PSC_DIV32: FWDGT prescaler set to 32
  96:./../../firmware/GD32VF103_standard_peripheral/Source/gd32vf103_fwdgt.c ****       \arg        FWDGT_PSC_DIV64: FWDGT prescaler set to 64
  97:./../../firmware/GD32VF103_standard_peripheral/Source/gd32vf103_fwdgt.c ****       \arg        FWDGT_PSC_DIV128: FWDGT prescaler set to 128
  98:./../../firmware/GD32VF103_standard_peripheral/Source/gd32vf103_fwdgt.c ****       \arg        FWDGT_PSC_DIV256: FWDGT prescaler set to 256
  99:./../../firmware/GD32VF103_standard_peripheral/Source/gd32vf103_fwdgt.c ****     \param[out] none
 100:./../../firmware/GD32VF103_standard_peripheral/Source/gd32vf103_fwdgt.c ****     \retval     ErrStatus: ERROR or SUCCESS
 101:./../../firmware/GD32VF103_standard_peripheral/Source/gd32vf103_fwdgt.c **** */
 102:./../../firmware/GD32VF103_standard_peripheral/Source/gd32vf103_fwdgt.c **** ErrStatus fwdgt_config(uint16_t reload_value, uint8_t prescaler_div)
 103:./../../firmware/GD32VF103_standard_peripheral/Source/gd32vf103_fwdgt.c **** {
  90              		.loc 1 103 1 is_stmt 1
  91              		.cfi_startproc
  92              	.LVL0:
 104:./../../firmware/GD32VF103_standard_peripheral/Source/gd32vf103_fwdgt.c ****     uint32_t timeout = FWDGT_PSC_TIMEOUT;
  93              		.loc 1 104 5
 105:./../../firmware/GD32VF103_standard_peripheral/Source/gd32vf103_fwdgt.c ****     uint32_t flag_status = RESET;
  94              		.loc 1 105 5
 106:./../../firmware/GD32VF103_standard_peripheral/Source/gd32vf103_fwdgt.c ****   
 107:./../../firmware/GD32VF103_standard_peripheral/Source/gd32vf103_fwdgt.c ****     /* enable write access to FWDGT_PSC,and FWDGT_RLD */
 108:./../../firmware/GD32VF103_standard_peripheral/Source/gd32vf103_fwdgt.c ****     FWDGT_CTL = FWDGT_WRITEACCESS_ENABLE;
  95              		.loc 1 108 5
  96              		.loc 1 108 15 is_stmt 0
  97 0000 9567     		li	a5,20480
  98 0002 93875755 		addi	a5,a5,1365
  99 0006 37370040 		li	a4,1073754112
 100 000a 1CC3     		sw	a5,0(a4)
 101 000c B7071000 		li	a5,1048576
 102 0010 FD17     		addi	a5,a5,-1
 109:./../../firmware/GD32VF103_standard_peripheral/Source/gd32vf103_fwdgt.c ****     /* wait until the PUD flag to be reset */
 110:./../../firmware/GD32VF103_standard_peripheral/Source/gd32vf103_fwdgt.c ****     do{
 111:./../../firmware/GD32VF103_standard_peripheral/Source/gd32vf103_fwdgt.c ****        flag_status = FWDGT_STAT & FWDGT_STAT_PUD;
 103              		.loc 1 111 22
 104 0012 B7360040 		li	a3,1073754112
 105              	.LVL1:
 106              	.L7:
 110:./../../firmware/GD32VF103_standard_peripheral/Source/gd32vf103_fwdgt.c ****        flag_status = FWDGT_STAT & FWDGT_STAT_PUD;
 107              		.loc 1 110 5 is_stmt 1 discriminator 2
 108              		.loc 1 111 8 discriminator 2
 109              		.loc 1 111 22 is_stmt 0 discriminator 2
 110 0016 D846     		lw	a4,12(a3)
 111 0018 FD17     		addi	a5,a5,-1
 112              	.LVL2:
 113              		.loc 1 111 20 discriminator 2
 114 001a 058B     		andi	a4,a4,1
 115              	.LVL3:
 112:./../../firmware/GD32VF103_standard_peripheral/Source/gd32vf103_fwdgt.c ****     }while((--timeout > 0U) && ((uint32_t)RESET != flag_status));
 116              		.loc 1 112 5 discriminator 2
 117 001c 95CB     		beq	a5,zero,.L6
 118              	.LVL4:
 119              		.loc 1 112 29 discriminator 1
 120 001e 65FF     		bne	a4,zero,.L7
 121              	.LVL5:
 122              	.L8:
 113:./../../firmware/GD32VF103_standard_peripheral/Source/gd32vf103_fwdgt.c ****     
 114:./../../firmware/GD32VF103_standard_peripheral/Source/gd32vf103_fwdgt.c ****     if((uint32_t)RESET != flag_status){
GAS LISTING C:\Users\Karzan\AppData\Local\Temp\ccI1LKW9.s 			page 5


 115:./../../firmware/GD32VF103_standard_peripheral/Source/gd32vf103_fwdgt.c ****         return ERROR;
 116:./../../firmware/GD32VF103_standard_peripheral/Source/gd32vf103_fwdgt.c ****     }
 117:./../../firmware/GD32VF103_standard_peripheral/Source/gd32vf103_fwdgt.c ****     /* configure FWDGT */
 118:./../../firmware/GD32VF103_standard_peripheral/Source/gd32vf103_fwdgt.c ****     FWDGT_PSC = (uint32_t)prescaler_div;
 123              		.loc 1 118 5 is_stmt 1
 124              		.loc 1 118 15 is_stmt 0
 125 0020 B7370040 		li	a5,1073754112
 126 0024 CCC3     		sw	a1,4(a5)
 119:./../../firmware/GD32VF103_standard_peripheral/Source/gd32vf103_fwdgt.c **** 
 120:./../../firmware/GD32VF103_standard_peripheral/Source/gd32vf103_fwdgt.c ****     timeout = FWDGT_RLD_TIMEOUT;
 127              		.loc 1 120 5 is_stmt 1
 128              	.LVL6:
 118:./../../firmware/GD32VF103_standard_peripheral/Source/gd32vf103_fwdgt.c **** 
 129              		.loc 1 118 15 is_stmt 0
 130 0026 B7071000 		li	a5,1048576
 131 002a FD17     		addi	a5,a5,-1
 121:./../../firmware/GD32VF103_standard_peripheral/Source/gd32vf103_fwdgt.c ****     /* wait until the RUD flag to be reset */
 122:./../../firmware/GD32VF103_standard_peripheral/Source/gd32vf103_fwdgt.c ****     do{
 123:./../../firmware/GD32VF103_standard_peripheral/Source/gd32vf103_fwdgt.c ****        flag_status = FWDGT_STAT & FWDGT_STAT_RUD;
 132              		.loc 1 123 22
 133 002c B7360040 		li	a3,1073754112
 134              	.LVL7:
 135              	.L11:
 122:./../../firmware/GD32VF103_standard_peripheral/Source/gd32vf103_fwdgt.c ****        flag_status = FWDGT_STAT & FWDGT_STAT_RUD;
 136              		.loc 1 122 5 is_stmt 1 discriminator 2
 137              		.loc 1 123 8 discriminator 2
 138              		.loc 1 123 22 is_stmt 0 discriminator 2
 139 0030 D846     		lw	a4,12(a3)
 140              	.LVL8:
 141 0032 FD17     		addi	a5,a5,-1
 142              	.LVL9:
 143              		.loc 1 123 20 discriminator 2
 144 0034 098B     		andi	a4,a4,2
 145              	.LVL10:
 124:./../../firmware/GD32VF103_standard_peripheral/Source/gd32vf103_fwdgt.c ****     }while((--timeout > 0U) && ((uint32_t)RESET != flag_status));
 146              		.loc 1 124 5 discriminator 2
 147 0036 85C3     		beq	a5,zero,.L10
 148              	.LVL11:
 149              		.loc 1 124 29 discriminator 1
 150 0038 65FF     		bne	a4,zero,.L11
 151              	.LVL12:
 152              	.L12:
 125:./../../firmware/GD32VF103_standard_peripheral/Source/gd32vf103_fwdgt.c ****    
 126:./../../firmware/GD32VF103_standard_peripheral/Source/gd32vf103_fwdgt.c ****     if((uint32_t)RESET != flag_status){
 127:./../../firmware/GD32VF103_standard_peripheral/Source/gd32vf103_fwdgt.c ****         return ERROR;
 128:./../../firmware/GD32VF103_standard_peripheral/Source/gd32vf103_fwdgt.c ****     }
 129:./../../firmware/GD32VF103_standard_peripheral/Source/gd32vf103_fwdgt.c ****     FWDGT_RLD = RLD_RLD(reload_value);
 153              		.loc 1 129 5 is_stmt 1
 154              		.loc 1 129 17 is_stmt 0
 155 003a 5205     		slli	a0,a0,20
 156              	.LVL13:
 157              		.loc 1 129 15
 158 003c 37370040 		li	a4,1073754112
 159              	.LVL14:
 160              		.loc 1 129 17
 161 0040 5181     		srli	a0,a0,20
 130:./../../firmware/GD32VF103_standard_peripheral/Source/gd32vf103_fwdgt.c ****     /* reload the counter */
GAS LISTING C:\Users\Karzan\AppData\Local\Temp\ccI1LKW9.s 			page 6


 131:./../../firmware/GD32VF103_standard_peripheral/Source/gd32vf103_fwdgt.c ****     FWDGT_CTL = FWDGT_KEY_RELOAD;
 162              		.loc 1 131 15
 163 0042 AD67     		li	a5,45056
 129:./../../firmware/GD32VF103_standard_peripheral/Source/gd32vf103_fwdgt.c ****     /* reload the counter */
 164              		.loc 1 129 15
 165 0044 08C7     		sw	a0,8(a4)
 166              		.loc 1 131 5 is_stmt 1
 167              		.loc 1 131 15 is_stmt 0
 168 0046 9387A7AA 		addi	a5,a5,-1366
 169 004a 1CC3     		sw	a5,0(a4)
 132:./../../firmware/GD32VF103_standard_peripheral/Source/gd32vf103_fwdgt.c **** 
 133:./../../firmware/GD32VF103_standard_peripheral/Source/gd32vf103_fwdgt.c ****     return SUCCESS;
 170              		.loc 1 133 5 is_stmt 1
 171              		.loc 1 133 12 is_stmt 0
 172 004c 0545     		li	a0,1
 134:./../../firmware/GD32VF103_standard_peripheral/Source/gd32vf103_fwdgt.c **** }
 173              		.loc 1 134 1
 174 004e 8280     		ret
 175              	.LVL15:
 176              	.L6:
 114:./../../firmware/GD32VF103_standard_peripheral/Source/gd32vf103_fwdgt.c ****         return ERROR;
 177              		.loc 1 114 5 is_stmt 1
 114:./../../firmware/GD32VF103_standard_peripheral/Source/gd32vf103_fwdgt.c ****         return ERROR;
 178              		.loc 1 114 7 is_stmt 0
 179 0050 61DB     		beq	a4,zero,.L8
 180              	.L13:
 115:./../../firmware/GD32VF103_standard_peripheral/Source/gd32vf103_fwdgt.c ****     }
 181              		.loc 1 115 16
 182 0052 0145     		li	a0,0
 183              	.LVL16:
 184 0054 8280     		ret
 185              	.LVL17:
 186              	.L10:
 126:./../../firmware/GD32VF103_standard_peripheral/Source/gd32vf103_fwdgt.c ****         return ERROR;
 187              		.loc 1 126 5 is_stmt 1
 126:./../../firmware/GD32VF103_standard_peripheral/Source/gd32vf103_fwdgt.c ****         return ERROR;
 188              		.loc 1 126 7 is_stmt 0
 189 0056 75FF     		bne	a4,zero,.L13
 190 0058 CDB7     		j	.L12
 191              		.cfi_endproc
 192              	.LFE6:
 194              		.section	.text.fwdgt_flag_get,"ax",@progbits
 195              		.align	1
 196              		.globl	fwdgt_flag_get
 198              	fwdgt_flag_get:
 199              	.LFB7:
 135:./../../firmware/GD32VF103_standard_peripheral/Source/gd32vf103_fwdgt.c **** 
 136:./../../firmware/GD32VF103_standard_peripheral/Source/gd32vf103_fwdgt.c **** /*!
 137:./../../firmware/GD32VF103_standard_peripheral/Source/gd32vf103_fwdgt.c ****     \brief      get flag state of FWDGT
 138:./../../firmware/GD32VF103_standard_peripheral/Source/gd32vf103_fwdgt.c ****     \param[in]  flag: flag to get 
 139:./../../firmware/GD32VF103_standard_peripheral/Source/gd32vf103_fwdgt.c ****                 only one parameter can be selected which is shown as below:
 140:./../../firmware/GD32VF103_standard_peripheral/Source/gd32vf103_fwdgt.c ****       \arg        FWDGT_FLAG_PUD: a write operation to FWDGT_PSC register is on going
 141:./../../firmware/GD32VF103_standard_peripheral/Source/gd32vf103_fwdgt.c ****       \arg        FWDGT_FLAG_RUD: a write operation to FWDGT_RLD register is on going
 142:./../../firmware/GD32VF103_standard_peripheral/Source/gd32vf103_fwdgt.c ****     \param[out] none
 143:./../../firmware/GD32VF103_standard_peripheral/Source/gd32vf103_fwdgt.c ****     \retval     FlagStatus: SET or RESET
 144:./../../firmware/GD32VF103_standard_peripheral/Source/gd32vf103_fwdgt.c **** */
 145:./../../firmware/GD32VF103_standard_peripheral/Source/gd32vf103_fwdgt.c **** FlagStatus fwdgt_flag_get(uint16_t flag)
GAS LISTING C:\Users\Karzan\AppData\Local\Temp\ccI1LKW9.s 			page 7


 146:./../../firmware/GD32VF103_standard_peripheral/Source/gd32vf103_fwdgt.c **** {
 200              		.loc 1 146 1 is_stmt 1
 201              		.cfi_startproc
 202              	.LVL18:
 147:./../../firmware/GD32VF103_standard_peripheral/Source/gd32vf103_fwdgt.c ****     if(FWDGT_STAT & flag){
 203              		.loc 1 147 5
 204              		.loc 1 147 8 is_stmt 0
 205 0000 B7370040 		li	a5,1073754112
 206 0004 DC47     		lw	a5,12(a5)
 207              		.loc 1 147 19
 208 0006 7D8D     		and	a0,a0,a5
 209              	.LVL19:
 148:./../../firmware/GD32VF103_standard_peripheral/Source/gd32vf103_fwdgt.c ****         return SET;
 149:./../../firmware/GD32VF103_standard_peripheral/Source/gd32vf103_fwdgt.c ****     }
 150:./../../firmware/GD32VF103_standard_peripheral/Source/gd32vf103_fwdgt.c ****     
 151:./../../firmware/GD32VF103_standard_peripheral/Source/gd32vf103_fwdgt.c ****     return RESET;
 152:./../../firmware/GD32VF103_standard_peripheral/Source/gd32vf103_fwdgt.c **** }
 210              		.loc 1 152 1
 211 0008 3335A000 		snez	a0,a0
 212 000c 8280     		ret
 213              		.cfi_endproc
 214              	.LFE7:
 216              		.text
 217              	.Letext0:
 218              		.file 2 "c:\\users\\karzan\\downloads\\toolchain-gd32v-v202-win\\toolchain-gd32v-v202-win\\compile
 219              		.file 3 "c:\\users\\karzan\\downloads\\toolchain-gd32v-v202-win\\toolchain-gd32v-v202-win\\compile
 220              		.file 4 "./../../firmware/GD32VF103_standard_peripheral/gd32vf103.h"
 221              		.file 5 "./../../firmware/GD32VF103_standard_peripheral/system_gd32vf103.h"
GAS LISTING C:\Users\Karzan\AppData\Local\Temp\ccI1LKW9.s 			page 8


DEFINED SYMBOLS
                            *ABS*:0000000000000000 gd32vf103_fwdgt.c
C:\Users\Karzan\AppData\Local\Temp\ccI1LKW9.s:13     .text.fwdgt_write_enable:0000000000000000 fwdgt_write_enable
C:\Users\Karzan\AppData\Local\Temp\ccI1LKW9.s:17     .text.fwdgt_write_enable:0000000000000000 .L0 
C:\Users\Karzan\AppData\Local\Temp\ccI1LKW9.s:18     .text.fwdgt_write_enable:0000000000000000 .L0 
C:\Users\Karzan\AppData\Local\Temp\ccI1LKW9.s:19     .text.fwdgt_write_enable:0000000000000000 .L0 
C:\Users\Karzan\AppData\Local\Temp\ccI1LKW9.s:20     .text.fwdgt_write_enable:0000000000000000 .L0 
C:\Users\Karzan\AppData\Local\Temp\ccI1LKW9.s:25     .text.fwdgt_write_enable:000000000000000c .L0 
C:\Users\Karzan\AppData\Local\Temp\ccI1LKW9.s:26     .text.fwdgt_write_enable:000000000000000e .L0 
C:\Users\Karzan\AppData\Local\Temp\ccI1LKW9.s:33     .text.fwdgt_write_disable:0000000000000000 fwdgt_write_disable
C:\Users\Karzan\AppData\Local\Temp\ccI1LKW9.s:36     .text.fwdgt_write_disable:0000000000000000 .L0 
C:\Users\Karzan\AppData\Local\Temp\ccI1LKW9.s:37     .text.fwdgt_write_disable:0000000000000000 .L0 
C:\Users\Karzan\AppData\Local\Temp\ccI1LKW9.s:38     .text.fwdgt_write_disable:0000000000000000 .L0 
C:\Users\Karzan\AppData\Local\Temp\ccI1LKW9.s:39     .text.fwdgt_write_disable:0000000000000000 .L0 
C:\Users\Karzan\AppData\Local\Temp\ccI1LKW9.s:42     .text.fwdgt_write_disable:0000000000000008 .L0 
C:\Users\Karzan\AppData\Local\Temp\ccI1LKW9.s:43     .text.fwdgt_write_disable:000000000000000a .L0 
C:\Users\Karzan\AppData\Local\Temp\ccI1LKW9.s:50     .text.fwdgt_enable:0000000000000000 fwdgt_enable
C:\Users\Karzan\AppData\Local\Temp\ccI1LKW9.s:53     .text.fwdgt_enable:0000000000000000 .L0 
C:\Users\Karzan\AppData\Local\Temp\ccI1LKW9.s:54     .text.fwdgt_enable:0000000000000000 .L0 
C:\Users\Karzan\AppData\Local\Temp\ccI1LKW9.s:55     .text.fwdgt_enable:0000000000000000 .L0 
C:\Users\Karzan\AppData\Local\Temp\ccI1LKW9.s:56     .text.fwdgt_enable:0000000000000000 .L0 
C:\Users\Karzan\AppData\Local\Temp\ccI1LKW9.s:61     .text.fwdgt_enable:000000000000000c .L0 
C:\Users\Karzan\AppData\Local\Temp\ccI1LKW9.s:62     .text.fwdgt_enable:000000000000000e .L0 
C:\Users\Karzan\AppData\Local\Temp\ccI1LKW9.s:69     .text.fwdgt_counter_reload:0000000000000000 fwdgt_counter_reload
C:\Users\Karzan\AppData\Local\Temp\ccI1LKW9.s:72     .text.fwdgt_counter_reload:0000000000000000 .L0 
C:\Users\Karzan\AppData\Local\Temp\ccI1LKW9.s:73     .text.fwdgt_counter_reload:0000000000000000 .L0 
C:\Users\Karzan\AppData\Local\Temp\ccI1LKW9.s:74     .text.fwdgt_counter_reload:0000000000000000 .L0 
C:\Users\Karzan\AppData\Local\Temp\ccI1LKW9.s:75     .text.fwdgt_counter_reload:0000000000000000 .L0 
C:\Users\Karzan\AppData\Local\Temp\ccI1LKW9.s:80     .text.fwdgt_counter_reload:000000000000000c .L0 
C:\Users\Karzan\AppData\Local\Temp\ccI1LKW9.s:81     .text.fwdgt_counter_reload:000000000000000e .L0 
C:\Users\Karzan\AppData\Local\Temp\ccI1LKW9.s:88     .text.fwdgt_config:0000000000000000 fwdgt_config
C:\Users\Karzan\AppData\Local\Temp\ccI1LKW9.s:91     .text.fwdgt_config:0000000000000000 .L0 
C:\Users\Karzan\AppData\Local\Temp\ccI1LKW9.s:93     .text.fwdgt_config:0000000000000000 .L0 
C:\Users\Karzan\AppData\Local\Temp\ccI1LKW9.s:94     .text.fwdgt_config:0000000000000000 .L0 
C:\Users\Karzan\AppData\Local\Temp\ccI1LKW9.s:95     .text.fwdgt_config:0000000000000000 .L0 
C:\Users\Karzan\AppData\Local\Temp\ccI1LKW9.s:96     .text.fwdgt_config:0000000000000000 .L0 
C:\Users\Karzan\AppData\Local\Temp\ccI1LKW9.s:97     .text.fwdgt_config:0000000000000000 .L0 
C:\Users\Karzan\AppData\Local\Temp\ccI1LKW9.s:104    .text.fwdgt_config:0000000000000012 .L0 
C:\Users\Karzan\AppData\Local\Temp\ccI1LKW9.s:108    .text.fwdgt_config:0000000000000016 .L0 
C:\Users\Karzan\AppData\Local\Temp\ccI1LKW9.s:109    .text.fwdgt_config:0000000000000016 .L0 
C:\Users\Karzan\AppData\Local\Temp\ccI1LKW9.s:110    .text.fwdgt_config:0000000000000016 .L0 
C:\Users\Karzan\AppData\Local\Temp\ccI1LKW9.s:114    .text.fwdgt_config:000000000000001a .L0 
C:\Users\Karzan\AppData\Local\Temp\ccI1LKW9.s:117    .text.fwdgt_config:000000000000001c .L0 
C:\Users\Karzan\AppData\Local\Temp\ccI1LKW9.s:120    .text.fwdgt_config:000000000000001e .L0 
C:\Users\Karzan\AppData\Local\Temp\ccI1LKW9.s:124    .text.fwdgt_config:0000000000000020 .L0 
C:\Users\Karzan\AppData\Local\Temp\ccI1LKW9.s:125    .text.fwdgt_config:0000000000000020 .L0 
C:\Users\Karzan\AppData\Local\Temp\ccI1LKW9.s:129    .text.fwdgt_config:0000000000000026 .L0 
C:\Users\Karzan\AppData\Local\Temp\ccI1LKW9.s:130    .text.fwdgt_config:0000000000000026 .L0 
C:\Users\Karzan\AppData\Local\Temp\ccI1LKW9.s:133    .text.fwdgt_config:000000000000002c .L0 
C:\Users\Karzan\AppData\Local\Temp\ccI1LKW9.s:137    .text.fwdgt_config:0000000000000030 .L0 
C:\Users\Karzan\AppData\Local\Temp\ccI1LKW9.s:138    .text.fwdgt_config:0000000000000030 .L0 
C:\Users\Karzan\AppData\Local\Temp\ccI1LKW9.s:139    .text.fwdgt_config:0000000000000030 .L0 
C:\Users\Karzan\AppData\Local\Temp\ccI1LKW9.s:144    .text.fwdgt_config:0000000000000034 .L0 
C:\Users\Karzan\AppData\Local\Temp\ccI1LKW9.s:147    .text.fwdgt_config:0000000000000036 .L0 
C:\Users\Karzan\AppData\Local\Temp\ccI1LKW9.s:150    .text.fwdgt_config:0000000000000038 .L0 
C:\Users\Karzan\AppData\Local\Temp\ccI1LKW9.s:154    .text.fwdgt_config:000000000000003a .L0 
C:\Users\Karzan\AppData\Local\Temp\ccI1LKW9.s:155    .text.fwdgt_config:000000000000003a .L0 
GAS LISTING C:\Users\Karzan\AppData\Local\Temp\ccI1LKW9.s 			page 9


C:\Users\Karzan\AppData\Local\Temp\ccI1LKW9.s:158    .text.fwdgt_config:000000000000003c .L0 
C:\Users\Karzan\AppData\Local\Temp\ccI1LKW9.s:161    .text.fwdgt_config:0000000000000040 .L0 
C:\Users\Karzan\AppData\Local\Temp\ccI1LKW9.s:163    .text.fwdgt_config:0000000000000042 .L0 
C:\Users\Karzan\AppData\Local\Temp\ccI1LKW9.s:165    .text.fwdgt_config:0000000000000044 .L0 
C:\Users\Karzan\AppData\Local\Temp\ccI1LKW9.s:167    .text.fwdgt_config:0000000000000046 .L0 
C:\Users\Karzan\AppData\Local\Temp\ccI1LKW9.s:168    .text.fwdgt_config:0000000000000046 .L0 
C:\Users\Karzan\AppData\Local\Temp\ccI1LKW9.s:171    .text.fwdgt_config:000000000000004c .L0 
C:\Users\Karzan\AppData\Local\Temp\ccI1LKW9.s:172    .text.fwdgt_config:000000000000004c .L0 
C:\Users\Karzan\AppData\Local\Temp\ccI1LKW9.s:174    .text.fwdgt_config:000000000000004e .L0 
C:\Users\Karzan\AppData\Local\Temp\ccI1LKW9.s:178    .text.fwdgt_config:0000000000000050 .L0 
C:\Users\Karzan\AppData\Local\Temp\ccI1LKW9.s:179    .text.fwdgt_config:0000000000000050 .L0 
C:\Users\Karzan\AppData\Local\Temp\ccI1LKW9.s:182    .text.fwdgt_config:0000000000000052 .L0 
C:\Users\Karzan\AppData\Local\Temp\ccI1LKW9.s:188    .text.fwdgt_config:0000000000000056 .L0 
C:\Users\Karzan\AppData\Local\Temp\ccI1LKW9.s:189    .text.fwdgt_config:0000000000000056 .L0 
C:\Users\Karzan\AppData\Local\Temp\ccI1LKW9.s:191    .text.fwdgt_config:000000000000005a .L0 
C:\Users\Karzan\AppData\Local\Temp\ccI1LKW9.s:198    .text.fwdgt_flag_get:0000000000000000 fwdgt_flag_get
C:\Users\Karzan\AppData\Local\Temp\ccI1LKW9.s:201    .text.fwdgt_flag_get:0000000000000000 .L0 
C:\Users\Karzan\AppData\Local\Temp\ccI1LKW9.s:203    .text.fwdgt_flag_get:0000000000000000 .L0 
C:\Users\Karzan\AppData\Local\Temp\ccI1LKW9.s:204    .text.fwdgt_flag_get:0000000000000000 .L0 
C:\Users\Karzan\AppData\Local\Temp\ccI1LKW9.s:205    .text.fwdgt_flag_get:0000000000000000 .L0 
C:\Users\Karzan\AppData\Local\Temp\ccI1LKW9.s:208    .text.fwdgt_flag_get:0000000000000006 .L0 
C:\Users\Karzan\AppData\Local\Temp\ccI1LKW9.s:211    .text.fwdgt_flag_get:0000000000000008 .L0 
C:\Users\Karzan\AppData\Local\Temp\ccI1LKW9.s:213    .text.fwdgt_flag_get:000000000000000e .L0 
C:\Users\Karzan\AppData\Local\Temp\ccI1LKW9.s:29     .text.fwdgt_write_enable:000000000000000e .L0 
C:\Users\Karzan\AppData\Local\Temp\ccI1LKW9.s:46     .text.fwdgt_write_disable:000000000000000a .L0 
C:\Users\Karzan\AppData\Local\Temp\ccI1LKW9.s:65     .text.fwdgt_enable:000000000000000e .L0 
C:\Users\Karzan\AppData\Local\Temp\ccI1LKW9.s:84     .text.fwdgt_counter_reload:000000000000000e .L0 
C:\Users\Karzan\AppData\Local\Temp\ccI1LKW9.s:194    .text.fwdgt_config:000000000000005a .L0 
C:\Users\Karzan\AppData\Local\Temp\ccI1LKW9.s:216    .text.fwdgt_flag_get:000000000000000e .L0 
                     .debug_frame:0000000000000000 .L0 
C:\Users\Karzan\AppData\Local\Temp\ccI1LKW9.s:176    .text.fwdgt_config:0000000000000050 .L6
C:\Users\Karzan\AppData\Local\Temp\ccI1LKW9.s:106    .text.fwdgt_config:0000000000000016 .L7
C:\Users\Karzan\AppData\Local\Temp\ccI1LKW9.s:186    .text.fwdgt_config:0000000000000056 .L10
C:\Users\Karzan\AppData\Local\Temp\ccI1LKW9.s:135    .text.fwdgt_config:0000000000000030 .L11
C:\Users\Karzan\AppData\Local\Temp\ccI1LKW9.s:122    .text.fwdgt_config:0000000000000020 .L8
C:\Users\Karzan\AppData\Local\Temp\ccI1LKW9.s:180    .text.fwdgt_config:0000000000000052 .L13
C:\Users\Karzan\AppData\Local\Temp\ccI1LKW9.s:152    .text.fwdgt_config:000000000000003a .L12
C:\Users\Karzan\AppData\Local\Temp\ccI1LKW9.s:489    .debug_abbrev:0000000000000000 .Ldebug_abbrev0
C:\Users\Karzan\AppData\Local\Temp\ccI1LKW9.s:921    .debug_str:000000000000020c .LASF32
C:\Users\Karzan\AppData\Local\Temp\ccI1LKW9.s:917    .debug_str:00000000000001bb .LASF33
C:\Users\Karzan\AppData\Local\Temp\ccI1LKW9.s:863    .debug_str:0000000000000000 .LASF34
C:\Users\Karzan\AppData\Local\Temp\ccI1LKW9.s:845    .debug_ranges:0000000000000000 .Ldebug_ranges0
C:\Users\Karzan\AppData\Local\Temp\ccI1LKW9.s:861    .debug_line:0000000000000000 .Ldebug_line0
C:\Users\Karzan\AppData\Local\Temp\ccI1LKW9.s:903    .debug_str:000000000000015f .LASF0
C:\Users\Karzan\AppData\Local\Temp\ccI1LKW9.s:929    .debug_str:00000000000002af .LASF1
C:\Users\Karzan\AppData\Local\Temp\ccI1LKW9.s:865    .debug_str:0000000000000064 .LASF4
C:\Users\Karzan\AppData\Local\Temp\ccI1LKW9.s:875    .debug_str:00000000000000a9 .LASF2
C:\Users\Karzan\AppData\Local\Temp\ccI1LKW9.s:915    .debug_str:00000000000001b1 .LASF3
C:\Users\Karzan\AppData\Local\Temp\ccI1LKW9.s:889    .debug_str:0000000000000105 .LASF5
C:\Users\Karzan\AppData\Local\Temp\ccI1LKW9.s:873    .debug_str:0000000000000096 .LASF6
C:\Users\Karzan\AppData\Local\Temp\ccI1LKW9.s:869    .debug_str:0000000000000078 .LASF7
C:\Users\Karzan\AppData\Local\Temp\ccI1LKW9.s:895    .debug_str:000000000000012f .LASF8
C:\Users\Karzan\AppData\Local\Temp\ccI1LKW9.s:891    .debug_str:0000000000000110 .LASF9
C:\Users\Karzan\AppData\Local\Temp\ccI1LKW9.s:909    .debug_str:000000000000018b .LASF10
C:\Users\Karzan\AppData\Local\Temp\ccI1LKW9.s:905    .debug_str:000000000000016c .LASF11
C:\Users\Karzan\AppData\Local\Temp\ccI1LKW9.s:907    .debug_str:0000000000000183 .LASF12
C:\Users\Karzan\AppData\Local\Temp\ccI1LKW9.s:919    .debug_str:0000000000000203 .LASF13
GAS LISTING C:\Users\Karzan\AppData\Local\Temp\ccI1LKW9.s 			page 10


C:\Users\Karzan\AppData\Local\Temp\ccI1LKW9.s:923    .debug_str:0000000000000294 .LASF14
C:\Users\Karzan\AppData\Local\Temp\ccI1LKW9.s:913    .debug_str:00000000000001a1 .LASF35
C:\Users\Karzan\AppData\Local\Temp\ccI1LKW9.s:931    .debug_str:00000000000002bb .LASF15
C:\Users\Karzan\AppData\Local\Temp\ccI1LKW9.s:879    .debug_str:00000000000000bf .LASF16
C:\Users\Karzan\AppData\Local\Temp\ccI1LKW9.s:925    .debug_str:000000000000029d .LASF17
C:\Users\Karzan\AppData\Local\Temp\ccI1LKW9.s:877    .debug_str:00000000000000b7 .LASF18
C:\Users\Karzan\AppData\Local\Temp\ccI1LKW9.s:867    .debug_str:000000000000006e .LASF19
C:\Users\Karzan\AppData\Local\Temp\ccI1LKW9.s:927    .debug_str:00000000000002a3 .LASF20
C:\Users\Karzan\AppData\Local\Temp\ccI1LKW9.s:933    .debug_str:00000000000002c1 .LASF21
C:\Users\Karzan\AppData\Local\Temp\ccI1LKW9.s:199    .text.fwdgt_flag_get:0000000000000000 .LFB7
C:\Users\Karzan\AppData\Local\Temp\ccI1LKW9.s:214    .text.fwdgt_flag_get:000000000000000e .LFE7
C:\Users\Karzan\AppData\Local\Temp\ccI1LKW9.s:899    .debug_str:000000000000014e .LASF23
C:\Users\Karzan\AppData\Local\Temp\ccI1LKW9.s:712    .debug_loc:0000000000000000 .LLST3
C:\Users\Karzan\AppData\Local\Temp\ccI1LKW9.s:893    .debug_str:0000000000000122 .LASF22
C:\Users\Karzan\AppData\Local\Temp\ccI1LKW9.s:89     .text.fwdgt_config:0000000000000000 .LFB6
C:\Users\Karzan\AppData\Local\Temp\ccI1LKW9.s:192    .text.fwdgt_config:000000000000005a .LFE6
C:\Users\Karzan\AppData\Local\Temp\ccI1LKW9.s:885    .debug_str:00000000000000e5 .LASF24
C:\Users\Karzan\AppData\Local\Temp\ccI1LKW9.s:726    .debug_loc:0000000000000021 .LLST0
C:\Users\Karzan\AppData\Local\Temp\ccI1LKW9.s:883    .debug_str:00000000000000d7 .LASF25
C:\Users\Karzan\AppData\Local\Temp\ccI1LKW9.s:911    .debug_str:0000000000000199 .LASF26
C:\Users\Karzan\AppData\Local\Temp\ccI1LKW9.s:755    .debug_loc:0000000000000066 .LLST1
C:\Users\Karzan\AppData\Local\Temp\ccI1LKW9.s:901    .debug_str:0000000000000153 .LASF27
C:\Users\Karzan\AppData\Local\Temp\ccI1LKW9.s:802    .debug_loc:00000000000000d8 .LLST2
C:\Users\Karzan\AppData\Local\Temp\ccI1LKW9.s:871    .debug_str:0000000000000081 .LASF28
C:\Users\Karzan\AppData\Local\Temp\ccI1LKW9.s:70     .text.fwdgt_counter_reload:0000000000000000 .LFB5
C:\Users\Karzan\AppData\Local\Temp\ccI1LKW9.s:82     .text.fwdgt_counter_reload:000000000000000e .LFE5
C:\Users\Karzan\AppData\Local\Temp\ccI1LKW9.s:881    .debug_str:00000000000000ca .LASF29
C:\Users\Karzan\AppData\Local\Temp\ccI1LKW9.s:51     .text.fwdgt_enable:0000000000000000 .LFB4
C:\Users\Karzan\AppData\Local\Temp\ccI1LKW9.s:63     .text.fwdgt_enable:000000000000000e .LFE4
C:\Users\Karzan\AppData\Local\Temp\ccI1LKW9.s:897    .debug_str:000000000000013a .LASF30
C:\Users\Karzan\AppData\Local\Temp\ccI1LKW9.s:34     .text.fwdgt_write_disable:0000000000000000 .LFB3
C:\Users\Karzan\AppData\Local\Temp\ccI1LKW9.s:44     .text.fwdgt_write_disable:000000000000000a .LFE3
C:\Users\Karzan\AppData\Local\Temp\ccI1LKW9.s:887    .debug_str:00000000000000f2 .LASF31
C:\Users\Karzan\AppData\Local\Temp\ccI1LKW9.s:14     .text.fwdgt_write_enable:0000000000000000 .LFB2
C:\Users\Karzan\AppData\Local\Temp\ccI1LKW9.s:27     .text.fwdgt_write_enable:000000000000000e .LFE2
C:\Users\Karzan\AppData\Local\Temp\ccI1LKW9.s:202    .text.fwdgt_flag_get:0000000000000000 .LVL18
C:\Users\Karzan\AppData\Local\Temp\ccI1LKW9.s:209    .text.fwdgt_flag_get:0000000000000008 .LVL19
C:\Users\Karzan\AppData\Local\Temp\ccI1LKW9.s:92     .text.fwdgt_config:0000000000000000 .LVL0
C:\Users\Karzan\AppData\Local\Temp\ccI1LKW9.s:156    .text.fwdgt_config:000000000000003c .LVL13
C:\Users\Karzan\AppData\Local\Temp\ccI1LKW9.s:175    .text.fwdgt_config:0000000000000050 .LVL15
C:\Users\Karzan\AppData\Local\Temp\ccI1LKW9.s:183    .text.fwdgt_config:0000000000000054 .LVL16
C:\Users\Karzan\AppData\Local\Temp\ccI1LKW9.s:185    .text.fwdgt_config:0000000000000056 .LVL17
C:\Users\Karzan\AppData\Local\Temp\ccI1LKW9.s:105    .text.fwdgt_config:0000000000000016 .LVL1
C:\Users\Karzan\AppData\Local\Temp\ccI1LKW9.s:112    .text.fwdgt_config:000000000000001a .LVL2
C:\Users\Karzan\AppData\Local\Temp\ccI1LKW9.s:115    .text.fwdgt_config:000000000000001c .LVL3
C:\Users\Karzan\AppData\Local\Temp\ccI1LKW9.s:118    .text.fwdgt_config:000000000000001e .LVL4
C:\Users\Karzan\AppData\Local\Temp\ccI1LKW9.s:121    .text.fwdgt_config:0000000000000020 .LVL5
C:\Users\Karzan\AppData\Local\Temp\ccI1LKW9.s:128    .text.fwdgt_config:0000000000000026 .LVL6
C:\Users\Karzan\AppData\Local\Temp\ccI1LKW9.s:134    .text.fwdgt_config:0000000000000030 .LVL7
C:\Users\Karzan\AppData\Local\Temp\ccI1LKW9.s:142    .text.fwdgt_config:0000000000000034 .LVL9
C:\Users\Karzan\AppData\Local\Temp\ccI1LKW9.s:145    .text.fwdgt_config:0000000000000036 .LVL10
C:\Users\Karzan\AppData\Local\Temp\ccI1LKW9.s:148    .text.fwdgt_config:0000000000000038 .LVL11
C:\Users\Karzan\AppData\Local\Temp\ccI1LKW9.s:151    .text.fwdgt_config:000000000000003a .LVL12
C:\Users\Karzan\AppData\Local\Temp\ccI1LKW9.s:140    .text.fwdgt_config:0000000000000032 .LVL8
C:\Users\Karzan\AppData\Local\Temp\ccI1LKW9.s:159    .text.fwdgt_config:0000000000000040 .LVL14
C:\Users\Karzan\AppData\Local\Temp\ccI1LKW9.s:223    .debug_info:0000000000000000 .Ldebug_info0

GAS LISTING C:\Users\Karzan\AppData\Local\Temp\ccI1LKW9.s 			page 11


NO UNDEFINED SYMBOLS
