GAS LISTING C:\Users\Karzan\AppData\Local\Temp\cc0WDOsQ.s 			page 1


   1              		.file	"gd32vf103_rcu.c"
   2              		.option nopic
   3              		.attribute arch, "rv32i2p0_m2p0_a2p0_c2p0"
   4              		.attribute unaligned_access, 0
   5              		.attribute stack_align, 16
   6              		.text
   7              	.Ltext0:
   8              		.cfi_sections	.debug_frame
   9              		.section	.text.rcu_periph_clock_enable,"ax",@progbits
  10              		.align	1
  11              		.globl	rcu_periph_clock_enable
  13              	rcu_periph_clock_enable:
  14              	.LFB3:
  15              		.file 1 "./../../firmware/GD32VF103_standard_peripheral/Source/gd32vf103_rcu.c"
   1:./../../firmware/GD32VF103_standard_peripheral/Source/gd32vf103_rcu.c **** /*!
   2:./../../firmware/GD32VF103_standard_peripheral/Source/gd32vf103_rcu.c ****     \file    gd32vf103_rcu.c
   3:./../../firmware/GD32VF103_standard_peripheral/Source/gd32vf103_rcu.c ****     \brief   RCU driver
   4:./../../firmware/GD32VF103_standard_peripheral/Source/gd32vf103_rcu.c **** 
   5:./../../firmware/GD32VF103_standard_peripheral/Source/gd32vf103_rcu.c ****     \version 2019-06-05, V1.0.0, firmware for GD32VF103
   6:./../../firmware/GD32VF103_standard_peripheral/Source/gd32vf103_rcu.c ****     \version 2020-08-04, V1.1.0, firmware for GD32VF103
   7:./../../firmware/GD32VF103_standard_peripheral/Source/gd32vf103_rcu.c **** */
   8:./../../firmware/GD32VF103_standard_peripheral/Source/gd32vf103_rcu.c **** 
   9:./../../firmware/GD32VF103_standard_peripheral/Source/gd32vf103_rcu.c **** /*
  10:./../../firmware/GD32VF103_standard_peripheral/Source/gd32vf103_rcu.c ****     Copyright (c) 2020, GigaDevice Semiconductor Inc.
  11:./../../firmware/GD32VF103_standard_peripheral/Source/gd32vf103_rcu.c **** 
  12:./../../firmware/GD32VF103_standard_peripheral/Source/gd32vf103_rcu.c ****     Redistribution and use in source and binary forms, with or without modification, 
  13:./../../firmware/GD32VF103_standard_peripheral/Source/gd32vf103_rcu.c **** are permitted provided that the following conditions are met:
  14:./../../firmware/GD32VF103_standard_peripheral/Source/gd32vf103_rcu.c **** 
  15:./../../firmware/GD32VF103_standard_peripheral/Source/gd32vf103_rcu.c ****     1. Redistributions of source code must retain the above copyright notice, this 
  16:./../../firmware/GD32VF103_standard_peripheral/Source/gd32vf103_rcu.c ****        list of conditions and the following disclaimer.
  17:./../../firmware/GD32VF103_standard_peripheral/Source/gd32vf103_rcu.c ****     2. Redistributions in binary form must reproduce the above copyright notice, 
  18:./../../firmware/GD32VF103_standard_peripheral/Source/gd32vf103_rcu.c ****        this list of conditions and the following disclaimer in the documentation 
  19:./../../firmware/GD32VF103_standard_peripheral/Source/gd32vf103_rcu.c ****        and/or other materials provided with the distribution.
  20:./../../firmware/GD32VF103_standard_peripheral/Source/gd32vf103_rcu.c ****     3. Neither the name of the copyright holder nor the names of its contributors 
  21:./../../firmware/GD32VF103_standard_peripheral/Source/gd32vf103_rcu.c ****        may be used to endorse or promote products derived from this software without 
  22:./../../firmware/GD32VF103_standard_peripheral/Source/gd32vf103_rcu.c ****        specific prior written permission.
  23:./../../firmware/GD32VF103_standard_peripheral/Source/gd32vf103_rcu.c **** 
  24:./../../firmware/GD32VF103_standard_peripheral/Source/gd32vf103_rcu.c ****     THIS SOFTWARE IS PROVIDED BY THE COPYRIGHT HOLDERS AND CONTRIBUTORS "AS IS" 
  25:./../../firmware/GD32VF103_standard_peripheral/Source/gd32vf103_rcu.c **** AND ANY EXPRESS OR IMPLIED WARRANTIES, INCLUDING, BUT NOT LIMITED TO, THE IMPLIED 
  26:./../../firmware/GD32VF103_standard_peripheral/Source/gd32vf103_rcu.c **** WARRANTIES OF MERCHANTABILITY AND FITNESS FOR A PARTICULAR PURPOSE ARE DISCLAIMED. 
  27:./../../firmware/GD32VF103_standard_peripheral/Source/gd32vf103_rcu.c **** IN NO EVENT SHALL THE COPYRIGHT HOLDER OR CONTRIBUTORS BE LIABLE FOR ANY DIRECT, 
  28:./../../firmware/GD32VF103_standard_peripheral/Source/gd32vf103_rcu.c **** INDIRECT, INCIDENTAL, SPECIAL, EXEMPLARY, OR CONSEQUENTIAL DAMAGES (INCLUDING, BUT 
  29:./../../firmware/GD32VF103_standard_peripheral/Source/gd32vf103_rcu.c **** NOT LIMITED TO, PROCUREMENT OF SUBSTITUTE GOODS OR SERVICES; LOSS OF USE, DATA, OR 
  30:./../../firmware/GD32VF103_standard_peripheral/Source/gd32vf103_rcu.c **** PROFITS; OR BUSINESS INTERRUPTION) HOWEVER CAUSED AND ON ANY THEORY OF LIABILITY, 
  31:./../../firmware/GD32VF103_standard_peripheral/Source/gd32vf103_rcu.c **** WHETHER IN CONTRACT, STRICT LIABILITY, OR TORT (INCLUDING NEGLIGENCE OR OTHERWISE) 
  32:./../../firmware/GD32VF103_standard_peripheral/Source/gd32vf103_rcu.c **** ARISING IN ANY WAY OUT OF THE USE OF THIS SOFTWARE, EVEN IF ADVISED OF THE POSSIBILITY 
  33:./../../firmware/GD32VF103_standard_peripheral/Source/gd32vf103_rcu.c **** OF SUCH DAMAGE.
  34:./../../firmware/GD32VF103_standard_peripheral/Source/gd32vf103_rcu.c **** */
  35:./../../firmware/GD32VF103_standard_peripheral/Source/gd32vf103_rcu.c **** 
  36:./../../firmware/GD32VF103_standard_peripheral/Source/gd32vf103_rcu.c **** #include "gd32vf103_rcu.h"
  37:./../../firmware/GD32VF103_standard_peripheral/Source/gd32vf103_rcu.c **** 
  38:./../../firmware/GD32VF103_standard_peripheral/Source/gd32vf103_rcu.c **** /* define clock source */
  39:./../../firmware/GD32VF103_standard_peripheral/Source/gd32vf103_rcu.c **** #define SEL_IRC8M                   ((uint16_t)0U)
  40:./../../firmware/GD32VF103_standard_peripheral/Source/gd32vf103_rcu.c **** #define SEL_HXTAL                   ((uint16_t)1U)
  41:./../../firmware/GD32VF103_standard_peripheral/Source/gd32vf103_rcu.c **** #define SEL_PLL                     ((uint16_t)2U)
  42:./../../firmware/GD32VF103_standard_peripheral/Source/gd32vf103_rcu.c **** 
  43:./../../firmware/GD32VF103_standard_peripheral/Source/gd32vf103_rcu.c **** /* define startup timeout count */
GAS LISTING C:\Users\Karzan\AppData\Local\Temp\cc0WDOsQ.s 			page 2


  44:./../../firmware/GD32VF103_standard_peripheral/Source/gd32vf103_rcu.c **** #define OSC_STARTUP_TIMEOUT         ((uint32_t)0xFFFFFU)
  45:./../../firmware/GD32VF103_standard_peripheral/Source/gd32vf103_rcu.c **** #define LXTAL_STARTUP_TIMEOUT       ((uint32_t)0x3FFFFFFU)
  46:./../../firmware/GD32VF103_standard_peripheral/Source/gd32vf103_rcu.c **** 
  47:./../../firmware/GD32VF103_standard_peripheral/Source/gd32vf103_rcu.c **** /*!
  48:./../../firmware/GD32VF103_standard_peripheral/Source/gd32vf103_rcu.c ****     \brief      deinitialize the RCU
  49:./../../firmware/GD32VF103_standard_peripheral/Source/gd32vf103_rcu.c ****     \param[in]  none
  50:./../../firmware/GD32VF103_standard_peripheral/Source/gd32vf103_rcu.c ****     \param[out] none
  51:./../../firmware/GD32VF103_standard_peripheral/Source/gd32vf103_rcu.c ****     \retval     none
  52:./../../firmware/GD32VF103_standard_peripheral/Source/gd32vf103_rcu.c **** */
  53:./../../firmware/GD32VF103_standard_peripheral/Source/gd32vf103_rcu.c **** void rcu_deinit(void)
  54:./../../firmware/GD32VF103_standard_peripheral/Source/gd32vf103_rcu.c **** {
  55:./../../firmware/GD32VF103_standard_peripheral/Source/gd32vf103_rcu.c ****     /* enable IRC8M */
  56:./../../firmware/GD32VF103_standard_peripheral/Source/gd32vf103_rcu.c ****     RCU_CTL |= RCU_CTL_IRC8MEN;
  57:./../../firmware/GD32VF103_standard_peripheral/Source/gd32vf103_rcu.c ****     rcu_osci_stab_wait(RCU_IRC8M);
  58:./../../firmware/GD32VF103_standard_peripheral/Source/gd32vf103_rcu.c ****     /* reset CTL register */
  59:./../../firmware/GD32VF103_standard_peripheral/Source/gd32vf103_rcu.c ****     RCU_CTL &= ~(RCU_CTL_HXTALEN | RCU_CTL_CKMEN | RCU_CTL_PLLEN);
  60:./../../firmware/GD32VF103_standard_peripheral/Source/gd32vf103_rcu.c ****     RCU_CTL &= ~RCU_CTL_HXTALBPS;
  61:./../../firmware/GD32VF103_standard_peripheral/Source/gd32vf103_rcu.c ****     RCU_CTL &= ~(RCU_CTL_PLL1EN | RCU_CTL_PLL2EN);
  62:./../../firmware/GD32VF103_standard_peripheral/Source/gd32vf103_rcu.c ****     /* reset CFG0 register */
  63:./../../firmware/GD32VF103_standard_peripheral/Source/gd32vf103_rcu.c ****     RCU_CFG0 &= ~(RCU_CFG0_SCS | RCU_CFG0_AHBPSC | RCU_CFG0_APB1PSC | RCU_CFG0_APB2PSC |
  64:./../../firmware/GD32VF103_standard_peripheral/Source/gd32vf103_rcu.c ****                   RCU_CFG0_ADCPSC | RCU_CFG0_PLLSEL | RCU_CFG0_PREDV0_LSB | RCU_CFG0_PLLMF |
  65:./../../firmware/GD32VF103_standard_peripheral/Source/gd32vf103_rcu.c ****                   RCU_CFG0_USBFSPSC | RCU_CFG0_CKOUT0SEL | RCU_CFG0_ADCPSC_2 | RCU_CFG0_PLLMF_4);
  66:./../../firmware/GD32VF103_standard_peripheral/Source/gd32vf103_rcu.c ****     /* reset INT and CFG1 register */
  67:./../../firmware/GD32VF103_standard_peripheral/Source/gd32vf103_rcu.c ****     RCU_INT = 0x00ff0000U;
  68:./../../firmware/GD32VF103_standard_peripheral/Source/gd32vf103_rcu.c ****     RCU_CFG1 &= ~(RCU_CFG1_PREDV0 | RCU_CFG1_PREDV1 | RCU_CFG1_PLL1MF | RCU_CFG1_PLL2MF |
  69:./../../firmware/GD32VF103_standard_peripheral/Source/gd32vf103_rcu.c ****                   RCU_CFG1_PREDV0SEL | RCU_CFG1_I2S1SEL | RCU_CFG1_I2S2SEL);
  70:./../../firmware/GD32VF103_standard_peripheral/Source/gd32vf103_rcu.c **** }
  71:./../../firmware/GD32VF103_standard_peripheral/Source/gd32vf103_rcu.c **** 
  72:./../../firmware/GD32VF103_standard_peripheral/Source/gd32vf103_rcu.c **** /*!
  73:./../../firmware/GD32VF103_standard_peripheral/Source/gd32vf103_rcu.c ****     \brief      enable the peripherals clock
  74:./../../firmware/GD32VF103_standard_peripheral/Source/gd32vf103_rcu.c ****     \param[in]  periph: RCU peripherals, refer to rcu_periph_enum
  75:./../../firmware/GD32VF103_standard_peripheral/Source/gd32vf103_rcu.c ****                 only one parameter can be selected which is shown as below:
  76:./../../firmware/GD32VF103_standard_peripheral/Source/gd32vf103_rcu.c ****       \arg        RCU_GPIOx (x=A,B,C,D,E): GPIO ports clock
  77:./../../firmware/GD32VF103_standard_peripheral/Source/gd32vf103_rcu.c ****       \arg        RCU_AF : alternate function clock
  78:./../../firmware/GD32VF103_standard_peripheral/Source/gd32vf103_rcu.c ****       \arg        RCU_CRC: CRC clock
  79:./../../firmware/GD32VF103_standard_peripheral/Source/gd32vf103_rcu.c ****       \arg        RCU_DMAx (x=0,1): DMA clock
  80:./../../firmware/GD32VF103_standard_peripheral/Source/gd32vf103_rcu.c ****       \arg        RCU_USBFS: USBFS clock
  81:./../../firmware/GD32VF103_standard_peripheral/Source/gd32vf103_rcu.c ****       \arg        RCU_EXMC: EXMC clock
  82:./../../firmware/GD32VF103_standard_peripheral/Source/gd32vf103_rcu.c ****       \arg        RCU_TIMERx (x=0,1,2,3,4,5,6): TIMER clock
  83:./../../firmware/GD32VF103_standard_peripheral/Source/gd32vf103_rcu.c ****       \arg        RCU_WWDGT: WWDGT clock
  84:./../../firmware/GD32VF103_standard_peripheral/Source/gd32vf103_rcu.c ****       \arg        RCU_SPIx (x=0,1,2): SPI clock
  85:./../../firmware/GD32VF103_standard_peripheral/Source/gd32vf103_rcu.c ****       \arg        RCU_USARTx (x=0,1,2): USART clock
  86:./../../firmware/GD32VF103_standard_peripheral/Source/gd32vf103_rcu.c ****       \arg        RCU_UARTx (x=3,4): UART clock
  87:./../../firmware/GD32VF103_standard_peripheral/Source/gd32vf103_rcu.c ****       \arg        RCU_I2Cx (x=0,1): I2C clock
  88:./../../firmware/GD32VF103_standard_peripheral/Source/gd32vf103_rcu.c ****       \arg        RCU_CANx (x=0,1): CAN clock
  89:./../../firmware/GD32VF103_standard_peripheral/Source/gd32vf103_rcu.c ****       \arg        RCU_PMU: PMU clock
  90:./../../firmware/GD32VF103_standard_peripheral/Source/gd32vf103_rcu.c ****       \arg        RCU_DAC: DAC clock
  91:./../../firmware/GD32VF103_standard_peripheral/Source/gd32vf103_rcu.c ****       \arg        RCU_RTC: RTC clock
  92:./../../firmware/GD32VF103_standard_peripheral/Source/gd32vf103_rcu.c ****       \arg        RCU_ADCx (x=0,1): ADC clock
  93:./../../firmware/GD32VF103_standard_peripheral/Source/gd32vf103_rcu.c ****       \arg        RCU_BKPI: BKP interface clock
  94:./../../firmware/GD32VF103_standard_peripheral/Source/gd32vf103_rcu.c ****     \param[out] none
  95:./../../firmware/GD32VF103_standard_peripheral/Source/gd32vf103_rcu.c ****     \retval     none
  96:./../../firmware/GD32VF103_standard_peripheral/Source/gd32vf103_rcu.c **** */
  97:./../../firmware/GD32VF103_standard_peripheral/Source/gd32vf103_rcu.c **** void rcu_periph_clock_enable(rcu_periph_enum periph)
  98:./../../firmware/GD32VF103_standard_peripheral/Source/gd32vf103_rcu.c **** {
  16              		.loc 1 98 1
  17              		.cfi_startproc
GAS LISTING C:\Users\Karzan\AppData\Local\Temp\cc0WDOsQ.s 			page 3


  18              	.LVL0:
  99:./../../firmware/GD32VF103_standard_peripheral/Source/gd32vf103_rcu.c ****     RCU_REG_VAL(periph) |= BIT(RCU_BIT_POS(periph));
  19              		.loc 1 99 5
  20              		.loc 1 99 25 is_stmt 0
  21 0000 B7170240 		li	a5,1073876992
  22 0004 13576500 		srli	a4,a0,6
  23 0008 3E97     		add	a4,a4,a5
  24 000a 1443     		lw	a3,0(a4)
  25              		.loc 1 99 28
  26 000c 8547     		li	a5,1
  27 000e B397A700 		sll	a5,a5,a0
  28              		.loc 1 99 25
  29 0012 D58F     		or	a5,a5,a3
  30 0014 1CC3     		sw	a5,0(a4)
 100:./../../firmware/GD32VF103_standard_peripheral/Source/gd32vf103_rcu.c **** }
  31              		.loc 1 100 1
  32 0016 8280     		ret
  33              		.cfi_endproc
  34              	.LFE3:
  36              		.section	.text.rcu_periph_clock_disable,"ax",@progbits
  37              		.align	1
  38              		.globl	rcu_periph_clock_disable
  40              	rcu_periph_clock_disable:
  41              	.LFB4:
 101:./../../firmware/GD32VF103_standard_peripheral/Source/gd32vf103_rcu.c **** 
 102:./../../firmware/GD32VF103_standard_peripheral/Source/gd32vf103_rcu.c **** /*!
 103:./../../firmware/GD32VF103_standard_peripheral/Source/gd32vf103_rcu.c ****     \brief      disable the peripherals clock
 104:./../../firmware/GD32VF103_standard_peripheral/Source/gd32vf103_rcu.c ****     \param[in]  periph: RCU peripherals, refer to rcu_periph_enum
 105:./../../firmware/GD32VF103_standard_peripheral/Source/gd32vf103_rcu.c ****                 only one parameter can be selected which is shown as below:
 106:./../../firmware/GD32VF103_standard_peripheral/Source/gd32vf103_rcu.c ****       \arg        RCU_GPIOx (x=A,B,C,D,E): GPIO ports clock
 107:./../../firmware/GD32VF103_standard_peripheral/Source/gd32vf103_rcu.c ****       \arg        RCU_AF: alternate function clock
 108:./../../firmware/GD32VF103_standard_peripheral/Source/gd32vf103_rcu.c ****       \arg        RCU_CRC: CRC clock
 109:./../../firmware/GD32VF103_standard_peripheral/Source/gd32vf103_rcu.c ****       \arg        RCU_DMAx (x=0,1): DMA clock
 110:./../../firmware/GD32VF103_standard_peripheral/Source/gd32vf103_rcu.c ****       \arg        RCU_USBFS: USBFS clock
 111:./../../firmware/GD32VF103_standard_peripheral/Source/gd32vf103_rcu.c ****       \arg        RCU_EXMC: EXMC clock
 112:./../../firmware/GD32VF103_standard_peripheral/Source/gd32vf103_rcu.c ****       \arg        RCU_TIMERx (x=0,1,2,3,4,5,6): TIMER clock
 113:./../../firmware/GD32VF103_standard_peripheral/Source/gd32vf103_rcu.c ****       \arg        RCU_WWDGT: WWDGT clock
 114:./../../firmware/GD32VF103_standard_peripheral/Source/gd32vf103_rcu.c ****       \arg        RCU_SPIx (x=0,1,2): SPI clock
 115:./../../firmware/GD32VF103_standard_peripheral/Source/gd32vf103_rcu.c ****       \arg        RCU_USARTx (x=0,1,2): USART clock
 116:./../../firmware/GD32VF103_standard_peripheral/Source/gd32vf103_rcu.c ****       \arg        RCU_UARTx (x=3,4): UART clock
 117:./../../firmware/GD32VF103_standard_peripheral/Source/gd32vf103_rcu.c ****       \arg        RCU_I2Cx (x=0,1): I2C clock
 118:./../../firmware/GD32VF103_standard_peripheral/Source/gd32vf103_rcu.c ****       \arg        RCU_CANx (x=0,1): CAN clock
 119:./../../firmware/GD32VF103_standard_peripheral/Source/gd32vf103_rcu.c ****       \arg        RCU_PMU: PMU clock
 120:./../../firmware/GD32VF103_standard_peripheral/Source/gd32vf103_rcu.c ****       \arg        RCU_DAC: DAC clock
 121:./../../firmware/GD32VF103_standard_peripheral/Source/gd32vf103_rcu.c ****       \arg        RCU_RTC: RTC clock
 122:./../../firmware/GD32VF103_standard_peripheral/Source/gd32vf103_rcu.c ****       \arg        RCU_ADCx (x=0,1): ADC clock
 123:./../../firmware/GD32VF103_standard_peripheral/Source/gd32vf103_rcu.c ****       \arg        RCU_BKPI: BKP interface clock
 124:./../../firmware/GD32VF103_standard_peripheral/Source/gd32vf103_rcu.c ****     \param[out] none
 125:./../../firmware/GD32VF103_standard_peripheral/Source/gd32vf103_rcu.c ****     \retval     none
 126:./../../firmware/GD32VF103_standard_peripheral/Source/gd32vf103_rcu.c **** */
 127:./../../firmware/GD32VF103_standard_peripheral/Source/gd32vf103_rcu.c **** void rcu_periph_clock_disable(rcu_periph_enum periph)
 128:./../../firmware/GD32VF103_standard_peripheral/Source/gd32vf103_rcu.c **** {
  42              		.loc 1 128 1 is_stmt 1
  43              		.cfi_startproc
  44              	.LVL1:
 129:./../../firmware/GD32VF103_standard_peripheral/Source/gd32vf103_rcu.c ****     RCU_REG_VAL(periph) &= ~BIT(RCU_BIT_POS(periph));
  45              		.loc 1 129 5
GAS LISTING C:\Users\Karzan\AppData\Local\Temp\cc0WDOsQ.s 			page 4


  46              		.loc 1 129 25 is_stmt 0
  47 0000 B7170240 		li	a5,1073876992
  48 0004 13576500 		srli	a4,a0,6
  49 0008 3E97     		add	a4,a4,a5
  50 000a 1443     		lw	a3,0(a4)
  51              		.loc 1 129 29
  52 000c 8547     		li	a5,1
  53 000e B397A700 		sll	a5,a5,a0
  54              		.loc 1 129 28
  55 0012 93C7F7FF 		not	a5,a5
  56              		.loc 1 129 25
  57 0016 F58F     		and	a5,a5,a3
  58 0018 1CC3     		sw	a5,0(a4)
 130:./../../firmware/GD32VF103_standard_peripheral/Source/gd32vf103_rcu.c **** }
  59              		.loc 1 130 1
  60 001a 8280     		ret
  61              		.cfi_endproc
  62              	.LFE4:
  64              		.section	.text.rcu_periph_clock_sleep_enable,"ax",@progbits
  65              		.align	1
  66              		.globl	rcu_periph_clock_sleep_enable
  68              	rcu_periph_clock_sleep_enable:
  69              	.LFB5:
 131:./../../firmware/GD32VF103_standard_peripheral/Source/gd32vf103_rcu.c **** 
 132:./../../firmware/GD32VF103_standard_peripheral/Source/gd32vf103_rcu.c **** /*!
 133:./../../firmware/GD32VF103_standard_peripheral/Source/gd32vf103_rcu.c ****     \brief      enable the peripherals clock when sleep mode
 134:./../../firmware/GD32VF103_standard_peripheral/Source/gd32vf103_rcu.c ****     \param[in]  periph: RCU peripherals, refer to rcu_periph_sleep_enum
 135:./../../firmware/GD32VF103_standard_peripheral/Source/gd32vf103_rcu.c ****                 only one parameter can be selected which is shown as below:
 136:./../../firmware/GD32VF103_standard_peripheral/Source/gd32vf103_rcu.c ****       \arg        RCU_FMC_SLP: FMC clock
 137:./../../firmware/GD32VF103_standard_peripheral/Source/gd32vf103_rcu.c ****       \arg        RCU_SRAM_SLP: SRAM clock
 138:./../../firmware/GD32VF103_standard_peripheral/Source/gd32vf103_rcu.c ****     \param[out] none
 139:./../../firmware/GD32VF103_standard_peripheral/Source/gd32vf103_rcu.c ****     \retval     none
 140:./../../firmware/GD32VF103_standard_peripheral/Source/gd32vf103_rcu.c **** */
 141:./../../firmware/GD32VF103_standard_peripheral/Source/gd32vf103_rcu.c **** void rcu_periph_clock_sleep_enable(rcu_periph_sleep_enum periph)
 142:./../../firmware/GD32VF103_standard_peripheral/Source/gd32vf103_rcu.c **** {
  70              		.loc 1 142 1 is_stmt 1
  71              		.cfi_startproc
  72              	.LVL2:
 143:./../../firmware/GD32VF103_standard_peripheral/Source/gd32vf103_rcu.c ****     RCU_REG_VAL(periph) |= BIT(RCU_BIT_POS(periph));
  73              		.loc 1 143 5
  74              		.loc 1 143 25 is_stmt 0
  75 0000 B7170240 		li	a5,1073876992
  76 0004 13576500 		srli	a4,a0,6
  77 0008 3E97     		add	a4,a4,a5
  78 000a 1443     		lw	a3,0(a4)
  79              		.loc 1 143 28
  80 000c 8547     		li	a5,1
  81 000e B397A700 		sll	a5,a5,a0
  82              		.loc 1 143 25
  83 0012 D58F     		or	a5,a5,a3
  84 0014 1CC3     		sw	a5,0(a4)
 144:./../../firmware/GD32VF103_standard_peripheral/Source/gd32vf103_rcu.c **** }
  85              		.loc 1 144 1
  86 0016 8280     		ret
  87              		.cfi_endproc
  88              	.LFE5:
  90              		.section	.text.rcu_periph_clock_sleep_disable,"ax",@progbits
GAS LISTING C:\Users\Karzan\AppData\Local\Temp\cc0WDOsQ.s 			page 5


  91              		.align	1
  92              		.globl	rcu_periph_clock_sleep_disable
  94              	rcu_periph_clock_sleep_disable:
  95              	.LFB6:
 145:./../../firmware/GD32VF103_standard_peripheral/Source/gd32vf103_rcu.c **** 
 146:./../../firmware/GD32VF103_standard_peripheral/Source/gd32vf103_rcu.c **** /*!
 147:./../../firmware/GD32VF103_standard_peripheral/Source/gd32vf103_rcu.c ****     \brief      disable the peripherals clock when sleep mode
 148:./../../firmware/GD32VF103_standard_peripheral/Source/gd32vf103_rcu.c ****     \param[in]  periph: RCU peripherals, refer to rcu_periph_sleep_enum
 149:./../../firmware/GD32VF103_standard_peripheral/Source/gd32vf103_rcu.c ****                 only one parameter can be selected which is shown as below:
 150:./../../firmware/GD32VF103_standard_peripheral/Source/gd32vf103_rcu.c ****       \arg        RCU_FMC_SLP: FMC clock
 151:./../../firmware/GD32VF103_standard_peripheral/Source/gd32vf103_rcu.c ****       \arg        RCU_SRAM_SLP: SRAM clock
 152:./../../firmware/GD32VF103_standard_peripheral/Source/gd32vf103_rcu.c ****     \param[out] none
 153:./../../firmware/GD32VF103_standard_peripheral/Source/gd32vf103_rcu.c ****     \retval     none
 154:./../../firmware/GD32VF103_standard_peripheral/Source/gd32vf103_rcu.c **** */
 155:./../../firmware/GD32VF103_standard_peripheral/Source/gd32vf103_rcu.c **** void rcu_periph_clock_sleep_disable(rcu_periph_sleep_enum periph)
 156:./../../firmware/GD32VF103_standard_peripheral/Source/gd32vf103_rcu.c **** {
  96              		.loc 1 156 1 is_stmt 1
  97              		.cfi_startproc
  98              	.LVL3:
 157:./../../firmware/GD32VF103_standard_peripheral/Source/gd32vf103_rcu.c ****     RCU_REG_VAL(periph) &= ~BIT(RCU_BIT_POS(periph));
  99              		.loc 1 157 5
 100              		.loc 1 157 25 is_stmt 0
 101 0000 B7170240 		li	a5,1073876992
 102 0004 13576500 		srli	a4,a0,6
 103 0008 3E97     		add	a4,a4,a5
 104 000a 1443     		lw	a3,0(a4)
 105              		.loc 1 157 29
 106 000c 8547     		li	a5,1
 107 000e B397A700 		sll	a5,a5,a0
 108              		.loc 1 157 28
 109 0012 93C7F7FF 		not	a5,a5
 110              		.loc 1 157 25
 111 0016 F58F     		and	a5,a5,a3
 112 0018 1CC3     		sw	a5,0(a4)
 158:./../../firmware/GD32VF103_standard_peripheral/Source/gd32vf103_rcu.c **** }
 113              		.loc 1 158 1
 114 001a 8280     		ret
 115              		.cfi_endproc
 116              	.LFE6:
 118              		.section	.text.rcu_periph_reset_enable,"ax",@progbits
 119              		.align	1
 120              		.globl	rcu_periph_reset_enable
 122              	rcu_periph_reset_enable:
 123              	.LFB7:
 159:./../../firmware/GD32VF103_standard_peripheral/Source/gd32vf103_rcu.c **** 
 160:./../../firmware/GD32VF103_standard_peripheral/Source/gd32vf103_rcu.c **** /*!
 161:./../../firmware/GD32VF103_standard_peripheral/Source/gd32vf103_rcu.c ****     \brief      reset the peripherals
 162:./../../firmware/GD32VF103_standard_peripheral/Source/gd32vf103_rcu.c ****     \param[in]  periph_reset: RCU peripherals reset, refer to rcu_periph_reset_enum
 163:./../../firmware/GD32VF103_standard_peripheral/Source/gd32vf103_rcu.c ****                 only one parameter can be selected which is shown as below:
 164:./../../firmware/GD32VF103_standard_peripheral/Source/gd32vf103_rcu.c ****       \arg        RCU_GPIOxRST (x=A,B,C,D,E): reset GPIO ports
 165:./../../firmware/GD32VF103_standard_peripheral/Source/gd32vf103_rcu.c ****       \arg        RCU_AFRST : reset alternate function clock
 166:./../../firmware/GD32VF103_standard_peripheral/Source/gd32vf103_rcu.c ****       \arg        RCU_USBFSRST: reset USBFS
 167:./../../firmware/GD32VF103_standard_peripheral/Source/gd32vf103_rcu.c ****       \arg        RCU_TIMERxRST (x=0,1,2,3,4,5,6): reset TIMER
 168:./../../firmware/GD32VF103_standard_peripheral/Source/gd32vf103_rcu.c ****       \arg        RCU_WWDGTRST: reset WWDGT
 169:./../../firmware/GD32VF103_standard_peripheral/Source/gd32vf103_rcu.c ****       \arg        RCU_SPIxRST (x=0,1,2): reset SPI
 170:./../../firmware/GD32VF103_standard_peripheral/Source/gd32vf103_rcu.c ****       \arg        RCU_USARTxRST (x=0,1,2): reset USART
 171:./../../firmware/GD32VF103_standard_peripheral/Source/gd32vf103_rcu.c ****       \arg        RCU_UARTxRST (x=3,4): reset UART
GAS LISTING C:\Users\Karzan\AppData\Local\Temp\cc0WDOsQ.s 			page 6


 172:./../../firmware/GD32VF103_standard_peripheral/Source/gd32vf103_rcu.c ****       \arg        RCU_I2CxRST (x=0,1): reset I2C
 173:./../../firmware/GD32VF103_standard_peripheral/Source/gd32vf103_rcu.c ****       \arg        RCU_CANxRST (x=0,1): reset CAN
 174:./../../firmware/GD32VF103_standard_peripheral/Source/gd32vf103_rcu.c ****       \arg        RCU_PMURST: reset PMU
 175:./../../firmware/GD32VF103_standard_peripheral/Source/gd32vf103_rcu.c ****       \arg        RCU_DACRST: reset DAC
 176:./../../firmware/GD32VF103_standard_peripheral/Source/gd32vf103_rcu.c ****       \arg        RCU_ADCxRST (x=0,1): reset ADC
 177:./../../firmware/GD32VF103_standard_peripheral/Source/gd32vf103_rcu.c ****       \arg        RCU_BKPIRST: reset BKPI
 178:./../../firmware/GD32VF103_standard_peripheral/Source/gd32vf103_rcu.c ****     \param[out] none
 179:./../../firmware/GD32VF103_standard_peripheral/Source/gd32vf103_rcu.c ****     \retval     none
 180:./../../firmware/GD32VF103_standard_peripheral/Source/gd32vf103_rcu.c **** */
 181:./../../firmware/GD32VF103_standard_peripheral/Source/gd32vf103_rcu.c **** void rcu_periph_reset_enable(rcu_periph_reset_enum periph_reset)
 182:./../../firmware/GD32VF103_standard_peripheral/Source/gd32vf103_rcu.c **** {
 124              		.loc 1 182 1 is_stmt 1
 125              		.cfi_startproc
 126              	.LVL4:
 183:./../../firmware/GD32VF103_standard_peripheral/Source/gd32vf103_rcu.c ****     RCU_REG_VAL(periph_reset) |= BIT(RCU_BIT_POS(periph_reset));
 127              		.loc 1 183 5
 128              		.loc 1 183 31 is_stmt 0
 129 0000 B7170240 		li	a5,1073876992
 130 0004 13576500 		srli	a4,a0,6
 131 0008 3E97     		add	a4,a4,a5
 132 000a 1443     		lw	a3,0(a4)
 133              		.loc 1 183 34
 134 000c 8547     		li	a5,1
 135 000e B397A700 		sll	a5,a5,a0
 136              		.loc 1 183 31
 137 0012 D58F     		or	a5,a5,a3
 138 0014 1CC3     		sw	a5,0(a4)
 184:./../../firmware/GD32VF103_standard_peripheral/Source/gd32vf103_rcu.c **** }
 139              		.loc 1 184 1
 140 0016 8280     		ret
 141              		.cfi_endproc
 142              	.LFE7:
 144              		.section	.text.rcu_periph_reset_disable,"ax",@progbits
 145              		.align	1
 146              		.globl	rcu_periph_reset_disable
 148              	rcu_periph_reset_disable:
 149              	.LFB8:
 185:./../../firmware/GD32VF103_standard_peripheral/Source/gd32vf103_rcu.c **** 
 186:./../../firmware/GD32VF103_standard_peripheral/Source/gd32vf103_rcu.c **** /*!
 187:./../../firmware/GD32VF103_standard_peripheral/Source/gd32vf103_rcu.c ****     \brief      disable reset the peripheral
 188:./../../firmware/GD32VF103_standard_peripheral/Source/gd32vf103_rcu.c ****     \param[in]  periph_reset: RCU peripherals reset, refer to rcu_periph_reset_enum
 189:./../../firmware/GD32VF103_standard_peripheral/Source/gd32vf103_rcu.c ****                 only one parameter can be selected which is shown as below:
 190:./../../firmware/GD32VF103_standard_peripheral/Source/gd32vf103_rcu.c ****       \arg        RCU_GPIOxRST (x=A,B,C,D,E): reset GPIO ports
 191:./../../firmware/GD32VF103_standard_peripheral/Source/gd32vf103_rcu.c ****       \arg        RCU_AFRST : reset alternate function clock
 192:./../../firmware/GD32VF103_standard_peripheral/Source/gd32vf103_rcu.c ****       \arg        RCU_USBFSRST: reset USBFS
 193:./../../firmware/GD32VF103_standard_peripheral/Source/gd32vf103_rcu.c ****       \arg        RCU_TIMERxRST (x=0,1,2,3,4,5,6): reset TIMER
 194:./../../firmware/GD32VF103_standard_peripheral/Source/gd32vf103_rcu.c ****       \arg        RCU_WWDGTRST: reset WWDGT
 195:./../../firmware/GD32VF103_standard_peripheral/Source/gd32vf103_rcu.c ****       \arg        RCU_SPIxRST (x=0,1,2): reset SPI
 196:./../../firmware/GD32VF103_standard_peripheral/Source/gd32vf103_rcu.c ****       \arg        RCU_USARTxRST (x=0,1,2): reset USART
 197:./../../firmware/GD32VF103_standard_peripheral/Source/gd32vf103_rcu.c ****       \arg        RCU_UARTxRST (x=3,4): reset UART
 198:./../../firmware/GD32VF103_standard_peripheral/Source/gd32vf103_rcu.c ****       \arg        RCU_I2CxRST (x=0,1): reset I2C
 199:./../../firmware/GD32VF103_standard_peripheral/Source/gd32vf103_rcu.c ****       \arg        RCU_CANxRST (x=0,1): reset CAN
 200:./../../firmware/GD32VF103_standard_peripheral/Source/gd32vf103_rcu.c ****       \arg        RCU_PMURST: reset PMU
 201:./../../firmware/GD32VF103_standard_peripheral/Source/gd32vf103_rcu.c ****       \arg        RCU_DACRST: reset DAC
 202:./../../firmware/GD32VF103_standard_peripheral/Source/gd32vf103_rcu.c ****       \arg        RCU_ADCxRST (x=0,1): reset ADC
 203:./../../firmware/GD32VF103_standard_peripheral/Source/gd32vf103_rcu.c ****       \arg        RCU_BKPIRST: reset BKPI
 204:./../../firmware/GD32VF103_standard_peripheral/Source/gd32vf103_rcu.c ****     \param[out] none
GAS LISTING C:\Users\Karzan\AppData\Local\Temp\cc0WDOsQ.s 			page 7


 205:./../../firmware/GD32VF103_standard_peripheral/Source/gd32vf103_rcu.c ****     \retval     none
 206:./../../firmware/GD32VF103_standard_peripheral/Source/gd32vf103_rcu.c **** */
 207:./../../firmware/GD32VF103_standard_peripheral/Source/gd32vf103_rcu.c **** void rcu_periph_reset_disable(rcu_periph_reset_enum periph_reset)
 208:./../../firmware/GD32VF103_standard_peripheral/Source/gd32vf103_rcu.c **** {
 150              		.loc 1 208 1 is_stmt 1
 151              		.cfi_startproc
 152              	.LVL5:
 209:./../../firmware/GD32VF103_standard_peripheral/Source/gd32vf103_rcu.c ****     RCU_REG_VAL(periph_reset) &= ~BIT(RCU_BIT_POS(periph_reset));
 153              		.loc 1 209 5
 154              		.loc 1 209 31 is_stmt 0
 155 0000 B7170240 		li	a5,1073876992
 156 0004 13576500 		srli	a4,a0,6
 157 0008 3E97     		add	a4,a4,a5
 158 000a 1443     		lw	a3,0(a4)
 159              		.loc 1 209 35
 160 000c 8547     		li	a5,1
 161 000e B397A700 		sll	a5,a5,a0
 162              		.loc 1 209 34
 163 0012 93C7F7FF 		not	a5,a5
 164              		.loc 1 209 31
 165 0016 F58F     		and	a5,a5,a3
 166 0018 1CC3     		sw	a5,0(a4)
 210:./../../firmware/GD32VF103_standard_peripheral/Source/gd32vf103_rcu.c **** }
 167              		.loc 1 210 1
 168 001a 8280     		ret
 169              		.cfi_endproc
 170              	.LFE8:
 172              		.section	.text.rcu_bkp_reset_enable,"ax",@progbits
 173              		.align	1
 174              		.globl	rcu_bkp_reset_enable
 176              	rcu_bkp_reset_enable:
 177              	.LFB9:
 211:./../../firmware/GD32VF103_standard_peripheral/Source/gd32vf103_rcu.c **** 
 212:./../../firmware/GD32VF103_standard_peripheral/Source/gd32vf103_rcu.c **** /*!
 213:./../../firmware/GD32VF103_standard_peripheral/Source/gd32vf103_rcu.c ****     \brief      reset the BKP domain
 214:./../../firmware/GD32VF103_standard_peripheral/Source/gd32vf103_rcu.c ****     \param[in]  none
 215:./../../firmware/GD32VF103_standard_peripheral/Source/gd32vf103_rcu.c ****     \param[out] none
 216:./../../firmware/GD32VF103_standard_peripheral/Source/gd32vf103_rcu.c ****     \retval     none
 217:./../../firmware/GD32VF103_standard_peripheral/Source/gd32vf103_rcu.c **** */
 218:./../../firmware/GD32VF103_standard_peripheral/Source/gd32vf103_rcu.c **** void rcu_bkp_reset_enable(void)
 219:./../../firmware/GD32VF103_standard_peripheral/Source/gd32vf103_rcu.c **** {
 178              		.loc 1 219 1 is_stmt 1
 179              		.cfi_startproc
 220:./../../firmware/GD32VF103_standard_peripheral/Source/gd32vf103_rcu.c ****     RCU_BDCTL |= RCU_BDCTL_BKPRST;
 180              		.loc 1 220 5
 181              		.loc 1 220 15 is_stmt 0
 182 0000 37170240 		li	a4,1073876992
 183 0004 1C53     		lw	a5,32(a4)
 184 0006 C166     		li	a3,65536
 185 0008 D58F     		or	a5,a5,a3
 186 000a 1CD3     		sw	a5,32(a4)
 221:./../../firmware/GD32VF103_standard_peripheral/Source/gd32vf103_rcu.c **** }
 187              		.loc 1 221 1
 188 000c 8280     		ret
 189              		.cfi_endproc
 190              	.LFE9:
 192              		.section	.text.rcu_bkp_reset_disable,"ax",@progbits
GAS LISTING C:\Users\Karzan\AppData\Local\Temp\cc0WDOsQ.s 			page 8


 193              		.align	1
 194              		.globl	rcu_bkp_reset_disable
 196              	rcu_bkp_reset_disable:
 197              	.LFB10:
 222:./../../firmware/GD32VF103_standard_peripheral/Source/gd32vf103_rcu.c **** 
 223:./../../firmware/GD32VF103_standard_peripheral/Source/gd32vf103_rcu.c **** /*!
 224:./../../firmware/GD32VF103_standard_peripheral/Source/gd32vf103_rcu.c ****     \brief      disable the BKP domain reset
 225:./../../firmware/GD32VF103_standard_peripheral/Source/gd32vf103_rcu.c ****     \param[in]  none
 226:./../../firmware/GD32VF103_standard_peripheral/Source/gd32vf103_rcu.c ****     \param[out] none
 227:./../../firmware/GD32VF103_standard_peripheral/Source/gd32vf103_rcu.c ****     \retval     none
 228:./../../firmware/GD32VF103_standard_peripheral/Source/gd32vf103_rcu.c **** */
 229:./../../firmware/GD32VF103_standard_peripheral/Source/gd32vf103_rcu.c **** void rcu_bkp_reset_disable(void)
 230:./../../firmware/GD32VF103_standard_peripheral/Source/gd32vf103_rcu.c **** {
 198              		.loc 1 230 1 is_stmt 1
 199              		.cfi_startproc
 231:./../../firmware/GD32VF103_standard_peripheral/Source/gd32vf103_rcu.c ****     RCU_BDCTL &= ~RCU_BDCTL_BKPRST;
 200              		.loc 1 231 5
 201              		.loc 1 231 15 is_stmt 0
 202 0000 B7160240 		li	a3,1073876992
 203 0004 9C52     		lw	a5,32(a3)
 204 0006 4177     		li	a4,-65536
 205 0008 7D17     		addi	a4,a4,-1
 206 000a F98F     		and	a5,a5,a4
 207 000c 9CD2     		sw	a5,32(a3)
 232:./../../firmware/GD32VF103_standard_peripheral/Source/gd32vf103_rcu.c **** }
 208              		.loc 1 232 1
 209 000e 8280     		ret
 210              		.cfi_endproc
 211              	.LFE10:
 213              		.section	.text.rcu_system_clock_source_config,"ax",@progbits
 214              		.align	1
 215              		.globl	rcu_system_clock_source_config
 217              	rcu_system_clock_source_config:
 218              	.LFB11:
 233:./../../firmware/GD32VF103_standard_peripheral/Source/gd32vf103_rcu.c **** 
 234:./../../firmware/GD32VF103_standard_peripheral/Source/gd32vf103_rcu.c **** /*!
 235:./../../firmware/GD32VF103_standard_peripheral/Source/gd32vf103_rcu.c ****     \brief      configure the system clock source
 236:./../../firmware/GD32VF103_standard_peripheral/Source/gd32vf103_rcu.c ****     \param[in]  ck_sys: system clock source select
 237:./../../firmware/GD32VF103_standard_peripheral/Source/gd32vf103_rcu.c ****                 only one parameter can be selected which is shown as below:
 238:./../../firmware/GD32VF103_standard_peripheral/Source/gd32vf103_rcu.c ****       \arg        RCU_CKSYSSRC_IRC8M: select CK_IRC8M as the CK_SYS source
 239:./../../firmware/GD32VF103_standard_peripheral/Source/gd32vf103_rcu.c ****       \arg        RCU_CKSYSSRC_HXTAL: select CK_HXTAL as the CK_SYS source
 240:./../../firmware/GD32VF103_standard_peripheral/Source/gd32vf103_rcu.c ****       \arg        RCU_CKSYSSRC_PLL: select CK_PLL as the CK_SYS source
 241:./../../firmware/GD32VF103_standard_peripheral/Source/gd32vf103_rcu.c ****     \param[out] none
 242:./../../firmware/GD32VF103_standard_peripheral/Source/gd32vf103_rcu.c ****     \retval     none
 243:./../../firmware/GD32VF103_standard_peripheral/Source/gd32vf103_rcu.c **** */
 244:./../../firmware/GD32VF103_standard_peripheral/Source/gd32vf103_rcu.c **** void rcu_system_clock_source_config(uint32_t ck_sys)
 245:./../../firmware/GD32VF103_standard_peripheral/Source/gd32vf103_rcu.c **** {
 219              		.loc 1 245 1 is_stmt 1
 220              		.cfi_startproc
 221              	.LVL6:
 246:./../../firmware/GD32VF103_standard_peripheral/Source/gd32vf103_rcu.c ****     uint32_t reg;
 222              		.loc 1 246 5
 247:./../../firmware/GD32VF103_standard_peripheral/Source/gd32vf103_rcu.c ****     
 248:./../../firmware/GD32VF103_standard_peripheral/Source/gd32vf103_rcu.c ****     reg = RCU_CFG0;
 223              		.loc 1 248 5
 224              		.loc 1 248 9 is_stmt 0
 225 0000 37170240 		li	a4,1073876992
GAS LISTING C:\Users\Karzan\AppData\Local\Temp\cc0WDOsQ.s 			page 9


 226 0004 5C43     		lw	a5,4(a4)
 227              	.LVL7:
 249:./../../firmware/GD32VF103_standard_peripheral/Source/gd32vf103_rcu.c ****     /* reset the SCS bits and set according to ck_sys */
 250:./../../firmware/GD32VF103_standard_peripheral/Source/gd32vf103_rcu.c ****     reg &= ~RCU_CFG0_SCS;
 228              		.loc 1 250 5 is_stmt 1
 251:./../../firmware/GD32VF103_standard_peripheral/Source/gd32vf103_rcu.c ****     RCU_CFG0 = (reg | ck_sys);
 229              		.loc 1 251 5
 250:./../../firmware/GD32VF103_standard_peripheral/Source/gd32vf103_rcu.c ****     RCU_CFG0 = (reg | ck_sys);
 230              		.loc 1 250 9 is_stmt 0
 231 0006 F19B     		andi	a5,a5,-4
 232              	.LVL8:
 233              		.loc 1 251 21
 234 0008 5D8D     		or	a0,a5,a0
 235              	.LVL9:
 236              		.loc 1 251 14
 237 000a 48C3     		sw	a0,4(a4)
 252:./../../firmware/GD32VF103_standard_peripheral/Source/gd32vf103_rcu.c **** }
 238              		.loc 1 252 1
 239 000c 8280     		ret
 240              		.cfi_endproc
 241              	.LFE11:
 243              		.section	.text.rcu_system_clock_source_get,"ax",@progbits
 244              		.align	1
 245              		.globl	rcu_system_clock_source_get
 247              	rcu_system_clock_source_get:
 248              	.LFB12:
 253:./../../firmware/GD32VF103_standard_peripheral/Source/gd32vf103_rcu.c **** 
 254:./../../firmware/GD32VF103_standard_peripheral/Source/gd32vf103_rcu.c **** /*!
 255:./../../firmware/GD32VF103_standard_peripheral/Source/gd32vf103_rcu.c ****     \brief      get the system clock source
 256:./../../firmware/GD32VF103_standard_peripheral/Source/gd32vf103_rcu.c ****     \param[in]  none
 257:./../../firmware/GD32VF103_standard_peripheral/Source/gd32vf103_rcu.c ****     \param[out] none
 258:./../../firmware/GD32VF103_standard_peripheral/Source/gd32vf103_rcu.c ****     \retval     which clock is selected as CK_SYS source
 259:./../../firmware/GD32VF103_standard_peripheral/Source/gd32vf103_rcu.c ****       \arg        RCU_SCSS_IRC8M: CK_IRC8M is selected as the CK_SYS source
 260:./../../firmware/GD32VF103_standard_peripheral/Source/gd32vf103_rcu.c ****       \arg        RCU_SCSS_HXTAL: CK_HXTAL is selected as the CK_SYS source
 261:./../../firmware/GD32VF103_standard_peripheral/Source/gd32vf103_rcu.c ****       \arg        RCU_SCSS_PLL: CK_PLL is selected as the CK_SYS source
 262:./../../firmware/GD32VF103_standard_peripheral/Source/gd32vf103_rcu.c **** */
 263:./../../firmware/GD32VF103_standard_peripheral/Source/gd32vf103_rcu.c **** uint32_t rcu_system_clock_source_get(void)
 264:./../../firmware/GD32VF103_standard_peripheral/Source/gd32vf103_rcu.c **** {
 249              		.loc 1 264 1 is_stmt 1
 250              		.cfi_startproc
 265:./../../firmware/GD32VF103_standard_peripheral/Source/gd32vf103_rcu.c ****     return (RCU_CFG0 & RCU_CFG0_SCSS);
 251              		.loc 1 265 5
 252              		.loc 1 265 22 is_stmt 0
 253 0000 B7170240 		li	a5,1073876992
 254 0004 C843     		lw	a0,4(a5)
 266:./../../firmware/GD32VF103_standard_peripheral/Source/gd32vf103_rcu.c **** }
 255              		.loc 1 266 1
 256 0006 3189     		andi	a0,a0,12
 257 0008 8280     		ret
 258              		.cfi_endproc
 259              	.LFE12:
 261              		.section	.text.rcu_ahb_clock_config,"ax",@progbits
 262              		.align	1
 263              		.globl	rcu_ahb_clock_config
 265              	rcu_ahb_clock_config:
 266              	.LFB13:
 267:./../../firmware/GD32VF103_standard_peripheral/Source/gd32vf103_rcu.c **** 
GAS LISTING C:\Users\Karzan\AppData\Local\Temp\cc0WDOsQ.s 			page 10


 268:./../../firmware/GD32VF103_standard_peripheral/Source/gd32vf103_rcu.c **** /*!
 269:./../../firmware/GD32VF103_standard_peripheral/Source/gd32vf103_rcu.c ****     \brief      configure the AHB clock prescaler selection
 270:./../../firmware/GD32VF103_standard_peripheral/Source/gd32vf103_rcu.c ****     \param[in]  ck_ahb: AHB clock prescaler selection
 271:./../../firmware/GD32VF103_standard_peripheral/Source/gd32vf103_rcu.c ****                 only one parameter can be selected which is shown as below:
 272:./../../firmware/GD32VF103_standard_peripheral/Source/gd32vf103_rcu.c ****       \arg        RCU_AHB_CKSYS_DIVx, x=1, 2, 4, 8, 16, 64, 128, 256, 512
 273:./../../firmware/GD32VF103_standard_peripheral/Source/gd32vf103_rcu.c ****     \param[out] none
 274:./../../firmware/GD32VF103_standard_peripheral/Source/gd32vf103_rcu.c ****     \retval     none
 275:./../../firmware/GD32VF103_standard_peripheral/Source/gd32vf103_rcu.c **** */
 276:./../../firmware/GD32VF103_standard_peripheral/Source/gd32vf103_rcu.c **** void rcu_ahb_clock_config(uint32_t ck_ahb)
 277:./../../firmware/GD32VF103_standard_peripheral/Source/gd32vf103_rcu.c **** {
 267              		.loc 1 277 1 is_stmt 1
 268              		.cfi_startproc
 269              	.LVL10:
 278:./../../firmware/GD32VF103_standard_peripheral/Source/gd32vf103_rcu.c ****     uint32_t reg;
 270              		.loc 1 278 5
 279:./../../firmware/GD32VF103_standard_peripheral/Source/gd32vf103_rcu.c ****     
 280:./../../firmware/GD32VF103_standard_peripheral/Source/gd32vf103_rcu.c ****     reg = RCU_CFG0;
 271              		.loc 1 280 5
 272              		.loc 1 280 9 is_stmt 0
 273 0000 37170240 		li	a4,1073876992
 274 0004 5C43     		lw	a5,4(a4)
 275              	.LVL11:
 281:./../../firmware/GD32VF103_standard_peripheral/Source/gd32vf103_rcu.c **** 
 282:./../../firmware/GD32VF103_standard_peripheral/Source/gd32vf103_rcu.c ****     /* reset the AHBPSC bits and set according to ck_ahb */
 283:./../../firmware/GD32VF103_standard_peripheral/Source/gd32vf103_rcu.c ****     reg &= ~RCU_CFG0_AHBPSC;
 276              		.loc 1 283 5 is_stmt 1
 284:./../../firmware/GD32VF103_standard_peripheral/Source/gd32vf103_rcu.c ****     RCU_CFG0 = (reg | ck_ahb);
 277              		.loc 1 284 5
 283:./../../firmware/GD32VF103_standard_peripheral/Source/gd32vf103_rcu.c ****     RCU_CFG0 = (reg | ck_ahb);
 278              		.loc 1 283 9 is_stmt 0
 279 0006 93F7F7F0 		andi	a5,a5,-241
 280              	.LVL12:
 281              		.loc 1 284 21
 282 000a 5D8D     		or	a0,a5,a0
 283              	.LVL13:
 284              		.loc 1 284 14
 285 000c 48C3     		sw	a0,4(a4)
 285:./../../firmware/GD32VF103_standard_peripheral/Source/gd32vf103_rcu.c **** }
 286              		.loc 1 285 1
 287 000e 8280     		ret
 288              		.cfi_endproc
 289              	.LFE13:
 291              		.section	.text.rcu_apb1_clock_config,"ax",@progbits
 292              		.align	1
 293              		.globl	rcu_apb1_clock_config
 295              	rcu_apb1_clock_config:
 296              	.LFB14:
 286:./../../firmware/GD32VF103_standard_peripheral/Source/gd32vf103_rcu.c **** 
 287:./../../firmware/GD32VF103_standard_peripheral/Source/gd32vf103_rcu.c **** /*!
 288:./../../firmware/GD32VF103_standard_peripheral/Source/gd32vf103_rcu.c ****     \brief      configure the APB1 clock prescaler selection
 289:./../../firmware/GD32VF103_standard_peripheral/Source/gd32vf103_rcu.c ****     \param[in]  ck_apb1: APB1 clock prescaler selection
 290:./../../firmware/GD32VF103_standard_peripheral/Source/gd32vf103_rcu.c ****                 only one parameter can be selected which is shown as below:
 291:./../../firmware/GD32VF103_standard_peripheral/Source/gd32vf103_rcu.c ****       \arg        RCU_APB1_CKAHB_DIV1: select CK_AHB as CK_APB1
 292:./../../firmware/GD32VF103_standard_peripheral/Source/gd32vf103_rcu.c ****       \arg        RCU_APB1_CKAHB_DIV2: select CK_AHB/2 as CK_APB1
 293:./../../firmware/GD32VF103_standard_peripheral/Source/gd32vf103_rcu.c ****       \arg        RCU_APB1_CKAHB_DIV4: select CK_AHB/4 as CK_APB1
 294:./../../firmware/GD32VF103_standard_peripheral/Source/gd32vf103_rcu.c ****       \arg        RCU_APB1_CKAHB_DIV8: select CK_AHB/8 as CK_APB1
 295:./../../firmware/GD32VF103_standard_peripheral/Source/gd32vf103_rcu.c ****       \arg        RCU_APB1_CKAHB_DIV16: select CK_AHB/16 as CK_APB1
GAS LISTING C:\Users\Karzan\AppData\Local\Temp\cc0WDOsQ.s 			page 11


 296:./../../firmware/GD32VF103_standard_peripheral/Source/gd32vf103_rcu.c ****     \param[out] none
 297:./../../firmware/GD32VF103_standard_peripheral/Source/gd32vf103_rcu.c ****     \retval     none
 298:./../../firmware/GD32VF103_standard_peripheral/Source/gd32vf103_rcu.c **** */
 299:./../../firmware/GD32VF103_standard_peripheral/Source/gd32vf103_rcu.c **** void rcu_apb1_clock_config(uint32_t ck_apb1)
 300:./../../firmware/GD32VF103_standard_peripheral/Source/gd32vf103_rcu.c **** {
 297              		.loc 1 300 1 is_stmt 1
 298              		.cfi_startproc
 299              	.LVL14:
 301:./../../firmware/GD32VF103_standard_peripheral/Source/gd32vf103_rcu.c ****     uint32_t reg;
 300              		.loc 1 301 5
 302:./../../firmware/GD32VF103_standard_peripheral/Source/gd32vf103_rcu.c ****     
 303:./../../firmware/GD32VF103_standard_peripheral/Source/gd32vf103_rcu.c ****     reg = RCU_CFG0;
 301              		.loc 1 303 5
 302              		.loc 1 303 9 is_stmt 0
 303 0000 37170240 		li	a4,1073876992
 304 0004 5C43     		lw	a5,4(a4)
 305              	.LVL15:
 304:./../../firmware/GD32VF103_standard_peripheral/Source/gd32vf103_rcu.c **** 
 305:./../../firmware/GD32VF103_standard_peripheral/Source/gd32vf103_rcu.c ****     /* reset the APB1PSC and set according to ck_apb1 */
 306:./../../firmware/GD32VF103_standard_peripheral/Source/gd32vf103_rcu.c ****     reg &= ~RCU_CFG0_APB1PSC;
 306              		.loc 1 306 5 is_stmt 1
 307:./../../firmware/GD32VF103_standard_peripheral/Source/gd32vf103_rcu.c ****     RCU_CFG0 = (reg | ck_apb1);
 307              		.loc 1 307 5
 306:./../../firmware/GD32VF103_standard_peripheral/Source/gd32vf103_rcu.c ****     RCU_CFG0 = (reg | ck_apb1);
 308              		.loc 1 306 9 is_stmt 0
 309 0006 93F7F78F 		andi	a5,a5,-1793
 310              	.LVL16:
 311              		.loc 1 307 21
 312 000a 5D8D     		or	a0,a5,a0
 313              	.LVL17:
 314              		.loc 1 307 14
 315 000c 48C3     		sw	a0,4(a4)
 308:./../../firmware/GD32VF103_standard_peripheral/Source/gd32vf103_rcu.c **** }
 316              		.loc 1 308 1
 317 000e 8280     		ret
 318              		.cfi_endproc
 319              	.LFE14:
 321              		.section	.text.rcu_apb2_clock_config,"ax",@progbits
 322              		.align	1
 323              		.globl	rcu_apb2_clock_config
 325              	rcu_apb2_clock_config:
 326              	.LFB15:
 309:./../../firmware/GD32VF103_standard_peripheral/Source/gd32vf103_rcu.c **** 
 310:./../../firmware/GD32VF103_standard_peripheral/Source/gd32vf103_rcu.c **** /*!
 311:./../../firmware/GD32VF103_standard_peripheral/Source/gd32vf103_rcu.c ****     \brief      configure the APB2 clock prescaler selection
 312:./../../firmware/GD32VF103_standard_peripheral/Source/gd32vf103_rcu.c ****     \param[in]  ck_apb2: APB2 clock prescaler selection
 313:./../../firmware/GD32VF103_standard_peripheral/Source/gd32vf103_rcu.c ****                 only one parameter can be selected which is shown as below:
 314:./../../firmware/GD32VF103_standard_peripheral/Source/gd32vf103_rcu.c ****       \arg        RCU_APB2_CKAHB_DIV1: select CK_AHB as CK_APB2
 315:./../../firmware/GD32VF103_standard_peripheral/Source/gd32vf103_rcu.c ****       \arg        RCU_APB2_CKAHB_DIV2: select CK_AHB/2 as CK_APB2
 316:./../../firmware/GD32VF103_standard_peripheral/Source/gd32vf103_rcu.c ****       \arg        RCU_APB2_CKAHB_DIV4: select CK_AHB/4 as CK_APB2
 317:./../../firmware/GD32VF103_standard_peripheral/Source/gd32vf103_rcu.c ****       \arg        RCU_APB2_CKAHB_DIV8: select CK_AHB/8 as CK_APB2
 318:./../../firmware/GD32VF103_standard_peripheral/Source/gd32vf103_rcu.c ****       \arg        RCU_APB2_CKAHB_DIV16: select CK_AHB/16 as CK_APB2
 319:./../../firmware/GD32VF103_standard_peripheral/Source/gd32vf103_rcu.c ****     \param[out] none
 320:./../../firmware/GD32VF103_standard_peripheral/Source/gd32vf103_rcu.c ****     \retval     none
 321:./../../firmware/GD32VF103_standard_peripheral/Source/gd32vf103_rcu.c **** */
 322:./../../firmware/GD32VF103_standard_peripheral/Source/gd32vf103_rcu.c **** void rcu_apb2_clock_config(uint32_t ck_apb2)
 323:./../../firmware/GD32VF103_standard_peripheral/Source/gd32vf103_rcu.c **** {
GAS LISTING C:\Users\Karzan\AppData\Local\Temp\cc0WDOsQ.s 			page 12


 327              		.loc 1 323 1 is_stmt 1
 328              		.cfi_startproc
 329              	.LVL18:
 324:./../../firmware/GD32VF103_standard_peripheral/Source/gd32vf103_rcu.c ****     uint32_t reg;
 330              		.loc 1 324 5
 325:./../../firmware/GD32VF103_standard_peripheral/Source/gd32vf103_rcu.c ****     
 326:./../../firmware/GD32VF103_standard_peripheral/Source/gd32vf103_rcu.c ****     reg = RCU_CFG0;
 331              		.loc 1 326 5
 332              		.loc 1 326 9 is_stmt 0
 333 0000 B7160240 		li	a3,1073876992
 334 0004 DC42     		lw	a5,4(a3)
 335              	.LVL19:
 327:./../../firmware/GD32VF103_standard_peripheral/Source/gd32vf103_rcu.c **** 
 328:./../../firmware/GD32VF103_standard_peripheral/Source/gd32vf103_rcu.c ****     /* reset the APB2PSC and set according to ck_apb2 */
 329:./../../firmware/GD32VF103_standard_peripheral/Source/gd32vf103_rcu.c ****     reg &= ~RCU_CFG0_APB2PSC;
 336              		.loc 1 329 5 is_stmt 1
 330:./../../firmware/GD32VF103_standard_peripheral/Source/gd32vf103_rcu.c ****     RCU_CFG0 = (reg | ck_apb2);
 337              		.loc 1 330 5
 329:./../../firmware/GD32VF103_standard_peripheral/Source/gd32vf103_rcu.c ****     RCU_CFG0 = (reg | ck_apb2);
 338              		.loc 1 329 9 is_stmt 0
 339 0006 7177     		li	a4,-16384
 340 0008 1307F77F 		addi	a4,a4,2047
 341 000c F98F     		and	a5,a5,a4
 342              	.LVL20:
 343              		.loc 1 330 21
 344 000e 5D8D     		or	a0,a5,a0
 345              	.LVL21:
 346              		.loc 1 330 14
 347 0010 C8C2     		sw	a0,4(a3)
 331:./../../firmware/GD32VF103_standard_peripheral/Source/gd32vf103_rcu.c **** }
 348              		.loc 1 331 1
 349 0012 8280     		ret
 350              		.cfi_endproc
 351              	.LFE15:
 353              		.section	.text.rcu_ckout0_config,"ax",@progbits
 354              		.align	1
 355              		.globl	rcu_ckout0_config
 357              	rcu_ckout0_config:
 358              	.LFB16:
 332:./../../firmware/GD32VF103_standard_peripheral/Source/gd32vf103_rcu.c **** 
 333:./../../firmware/GD32VF103_standard_peripheral/Source/gd32vf103_rcu.c **** /*!
 334:./../../firmware/GD32VF103_standard_peripheral/Source/gd32vf103_rcu.c ****     \brief      configure the CK_OUT0 clock source
 335:./../../firmware/GD32VF103_standard_peripheral/Source/gd32vf103_rcu.c ****     \param[in]  ckout0_src: CK_OUT0 clock source selection
 336:./../../firmware/GD32VF103_standard_peripheral/Source/gd32vf103_rcu.c ****                 only one parameter can be selected which is shown as below:
 337:./../../firmware/GD32VF103_standard_peripheral/Source/gd32vf103_rcu.c ****       \arg        RCU_CKOUT0SRC_NONE: no clock selected
 338:./../../firmware/GD32VF103_standard_peripheral/Source/gd32vf103_rcu.c ****       \arg        RCU_CKOUT0SRC_CKSYS: system clock selected
 339:./../../firmware/GD32VF103_standard_peripheral/Source/gd32vf103_rcu.c ****       \arg        RCU_CKOUT0SRC_IRC8M: high speed 8M internal oscillator clock selected
 340:./../../firmware/GD32VF103_standard_peripheral/Source/gd32vf103_rcu.c ****       \arg        RCU_CKOUT0SRC_HXTAL: HXTAL selected
 341:./../../firmware/GD32VF103_standard_peripheral/Source/gd32vf103_rcu.c ****       \arg        RCU_CKOUT0SRC_CKPLL_DIV2: CK_PLL/2 selected
 342:./../../firmware/GD32VF103_standard_peripheral/Source/gd32vf103_rcu.c ****       \arg        RCU_CKOUT0SRC_CKPLL1: CK_PLL1 selected
 343:./../../firmware/GD32VF103_standard_peripheral/Source/gd32vf103_rcu.c ****       \arg        RCU_CKOUT0SRC_CKPLL2_DIV2: CK_PLL2/2 selected
 344:./../../firmware/GD32VF103_standard_peripheral/Source/gd32vf103_rcu.c ****       \arg        RCU_CKOUT0SRC_EXT1: EXT1 selected
 345:./../../firmware/GD32VF103_standard_peripheral/Source/gd32vf103_rcu.c ****       \arg        RCU_CKOUT0SRC_CKPLL2: PLL2 selected
 346:./../../firmware/GD32VF103_standard_peripheral/Source/gd32vf103_rcu.c ****     \param[out] none
 347:./../../firmware/GD32VF103_standard_peripheral/Source/gd32vf103_rcu.c ****     \retval     none
 348:./../../firmware/GD32VF103_standard_peripheral/Source/gd32vf103_rcu.c **** */
 349:./../../firmware/GD32VF103_standard_peripheral/Source/gd32vf103_rcu.c **** void rcu_ckout0_config(uint32_t ckout0_src)
GAS LISTING C:\Users\Karzan\AppData\Local\Temp\cc0WDOsQ.s 			page 13


 350:./../../firmware/GD32VF103_standard_peripheral/Source/gd32vf103_rcu.c **** {
 359              		.loc 1 350 1 is_stmt 1
 360              		.cfi_startproc
 361              	.LVL22:
 351:./../../firmware/GD32VF103_standard_peripheral/Source/gd32vf103_rcu.c ****     uint32_t reg;
 362              		.loc 1 351 5
 352:./../../firmware/GD32VF103_standard_peripheral/Source/gd32vf103_rcu.c ****     
 353:./../../firmware/GD32VF103_standard_peripheral/Source/gd32vf103_rcu.c ****     reg = RCU_CFG0;
 363              		.loc 1 353 5
 364              		.loc 1 353 9 is_stmt 0
 365 0000 B7160240 		li	a3,1073876992
 366 0004 DC42     		lw	a5,4(a3)
 367              	.LVL23:
 354:./../../firmware/GD32VF103_standard_peripheral/Source/gd32vf103_rcu.c **** 
 355:./../../firmware/GD32VF103_standard_peripheral/Source/gd32vf103_rcu.c ****     /* reset the CKOUT0SRC, set according to ckout0_src */
 356:./../../firmware/GD32VF103_standard_peripheral/Source/gd32vf103_rcu.c ****     reg &= ~RCU_CFG0_CKOUT0SEL;
 368              		.loc 1 356 5 is_stmt 1
 357:./../../firmware/GD32VF103_standard_peripheral/Source/gd32vf103_rcu.c ****     RCU_CFG0 = (reg | ckout0_src);
 369              		.loc 1 357 5
 356:./../../firmware/GD32VF103_standard_peripheral/Source/gd32vf103_rcu.c ****     RCU_CFG0 = (reg | ckout0_src);
 370              		.loc 1 356 9 is_stmt 0
 371 0006 370700F1 		li	a4,-251658240
 372 000a 7D17     		addi	a4,a4,-1
 373 000c F98F     		and	a5,a5,a4
 374              	.LVL24:
 375              		.loc 1 357 21
 376 000e 5D8D     		or	a0,a5,a0
 377              	.LVL25:
 378              		.loc 1 357 14
 379 0010 C8C2     		sw	a0,4(a3)
 358:./../../firmware/GD32VF103_standard_peripheral/Source/gd32vf103_rcu.c **** }
 380              		.loc 1 358 1
 381 0012 8280     		ret
 382              		.cfi_endproc
 383              	.LFE16:
 385              		.section	.text.rcu_pll_config,"ax",@progbits
 386              		.align	1
 387              		.globl	rcu_pll_config
 389              	rcu_pll_config:
 390              	.LFB17:
 359:./../../firmware/GD32VF103_standard_peripheral/Source/gd32vf103_rcu.c **** 
 360:./../../firmware/GD32VF103_standard_peripheral/Source/gd32vf103_rcu.c **** /*!
 361:./../../firmware/GD32VF103_standard_peripheral/Source/gd32vf103_rcu.c ****     \brief      configure the main PLL clock 
 362:./../../firmware/GD32VF103_standard_peripheral/Source/gd32vf103_rcu.c ****     \param[in]  pll_src: PLL clock source selection
 363:./../../firmware/GD32VF103_standard_peripheral/Source/gd32vf103_rcu.c ****                 only one parameter can be selected which is shown as below:
 364:./../../firmware/GD32VF103_standard_peripheral/Source/gd32vf103_rcu.c ****       \arg        RCU_PLLSRC_IRC8M_DIV2: IRC8M/2 clock selected as source clock of PLL
 365:./../../firmware/GD32VF103_standard_peripheral/Source/gd32vf103_rcu.c ****       \arg        RCU_PLLSRC_HXTAL: HXTAL selected as source clock of PLL
 366:./../../firmware/GD32VF103_standard_peripheral/Source/gd32vf103_rcu.c ****     \param[in]  pll_mul: PLL clock multiplication factor
 367:./../../firmware/GD32VF103_standard_peripheral/Source/gd32vf103_rcu.c ****                 only one parameter can be selected which is shown as below:
 368:./../../firmware/GD32VF103_standard_peripheral/Source/gd32vf103_rcu.c ****       \arg        RCU_PLL_MULx (x = 2..14, 6.5, 16..32)
 369:./../../firmware/GD32VF103_standard_peripheral/Source/gd32vf103_rcu.c ****     \param[out] none
 370:./../../firmware/GD32VF103_standard_peripheral/Source/gd32vf103_rcu.c ****     \retval     none
 371:./../../firmware/GD32VF103_standard_peripheral/Source/gd32vf103_rcu.c **** */
 372:./../../firmware/GD32VF103_standard_peripheral/Source/gd32vf103_rcu.c **** void rcu_pll_config(uint32_t pll_src, uint32_t pll_mul)
 373:./../../firmware/GD32VF103_standard_peripheral/Source/gd32vf103_rcu.c **** {
 391              		.loc 1 373 1 is_stmt 1
 392              		.cfi_startproc
GAS LISTING C:\Users\Karzan\AppData\Local\Temp\cc0WDOsQ.s 			page 14


 393              	.LVL26:
 374:./../../firmware/GD32VF103_standard_peripheral/Source/gd32vf103_rcu.c ****     uint32_t reg = 0U;
 394              		.loc 1 374 5
 375:./../../firmware/GD32VF103_standard_peripheral/Source/gd32vf103_rcu.c **** 
 376:./../../firmware/GD32VF103_standard_peripheral/Source/gd32vf103_rcu.c ****     reg = RCU_CFG0;
 395              		.loc 1 376 5
 396              		.loc 1 376 9 is_stmt 0
 397 0000 B7160240 		li	a3,1073876992
 398 0004 DC42     		lw	a5,4(a3)
 399              	.LVL27:
 377:./../../firmware/GD32VF103_standard_peripheral/Source/gd32vf103_rcu.c **** 
 378:./../../firmware/GD32VF103_standard_peripheral/Source/gd32vf103_rcu.c ****     /* PLL clock source and multiplication factor configuration */
 379:./../../firmware/GD32VF103_standard_peripheral/Source/gd32vf103_rcu.c ****     reg &= ~(RCU_CFG0_PLLSEL | RCU_CFG0_PLLMF | RCU_CFG0_PLLMF_4);
 400              		.loc 1 379 5 is_stmt 1
 380:./../../firmware/GD32VF103_standard_peripheral/Source/gd32vf103_rcu.c ****     reg |= (pll_src | pll_mul);
 401              		.loc 1 380 5
 379:./../../firmware/GD32VF103_standard_peripheral/Source/gd32vf103_rcu.c ****     reg |= (pll_src | pll_mul);
 402              		.loc 1 379 9 is_stmt 0
 403 0006 3707C3DF 		li	a4,-540868608
 404 000a 7D17     		addi	a4,a4,-1
 405 000c F98F     		and	a5,a5,a4
 406              	.LVL28:
 407 000e DD8D     		or	a1,a5,a1
 408              	.LVL29:
 409              		.loc 1 380 9
 410 0010 C98D     		or	a1,a0,a1
 411              	.LVL30:
 381:./../../firmware/GD32VF103_standard_peripheral/Source/gd32vf103_rcu.c **** 
 382:./../../firmware/GD32VF103_standard_peripheral/Source/gd32vf103_rcu.c ****     RCU_CFG0 = reg;
 412              		.loc 1 382 5 is_stmt 1
 413              		.loc 1 382 14 is_stmt 0
 414 0012 CCC2     		sw	a1,4(a3)
 383:./../../firmware/GD32VF103_standard_peripheral/Source/gd32vf103_rcu.c **** }
 415              		.loc 1 383 1
 416 0014 8280     		ret
 417              		.cfi_endproc
 418              	.LFE17:
 420              		.section	.text.rcu_predv0_config,"ax",@progbits
 421              		.align	1
 422              		.globl	rcu_predv0_config
 424              	rcu_predv0_config:
 425              	.LFB18:
 384:./../../firmware/GD32VF103_standard_peripheral/Source/gd32vf103_rcu.c **** 
 385:./../../firmware/GD32VF103_standard_peripheral/Source/gd32vf103_rcu.c **** /*!
 386:./../../firmware/GD32VF103_standard_peripheral/Source/gd32vf103_rcu.c ****     \brief      configure the PREDV0 division factor and clock source
 387:./../../firmware/GD32VF103_standard_peripheral/Source/gd32vf103_rcu.c ****     \param[in]  predv0_source: PREDV0 input clock source selection
 388:./../../firmware/GD32VF103_standard_peripheral/Source/gd32vf103_rcu.c ****                 only one parameter can be selected which is shown as below:
 389:./../../firmware/GD32VF103_standard_peripheral/Source/gd32vf103_rcu.c ****       \arg        RCU_PREDV0SRC_HXTAL: HXTAL selected as PREDV0 input source clock
 390:./../../firmware/GD32VF103_standard_peripheral/Source/gd32vf103_rcu.c ****       \arg        RCU_PREDV0SRC_CKPLL1: CK_PLL1 selected as PREDV0 input source clock
 391:./../../firmware/GD32VF103_standard_peripheral/Source/gd32vf103_rcu.c ****     \param[in]  predv0_div: PREDV0 division factor
 392:./../../firmware/GD32VF103_standard_peripheral/Source/gd32vf103_rcu.c ****                 only one parameter can be selected which is shown as below:
 393:./../../firmware/GD32VF103_standard_peripheral/Source/gd32vf103_rcu.c ****       \arg        RCU_PREDV0_DIVx, x = 1..16
 394:./../../firmware/GD32VF103_standard_peripheral/Source/gd32vf103_rcu.c ****     \param[out] none
 395:./../../firmware/GD32VF103_standard_peripheral/Source/gd32vf103_rcu.c ****     \retval     none
 396:./../../firmware/GD32VF103_standard_peripheral/Source/gd32vf103_rcu.c **** */
 397:./../../firmware/GD32VF103_standard_peripheral/Source/gd32vf103_rcu.c **** void rcu_predv0_config(uint32_t predv0_source, uint32_t predv0_div)
 398:./../../firmware/GD32VF103_standard_peripheral/Source/gd32vf103_rcu.c **** {
GAS LISTING C:\Users\Karzan\AppData\Local\Temp\cc0WDOsQ.s 			page 15


 426              		.loc 1 398 1 is_stmt 1
 427              		.cfi_startproc
 428              	.LVL31:
 399:./../../firmware/GD32VF103_standard_peripheral/Source/gd32vf103_rcu.c ****     uint32_t reg = 0U;
 429              		.loc 1 399 5
 400:./../../firmware/GD32VF103_standard_peripheral/Source/gd32vf103_rcu.c ****     
 401:./../../firmware/GD32VF103_standard_peripheral/Source/gd32vf103_rcu.c ****     reg = RCU_CFG1;
 430              		.loc 1 401 5
 431              		.loc 1 401 9 is_stmt 0
 432 0000 B7160240 		li	a3,1073876992
 433 0004 DC56     		lw	a5,44(a3)
 434              	.LVL32:
 402:./../../firmware/GD32VF103_standard_peripheral/Source/gd32vf103_rcu.c ****     /* reset PREDV0SEL and PREDV0 bits */
 403:./../../firmware/GD32VF103_standard_peripheral/Source/gd32vf103_rcu.c ****     reg &= ~(RCU_CFG1_PREDV0SEL | RCU_CFG1_PREDV0);
 435              		.loc 1 403 5 is_stmt 1
 404:./../../firmware/GD32VF103_standard_peripheral/Source/gd32vf103_rcu.c ****     /* set the PREDV0SEL and PREDV0 division factor */
 405:./../../firmware/GD32VF103_standard_peripheral/Source/gd32vf103_rcu.c ****     reg |= (predv0_source | predv0_div);
 436              		.loc 1 405 5
 403:./../../firmware/GD32VF103_standard_peripheral/Source/gd32vf103_rcu.c ****     /* set the PREDV0SEL and PREDV0 division factor */
 437              		.loc 1 403 9 is_stmt 0
 438 0006 4177     		li	a4,-65536
 439 0008 4117     		addi	a4,a4,-16
 440 000a F98F     		and	a5,a5,a4
 441              	.LVL33:
 442 000c DD8D     		or	a1,a5,a1
 443              	.LVL34:
 444              		.loc 1 405 9
 445 000e C98D     		or	a1,a0,a1
 446              	.LVL35:
 406:./../../firmware/GD32VF103_standard_peripheral/Source/gd32vf103_rcu.c **** 
 407:./../../firmware/GD32VF103_standard_peripheral/Source/gd32vf103_rcu.c ****     RCU_CFG1 = reg;
 447              		.loc 1 407 5 is_stmt 1
 448              		.loc 1 407 14 is_stmt 0
 449 0010 CCD6     		sw	a1,44(a3)
 408:./../../firmware/GD32VF103_standard_peripheral/Source/gd32vf103_rcu.c **** }
 450              		.loc 1 408 1
 451 0012 8280     		ret
 452              		.cfi_endproc
 453              	.LFE18:
 455              		.section	.text.rcu_predv1_config,"ax",@progbits
 456              		.align	1
 457              		.globl	rcu_predv1_config
 459              	rcu_predv1_config:
 460              	.LFB19:
 409:./../../firmware/GD32VF103_standard_peripheral/Source/gd32vf103_rcu.c **** 
 410:./../../firmware/GD32VF103_standard_peripheral/Source/gd32vf103_rcu.c **** /*!
 411:./../../firmware/GD32VF103_standard_peripheral/Source/gd32vf103_rcu.c ****     \brief      configure the PREDV1 division factor
 412:./../../firmware/GD32VF103_standard_peripheral/Source/gd32vf103_rcu.c ****     \param[in]  predv1_div: PREDV1 division factor
 413:./../../firmware/GD32VF103_standard_peripheral/Source/gd32vf103_rcu.c ****                 only one parameter can be selected which is shown as below:
 414:./../../firmware/GD32VF103_standard_peripheral/Source/gd32vf103_rcu.c ****       \arg        RCU_PREDV1_DIVx, x = 1..16
 415:./../../firmware/GD32VF103_standard_peripheral/Source/gd32vf103_rcu.c ****     \param[out] none
 416:./../../firmware/GD32VF103_standard_peripheral/Source/gd32vf103_rcu.c ****     \retval     none
 417:./../../firmware/GD32VF103_standard_peripheral/Source/gd32vf103_rcu.c **** */
 418:./../../firmware/GD32VF103_standard_peripheral/Source/gd32vf103_rcu.c **** void rcu_predv1_config(uint32_t predv1_div)
 419:./../../firmware/GD32VF103_standard_peripheral/Source/gd32vf103_rcu.c **** {
 461              		.loc 1 419 1 is_stmt 1
 462              		.cfi_startproc
GAS LISTING C:\Users\Karzan\AppData\Local\Temp\cc0WDOsQ.s 			page 16


 463              	.LVL36:
 420:./../../firmware/GD32VF103_standard_peripheral/Source/gd32vf103_rcu.c ****     uint32_t reg = 0U;
 464              		.loc 1 420 5
 421:./../../firmware/GD32VF103_standard_peripheral/Source/gd32vf103_rcu.c ****     
 422:./../../firmware/GD32VF103_standard_peripheral/Source/gd32vf103_rcu.c ****     reg = RCU_CFG1;
 465              		.loc 1 422 5
 466              		.loc 1 422 9 is_stmt 0
 467 0000 37170240 		li	a4,1073876992
 468 0004 5C57     		lw	a5,44(a4)
 469              	.LVL37:
 423:./../../firmware/GD32VF103_standard_peripheral/Source/gd32vf103_rcu.c ****     /* reset the PREDV1 bits */
 424:./../../firmware/GD32VF103_standard_peripheral/Source/gd32vf103_rcu.c ****     reg &= ~RCU_CFG1_PREDV1;
 470              		.loc 1 424 5 is_stmt 1
 471              		.loc 1 424 9 is_stmt 0
 472 0006 93F7F7F0 		andi	a5,a5,-241
 473              	.LVL38:
 425:./../../firmware/GD32VF103_standard_peripheral/Source/gd32vf103_rcu.c ****     /* set the PREDV1 division factor */
 426:./../../firmware/GD32VF103_standard_peripheral/Source/gd32vf103_rcu.c ****     reg |= predv1_div;
 474              		.loc 1 426 5 is_stmt 1
 475              		.loc 1 426 9 is_stmt 0
 476 000a 5D8D     		or	a0,a5,a0
 477              	.LVL39:
 427:./../../firmware/GD32VF103_standard_peripheral/Source/gd32vf103_rcu.c **** 
 428:./../../firmware/GD32VF103_standard_peripheral/Source/gd32vf103_rcu.c ****     RCU_CFG1 = reg;
 478              		.loc 1 428 5 is_stmt 1
 479              		.loc 1 428 14 is_stmt 0
 480 000c 48D7     		sw	a0,44(a4)
 429:./../../firmware/GD32VF103_standard_peripheral/Source/gd32vf103_rcu.c **** }
 481              		.loc 1 429 1
 482 000e 8280     		ret
 483              		.cfi_endproc
 484              	.LFE19:
 486              		.section	.text.rcu_pll1_config,"ax",@progbits
 487              		.align	1
 488              		.globl	rcu_pll1_config
 490              	rcu_pll1_config:
 491              	.LFB20:
 430:./../../firmware/GD32VF103_standard_peripheral/Source/gd32vf103_rcu.c **** 
 431:./../../firmware/GD32VF103_standard_peripheral/Source/gd32vf103_rcu.c **** /*!
 432:./../../firmware/GD32VF103_standard_peripheral/Source/gd32vf103_rcu.c ****     \brief      configure the PLL1 clock 
 433:./../../firmware/GD32VF103_standard_peripheral/Source/gd32vf103_rcu.c ****     \param[in]  pll_mul: PLL clock multiplication factor
 434:./../../firmware/GD32VF103_standard_peripheral/Source/gd32vf103_rcu.c ****                 only one parameter can be selected which is shown as below:
 435:./../../firmware/GD32VF103_standard_peripheral/Source/gd32vf103_rcu.c ****       \arg        RCU_PLL1_MULx (x = 8..16, 20)
 436:./../../firmware/GD32VF103_standard_peripheral/Source/gd32vf103_rcu.c ****     \param[out] none
 437:./../../firmware/GD32VF103_standard_peripheral/Source/gd32vf103_rcu.c ****     \retval     none
 438:./../../firmware/GD32VF103_standard_peripheral/Source/gd32vf103_rcu.c **** */
 439:./../../firmware/GD32VF103_standard_peripheral/Source/gd32vf103_rcu.c **** void rcu_pll1_config(uint32_t pll_mul)
 440:./../../firmware/GD32VF103_standard_peripheral/Source/gd32vf103_rcu.c **** {
 492              		.loc 1 440 1 is_stmt 1
 493              		.cfi_startproc
 494              	.LVL40:
 441:./../../firmware/GD32VF103_standard_peripheral/Source/gd32vf103_rcu.c ****     RCU_CFG1 &= ~RCU_CFG1_PLL1MF;
 495              		.loc 1 441 5
 496              		.loc 1 441 14 is_stmt 0
 497 0000 B7170240 		li	a5,1073876992
 498 0004 D857     		lw	a4,44(a5)
 499 0006 FD76     		li	a3,-4096
GAS LISTING C:\Users\Karzan\AppData\Local\Temp\cc0WDOsQ.s 			page 17


 500 0008 9386F60F 		addi	a3,a3,255
 501 000c 758F     		and	a4,a4,a3
 502 000e D8D7     		sw	a4,44(a5)
 442:./../../firmware/GD32VF103_standard_peripheral/Source/gd32vf103_rcu.c ****     RCU_CFG1 |= pll_mul;
 503              		.loc 1 442 5 is_stmt 1
 504              		.loc 1 442 14 is_stmt 0
 505 0010 D857     		lw	a4,44(a5)
 506 0012 598D     		or	a0,a4,a0
 507              	.LVL41:
 508 0014 C8D7     		sw	a0,44(a5)
 443:./../../firmware/GD32VF103_standard_peripheral/Source/gd32vf103_rcu.c **** }
 509              		.loc 1 443 1
 510 0016 8280     		ret
 511              		.cfi_endproc
 512              	.LFE20:
 514              		.section	.text.rcu_pll2_config,"ax",@progbits
 515              		.align	1
 516              		.globl	rcu_pll2_config
 518              	rcu_pll2_config:
 519              	.LFB21:
 444:./../../firmware/GD32VF103_standard_peripheral/Source/gd32vf103_rcu.c **** 
 445:./../../firmware/GD32VF103_standard_peripheral/Source/gd32vf103_rcu.c **** /*!
 446:./../../firmware/GD32VF103_standard_peripheral/Source/gd32vf103_rcu.c ****     \brief      configure the PLL2 clock 
 447:./../../firmware/GD32VF103_standard_peripheral/Source/gd32vf103_rcu.c ****     \param[in]  pll_mul: PLL clock multiplication factor
 448:./../../firmware/GD32VF103_standard_peripheral/Source/gd32vf103_rcu.c ****                 only one parameter can be selected which is shown as below:
 449:./../../firmware/GD32VF103_standard_peripheral/Source/gd32vf103_rcu.c ****       \arg        RCU_PLL2_MULx (x = 8..16, 20)
 450:./../../firmware/GD32VF103_standard_peripheral/Source/gd32vf103_rcu.c ****     \param[out] none
 451:./../../firmware/GD32VF103_standard_peripheral/Source/gd32vf103_rcu.c ****     \retval     none
 452:./../../firmware/GD32VF103_standard_peripheral/Source/gd32vf103_rcu.c **** */
 453:./../../firmware/GD32VF103_standard_peripheral/Source/gd32vf103_rcu.c **** void rcu_pll2_config(uint32_t pll_mul)
 454:./../../firmware/GD32VF103_standard_peripheral/Source/gd32vf103_rcu.c **** {
 520              		.loc 1 454 1 is_stmt 1
 521              		.cfi_startproc
 522              	.LVL42:
 455:./../../firmware/GD32VF103_standard_peripheral/Source/gd32vf103_rcu.c ****     RCU_CFG1 &= ~RCU_CFG1_PLL2MF;
 523              		.loc 1 455 5
 524              		.loc 1 455 14 is_stmt 0
 525 0000 B7170240 		li	a5,1073876992
 526 0004 D857     		lw	a4,44(a5)
 527 0006 C576     		li	a3,-61440
 528 0008 FD16     		addi	a3,a3,-1
 529 000a 758F     		and	a4,a4,a3
 530 000c D8D7     		sw	a4,44(a5)
 456:./../../firmware/GD32VF103_standard_peripheral/Source/gd32vf103_rcu.c ****     RCU_CFG1 |= pll_mul; 
 531              		.loc 1 456 5 is_stmt 1
 532              		.loc 1 456 14 is_stmt 0
 533 000e D857     		lw	a4,44(a5)
 534 0010 598D     		or	a0,a4,a0
 535              	.LVL43:
 536 0012 C8D7     		sw	a0,44(a5)
 457:./../../firmware/GD32VF103_standard_peripheral/Source/gd32vf103_rcu.c **** }
 537              		.loc 1 457 1
 538 0014 8280     		ret
 539              		.cfi_endproc
 540              	.LFE21:
 542              		.section	.text.rcu_adc_clock_config,"ax",@progbits
 543              		.align	1
GAS LISTING C:\Users\Karzan\AppData\Local\Temp\cc0WDOsQ.s 			page 18


 544              		.globl	rcu_adc_clock_config
 546              	rcu_adc_clock_config:
 547              	.LFB22:
 458:./../../firmware/GD32VF103_standard_peripheral/Source/gd32vf103_rcu.c **** 
 459:./../../firmware/GD32VF103_standard_peripheral/Source/gd32vf103_rcu.c **** /*!
 460:./../../firmware/GD32VF103_standard_peripheral/Source/gd32vf103_rcu.c ****     \brief      configure the ADC prescaler factor
 461:./../../firmware/GD32VF103_standard_peripheral/Source/gd32vf103_rcu.c ****     \param[in]  adc_psc: ADC prescaler factor
 462:./../../firmware/GD32VF103_standard_peripheral/Source/gd32vf103_rcu.c ****                 only one parameter can be selected which is shown as below:
 463:./../../firmware/GD32VF103_standard_peripheral/Source/gd32vf103_rcu.c ****       \arg        RCU_CKADC_CKAPB2_DIV2: ADC prescaler select CK_APB2/2
 464:./../../firmware/GD32VF103_standard_peripheral/Source/gd32vf103_rcu.c ****       \arg        RCU_CKADC_CKAPB2_DIV4: ADC prescaler select CK_APB2/4
 465:./../../firmware/GD32VF103_standard_peripheral/Source/gd32vf103_rcu.c ****       \arg        RCU_CKADC_CKAPB2_DIV6: ADC prescaler select CK_APB2/6
 466:./../../firmware/GD32VF103_standard_peripheral/Source/gd32vf103_rcu.c ****       \arg        RCU_CKADC_CKAPB2_DIV8: ADC prescaler select CK_APB2/8
 467:./../../firmware/GD32VF103_standard_peripheral/Source/gd32vf103_rcu.c ****       \arg        RCU_CKADC_CKAPB2_DIV12: ADC prescaler select CK_APB2/12
 468:./../../firmware/GD32VF103_standard_peripheral/Source/gd32vf103_rcu.c ****       \arg        RCU_CKADC_CKAPB2_DIV16: ADC prescaler select CK_APB2/16
 469:./../../firmware/GD32VF103_standard_peripheral/Source/gd32vf103_rcu.c ****     \param[out] none
 470:./../../firmware/GD32VF103_standard_peripheral/Source/gd32vf103_rcu.c ****     \retval     none
 471:./../../firmware/GD32VF103_standard_peripheral/Source/gd32vf103_rcu.c **** */
 472:./../../firmware/GD32VF103_standard_peripheral/Source/gd32vf103_rcu.c **** void rcu_adc_clock_config(uint32_t adc_psc)
 473:./../../firmware/GD32VF103_standard_peripheral/Source/gd32vf103_rcu.c **** {
 548              		.loc 1 473 1 is_stmt 1
 549              		.cfi_startproc
 550              	.LVL44:
 474:./../../firmware/GD32VF103_standard_peripheral/Source/gd32vf103_rcu.c ****     uint32_t reg0;
 551              		.loc 1 474 5
 475:./../../firmware/GD32VF103_standard_peripheral/Source/gd32vf103_rcu.c **** 
 476:./../../firmware/GD32VF103_standard_peripheral/Source/gd32vf103_rcu.c ****     /* reset the ADCPSC bits */
 477:./../../firmware/GD32VF103_standard_peripheral/Source/gd32vf103_rcu.c ****     reg0 = RCU_CFG0;
 552              		.loc 1 477 5
 553              		.loc 1 477 10 is_stmt 0
 554 0000 B7170240 		li	a5,1073876992
 555 0004 DC43     		lw	a5,4(a5)
 556              	.LVL45:
 478:./../../firmware/GD32VF103_standard_peripheral/Source/gd32vf103_rcu.c ****     reg0 &= ~(RCU_CFG0_ADCPSC_2 | RCU_CFG0_ADCPSC);
 557              		.loc 1 478 5 is_stmt 1
 558              		.loc 1 478 10 is_stmt 0
 559 0006 3747FFEF 		li	a4,-268484608
 560 000a 7D17     		addi	a4,a4,-1
 561 000c F98F     		and	a5,a5,a4
 562              	.LVL46:
 479:./../../firmware/GD32VF103_standard_peripheral/Source/gd32vf103_rcu.c **** 
 480:./../../firmware/GD32VF103_standard_peripheral/Source/gd32vf103_rcu.c ****     /* set the ADC prescaler factor */
 481:./../../firmware/GD32VF103_standard_peripheral/Source/gd32vf103_rcu.c ****     switch(adc_psc){
 563              		.loc 1 481 5 is_stmt 1
 564 000e 1547     		li	a4,5
 565 0010 630EE500 		beq	a0,a4,.L21
 566 0014 6369A700 		bgtu	a0,a4,.L22
 567 0018 0D47     		li	a4,3
 568 001a 6370A702 		bleu	a0,a4,.L25
 569              	.LVL47:
 570              	.L23:
 482:./../../firmware/GD32VF103_standard_peripheral/Source/gd32vf103_rcu.c ****         case RCU_CKADC_CKAPB2_DIV2:
 483:./../../firmware/GD32VF103_standard_peripheral/Source/gd32vf103_rcu.c ****         case RCU_CKADC_CKAPB2_DIV4:
 484:./../../firmware/GD32VF103_standard_peripheral/Source/gd32vf103_rcu.c ****         case RCU_CKADC_CKAPB2_DIV6:
 485:./../../firmware/GD32VF103_standard_peripheral/Source/gd32vf103_rcu.c ****         case RCU_CKADC_CKAPB2_DIV8:
 486:./../../firmware/GD32VF103_standard_peripheral/Source/gd32vf103_rcu.c ****             reg0 |= (adc_psc << 14);
 487:./../../firmware/GD32VF103_standard_peripheral/Source/gd32vf103_rcu.c ****             break;
 488:./../../firmware/GD32VF103_standard_peripheral/Source/gd32vf103_rcu.c **** 
GAS LISTING C:\Users\Karzan\AppData\Local\Temp\cc0WDOsQ.s 			page 19


 489:./../../firmware/GD32VF103_standard_peripheral/Source/gd32vf103_rcu.c ****         case RCU_CKADC_CKAPB2_DIV12:
 490:./../../firmware/GD32VF103_standard_peripheral/Source/gd32vf103_rcu.c ****         case RCU_CKADC_CKAPB2_DIV16:
 491:./../../firmware/GD32VF103_standard_peripheral/Source/gd32vf103_rcu.c ****             adc_psc &= ~BIT(2);
 492:./../../firmware/GD32VF103_standard_peripheral/Source/gd32vf103_rcu.c ****             reg0 |= (adc_psc << 14 | RCU_CFG0_ADCPSC_2);
 493:./../../firmware/GD32VF103_standard_peripheral/Source/gd32vf103_rcu.c ****             break;
 494:./../../firmware/GD32VF103_standard_peripheral/Source/gd32vf103_rcu.c **** 
 495:./../../firmware/GD32VF103_standard_peripheral/Source/gd32vf103_rcu.c ****         default:
 496:./../../firmware/GD32VF103_standard_peripheral/Source/gd32vf103_rcu.c ****             break;
 497:./../../firmware/GD32VF103_standard_peripheral/Source/gd32vf103_rcu.c ****     }
 498:./../../firmware/GD32VF103_standard_peripheral/Source/gd32vf103_rcu.c **** 
 499:./../../firmware/GD32VF103_standard_peripheral/Source/gd32vf103_rcu.c ****     /* set the register */
 500:./../../firmware/GD32VF103_standard_peripheral/Source/gd32vf103_rcu.c ****     RCU_CFG0 = reg0;
 571              		.loc 1 500 5
 572              		.loc 1 500 14 is_stmt 0
 573 001e 37170240 		li	a4,1073876992
 574 0022 5CC3     		sw	a5,4(a4)
 501:./../../firmware/GD32VF103_standard_peripheral/Source/gd32vf103_rcu.c **** }
 575              		.loc 1 501 1
 576 0024 8280     		ret
 577              	.LVL48:
 578              	.L22:
 481:./../../firmware/GD32VF103_standard_peripheral/Source/gd32vf103_rcu.c ****         case RCU_CKADC_CKAPB2_DIV2:
 579              		.loc 1 481 5
 580 0026 1D47     		li	a4,7
 581 0028 E31BE5FE 		bne	a0,a4,.L23
 582              	.L21:
 491:./../../firmware/GD32VF103_standard_peripheral/Source/gd32vf103_rcu.c ****             reg0 |= (adc_psc << 14 | RCU_CFG0_ADCPSC_2);
 583              		.loc 1 491 13 is_stmt 1
 584              	.LVL49:
 492:./../../firmware/GD32VF103_standard_peripheral/Source/gd32vf103_rcu.c ****             break;
 585              		.loc 1 492 13
 492:./../../firmware/GD32VF103_standard_peripheral/Source/gd32vf103_rcu.c ****             break;
 586              		.loc 1 492 30 is_stmt 0
 587 002c 3A05     		slli	a0,a0,14
 588              	.LVL50:
 589 002e 3177     		li	a4,-81920
 590 0030 798D     		and	a0,a0,a4
 492:./../../firmware/GD32VF103_standard_peripheral/Source/gd32vf103_rcu.c ****             break;
 591              		.loc 1 492 18
 592 0032 5D8D     		or	a0,a0,a5
 593 0034 B7070010 		li	a5,268435456
 594              	.LVL51:
 595 0038 11A0     		j	.L26
 596              	.LVL52:
 597              	.L25:
 486:./../../firmware/GD32VF103_standard_peripheral/Source/gd32vf103_rcu.c ****             break;
 598              		.loc 1 486 13 is_stmt 1
 486:./../../firmware/GD32VF103_standard_peripheral/Source/gd32vf103_rcu.c ****             break;
 599              		.loc 1 486 30 is_stmt 0
 600 003a 3A05     		slli	a0,a0,14
 601              	.LVL53:
 602              	.L26:
 492:./../../firmware/GD32VF103_standard_peripheral/Source/gd32vf103_rcu.c ****             break;
 603              		.loc 1 492 18
 604 003c C98F     		or	a5,a0,a5
 605              	.LVL54:
 493:./../../firmware/GD32VF103_standard_peripheral/Source/gd32vf103_rcu.c **** 
GAS LISTING C:\Users\Karzan\AppData\Local\Temp\cc0WDOsQ.s 			page 20


 606              		.loc 1 493 13 is_stmt 1
 607 003e C5B7     		j	.L23
 608              		.cfi_endproc
 609              	.LFE22:
 611              		.section	.text.rcu_usb_clock_config,"ax",@progbits
 612              		.align	1
 613              		.globl	rcu_usb_clock_config
 615              	rcu_usb_clock_config:
 616              	.LFB23:
 502:./../../firmware/GD32VF103_standard_peripheral/Source/gd32vf103_rcu.c **** 
 503:./../../firmware/GD32VF103_standard_peripheral/Source/gd32vf103_rcu.c **** /*!
 504:./../../firmware/GD32VF103_standard_peripheral/Source/gd32vf103_rcu.c ****     \brief      configure the USBFS prescaler factor
 505:./../../firmware/GD32VF103_standard_peripheral/Source/gd32vf103_rcu.c ****     \param[in]  usb_psc: USB prescaler factor
 506:./../../firmware/GD32VF103_standard_peripheral/Source/gd32vf103_rcu.c ****                 only one parameter can be selected which is shown as below:
 507:./../../firmware/GD32VF103_standard_peripheral/Source/gd32vf103_rcu.c ****       \arg        RCU_CKUSB_CKPLL_DIV1_5: USBFS prescaler select CK_PLL/1.5
 508:./../../firmware/GD32VF103_standard_peripheral/Source/gd32vf103_rcu.c ****       \arg        RCU_CKUSB_CKPLL_DIV1: USBFS prescaler select CK_PLL/1
 509:./../../firmware/GD32VF103_standard_peripheral/Source/gd32vf103_rcu.c ****       \arg        RCU_CKUSB_CKPLL_DIV2_5: USBFS prescaler select CK_PLL/2.5
 510:./../../firmware/GD32VF103_standard_peripheral/Source/gd32vf103_rcu.c ****       \arg        RCU_CKUSB_CKPLL_DIV2: USBFS prescaler select CK_PLL/2
 511:./../../firmware/GD32VF103_standard_peripheral/Source/gd32vf103_rcu.c ****     \param[out] none
 512:./../../firmware/GD32VF103_standard_peripheral/Source/gd32vf103_rcu.c ****     \retval     none
 513:./../../firmware/GD32VF103_standard_peripheral/Source/gd32vf103_rcu.c **** */
 514:./../../firmware/GD32VF103_standard_peripheral/Source/gd32vf103_rcu.c **** void rcu_usb_clock_config(uint32_t usb_psc)
 515:./../../firmware/GD32VF103_standard_peripheral/Source/gd32vf103_rcu.c **** {
 617              		.loc 1 515 1
 618              		.cfi_startproc
 619              	.LVL55:
 516:./../../firmware/GD32VF103_standard_peripheral/Source/gd32vf103_rcu.c ****     uint32_t reg;
 620              		.loc 1 516 5
 517:./../../firmware/GD32VF103_standard_peripheral/Source/gd32vf103_rcu.c ****     
 518:./../../firmware/GD32VF103_standard_peripheral/Source/gd32vf103_rcu.c ****     reg = RCU_CFG0;
 621              		.loc 1 518 5
 622              		.loc 1 518 9 is_stmt 0
 623 0000 B7160240 		li	a3,1073876992
 624 0004 DC42     		lw	a5,4(a3)
 625              	.LVL56:
 519:./../../firmware/GD32VF103_standard_peripheral/Source/gd32vf103_rcu.c **** 
 520:./../../firmware/GD32VF103_standard_peripheral/Source/gd32vf103_rcu.c ****     /* configure the USBFS prescaler factor */
 521:./../../firmware/GD32VF103_standard_peripheral/Source/gd32vf103_rcu.c ****     reg &= ~RCU_CFG0_USBFSPSC;
 626              		.loc 1 521 5 is_stmt 1
 522:./../../firmware/GD32VF103_standard_peripheral/Source/gd32vf103_rcu.c ****     RCU_CFG0 = (reg | usb_psc);
 627              		.loc 1 522 5
 521:./../../firmware/GD32VF103_standard_peripheral/Source/gd32vf103_rcu.c ****     RCU_CFG0 = (reg | usb_psc);
 628              		.loc 1 521 9 is_stmt 0
 629 0006 370740FF 		li	a4,-12582912
 630 000a 7D17     		addi	a4,a4,-1
 631 000c F98F     		and	a5,a5,a4
 632              	.LVL57:
 633              		.loc 1 522 21
 634 000e 5D8D     		or	a0,a5,a0
 635              	.LVL58:
 636              		.loc 1 522 14
 637 0010 C8C2     		sw	a0,4(a3)
 523:./../../firmware/GD32VF103_standard_peripheral/Source/gd32vf103_rcu.c **** }
 638              		.loc 1 523 1
 639 0012 8280     		ret
 640              		.cfi_endproc
 641              	.LFE23:
GAS LISTING C:\Users\Karzan\AppData\Local\Temp\cc0WDOsQ.s 			page 21


 643              		.section	.text.rcu_rtc_clock_config,"ax",@progbits
 644              		.align	1
 645              		.globl	rcu_rtc_clock_config
 647              	rcu_rtc_clock_config:
 648              	.LFB24:
 524:./../../firmware/GD32VF103_standard_peripheral/Source/gd32vf103_rcu.c **** 
 525:./../../firmware/GD32VF103_standard_peripheral/Source/gd32vf103_rcu.c **** /*!
 526:./../../firmware/GD32VF103_standard_peripheral/Source/gd32vf103_rcu.c ****     \brief      configure the RTC clock source selection
 527:./../../firmware/GD32VF103_standard_peripheral/Source/gd32vf103_rcu.c ****     \param[in]  rtc_clock_source: RTC clock source selection
 528:./../../firmware/GD32VF103_standard_peripheral/Source/gd32vf103_rcu.c ****                 only one parameter can be selected which is shown as below:
 529:./../../firmware/GD32VF103_standard_peripheral/Source/gd32vf103_rcu.c ****       \arg        RCU_RTCSRC_NONE: no clock selected
 530:./../../firmware/GD32VF103_standard_peripheral/Source/gd32vf103_rcu.c ****       \arg        RCU_RTCSRC_LXTAL: CK_LXTAL selected as RTC source clock
 531:./../../firmware/GD32VF103_standard_peripheral/Source/gd32vf103_rcu.c ****       \arg        RCU_RTCSRC_IRC40K: CK_IRC40K selected as RTC source clock
 532:./../../firmware/GD32VF103_standard_peripheral/Source/gd32vf103_rcu.c ****       \arg        RCU_RTCSRC_HXTAL_DIV_128: CK_HXTAL/128 selected as RTC source clock
 533:./../../firmware/GD32VF103_standard_peripheral/Source/gd32vf103_rcu.c ****     \param[out] none
 534:./../../firmware/GD32VF103_standard_peripheral/Source/gd32vf103_rcu.c ****     \retval     none
 535:./../../firmware/GD32VF103_standard_peripheral/Source/gd32vf103_rcu.c **** */
 536:./../../firmware/GD32VF103_standard_peripheral/Source/gd32vf103_rcu.c **** void rcu_rtc_clock_config(uint32_t rtc_clock_source)
 537:./../../firmware/GD32VF103_standard_peripheral/Source/gd32vf103_rcu.c **** {
 649              		.loc 1 537 1 is_stmt 1
 650              		.cfi_startproc
 651              	.LVL59:
 538:./../../firmware/GD32VF103_standard_peripheral/Source/gd32vf103_rcu.c ****     uint32_t reg;
 652              		.loc 1 538 5
 539:./../../firmware/GD32VF103_standard_peripheral/Source/gd32vf103_rcu.c ****     
 540:./../../firmware/GD32VF103_standard_peripheral/Source/gd32vf103_rcu.c ****     reg = RCU_BDCTL; 
 653              		.loc 1 540 5
 654              		.loc 1 540 9 is_stmt 0
 655 0000 37170240 		li	a4,1073876992
 656 0004 1C53     		lw	a5,32(a4)
 657              	.LVL60:
 541:./../../firmware/GD32VF103_standard_peripheral/Source/gd32vf103_rcu.c ****     /* reset the RTCSRC bits and set according to rtc_clock_source */
 542:./../../firmware/GD32VF103_standard_peripheral/Source/gd32vf103_rcu.c ****     reg &= ~RCU_BDCTL_RTCSRC;
 658              		.loc 1 542 5 is_stmt 1
 543:./../../firmware/GD32VF103_standard_peripheral/Source/gd32vf103_rcu.c ****     RCU_BDCTL = (reg | rtc_clock_source);
 659              		.loc 1 543 5
 542:./../../firmware/GD32VF103_standard_peripheral/Source/gd32vf103_rcu.c ****     RCU_BDCTL = (reg | rtc_clock_source);
 660              		.loc 1 542 9 is_stmt 0
 661 0006 93F7F7CF 		andi	a5,a5,-769
 662              	.LVL61:
 663              		.loc 1 543 22
 664 000a 5D8D     		or	a0,a5,a0
 665              	.LVL62:
 666              		.loc 1 543 15
 667 000c 08D3     		sw	a0,32(a4)
 544:./../../firmware/GD32VF103_standard_peripheral/Source/gd32vf103_rcu.c **** }
 668              		.loc 1 544 1
 669 000e 8280     		ret
 670              		.cfi_endproc
 671              	.LFE24:
 673              		.section	.text.rcu_i2s1_clock_config,"ax",@progbits
 674              		.align	1
 675              		.globl	rcu_i2s1_clock_config
 677              	rcu_i2s1_clock_config:
 678              	.LFB25:
 545:./../../firmware/GD32VF103_standard_peripheral/Source/gd32vf103_rcu.c **** 
 546:./../../firmware/GD32VF103_standard_peripheral/Source/gd32vf103_rcu.c **** /*!
GAS LISTING C:\Users\Karzan\AppData\Local\Temp\cc0WDOsQ.s 			page 22


 547:./../../firmware/GD32VF103_standard_peripheral/Source/gd32vf103_rcu.c ****     \brief      configure the I2S1 clock source selection
 548:./../../firmware/GD32VF103_standard_peripheral/Source/gd32vf103_rcu.c ****     \param[in]  i2s_clock_source: I2S1 clock source selection
 549:./../../firmware/GD32VF103_standard_peripheral/Source/gd32vf103_rcu.c ****                 only one parameter can be selected which is shown as below:
 550:./../../firmware/GD32VF103_standard_peripheral/Source/gd32vf103_rcu.c ****       \arg        RCU_I2S1SRC_CKSYS: System clock selected as I2S1 source clock
 551:./../../firmware/GD32VF103_standard_peripheral/Source/gd32vf103_rcu.c ****       \arg        RCU_I2S1SRC_CKPLL2_MUL2: CK_PLL2x2 selected as I2S1 source clock
 552:./../../firmware/GD32VF103_standard_peripheral/Source/gd32vf103_rcu.c ****     \param[out] none
 553:./../../firmware/GD32VF103_standard_peripheral/Source/gd32vf103_rcu.c ****     \retval     none
 554:./../../firmware/GD32VF103_standard_peripheral/Source/gd32vf103_rcu.c **** */
 555:./../../firmware/GD32VF103_standard_peripheral/Source/gd32vf103_rcu.c **** void rcu_i2s1_clock_config(uint32_t i2s_clock_source)
 556:./../../firmware/GD32VF103_standard_peripheral/Source/gd32vf103_rcu.c **** {
 679              		.loc 1 556 1 is_stmt 1
 680              		.cfi_startproc
 681              	.LVL63:
 557:./../../firmware/GD32VF103_standard_peripheral/Source/gd32vf103_rcu.c ****     uint32_t reg;
 682              		.loc 1 557 5
 558:./../../firmware/GD32VF103_standard_peripheral/Source/gd32vf103_rcu.c ****     
 559:./../../firmware/GD32VF103_standard_peripheral/Source/gd32vf103_rcu.c ****     reg = RCU_CFG1; 
 683              		.loc 1 559 5
 684              		.loc 1 559 9 is_stmt 0
 685 0000 B7160240 		li	a3,1073876992
 686 0004 DC56     		lw	a5,44(a3)
 687              	.LVL64:
 560:./../../firmware/GD32VF103_standard_peripheral/Source/gd32vf103_rcu.c ****     /* reset the I2S1SEL bit and set according to i2s_clock_source */
 561:./../../firmware/GD32VF103_standard_peripheral/Source/gd32vf103_rcu.c ****     reg &= ~RCU_CFG1_I2S1SEL;
 688              		.loc 1 561 5 is_stmt 1
 562:./../../firmware/GD32VF103_standard_peripheral/Source/gd32vf103_rcu.c ****     RCU_CFG1 = (reg | i2s_clock_source);
 689              		.loc 1 562 5
 561:./../../firmware/GD32VF103_standard_peripheral/Source/gd32vf103_rcu.c ****     RCU_CFG1 = (reg | i2s_clock_source);
 690              		.loc 1 561 9 is_stmt 0
 691 0006 0177     		li	a4,-131072
 692 0008 7D17     		addi	a4,a4,-1
 693 000a F98F     		and	a5,a5,a4
 694              	.LVL65:
 695              		.loc 1 562 21
 696 000c 5D8D     		or	a0,a5,a0
 697              	.LVL66:
 698              		.loc 1 562 14
 699 000e C8D6     		sw	a0,44(a3)
 563:./../../firmware/GD32VF103_standard_peripheral/Source/gd32vf103_rcu.c **** }
 700              		.loc 1 563 1
 701 0010 8280     		ret
 702              		.cfi_endproc
 703              	.LFE25:
 705              		.section	.text.rcu_i2s2_clock_config,"ax",@progbits
 706              		.align	1
 707              		.globl	rcu_i2s2_clock_config
 709              	rcu_i2s2_clock_config:
 710              	.LFB26:
 564:./../../firmware/GD32VF103_standard_peripheral/Source/gd32vf103_rcu.c **** 
 565:./../../firmware/GD32VF103_standard_peripheral/Source/gd32vf103_rcu.c **** /*!
 566:./../../firmware/GD32VF103_standard_peripheral/Source/gd32vf103_rcu.c ****     \brief      configure the I2S2 clock source selection
 567:./../../firmware/GD32VF103_standard_peripheral/Source/gd32vf103_rcu.c ****     \param[in]  i2s_clock_source: I2S2 clock source selection
 568:./../../firmware/GD32VF103_standard_peripheral/Source/gd32vf103_rcu.c ****                 only one parameter can be selected which is shown as below:
 569:./../../firmware/GD32VF103_standard_peripheral/Source/gd32vf103_rcu.c ****       \arg        RCU_I2S2SRC_CKSYS: system clock selected as I2S2 source clock
 570:./../../firmware/GD32VF103_standard_peripheral/Source/gd32vf103_rcu.c ****       \arg        RCU_I2S2SRC_CKPLL2_MUL2: CK_PLL2x2 selected as I2S2 source clock
 571:./../../firmware/GD32VF103_standard_peripheral/Source/gd32vf103_rcu.c ****     \param[out] none
 572:./../../firmware/GD32VF103_standard_peripheral/Source/gd32vf103_rcu.c ****     \retval     none
GAS LISTING C:\Users\Karzan\AppData\Local\Temp\cc0WDOsQ.s 			page 23


 573:./../../firmware/GD32VF103_standard_peripheral/Source/gd32vf103_rcu.c **** */
 574:./../../firmware/GD32VF103_standard_peripheral/Source/gd32vf103_rcu.c **** void rcu_i2s2_clock_config(uint32_t i2s_clock_source)
 575:./../../firmware/GD32VF103_standard_peripheral/Source/gd32vf103_rcu.c **** {
 711              		.loc 1 575 1 is_stmt 1
 712              		.cfi_startproc
 713              	.LVL67:
 576:./../../firmware/GD32VF103_standard_peripheral/Source/gd32vf103_rcu.c ****     uint32_t reg;
 714              		.loc 1 576 5
 577:./../../firmware/GD32VF103_standard_peripheral/Source/gd32vf103_rcu.c ****     
 578:./../../firmware/GD32VF103_standard_peripheral/Source/gd32vf103_rcu.c ****     reg = RCU_CFG1; 
 715              		.loc 1 578 5
 716              		.loc 1 578 9 is_stmt 0
 717 0000 B7160240 		li	a3,1073876992
 718 0004 DC56     		lw	a5,44(a3)
 719              	.LVL68:
 579:./../../firmware/GD32VF103_standard_peripheral/Source/gd32vf103_rcu.c ****     /* reset the I2S2SEL bit and set according to i2s_clock_source */
 580:./../../firmware/GD32VF103_standard_peripheral/Source/gd32vf103_rcu.c ****     reg &= ~RCU_CFG1_I2S2SEL;
 720              		.loc 1 580 5 is_stmt 1
 581:./../../firmware/GD32VF103_standard_peripheral/Source/gd32vf103_rcu.c ****     RCU_CFG1 = (reg | i2s_clock_source);
 721              		.loc 1 581 5
 580:./../../firmware/GD32VF103_standard_peripheral/Source/gd32vf103_rcu.c ****     RCU_CFG1 = (reg | i2s_clock_source);
 722              		.loc 1 580 9 is_stmt 0
 723 0006 3707FCFF 		li	a4,-262144
 724 000a 7D17     		addi	a4,a4,-1
 725 000c F98F     		and	a5,a5,a4
 726              	.LVL69:
 727              		.loc 1 581 21
 728 000e 5D8D     		or	a0,a5,a0
 729              	.LVL70:
 730              		.loc 1 581 14
 731 0010 C8D6     		sw	a0,44(a3)
 582:./../../firmware/GD32VF103_standard_peripheral/Source/gd32vf103_rcu.c **** }
 732              		.loc 1 582 1
 733 0012 8280     		ret
 734              		.cfi_endproc
 735              	.LFE26:
 737              		.section	.text.rcu_flag_get,"ax",@progbits
 738              		.align	1
 739              		.globl	rcu_flag_get
 741              	rcu_flag_get:
 742              	.LFB27:
 583:./../../firmware/GD32VF103_standard_peripheral/Source/gd32vf103_rcu.c **** 
 584:./../../firmware/GD32VF103_standard_peripheral/Source/gd32vf103_rcu.c **** /*!
 585:./../../firmware/GD32VF103_standard_peripheral/Source/gd32vf103_rcu.c ****     \brief      get the clock stabilization and periphral reset flags
 586:./../../firmware/GD32VF103_standard_peripheral/Source/gd32vf103_rcu.c ****     \param[in]  flag: the clock stabilization and periphral reset flags, refer to rcu_flag_enum
 587:./../../firmware/GD32VF103_standard_peripheral/Source/gd32vf103_rcu.c ****                 only one parameter can be selected which is shown as below:
 588:./../../firmware/GD32VF103_standard_peripheral/Source/gd32vf103_rcu.c ****       \arg        RCU_FLAG_IRC8MSTB: IRC8M stabilization flag
 589:./../../firmware/GD32VF103_standard_peripheral/Source/gd32vf103_rcu.c ****       \arg        RCU_FLAG_HXTALSTB: HXTAL stabilization flag
 590:./../../firmware/GD32VF103_standard_peripheral/Source/gd32vf103_rcu.c ****       \arg        RCU_FLAG_PLLSTB: PLL stabilization flag
 591:./../../firmware/GD32VF103_standard_peripheral/Source/gd32vf103_rcu.c ****       \arg        RCU_FLAG_PLL1STB: PLL1 stabilization flag
 592:./../../firmware/GD32VF103_standard_peripheral/Source/gd32vf103_rcu.c ****       \arg        RCU_FLAG_PLL2STB: PLL2 stabilization flag
 593:./../../firmware/GD32VF103_standard_peripheral/Source/gd32vf103_rcu.c ****       \arg        RCU_FLAG_LXTALSTB: LXTAL stabilization flag
 594:./../../firmware/GD32VF103_standard_peripheral/Source/gd32vf103_rcu.c ****       \arg        RCU_FLAG_IRC40KSTB: IRC40K stabilization flag
 595:./../../firmware/GD32VF103_standard_peripheral/Source/gd32vf103_rcu.c ****       \arg        RCU_FLAG_EPRST: external PIN reset flag
 596:./../../firmware/GD32VF103_standard_peripheral/Source/gd32vf103_rcu.c ****       \arg        RCU_FLAG_PORRST: power reset flag
 597:./../../firmware/GD32VF103_standard_peripheral/Source/gd32vf103_rcu.c ****       \arg        RCU_FLAG_SWRST: software reset flag
 598:./../../firmware/GD32VF103_standard_peripheral/Source/gd32vf103_rcu.c ****       \arg        RCU_FLAG_FWDGTRST: free watchdog timer reset flag
GAS LISTING C:\Users\Karzan\AppData\Local\Temp\cc0WDOsQ.s 			page 24


 599:./../../firmware/GD32VF103_standard_peripheral/Source/gd32vf103_rcu.c ****       \arg        RCU_FLAG_WWDGTRST: window watchdog timer reset flag
 600:./../../firmware/GD32VF103_standard_peripheral/Source/gd32vf103_rcu.c ****       \arg        RCU_FLAG_LPRST: low-power reset flag
 601:./../../firmware/GD32VF103_standard_peripheral/Source/gd32vf103_rcu.c ****     \param[out] none
 602:./../../firmware/GD32VF103_standard_peripheral/Source/gd32vf103_rcu.c ****     \retval     FlagStatus: SET or RESET
 603:./../../firmware/GD32VF103_standard_peripheral/Source/gd32vf103_rcu.c **** */
 604:./../../firmware/GD32VF103_standard_peripheral/Source/gd32vf103_rcu.c **** FlagStatus rcu_flag_get(rcu_flag_enum flag)
 605:./../../firmware/GD32VF103_standard_peripheral/Source/gd32vf103_rcu.c **** {
 743              		.loc 1 605 1 is_stmt 1
 744              		.cfi_startproc
 745              	.LVL71:
 606:./../../firmware/GD32VF103_standard_peripheral/Source/gd32vf103_rcu.c ****     /* get the rcu flag */
 607:./../../firmware/GD32VF103_standard_peripheral/Source/gd32vf103_rcu.c ****     if(RESET != (RCU_REG_VAL(flag) & BIT(RCU_BIT_POS(flag)))){
 746              		.loc 1 607 5
 747              		.loc 1 607 18 is_stmt 0
 748 0000 13576500 		srli	a4,a0,6
 749 0004 B7170240 		li	a5,1073876992
 750 0008 3E97     		add	a4,a4,a5
 751 000a 1C43     		lw	a5,0(a4)
 752              		.loc 1 607 14
 753 000c 33D5A700 		srl	a0,a5,a0
 754              	.LVL72:
 608:./../../firmware/GD32VF103_standard_peripheral/Source/gd32vf103_rcu.c ****         return SET;
 609:./../../firmware/GD32VF103_standard_peripheral/Source/gd32vf103_rcu.c ****     }else{
 610:./../../firmware/GD32VF103_standard_peripheral/Source/gd32vf103_rcu.c ****         return RESET;
 611:./../../firmware/GD32VF103_standard_peripheral/Source/gd32vf103_rcu.c ****     }
 612:./../../firmware/GD32VF103_standard_peripheral/Source/gd32vf103_rcu.c **** }
 755              		.loc 1 612 1
 756 0010 0589     		andi	a0,a0,1
 757 0012 8280     		ret
 758              		.cfi_endproc
 759              	.LFE27:
 761              		.section	.text.rcu_all_reset_flag_clear,"ax",@progbits
 762              		.align	1
 763              		.globl	rcu_all_reset_flag_clear
 765              	rcu_all_reset_flag_clear:
 766              	.LFB28:
 613:./../../firmware/GD32VF103_standard_peripheral/Source/gd32vf103_rcu.c **** 
 614:./../../firmware/GD32VF103_standard_peripheral/Source/gd32vf103_rcu.c **** /*!
 615:./../../firmware/GD32VF103_standard_peripheral/Source/gd32vf103_rcu.c ****     \brief      clear all the reset flag
 616:./../../firmware/GD32VF103_standard_peripheral/Source/gd32vf103_rcu.c ****     \param[in]  none
 617:./../../firmware/GD32VF103_standard_peripheral/Source/gd32vf103_rcu.c ****     \param[out] none
 618:./../../firmware/GD32VF103_standard_peripheral/Source/gd32vf103_rcu.c ****     \retval     none
 619:./../../firmware/GD32VF103_standard_peripheral/Source/gd32vf103_rcu.c **** */
 620:./../../firmware/GD32VF103_standard_peripheral/Source/gd32vf103_rcu.c **** void rcu_all_reset_flag_clear(void)
 621:./../../firmware/GD32VF103_standard_peripheral/Source/gd32vf103_rcu.c **** {
 767              		.loc 1 621 1 is_stmt 1
 768              		.cfi_startproc
 622:./../../firmware/GD32VF103_standard_peripheral/Source/gd32vf103_rcu.c ****     RCU_RSTSCK |= RCU_RSTSCK_RSTFC;
 769              		.loc 1 622 5
 770              		.loc 1 622 16 is_stmt 0
 771 0000 37170240 		li	a4,1073876992
 772 0004 5C53     		lw	a5,36(a4)
 773 0006 B7060001 		li	a3,16777216
 774 000a D58F     		or	a5,a5,a3
 775 000c 5CD3     		sw	a5,36(a4)
 623:./../../firmware/GD32VF103_standard_peripheral/Source/gd32vf103_rcu.c **** }
 776              		.loc 1 623 1
GAS LISTING C:\Users\Karzan\AppData\Local\Temp\cc0WDOsQ.s 			page 25


 777 000e 8280     		ret
 778              		.cfi_endproc
 779              	.LFE28:
 781              		.section	.text.rcu_interrupt_flag_get,"ax",@progbits
 782              		.align	1
 783              		.globl	rcu_interrupt_flag_get
 785              	rcu_interrupt_flag_get:
 786              	.LFB29:
 624:./../../firmware/GD32VF103_standard_peripheral/Source/gd32vf103_rcu.c **** 
 625:./../../firmware/GD32VF103_standard_peripheral/Source/gd32vf103_rcu.c **** /*!
 626:./../../firmware/GD32VF103_standard_peripheral/Source/gd32vf103_rcu.c ****     \brief      get the clock stabilization interrupt and ckm flags
 627:./../../firmware/GD32VF103_standard_peripheral/Source/gd32vf103_rcu.c ****     \param[in]  int_flag: interrupt and ckm flags, refer to rcu_int_flag_enum
 628:./../../firmware/GD32VF103_standard_peripheral/Source/gd32vf103_rcu.c ****                 only one parameter can be selected which is shown as below:
 629:./../../firmware/GD32VF103_standard_peripheral/Source/gd32vf103_rcu.c ****       \arg        RCU_INT_FLAG_IRC40KSTB: IRC40K stabilization interrupt flag
 630:./../../firmware/GD32VF103_standard_peripheral/Source/gd32vf103_rcu.c ****       \arg        RCU_INT_FLAG_LXTALSTB: LXTAL stabilization interrupt flag
 631:./../../firmware/GD32VF103_standard_peripheral/Source/gd32vf103_rcu.c ****       \arg        RCU_INT_FLAG_IRC8MSTB: IRC8M stabilization interrupt flag
 632:./../../firmware/GD32VF103_standard_peripheral/Source/gd32vf103_rcu.c ****       \arg        RCU_INT_FLAG_HXTALSTB: HXTAL stabilization interrupt flag
 633:./../../firmware/GD32VF103_standard_peripheral/Source/gd32vf103_rcu.c ****       \arg        RCU_INT_FLAG_PLLSTB: PLL stabilization interrupt flag
 634:./../../firmware/GD32VF103_standard_peripheral/Source/gd32vf103_rcu.c ****       \arg        RCU_INT_FLAG_PLL1STB: PLL1 stabilization interrupt flag
 635:./../../firmware/GD32VF103_standard_peripheral/Source/gd32vf103_rcu.c ****       \arg        RCU_INT_FLAG_PLL2STB: PLL2 stabilization interrupt flag
 636:./../../firmware/GD32VF103_standard_peripheral/Source/gd32vf103_rcu.c ****       \arg        RCU_INT_FLAG_CKM: HXTAL clock stuck interrupt flag
 637:./../../firmware/GD32VF103_standard_peripheral/Source/gd32vf103_rcu.c ****     \param[out] none
 638:./../../firmware/GD32VF103_standard_peripheral/Source/gd32vf103_rcu.c ****     \retval     FlagStatus: SET or RESET
 639:./../../firmware/GD32VF103_standard_peripheral/Source/gd32vf103_rcu.c **** */
 640:./../../firmware/GD32VF103_standard_peripheral/Source/gd32vf103_rcu.c **** FlagStatus rcu_interrupt_flag_get(rcu_int_flag_enum int_flag)
 641:./../../firmware/GD32VF103_standard_peripheral/Source/gd32vf103_rcu.c **** {
 787              		.loc 1 641 1 is_stmt 1
 788              		.cfi_startproc
 789              	.LVL73:
 642:./../../firmware/GD32VF103_standard_peripheral/Source/gd32vf103_rcu.c ****     /* get the rcu interrupt flag */
 643:./../../firmware/GD32VF103_standard_peripheral/Source/gd32vf103_rcu.c ****     if(RESET != (RCU_REG_VAL(int_flag) & BIT(RCU_BIT_POS(int_flag)))){
 790              		.loc 1 643 5
 791              		.loc 1 643 18 is_stmt 0
 792 0000 13576500 		srli	a4,a0,6
 793 0004 B7170240 		li	a5,1073876992
 794 0008 3E97     		add	a4,a4,a5
 795 000a 1C43     		lw	a5,0(a4)
 796              		.loc 1 643 14
 797 000c 33D5A700 		srl	a0,a5,a0
 798              	.LVL74:
 644:./../../firmware/GD32VF103_standard_peripheral/Source/gd32vf103_rcu.c ****         return SET;
 645:./../../firmware/GD32VF103_standard_peripheral/Source/gd32vf103_rcu.c ****     }else{
 646:./../../firmware/GD32VF103_standard_peripheral/Source/gd32vf103_rcu.c ****         return RESET;
 647:./../../firmware/GD32VF103_standard_peripheral/Source/gd32vf103_rcu.c ****     }
 648:./../../firmware/GD32VF103_standard_peripheral/Source/gd32vf103_rcu.c **** }
 799              		.loc 1 648 1
 800 0010 0589     		andi	a0,a0,1
 801 0012 8280     		ret
 802              		.cfi_endproc
 803              	.LFE29:
 805              		.section	.text.rcu_interrupt_flag_clear,"ax",@progbits
 806              		.align	1
 807              		.globl	rcu_interrupt_flag_clear
 809              	rcu_interrupt_flag_clear:
 810              	.LFB30:
 649:./../../firmware/GD32VF103_standard_peripheral/Source/gd32vf103_rcu.c **** 
 650:./../../firmware/GD32VF103_standard_peripheral/Source/gd32vf103_rcu.c **** /*!
GAS LISTING C:\Users\Karzan\AppData\Local\Temp\cc0WDOsQ.s 			page 26


 651:./../../firmware/GD32VF103_standard_peripheral/Source/gd32vf103_rcu.c ****     \brief      clear the interrupt flags
 652:./../../firmware/GD32VF103_standard_peripheral/Source/gd32vf103_rcu.c ****     \param[in]  int_flag_clear: clock stabilization and stuck interrupt flags clear, refer to rcu_i
 653:./../../firmware/GD32VF103_standard_peripheral/Source/gd32vf103_rcu.c ****                 only one parameter can be selected which is shown as below:
 654:./../../firmware/GD32VF103_standard_peripheral/Source/gd32vf103_rcu.c ****       \arg        RCU_INT_FLAG_IRC40KSTB_CLR: IRC40K stabilization interrupt flag clear
 655:./../../firmware/GD32VF103_standard_peripheral/Source/gd32vf103_rcu.c ****       \arg        RCU_INT_FLAG_LXTALSTB_CLR: LXTAL stabilization interrupt flag clear
 656:./../../firmware/GD32VF103_standard_peripheral/Source/gd32vf103_rcu.c ****       \arg        RCU_INT_FLAG_IRC8MSTB_CLR: IRC8M stabilization interrupt flag clear
 657:./../../firmware/GD32VF103_standard_peripheral/Source/gd32vf103_rcu.c ****       \arg        RCU_INT_FLAG_HXTALSTB_CLR: HXTAL stabilization interrupt flag clear
 658:./../../firmware/GD32VF103_standard_peripheral/Source/gd32vf103_rcu.c ****       \arg        RCU_INT_FLAG_PLLSTB_CLR: PLL stabilization interrupt flag clear
 659:./../../firmware/GD32VF103_standard_peripheral/Source/gd32vf103_rcu.c ****       \arg        RCU_INT_FLAG_PLL1STB_CLR: PLL1 stabilization interrupt flag clear
 660:./../../firmware/GD32VF103_standard_peripheral/Source/gd32vf103_rcu.c ****       \arg        RCU_INT_FLAG_PLL2STB_CLR: PLL2 stabilization interrupt flag clear
 661:./../../firmware/GD32VF103_standard_peripheral/Source/gd32vf103_rcu.c ****       \arg        RCU_INT_FLAG_CKM_CLR: clock stuck interrupt flag clear
 662:./../../firmware/GD32VF103_standard_peripheral/Source/gd32vf103_rcu.c ****     \param[out] none
 663:./../../firmware/GD32VF103_standard_peripheral/Source/gd32vf103_rcu.c ****     \retval     none
 664:./../../firmware/GD32VF103_standard_peripheral/Source/gd32vf103_rcu.c **** */
 665:./../../firmware/GD32VF103_standard_peripheral/Source/gd32vf103_rcu.c **** void rcu_interrupt_flag_clear(rcu_int_flag_clear_enum int_flag_clear)
 666:./../../firmware/GD32VF103_standard_peripheral/Source/gd32vf103_rcu.c **** {
 811              		.loc 1 666 1 is_stmt 1
 812              		.cfi_startproc
 813              	.LVL75:
 667:./../../firmware/GD32VF103_standard_peripheral/Source/gd32vf103_rcu.c ****     RCU_REG_VAL(int_flag_clear) |= BIT(RCU_BIT_POS(int_flag_clear));
 814              		.loc 1 667 5
 815              		.loc 1 667 33 is_stmt 0
 816 0000 B7170240 		li	a5,1073876992
 817 0004 13576500 		srli	a4,a0,6
 818 0008 3E97     		add	a4,a4,a5
 819 000a 1443     		lw	a3,0(a4)
 820              		.loc 1 667 36
 821 000c 8547     		li	a5,1
 822 000e B397A700 		sll	a5,a5,a0
 823              		.loc 1 667 33
 824 0012 D58F     		or	a5,a5,a3
 825 0014 1CC3     		sw	a5,0(a4)
 668:./../../firmware/GD32VF103_standard_peripheral/Source/gd32vf103_rcu.c **** }
 826              		.loc 1 668 1
 827 0016 8280     		ret
 828              		.cfi_endproc
 829              	.LFE30:
 831              		.section	.text.rcu_interrupt_enable,"ax",@progbits
 832              		.align	1
 833              		.globl	rcu_interrupt_enable
 835              	rcu_interrupt_enable:
 836              	.LFB31:
 669:./../../firmware/GD32VF103_standard_peripheral/Source/gd32vf103_rcu.c **** 
 670:./../../firmware/GD32VF103_standard_peripheral/Source/gd32vf103_rcu.c **** /*!
 671:./../../firmware/GD32VF103_standard_peripheral/Source/gd32vf103_rcu.c ****     \brief      enable the stabilization interrupt
 672:./../../firmware/GD32VF103_standard_peripheral/Source/gd32vf103_rcu.c ****     \param[in]  stab_int: clock stabilization interrupt, refer to rcu_int_enum
 673:./../../firmware/GD32VF103_standard_peripheral/Source/gd32vf103_rcu.c ****                 Only one parameter can be selected which is shown as below:
 674:./../../firmware/GD32VF103_standard_peripheral/Source/gd32vf103_rcu.c ****       \arg        RCU_INT_IRC40KSTB: IRC40K stabilization interrupt enable
 675:./../../firmware/GD32VF103_standard_peripheral/Source/gd32vf103_rcu.c ****       \arg        RCU_INT_LXTALSTB: LXTAL stabilization interrupt enable
 676:./../../firmware/GD32VF103_standard_peripheral/Source/gd32vf103_rcu.c ****       \arg        RCU_INT_IRC8MSTB: IRC8M stabilization interrupt enable
 677:./../../firmware/GD32VF103_standard_peripheral/Source/gd32vf103_rcu.c ****       \arg        RCU_INT_HXTALSTB: HXTAL stabilization interrupt enable
 678:./../../firmware/GD32VF103_standard_peripheral/Source/gd32vf103_rcu.c ****       \arg        RCU_INT_PLLSTB: PLL stabilization interrupt enable
 679:./../../firmware/GD32VF103_standard_peripheral/Source/gd32vf103_rcu.c ****       \arg        RCU_INT_PLL1STB: PLL1 stabilization interrupt enable
 680:./../../firmware/GD32VF103_standard_peripheral/Source/gd32vf103_rcu.c ****       \arg        RCU_INT_PLL2STB: PLL2 stabilization interrupt enable
 681:./../../firmware/GD32VF103_standard_peripheral/Source/gd32vf103_rcu.c ****     \param[out] none
 682:./../../firmware/GD32VF103_standard_peripheral/Source/gd32vf103_rcu.c ****     \retval     none
 683:./../../firmware/GD32VF103_standard_peripheral/Source/gd32vf103_rcu.c **** */
GAS LISTING C:\Users\Karzan\AppData\Local\Temp\cc0WDOsQ.s 			page 27


 684:./../../firmware/GD32VF103_standard_peripheral/Source/gd32vf103_rcu.c **** void rcu_interrupt_enable(rcu_int_enum stab_int)
 685:./../../firmware/GD32VF103_standard_peripheral/Source/gd32vf103_rcu.c **** {
 837              		.loc 1 685 1 is_stmt 1
 838              		.cfi_startproc
 839              	.LVL76:
 686:./../../firmware/GD32VF103_standard_peripheral/Source/gd32vf103_rcu.c ****     RCU_REG_VAL(stab_int) |= BIT(RCU_BIT_POS(stab_int));
 840              		.loc 1 686 5
 841              		.loc 1 686 27 is_stmt 0
 842 0000 B7170240 		li	a5,1073876992
 843 0004 13576500 		srli	a4,a0,6
 844 0008 3E97     		add	a4,a4,a5
 845 000a 1443     		lw	a3,0(a4)
 846              		.loc 1 686 30
 847 000c 8547     		li	a5,1
 848 000e B397A700 		sll	a5,a5,a0
 849              		.loc 1 686 27
 850 0012 D58F     		or	a5,a5,a3
 851 0014 1CC3     		sw	a5,0(a4)
 687:./../../firmware/GD32VF103_standard_peripheral/Source/gd32vf103_rcu.c **** }
 852              		.loc 1 687 1
 853 0016 8280     		ret
 854              		.cfi_endproc
 855              	.LFE31:
 857              		.section	.text.rcu_interrupt_disable,"ax",@progbits
 858              		.align	1
 859              		.globl	rcu_interrupt_disable
 861              	rcu_interrupt_disable:
 862              	.LFB32:
 688:./../../firmware/GD32VF103_standard_peripheral/Source/gd32vf103_rcu.c **** 
 689:./../../firmware/GD32VF103_standard_peripheral/Source/gd32vf103_rcu.c **** /*!
 690:./../../firmware/GD32VF103_standard_peripheral/Source/gd32vf103_rcu.c ****     \brief      disable the stabilization interrupt
 691:./../../firmware/GD32VF103_standard_peripheral/Source/gd32vf103_rcu.c ****     \param[in]  stab_int: clock stabilization interrupt, refer to rcu_int_enum
 692:./../../firmware/GD32VF103_standard_peripheral/Source/gd32vf103_rcu.c ****                 only one parameter can be selected which is shown as below:
 693:./../../firmware/GD32VF103_standard_peripheral/Source/gd32vf103_rcu.c ****       \arg        RCU_INT_IRC40KSTB: IRC40K stabilization interrupt enable
 694:./../../firmware/GD32VF103_standard_peripheral/Source/gd32vf103_rcu.c ****       \arg        RCU_INT_LXTALSTB: LXTAL stabilization interrupt enable
 695:./../../firmware/GD32VF103_standard_peripheral/Source/gd32vf103_rcu.c ****       \arg        RCU_INT_IRC8MSTB: IRC8M stabilization interrupt enable
 696:./../../firmware/GD32VF103_standard_peripheral/Source/gd32vf103_rcu.c ****       \arg        RCU_INT_HXTALSTB: HXTAL stabilization interrupt enable
 697:./../../firmware/GD32VF103_standard_peripheral/Source/gd32vf103_rcu.c ****       \arg        RCU_INT_PLLSTB: PLL stabilization interrupt enable
 698:./../../firmware/GD32VF103_standard_peripheral/Source/gd32vf103_rcu.c ****       \arg        RCU_INT_PLL1STB: PLL1 stabilization interrupt enable
 699:./../../firmware/GD32VF103_standard_peripheral/Source/gd32vf103_rcu.c ****       \arg        RCU_INT_PLL2STB: PLL2 stabilization interrupt enable
 700:./../../firmware/GD32VF103_standard_peripheral/Source/gd32vf103_rcu.c ****     \param[out] none
 701:./../../firmware/GD32VF103_standard_peripheral/Source/gd32vf103_rcu.c ****     \retval     none
 702:./../../firmware/GD32VF103_standard_peripheral/Source/gd32vf103_rcu.c **** */
 703:./../../firmware/GD32VF103_standard_peripheral/Source/gd32vf103_rcu.c **** void rcu_interrupt_disable(rcu_int_enum stab_int)
 704:./../../firmware/GD32VF103_standard_peripheral/Source/gd32vf103_rcu.c **** {
 863              		.loc 1 704 1 is_stmt 1
 864              		.cfi_startproc
 865              	.LVL77:
 705:./../../firmware/GD32VF103_standard_peripheral/Source/gd32vf103_rcu.c ****     RCU_REG_VAL(stab_int) &= ~BIT(RCU_BIT_POS(stab_int));
 866              		.loc 1 705 5
 867              		.loc 1 705 27 is_stmt 0
 868 0000 B7170240 		li	a5,1073876992
 869 0004 13576500 		srli	a4,a0,6
 870 0008 3E97     		add	a4,a4,a5
 871 000a 1443     		lw	a3,0(a4)
 872              		.loc 1 705 31
 873 000c 8547     		li	a5,1
GAS LISTING C:\Users\Karzan\AppData\Local\Temp\cc0WDOsQ.s 			page 28


 874 000e B397A700 		sll	a5,a5,a0
 875              		.loc 1 705 30
 876 0012 93C7F7FF 		not	a5,a5
 877              		.loc 1 705 27
 878 0016 F58F     		and	a5,a5,a3
 879 0018 1CC3     		sw	a5,0(a4)
 706:./../../firmware/GD32VF103_standard_peripheral/Source/gd32vf103_rcu.c **** }
 880              		.loc 1 706 1
 881 001a 8280     		ret
 882              		.cfi_endproc
 883              	.LFE32:
 885              		.section	.text.rcu_osci_stab_wait,"ax",@progbits
 886              		.align	1
 887              		.globl	rcu_osci_stab_wait
 889              	rcu_osci_stab_wait:
 890              	.LFB33:
 707:./../../firmware/GD32VF103_standard_peripheral/Source/gd32vf103_rcu.c **** 
 708:./../../firmware/GD32VF103_standard_peripheral/Source/gd32vf103_rcu.c **** /*!
 709:./../../firmware/GD32VF103_standard_peripheral/Source/gd32vf103_rcu.c ****     \brief      wait for oscillator stabilization flags is SET or oscillator startup is timeout
 710:./../../firmware/GD32VF103_standard_peripheral/Source/gd32vf103_rcu.c ****     \param[in]  osci: oscillator types, refer to rcu_osci_type_enum
 711:./../../firmware/GD32VF103_standard_peripheral/Source/gd32vf103_rcu.c ****                 only one parameter can be selected which is shown as below:
 712:./../../firmware/GD32VF103_standard_peripheral/Source/gd32vf103_rcu.c ****       \arg        RCU_HXTAL: high speed crystal oscillator(HXTAL)
 713:./../../firmware/GD32VF103_standard_peripheral/Source/gd32vf103_rcu.c ****       \arg        RCU_LXTAL: low speed crystal oscillator(LXTAL)
 714:./../../firmware/GD32VF103_standard_peripheral/Source/gd32vf103_rcu.c ****       \arg        RCU_IRC8M: internal 8M RC oscillators(IRC8M)
 715:./../../firmware/GD32VF103_standard_peripheral/Source/gd32vf103_rcu.c ****       \arg        RCU_IRC40K: internal 40K RC oscillator(IRC40K)
 716:./../../firmware/GD32VF103_standard_peripheral/Source/gd32vf103_rcu.c ****       \arg        RCU_PLL_CK: phase locked loop(PLL)
 717:./../../firmware/GD32VF103_standard_peripheral/Source/gd32vf103_rcu.c ****       \arg        RCU_PLL1_CK: phase locked loop 1
 718:./../../firmware/GD32VF103_standard_peripheral/Source/gd32vf103_rcu.c ****       \arg        RCU_PLL2_CK: phase locked loop 2
 719:./../../firmware/GD32VF103_standard_peripheral/Source/gd32vf103_rcu.c ****     \param[out] none
 720:./../../firmware/GD32VF103_standard_peripheral/Source/gd32vf103_rcu.c ****     \retval     ErrStatus: SUCCESS or ERROR
 721:./../../firmware/GD32VF103_standard_peripheral/Source/gd32vf103_rcu.c **** */
 722:./../../firmware/GD32VF103_standard_peripheral/Source/gd32vf103_rcu.c **** ErrStatus rcu_osci_stab_wait(rcu_osci_type_enum osci)
 723:./../../firmware/GD32VF103_standard_peripheral/Source/gd32vf103_rcu.c **** {
 891              		.loc 1 723 1 is_stmt 1
 892              		.cfi_startproc
 893              	.LVL78:
 724:./../../firmware/GD32VF103_standard_peripheral/Source/gd32vf103_rcu.c ****     uint32_t stb_cnt = 0U;
 894              		.loc 1 724 5
 725:./../../firmware/GD32VF103_standard_peripheral/Source/gd32vf103_rcu.c ****     ErrStatus reval = ERROR;
 895              		.loc 1 725 5
 726:./../../firmware/GD32VF103_standard_peripheral/Source/gd32vf103_rcu.c ****     FlagStatus osci_stat = RESET;
 896              		.loc 1 726 5
 727:./../../firmware/GD32VF103_standard_peripheral/Source/gd32vf103_rcu.c ****     
 728:./../../firmware/GD32VF103_standard_peripheral/Source/gd32vf103_rcu.c ****     switch(osci){
 897              		.loc 1 728 5
 723:./../../firmware/GD32VF103_standard_peripheral/Source/gd32vf103_rcu.c ****     uint32_t stb_cnt = 0U;
 898              		.loc 1 723 1 is_stmt 0
 899 0000 4111     		addi	sp,sp,-16
 900              	.LCFI0:
 901              		.cfi_def_cfa_offset 16
 902 0002 06C6     		sw	ra,12(sp)
 903 0004 22C4     		sw	s0,8(sp)
 904 0006 26C2     		sw	s1,4(sp)
 905              		.cfi_offset 1, -4
 906              		.cfi_offset 8, -8
 907              		.cfi_offset 9, -12
 908              		.loc 1 728 5
GAS LISTING C:\Users\Karzan\AppData\Local\Temp\cc0WDOsQ.s 			page 29


 909 0008 E947     		li	a5,26
 910 000a 6307F50E 		beq	a0,a5,.L54
 911 000e 63EFA700 		bgtu	a0,a5,.L39
 912 0012 C147     		li	a5,16
 913 0014 6304F504 		beq	a0,a5,.L55
 914 0018 E147     		li	a5,24
 915 001a 6302F50C 		beq	a0,a5,.L56
 916 001e 59C1     		beq	a0,zero,.L57
 917              	.L70:
 725:./../../firmware/GD32VF103_standard_peripheral/Source/gd32vf103_rcu.c ****     FlagStatus osci_stat = RESET;
 918              		.loc 1 725 15
 919 0020 0145     		li	a0,0
 920              	.LVL79:
 921              	.L37:
 729:./../../firmware/GD32VF103_standard_peripheral/Source/gd32vf103_rcu.c ****     /* wait HXTAL stable */
 730:./../../firmware/GD32VF103_standard_peripheral/Source/gd32vf103_rcu.c ****     case RCU_HXTAL:
 731:./../../firmware/GD32VF103_standard_peripheral/Source/gd32vf103_rcu.c ****         while((RESET == osci_stat) && (HXTAL_STARTUP_TIMEOUT != stb_cnt)){
 732:./../../firmware/GD32VF103_standard_peripheral/Source/gd32vf103_rcu.c ****             osci_stat = rcu_flag_get(RCU_FLAG_HXTALSTB);
 733:./../../firmware/GD32VF103_standard_peripheral/Source/gd32vf103_rcu.c ****             stb_cnt++;
 734:./../../firmware/GD32VF103_standard_peripheral/Source/gd32vf103_rcu.c ****         }
 735:./../../firmware/GD32VF103_standard_peripheral/Source/gd32vf103_rcu.c **** 
 736:./../../firmware/GD32VF103_standard_peripheral/Source/gd32vf103_rcu.c ****         /* check whether flag is set or not */
 737:./../../firmware/GD32VF103_standard_peripheral/Source/gd32vf103_rcu.c ****         if(RESET != rcu_flag_get(RCU_FLAG_HXTALSTB)){
 738:./../../firmware/GD32VF103_standard_peripheral/Source/gd32vf103_rcu.c ****             reval = SUCCESS;
 739:./../../firmware/GD32VF103_standard_peripheral/Source/gd32vf103_rcu.c ****         }
 740:./../../firmware/GD32VF103_standard_peripheral/Source/gd32vf103_rcu.c ****         break;
 741:./../../firmware/GD32VF103_standard_peripheral/Source/gd32vf103_rcu.c **** 
 742:./../../firmware/GD32VF103_standard_peripheral/Source/gd32vf103_rcu.c ****     /* wait LXTAL stable */
 743:./../../firmware/GD32VF103_standard_peripheral/Source/gd32vf103_rcu.c ****     case RCU_LXTAL:
 744:./../../firmware/GD32VF103_standard_peripheral/Source/gd32vf103_rcu.c ****         while((RESET == osci_stat) && (LXTAL_STARTUP_TIMEOUT != stb_cnt)){
 745:./../../firmware/GD32VF103_standard_peripheral/Source/gd32vf103_rcu.c ****             osci_stat = rcu_flag_get(RCU_FLAG_LXTALSTB);
 746:./../../firmware/GD32VF103_standard_peripheral/Source/gd32vf103_rcu.c ****             stb_cnt++;
 747:./../../firmware/GD32VF103_standard_peripheral/Source/gd32vf103_rcu.c ****         }
 748:./../../firmware/GD32VF103_standard_peripheral/Source/gd32vf103_rcu.c **** 
 749:./../../firmware/GD32VF103_standard_peripheral/Source/gd32vf103_rcu.c ****         /* check whether flag is set or not */
 750:./../../firmware/GD32VF103_standard_peripheral/Source/gd32vf103_rcu.c ****         if(RESET != rcu_flag_get(RCU_FLAG_LXTALSTB)){
 751:./../../firmware/GD32VF103_standard_peripheral/Source/gd32vf103_rcu.c ****             reval = SUCCESS;
 752:./../../firmware/GD32VF103_standard_peripheral/Source/gd32vf103_rcu.c ****         }
 753:./../../firmware/GD32VF103_standard_peripheral/Source/gd32vf103_rcu.c ****         break;
 754:./../../firmware/GD32VF103_standard_peripheral/Source/gd32vf103_rcu.c **** 
 755:./../../firmware/GD32VF103_standard_peripheral/Source/gd32vf103_rcu.c ****     /* wait IRC8M stable */
 756:./../../firmware/GD32VF103_standard_peripheral/Source/gd32vf103_rcu.c ****     case RCU_IRC8M:
 757:./../../firmware/GD32VF103_standard_peripheral/Source/gd32vf103_rcu.c ****         while((RESET == osci_stat) && (IRC8M_STARTUP_TIMEOUT != stb_cnt)){
 758:./../../firmware/GD32VF103_standard_peripheral/Source/gd32vf103_rcu.c ****             osci_stat = rcu_flag_get(RCU_FLAG_IRC8MSTB);
 759:./../../firmware/GD32VF103_standard_peripheral/Source/gd32vf103_rcu.c ****             stb_cnt++;
 760:./../../firmware/GD32VF103_standard_peripheral/Source/gd32vf103_rcu.c ****         }
 761:./../../firmware/GD32VF103_standard_peripheral/Source/gd32vf103_rcu.c **** 
 762:./../../firmware/GD32VF103_standard_peripheral/Source/gd32vf103_rcu.c ****         /* check whether flag is set or not */
 763:./../../firmware/GD32VF103_standard_peripheral/Source/gd32vf103_rcu.c ****         if(RESET != rcu_flag_get(RCU_FLAG_IRC8MSTB)){
 764:./../../firmware/GD32VF103_standard_peripheral/Source/gd32vf103_rcu.c ****             reval = SUCCESS;
 765:./../../firmware/GD32VF103_standard_peripheral/Source/gd32vf103_rcu.c ****         }
 766:./../../firmware/GD32VF103_standard_peripheral/Source/gd32vf103_rcu.c ****         break;
 767:./../../firmware/GD32VF103_standard_peripheral/Source/gd32vf103_rcu.c **** 
 768:./../../firmware/GD32VF103_standard_peripheral/Source/gd32vf103_rcu.c ****     /* wait IRC40K stable */
 769:./../../firmware/GD32VF103_standard_peripheral/Source/gd32vf103_rcu.c ****     case RCU_IRC40K:
 770:./../../firmware/GD32VF103_standard_peripheral/Source/gd32vf103_rcu.c ****         while((RESET == osci_stat) && (OSC_STARTUP_TIMEOUT != stb_cnt)){
 771:./../../firmware/GD32VF103_standard_peripheral/Source/gd32vf103_rcu.c ****             osci_stat = rcu_flag_get(RCU_FLAG_IRC40KSTB);
GAS LISTING C:\Users\Karzan\AppData\Local\Temp\cc0WDOsQ.s 			page 30


 772:./../../firmware/GD32VF103_standard_peripheral/Source/gd32vf103_rcu.c ****             stb_cnt++;
 773:./../../firmware/GD32VF103_standard_peripheral/Source/gd32vf103_rcu.c ****         }
 774:./../../firmware/GD32VF103_standard_peripheral/Source/gd32vf103_rcu.c **** 
 775:./../../firmware/GD32VF103_standard_peripheral/Source/gd32vf103_rcu.c ****         /* check whether flag is set or not */
 776:./../../firmware/GD32VF103_standard_peripheral/Source/gd32vf103_rcu.c ****         if(RESET != rcu_flag_get(RCU_FLAG_IRC40KSTB)){
 777:./../../firmware/GD32VF103_standard_peripheral/Source/gd32vf103_rcu.c ****             reval = SUCCESS;
 778:./../../firmware/GD32VF103_standard_peripheral/Source/gd32vf103_rcu.c ****         }
 779:./../../firmware/GD32VF103_standard_peripheral/Source/gd32vf103_rcu.c ****         break;
 780:./../../firmware/GD32VF103_standard_peripheral/Source/gd32vf103_rcu.c **** 
 781:./../../firmware/GD32VF103_standard_peripheral/Source/gd32vf103_rcu.c ****     /* wait PLL stable */
 782:./../../firmware/GD32VF103_standard_peripheral/Source/gd32vf103_rcu.c ****     case RCU_PLL_CK:
 783:./../../firmware/GD32VF103_standard_peripheral/Source/gd32vf103_rcu.c ****         while((RESET == osci_stat) && (OSC_STARTUP_TIMEOUT != stb_cnt)){
 784:./../../firmware/GD32VF103_standard_peripheral/Source/gd32vf103_rcu.c ****             osci_stat = rcu_flag_get(RCU_FLAG_PLLSTB);
 785:./../../firmware/GD32VF103_standard_peripheral/Source/gd32vf103_rcu.c ****             stb_cnt++;
 786:./../../firmware/GD32VF103_standard_peripheral/Source/gd32vf103_rcu.c ****         }
 787:./../../firmware/GD32VF103_standard_peripheral/Source/gd32vf103_rcu.c **** 
 788:./../../firmware/GD32VF103_standard_peripheral/Source/gd32vf103_rcu.c ****         /* check whether flag is set or not */
 789:./../../firmware/GD32VF103_standard_peripheral/Source/gd32vf103_rcu.c ****         if(RESET != rcu_flag_get(RCU_FLAG_PLLSTB)){
 790:./../../firmware/GD32VF103_standard_peripheral/Source/gd32vf103_rcu.c ****             reval = SUCCESS;
 791:./../../firmware/GD32VF103_standard_peripheral/Source/gd32vf103_rcu.c ****         }
 792:./../../firmware/GD32VF103_standard_peripheral/Source/gd32vf103_rcu.c ****         break;
 793:./../../firmware/GD32VF103_standard_peripheral/Source/gd32vf103_rcu.c ****     /* wait PLL1 stable */
 794:./../../firmware/GD32VF103_standard_peripheral/Source/gd32vf103_rcu.c ****     case RCU_PLL1_CK:
 795:./../../firmware/GD32VF103_standard_peripheral/Source/gd32vf103_rcu.c ****         while((RESET == osci_stat) && (OSC_STARTUP_TIMEOUT != stb_cnt)){
 796:./../../firmware/GD32VF103_standard_peripheral/Source/gd32vf103_rcu.c ****             osci_stat = rcu_flag_get(RCU_FLAG_PLL1STB);
 797:./../../firmware/GD32VF103_standard_peripheral/Source/gd32vf103_rcu.c ****             stb_cnt++;
 798:./../../firmware/GD32VF103_standard_peripheral/Source/gd32vf103_rcu.c ****         }
 799:./../../firmware/GD32VF103_standard_peripheral/Source/gd32vf103_rcu.c **** 
 800:./../../firmware/GD32VF103_standard_peripheral/Source/gd32vf103_rcu.c ****         /* check whether flag is set or not */
 801:./../../firmware/GD32VF103_standard_peripheral/Source/gd32vf103_rcu.c ****         if(RESET != rcu_flag_get(RCU_FLAG_PLL1STB)){
 802:./../../firmware/GD32VF103_standard_peripheral/Source/gd32vf103_rcu.c ****             reval = SUCCESS;
 803:./../../firmware/GD32VF103_standard_peripheral/Source/gd32vf103_rcu.c ****         }
 804:./../../firmware/GD32VF103_standard_peripheral/Source/gd32vf103_rcu.c ****         break;
 805:./../../firmware/GD32VF103_standard_peripheral/Source/gd32vf103_rcu.c ****     /* wait PLL2 stable */
 806:./../../firmware/GD32VF103_standard_peripheral/Source/gd32vf103_rcu.c ****     case RCU_PLL2_CK:
 807:./../../firmware/GD32VF103_standard_peripheral/Source/gd32vf103_rcu.c ****         while((RESET == osci_stat) && (OSC_STARTUP_TIMEOUT != stb_cnt)){
 808:./../../firmware/GD32VF103_standard_peripheral/Source/gd32vf103_rcu.c ****             osci_stat = rcu_flag_get(RCU_FLAG_PLL2STB);
 809:./../../firmware/GD32VF103_standard_peripheral/Source/gd32vf103_rcu.c ****             stb_cnt++;
 810:./../../firmware/GD32VF103_standard_peripheral/Source/gd32vf103_rcu.c ****         }
 811:./../../firmware/GD32VF103_standard_peripheral/Source/gd32vf103_rcu.c **** 
 812:./../../firmware/GD32VF103_standard_peripheral/Source/gd32vf103_rcu.c ****         /* check whether flag is set or not */
 813:./../../firmware/GD32VF103_standard_peripheral/Source/gd32vf103_rcu.c ****         if(RESET != rcu_flag_get(RCU_FLAG_PLL2STB)){
 814:./../../firmware/GD32VF103_standard_peripheral/Source/gd32vf103_rcu.c ****             reval = SUCCESS;
 815:./../../firmware/GD32VF103_standard_peripheral/Source/gd32vf103_rcu.c ****         }
 816:./../../firmware/GD32VF103_standard_peripheral/Source/gd32vf103_rcu.c ****         break;
 817:./../../firmware/GD32VF103_standard_peripheral/Source/gd32vf103_rcu.c **** 
 818:./../../firmware/GD32VF103_standard_peripheral/Source/gd32vf103_rcu.c ****     default:
 819:./../../firmware/GD32VF103_standard_peripheral/Source/gd32vf103_rcu.c ****         break;
 820:./../../firmware/GD32VF103_standard_peripheral/Source/gd32vf103_rcu.c ****     }
 821:./../../firmware/GD32VF103_standard_peripheral/Source/gd32vf103_rcu.c **** 
 822:./../../firmware/GD32VF103_standard_peripheral/Source/gd32vf103_rcu.c ****     /* return value */
 823:./../../firmware/GD32VF103_standard_peripheral/Source/gd32vf103_rcu.c ****     return reval;
 824:./../../firmware/GD32VF103_standard_peripheral/Source/gd32vf103_rcu.c **** }
 922              		.loc 1 824 1
 923 0022 B240     		lw	ra,12(sp)
 924              		.cfi_remember_state
 925              		.cfi_restore 1
GAS LISTING C:\Users\Karzan\AppData\Local\Temp\cc0WDOsQ.s 			page 31


 926 0024 2244     		lw	s0,8(sp)
 927              		.cfi_restore 8
 928 0026 9244     		lw	s1,4(sp)
 929              		.cfi_restore 9
 930 0028 4101     		addi	sp,sp,16
 931              	.LCFI1:
 932              		.cfi_def_cfa_offset 0
 933 002a 8280     		jr	ra
 934              	.LVL80:
 935              	.L39:
 936              	.LCFI2:
 937              		.cfi_restore_state
 728:./../../firmware/GD32VF103_standard_peripheral/Source/gd32vf103_rcu.c ****     /* wait HXTAL stable */
 938              		.loc 1 728 5
 939 002c 93070580 		addi	a5,a0,-2048
 940 0030 A1CB     		beq	a5,zero,.L58
 941 0032 8567     		li	a5,4096
 942 0034 13870790 		addi	a4,a5,-1792
 943 0038 6302E508 		beq	a0,a4,.L59
 944 003c F147     		li	a5,28
 945 003e E311F5FE 		bne	a0,a5,.L70
 946 0042 37041000 		li	s0,1048576
 947 0046 7D14     		addi	s0,s0,-1
 948              	.LVL81:
 949              	.L46:
 808:./../../firmware/GD32VF103_standard_peripheral/Source/gd32vf103_rcu.c ****             stb_cnt++;
 950              		.loc 1 808 13 is_stmt 1
 808:./../../firmware/GD32VF103_standard_peripheral/Source/gd32vf103_rcu.c ****             stb_cnt++;
 951              		.loc 1 808 25 is_stmt 0
 952 0048 7545     		li	a0,29
 953 004a 97000000 		call	rcu_flag_get
 953      E7800000 
 954              	.LVL82:
 809:./../../firmware/GD32VF103_standard_peripheral/Source/gd32vf103_rcu.c ****         }
 955              		.loc 1 809 13 is_stmt 1
 807:./../../firmware/GD32VF103_standard_peripheral/Source/gd32vf103_rcu.c ****             osci_stat = rcu_flag_get(RCU_FLAG_PLL2STB);
 956              		.loc 1 807 14 is_stmt 0
 957 0052 19E1     		bne	a0,zero,.L53
 958 0054 7D14     		addi	s0,s0,-1
 959              	.LVL83:
 807:./../../firmware/GD32VF103_standard_peripheral/Source/gd32vf103_rcu.c ****             osci_stat = rcu_flag_get(RCU_FLAG_PLL2STB);
 960              		.loc 1 807 36 discriminator 1
 961 0056 6DF8     		bne	s0,zero,.L46
 962              	.LVL84:
 963              	.L53:
 813:./../../firmware/GD32VF103_standard_peripheral/Source/gd32vf103_rcu.c ****             reval = SUCCESS;
 964              		.loc 1 813 9 is_stmt 1
 813:./../../firmware/GD32VF103_standard_peripheral/Source/gd32vf103_rcu.c ****             reval = SUCCESS;
 965              		.loc 1 813 21 is_stmt 0
 966 0058 7545     		li	a0,29
 967              	.LVL85:
 968 005a 21A8     		j	.L69
 969              	.LVL86:
 970              	.L55:
 728:./../../firmware/GD32VF103_standard_peripheral/Source/gd32vf103_rcu.c ****     /* wait HXTAL stable */
 971              		.loc 1 728 5
 972 005c 4164     		li	s0,65536
GAS LISTING C:\Users\Karzan\AppData\Local\Temp\cc0WDOsQ.s 			page 32


 973 005e 7D14     		addi	s0,s0,-1
 974              	.LVL87:
 975              	.L40:
 732:./../../firmware/GD32VF103_standard_peripheral/Source/gd32vf103_rcu.c ****             stb_cnt++;
 976              		.loc 1 732 13 is_stmt 1
 732:./../../firmware/GD32VF103_standard_peripheral/Source/gd32vf103_rcu.c ****             stb_cnt++;
 977              		.loc 1 732 25 is_stmt 0
 978 0060 4545     		li	a0,17
 979 0062 97000000 		call	rcu_flag_get
 979      E7800000 
 980              	.LVL88:
 733:./../../firmware/GD32VF103_standard_peripheral/Source/gd32vf103_rcu.c ****         }
 981              		.loc 1 733 13 is_stmt 1
 731:./../../firmware/GD32VF103_standard_peripheral/Source/gd32vf103_rcu.c ****             osci_stat = rcu_flag_get(RCU_FLAG_HXTALSTB);
 982              		.loc 1 731 14 is_stmt 0
 983 006a 19E1     		bne	a0,zero,.L47
 984 006c 7D14     		addi	s0,s0,-1
 985              	.LVL89:
 731:./../../firmware/GD32VF103_standard_peripheral/Source/gd32vf103_rcu.c ****             osci_stat = rcu_flag_get(RCU_FLAG_HXTALSTB);
 986              		.loc 1 731 36 discriminator 1
 987 006e 6DF8     		bne	s0,zero,.L40
 988              	.LVL90:
 989              	.L47:
 737:./../../firmware/GD32VF103_standard_peripheral/Source/gd32vf103_rcu.c ****             reval = SUCCESS;
 990              		.loc 1 737 9 is_stmt 1
 737:./../../firmware/GD32VF103_standard_peripheral/Source/gd32vf103_rcu.c ****             reval = SUCCESS;
 991              		.loc 1 737 21 is_stmt 0
 992 0070 4545     		li	a0,17
 993              	.LVL91:
 994              	.L69:
 813:./../../firmware/GD32VF103_standard_peripheral/Source/gd32vf103_rcu.c ****             reval = SUCCESS;
 995              		.loc 1 813 21
 996 0072 97000000 		call	rcu_flag_get
 996      E7800000 
 997              	.LVL92:
 813:./../../firmware/GD32VF103_standard_peripheral/Source/gd32vf103_rcu.c ****             reval = SUCCESS;
 998              		.loc 1 813 11
 999 007a 3335A000 		snez	a0,a0
 1000              	.LVL93:
 823:./../../firmware/GD32VF103_standard_peripheral/Source/gd32vf103_rcu.c **** }
 1001              		.loc 1 823 5 is_stmt 1
 823:./../../firmware/GD32VF103_standard_peripheral/Source/gd32vf103_rcu.c **** }
 1002              		.loc 1 823 12 is_stmt 0
 1003 007e 55B7     		j	.L37
 1004              	.LVL94:
 1005              	.L58:
 728:./../../firmware/GD32VF103_standard_peripheral/Source/gd32vf103_rcu.c ****     /* wait HXTAL stable */
 1006              		.loc 1 728 5
 1007 0080 37040004 		li	s0,67108864
 745:./../../firmware/GD32VF103_standard_peripheral/Source/gd32vf103_rcu.c ****             stb_cnt++;
 1008              		.loc 1 745 25
 1009 0084 8564     		li	s1,4096
 728:./../../firmware/GD32VF103_standard_peripheral/Source/gd32vf103_rcu.c ****     /* wait HXTAL stable */
 1010              		.loc 1 728 5
 1011 0086 7D14     		addi	s0,s0,-1
 745:./../../firmware/GD32VF103_standard_peripheral/Source/gd32vf103_rcu.c ****             stb_cnt++;
 1012              		.loc 1 745 25
GAS LISTING C:\Users\Karzan\AppData\Local\Temp\cc0WDOsQ.s 			page 33


 1013 0088 93841480 		addi	s1,s1,-2047
 1014              	.LVL95:
 1015              	.L44:
 745:./../../firmware/GD32VF103_standard_peripheral/Source/gd32vf103_rcu.c ****             stb_cnt++;
 1016              		.loc 1 745 13 is_stmt 1
 745:./../../firmware/GD32VF103_standard_peripheral/Source/gd32vf103_rcu.c ****             stb_cnt++;
 1017              		.loc 1 745 25 is_stmt 0
 1018 008c 2685     		mv	a0,s1
 1019 008e 97000000 		call	rcu_flag_get
 1019      E7800000 
 1020              	.LVL96:
 746:./../../firmware/GD32VF103_standard_peripheral/Source/gd32vf103_rcu.c ****         }
 1021              		.loc 1 746 13 is_stmt 1
 744:./../../firmware/GD32VF103_standard_peripheral/Source/gd32vf103_rcu.c ****             osci_stat = rcu_flag_get(RCU_FLAG_LXTALSTB);
 1022              		.loc 1 744 14 is_stmt 0
 1023 0096 19E1     		bne	a0,zero,.L48
 1024 0098 7D14     		addi	s0,s0,-1
 1025              	.LVL97:
 744:./../../firmware/GD32VF103_standard_peripheral/Source/gd32vf103_rcu.c ****             osci_stat = rcu_flag_get(RCU_FLAG_LXTALSTB);
 1026              		.loc 1 744 36 discriminator 1
 1027 009a 6DF8     		bne	s0,zero,.L44
 1028              	.LVL98:
 1029              	.L48:
 750:./../../firmware/GD32VF103_standard_peripheral/Source/gd32vf103_rcu.c ****             reval = SUCCESS;
 1030              		.loc 1 750 9 is_stmt 1
 750:./../../firmware/GD32VF103_standard_peripheral/Source/gd32vf103_rcu.c ****             reval = SUCCESS;
 1031              		.loc 1 750 21 is_stmt 0
 1032 009c 0565     		li	a0,4096
 1033              	.LVL99:
 1034 009e 13051580 		addi	a0,a0,-2047
 1035 00a2 C1BF     		j	.L69
 1036              	.LVL100:
 1037              	.L57:
 728:./../../firmware/GD32VF103_standard_peripheral/Source/gd32vf103_rcu.c ****     /* wait HXTAL stable */
 1038              		.loc 1 728 5
 1039 00a4 13040050 		li	s0,1280
 1040              	.LVL101:
 1041              	.L42:
 758:./../../firmware/GD32VF103_standard_peripheral/Source/gd32vf103_rcu.c ****             stb_cnt++;
 1042              		.loc 1 758 13 is_stmt 1
 758:./../../firmware/GD32VF103_standard_peripheral/Source/gd32vf103_rcu.c ****             stb_cnt++;
 1043              		.loc 1 758 25 is_stmt 0
 1044 00a8 0545     		li	a0,1
 1045 00aa 97000000 		call	rcu_flag_get
 1045      E7800000 
 1046              	.LVL102:
 759:./../../firmware/GD32VF103_standard_peripheral/Source/gd32vf103_rcu.c ****         }
 1047              		.loc 1 759 13 is_stmt 1
 757:./../../firmware/GD32VF103_standard_peripheral/Source/gd32vf103_rcu.c ****             osci_stat = rcu_flag_get(RCU_FLAG_IRC8MSTB);
 1048              		.loc 1 757 14 is_stmt 0
 1049 00b2 19E1     		bne	a0,zero,.L49
 1050 00b4 7D14     		addi	s0,s0,-1
 1051              	.LVL103:
 757:./../../firmware/GD32VF103_standard_peripheral/Source/gd32vf103_rcu.c ****             osci_stat = rcu_flag_get(RCU_FLAG_IRC8MSTB);
 1052              		.loc 1 757 36 discriminator 1
 1053 00b6 6DF8     		bne	s0,zero,.L42
 1054              	.LVL104:
GAS LISTING C:\Users\Karzan\AppData\Local\Temp\cc0WDOsQ.s 			page 34


 1055              	.L49:
 763:./../../firmware/GD32VF103_standard_peripheral/Source/gd32vf103_rcu.c ****             reval = SUCCESS;
 1056              		.loc 1 763 9 is_stmt 1
 763:./../../firmware/GD32VF103_standard_peripheral/Source/gd32vf103_rcu.c ****             reval = SUCCESS;
 1057              		.loc 1 763 21 is_stmt 0
 1058 00b8 0545     		li	a0,1
 1059              	.LVL105:
 1060 00ba 65BF     		j	.L69
 1061              	.LVL106:
 1062              	.L59:
 728:./../../firmware/GD32VF103_standard_peripheral/Source/gd32vf103_rcu.c ****     /* wait HXTAL stable */
 1063              		.loc 1 728 5
 1064 00bc 37041000 		li	s0,1048576
 1065 00c0 7D14     		addi	s0,s0,-1
 771:./../../firmware/GD32VF103_standard_peripheral/Source/gd32vf103_rcu.c ****             stb_cnt++;
 1066              		.loc 1 771 25
 1067 00c2 93841790 		addi	s1,a5,-1791
 1068              	.LVL107:
 1069              	.L45:
 771:./../../firmware/GD32VF103_standard_peripheral/Source/gd32vf103_rcu.c ****             stb_cnt++;
 1070              		.loc 1 771 13 is_stmt 1
 771:./../../firmware/GD32VF103_standard_peripheral/Source/gd32vf103_rcu.c ****             stb_cnt++;
 1071              		.loc 1 771 25 is_stmt 0
 1072 00c6 2685     		mv	a0,s1
 1073 00c8 97000000 		call	rcu_flag_get
 1073      E7800000 
 1074              	.LVL108:
 772:./../../firmware/GD32VF103_standard_peripheral/Source/gd32vf103_rcu.c ****         }
 1075              		.loc 1 772 13 is_stmt 1
 770:./../../firmware/GD32VF103_standard_peripheral/Source/gd32vf103_rcu.c ****             osci_stat = rcu_flag_get(RCU_FLAG_IRC40KSTB);
 1076              		.loc 1 770 14 is_stmt 0
 1077 00d0 19E1     		bne	a0,zero,.L50
 1078 00d2 7D14     		addi	s0,s0,-1
 1079              	.LVL109:
 770:./../../firmware/GD32VF103_standard_peripheral/Source/gd32vf103_rcu.c ****             osci_stat = rcu_flag_get(RCU_FLAG_IRC40KSTB);
 1080              		.loc 1 770 36 discriminator 1
 1081 00d4 6DF8     		bne	s0,zero,.L45
 1082              	.LVL110:
 1083              	.L50:
 776:./../../firmware/GD32VF103_standard_peripheral/Source/gd32vf103_rcu.c ****             reval = SUCCESS;
 1084              		.loc 1 776 9 is_stmt 1
 776:./../../firmware/GD32VF103_standard_peripheral/Source/gd32vf103_rcu.c ****             reval = SUCCESS;
 1085              		.loc 1 776 21 is_stmt 0
 1086 00d6 0565     		li	a0,4096
 1087              	.LVL111:
 1088 00d8 13051590 		addi	a0,a0,-1791
 1089 00dc 59BF     		j	.L69
 1090              	.LVL112:
 1091              	.L56:
 728:./../../firmware/GD32VF103_standard_peripheral/Source/gd32vf103_rcu.c ****     /* wait HXTAL stable */
 1092              		.loc 1 728 5
 1093 00de 37041000 		li	s0,1048576
 1094 00e2 7D14     		addi	s0,s0,-1
 1095              	.LVL113:
 1096              	.L41:
 784:./../../firmware/GD32VF103_standard_peripheral/Source/gd32vf103_rcu.c ****             stb_cnt++;
 1097              		.loc 1 784 13 is_stmt 1
GAS LISTING C:\Users\Karzan\AppData\Local\Temp\cc0WDOsQ.s 			page 35


 784:./../../firmware/GD32VF103_standard_peripheral/Source/gd32vf103_rcu.c ****             stb_cnt++;
 1098              		.loc 1 784 25 is_stmt 0
 1099 00e4 6545     		li	a0,25
 1100 00e6 97000000 		call	rcu_flag_get
 1100      E7800000 
 1101              	.LVL114:
 785:./../../firmware/GD32VF103_standard_peripheral/Source/gd32vf103_rcu.c ****         }
 1102              		.loc 1 785 13 is_stmt 1
 783:./../../firmware/GD32VF103_standard_peripheral/Source/gd32vf103_rcu.c ****             osci_stat = rcu_flag_get(RCU_FLAG_PLLSTB);
 1103              		.loc 1 783 14 is_stmt 0
 1104 00ee 19E1     		bne	a0,zero,.L51
 1105 00f0 7D14     		addi	s0,s0,-1
 1106              	.LVL115:
 783:./../../firmware/GD32VF103_standard_peripheral/Source/gd32vf103_rcu.c ****             osci_stat = rcu_flag_get(RCU_FLAG_PLLSTB);
 1107              		.loc 1 783 36 discriminator 1
 1108 00f2 6DF8     		bne	s0,zero,.L41
 1109              	.LVL116:
 1110              	.L51:
 789:./../../firmware/GD32VF103_standard_peripheral/Source/gd32vf103_rcu.c ****             reval = SUCCESS;
 1111              		.loc 1 789 9 is_stmt 1
 789:./../../firmware/GD32VF103_standard_peripheral/Source/gd32vf103_rcu.c ****             reval = SUCCESS;
 1112              		.loc 1 789 21 is_stmt 0
 1113 00f4 6545     		li	a0,25
 1114              	.LVL117:
 1115 00f6 B5BF     		j	.L69
 1116              	.LVL118:
 1117              	.L54:
 728:./../../firmware/GD32VF103_standard_peripheral/Source/gd32vf103_rcu.c ****     /* wait HXTAL stable */
 1118              		.loc 1 728 5
 1119 00f8 37041000 		li	s0,1048576
 1120 00fc 7D14     		addi	s0,s0,-1
 1121              	.LVL119:
 1122              	.L38:
 796:./../../firmware/GD32VF103_standard_peripheral/Source/gd32vf103_rcu.c ****             stb_cnt++;
 1123              		.loc 1 796 13 is_stmt 1
 796:./../../firmware/GD32VF103_standard_peripheral/Source/gd32vf103_rcu.c ****             stb_cnt++;
 1124              		.loc 1 796 25 is_stmt 0
 1125 00fe 6D45     		li	a0,27
 1126 0100 97000000 		call	rcu_flag_get
 1126      E7800000 
 1127              	.LVL120:
 797:./../../firmware/GD32VF103_standard_peripheral/Source/gd32vf103_rcu.c ****         }
 1128              		.loc 1 797 13 is_stmt 1
 795:./../../firmware/GD32VF103_standard_peripheral/Source/gd32vf103_rcu.c ****             osci_stat = rcu_flag_get(RCU_FLAG_PLL1STB);
 1129              		.loc 1 795 14 is_stmt 0
 1130 0108 19E1     		bne	a0,zero,.L52
 1131 010a 7D14     		addi	s0,s0,-1
 1132              	.LVL121:
 795:./../../firmware/GD32VF103_standard_peripheral/Source/gd32vf103_rcu.c ****             osci_stat = rcu_flag_get(RCU_FLAG_PLL1STB);
 1133              		.loc 1 795 36 discriminator 1
 1134 010c 6DF8     		bne	s0,zero,.L38
 1135              	.LVL122:
 1136              	.L52:
 801:./../../firmware/GD32VF103_standard_peripheral/Source/gd32vf103_rcu.c ****             reval = SUCCESS;
 1137              		.loc 1 801 9 is_stmt 1
 801:./../../firmware/GD32VF103_standard_peripheral/Source/gd32vf103_rcu.c ****             reval = SUCCESS;
 1138              		.loc 1 801 21 is_stmt 0
GAS LISTING C:\Users\Karzan\AppData\Local\Temp\cc0WDOsQ.s 			page 36


 1139 010e 6D45     		li	a0,27
 1140              	.LVL123:
 1141 0110 8DB7     		j	.L69
 1142              		.cfi_endproc
 1143              	.LFE33:
 1145              		.section	.text.rcu_deinit,"ax",@progbits
 1146              		.align	1
 1147              		.globl	rcu_deinit
 1149              	rcu_deinit:
 1150              	.LFB2:
  54:./../../firmware/GD32VF103_standard_peripheral/Source/gd32vf103_rcu.c ****     /* enable IRC8M */
 1151              		.loc 1 54 1 is_stmt 1
 1152              		.cfi_startproc
  56:./../../firmware/GD32VF103_standard_peripheral/Source/gd32vf103_rcu.c ****     rcu_osci_stab_wait(RCU_IRC8M);
 1153              		.loc 1 56 5
  54:./../../firmware/GD32VF103_standard_peripheral/Source/gd32vf103_rcu.c ****     /* enable IRC8M */
 1154              		.loc 1 54 1 is_stmt 0
 1155 0000 4111     		addi	sp,sp,-16
 1156              	.LCFI3:
 1157              		.cfi_def_cfa_offset 16
 1158 0002 22C4     		sw	s0,8(sp)
 1159              		.cfi_offset 8, -8
  56:./../../firmware/GD32VF103_standard_peripheral/Source/gd32vf103_rcu.c ****     rcu_osci_stab_wait(RCU_IRC8M);
 1160              		.loc 1 56 13
 1161 0004 37140240 		li	s0,1073876992
 1162 0008 1C40     		lw	a5,0(s0)
  54:./../../firmware/GD32VF103_standard_peripheral/Source/gd32vf103_rcu.c ****     /* enable IRC8M */
 1163              		.loc 1 54 1
 1164 000a 06C6     		sw	ra,12(sp)
 1165              		.cfi_offset 1, -4
  57:./../../firmware/GD32VF103_standard_peripheral/Source/gd32vf103_rcu.c ****     /* reset CTL register */
 1166              		.loc 1 57 5
 1167 000c 0145     		li	a0,0
  56:./../../firmware/GD32VF103_standard_peripheral/Source/gd32vf103_rcu.c ****     rcu_osci_stab_wait(RCU_IRC8M);
 1168              		.loc 1 56 13
 1169 000e 93E71700 		ori	a5,a5,1
 1170 0012 1CC0     		sw	a5,0(s0)
  57:./../../firmware/GD32VF103_standard_peripheral/Source/gd32vf103_rcu.c ****     /* reset CTL register */
 1171              		.loc 1 57 5 is_stmt 1
 1172 0014 97000000 		call	rcu_osci_stab_wait
 1172      E7800000 
 1173              	.LVL124:
  59:./../../firmware/GD32VF103_standard_peripheral/Source/gd32vf103_rcu.c ****     RCU_CTL &= ~RCU_CTL_HXTALBPS;
 1174              		.loc 1 59 5
  59:./../../firmware/GD32VF103_standard_peripheral/Source/gd32vf103_rcu.c ****     RCU_CTL &= ~RCU_CTL_HXTALBPS;
 1175              		.loc 1 59 13 is_stmt 0
 1176 001c 1C40     		lw	a5,0(s0)
 1177 001e 3707F7FE 		li	a4,-17367040
 1178 0022 7D17     		addi	a4,a4,-1
 1179 0024 F98F     		and	a5,a5,a4
 1180 0026 1CC0     		sw	a5,0(s0)
  60:./../../firmware/GD32VF103_standard_peripheral/Source/gd32vf103_rcu.c ****     RCU_CTL &= ~(RCU_CTL_PLL1EN | RCU_CTL_PLL2EN);
 1181              		.loc 1 60 5 is_stmt 1
  60:./../../firmware/GD32VF103_standard_peripheral/Source/gd32vf103_rcu.c ****     RCU_CTL &= ~(RCU_CTL_PLL1EN | RCU_CTL_PLL2EN);
 1182              		.loc 1 60 13 is_stmt 0
 1183 0028 1C40     		lw	a5,0(s0)
 1184 002a 3707FCFF 		li	a4,-262144
GAS LISTING C:\Users\Karzan\AppData\Local\Temp\cc0WDOsQ.s 			page 37


 1185 002e 7D17     		addi	a4,a4,-1
 1186 0030 F98F     		and	a5,a5,a4
 1187 0032 1CC0     		sw	a5,0(s0)
  61:./../../firmware/GD32VF103_standard_peripheral/Source/gd32vf103_rcu.c ****     /* reset CFG0 register */
 1188              		.loc 1 61 5 is_stmt 1
  61:./../../firmware/GD32VF103_standard_peripheral/Source/gd32vf103_rcu.c ****     /* reset CFG0 register */
 1189              		.loc 1 61 13 is_stmt 0
 1190 0034 1C40     		lw	a5,0(s0)
 1191 0036 370700EC 		li	a4,-335544320
 1192 003a 7D17     		addi	a4,a4,-1
 1193 003c F98F     		and	a5,a5,a4
 1194 003e 1CC0     		sw	a5,0(s0)
  63:./../../firmware/GD32VF103_standard_peripheral/Source/gd32vf103_rcu.c ****                   RCU_CFG0_ADCPSC | RCU_CFG0_PLLSEL | RCU_CFG0_PREDV0_LSB | RCU_CFG0_PLLMF |
 1195              		.loc 1 63 5 is_stmt 1
  63:./../../firmware/GD32VF103_standard_peripheral/Source/gd32vf103_rcu.c ****                   RCU_CFG0_ADCPSC | RCU_CFG0_PLLSEL | RCU_CFG0_PREDV0_LSB | RCU_CFG0_PLLMF |
 1196              		.loc 1 63 14 is_stmt 0
 1197 0040 5C40     		lw	a5,4(s0)
 1198 0042 370700C0 		li	a4,-1073741824
 1199 0046 3107     		addi	a4,a4,12
 1200 0048 F98F     		and	a5,a5,a4
 1201 004a 5CC0     		sw	a5,4(s0)
  67:./../../firmware/GD32VF103_standard_peripheral/Source/gd32vf103_rcu.c ****     RCU_CFG1 &= ~(RCU_CFG1_PREDV0 | RCU_CFG1_PREDV1 | RCU_CFG1_PLL1MF | RCU_CFG1_PLL2MF |
 1202              		.loc 1 67 5 is_stmt 1
  67:./../../firmware/GD32VF103_standard_peripheral/Source/gd32vf103_rcu.c ****     RCU_CFG1 &= ~(RCU_CFG1_PREDV0 | RCU_CFG1_PREDV1 | RCU_CFG1_PLL1MF | RCU_CFG1_PLL2MF |
 1203              		.loc 1 67 13 is_stmt 0
 1204 004c B707FF00 		li	a5,16711680
 1205 0050 1CC4     		sw	a5,8(s0)
  68:./../../firmware/GD32VF103_standard_peripheral/Source/gd32vf103_rcu.c ****                   RCU_CFG1_PREDV0SEL | RCU_CFG1_I2S1SEL | RCU_CFG1_I2S2SEL);
 1206              		.loc 1 68 5 is_stmt 1
  68:./../../firmware/GD32VF103_standard_peripheral/Source/gd32vf103_rcu.c ****                   RCU_CFG1_PREDV0SEL | RCU_CFG1_I2S1SEL | RCU_CFG1_I2S2SEL);
 1207              		.loc 1 68 14 is_stmt 0
 1208 0052 5C54     		lw	a5,44(s0)
 1209 0054 3707F8FF 		li	a4,-524288
  70:./../../firmware/GD32VF103_standard_peripheral/Source/gd32vf103_rcu.c **** 
 1210              		.loc 1 70 1
 1211 0058 B240     		lw	ra,12(sp)
 1212              		.cfi_restore 1
  68:./../../firmware/GD32VF103_standard_peripheral/Source/gd32vf103_rcu.c ****                   RCU_CFG1_PREDV0SEL | RCU_CFG1_I2S1SEL | RCU_CFG1_I2S2SEL);
 1213              		.loc 1 68 14
 1214 005a F98F     		and	a5,a5,a4
 1215 005c 5CD4     		sw	a5,44(s0)
  70:./../../firmware/GD32VF103_standard_peripheral/Source/gd32vf103_rcu.c **** 
 1216              		.loc 1 70 1
 1217 005e 2244     		lw	s0,8(sp)
 1218              		.cfi_restore 8
 1219 0060 4101     		addi	sp,sp,16
 1220              	.LCFI4:
 1221              		.cfi_def_cfa_offset 0
 1222 0062 8280     		jr	ra
 1223              		.cfi_endproc
 1224              	.LFE2:
 1226              		.section	.text.rcu_osci_on,"ax",@progbits
 1227              		.align	1
 1228              		.globl	rcu_osci_on
 1230              	rcu_osci_on:
 1231              	.LFB34:
 825:./../../firmware/GD32VF103_standard_peripheral/Source/gd32vf103_rcu.c **** 
GAS LISTING C:\Users\Karzan\AppData\Local\Temp\cc0WDOsQ.s 			page 38


 826:./../../firmware/GD32VF103_standard_peripheral/Source/gd32vf103_rcu.c **** /*!
 827:./../../firmware/GD32VF103_standard_peripheral/Source/gd32vf103_rcu.c ****     \brief      turn on the oscillator
 828:./../../firmware/GD32VF103_standard_peripheral/Source/gd32vf103_rcu.c ****     \param[in]  osci: oscillator types, refer to rcu_osci_type_enum
 829:./../../firmware/GD32VF103_standard_peripheral/Source/gd32vf103_rcu.c ****                 only one parameter can be selected which is shown as below:
 830:./../../firmware/GD32VF103_standard_peripheral/Source/gd32vf103_rcu.c ****       \arg        RCU_HXTAL: high speed crystal oscillator(HXTAL)
 831:./../../firmware/GD32VF103_standard_peripheral/Source/gd32vf103_rcu.c ****       \arg        RCU_LXTAL: low speed crystal oscillator(LXTAL)
 832:./../../firmware/GD32VF103_standard_peripheral/Source/gd32vf103_rcu.c ****       \arg        RCU_IRC8M: internal 8M RC oscillators(IRC8M)
 833:./../../firmware/GD32VF103_standard_peripheral/Source/gd32vf103_rcu.c ****       \arg        RCU_IRC40K: internal 40K RC oscillator(IRC40K)
 834:./../../firmware/GD32VF103_standard_peripheral/Source/gd32vf103_rcu.c ****       \arg        RCU_PLL_CK: phase locked loop(PLL)
 835:./../../firmware/GD32VF103_standard_peripheral/Source/gd32vf103_rcu.c ****       \arg        RCU_PLL1_CK: phase locked loop 1
 836:./../../firmware/GD32VF103_standard_peripheral/Source/gd32vf103_rcu.c ****       \arg        RCU_PLL2_CK: phase locked loop 2
 837:./../../firmware/GD32VF103_standard_peripheral/Source/gd32vf103_rcu.c ****     \param[out] none
 838:./../../firmware/GD32VF103_standard_peripheral/Source/gd32vf103_rcu.c ****     \retval     none
 839:./../../firmware/GD32VF103_standard_peripheral/Source/gd32vf103_rcu.c **** */
 840:./../../firmware/GD32VF103_standard_peripheral/Source/gd32vf103_rcu.c **** void rcu_osci_on(rcu_osci_type_enum osci)
 841:./../../firmware/GD32VF103_standard_peripheral/Source/gd32vf103_rcu.c **** {
 1232              		.loc 1 841 1 is_stmt 1
 1233              		.cfi_startproc
 1234              	.LVL125:
 842:./../../firmware/GD32VF103_standard_peripheral/Source/gd32vf103_rcu.c ****     RCU_REG_VAL(osci) |= BIT(RCU_BIT_POS(osci));
 1235              		.loc 1 842 5
 1236              		.loc 1 842 23 is_stmt 0
 1237 0000 B7170240 		li	a5,1073876992
 1238 0004 13576500 		srli	a4,a0,6
 1239 0008 3E97     		add	a4,a4,a5
 1240 000a 1443     		lw	a3,0(a4)
 1241              		.loc 1 842 26
 1242 000c 8547     		li	a5,1
 1243 000e B397A700 		sll	a5,a5,a0
 1244              		.loc 1 842 23
 1245 0012 D58F     		or	a5,a5,a3
 1246 0014 1CC3     		sw	a5,0(a4)
 843:./../../firmware/GD32VF103_standard_peripheral/Source/gd32vf103_rcu.c **** }
 1247              		.loc 1 843 1
 1248 0016 8280     		ret
 1249              		.cfi_endproc
 1250              	.LFE34:
 1252              		.section	.text.rcu_osci_off,"ax",@progbits
 1253              		.align	1
 1254              		.globl	rcu_osci_off
 1256              	rcu_osci_off:
 1257              	.LFB35:
 844:./../../firmware/GD32VF103_standard_peripheral/Source/gd32vf103_rcu.c **** 
 845:./../../firmware/GD32VF103_standard_peripheral/Source/gd32vf103_rcu.c **** /*!
 846:./../../firmware/GD32VF103_standard_peripheral/Source/gd32vf103_rcu.c ****     \brief      turn off the oscillator
 847:./../../firmware/GD32VF103_standard_peripheral/Source/gd32vf103_rcu.c ****     \param[in]  osci: oscillator types, refer to rcu_osci_type_enum
 848:./../../firmware/GD32VF103_standard_peripheral/Source/gd32vf103_rcu.c ****                 only one parameter can be selected which is shown as below:
 849:./../../firmware/GD32VF103_standard_peripheral/Source/gd32vf103_rcu.c ****       \arg        RCU_HXTAL: high speed crystal oscillator(HXTAL)
 850:./../../firmware/GD32VF103_standard_peripheral/Source/gd32vf103_rcu.c ****       \arg        RCU_LXTAL: low speed crystal oscillator(LXTAL)
 851:./../../firmware/GD32VF103_standard_peripheral/Source/gd32vf103_rcu.c ****       \arg        RCU_IRC8M: internal 8M RC oscillators(IRC8M)
 852:./../../firmware/GD32VF103_standard_peripheral/Source/gd32vf103_rcu.c ****       \arg        RCU_IRC40K: internal 40K RC oscillator(IRC40K)
 853:./../../firmware/GD32VF103_standard_peripheral/Source/gd32vf103_rcu.c ****       \arg        RCU_PLL_CK: phase locked loop(PLL)
 854:./../../firmware/GD32VF103_standard_peripheral/Source/gd32vf103_rcu.c ****       \arg        RCU_PLL1_CK: phase locked loop 1
 855:./../../firmware/GD32VF103_standard_peripheral/Source/gd32vf103_rcu.c ****       \arg        RCU_PLL2_CK: phase locked loop 2
 856:./../../firmware/GD32VF103_standard_peripheral/Source/gd32vf103_rcu.c ****     \param[out] none
 857:./../../firmware/GD32VF103_standard_peripheral/Source/gd32vf103_rcu.c ****     \retval     none
 858:./../../firmware/GD32VF103_standard_peripheral/Source/gd32vf103_rcu.c **** */
GAS LISTING C:\Users\Karzan\AppData\Local\Temp\cc0WDOsQ.s 			page 39


 859:./../../firmware/GD32VF103_standard_peripheral/Source/gd32vf103_rcu.c **** void rcu_osci_off(rcu_osci_type_enum osci)
 860:./../../firmware/GD32VF103_standard_peripheral/Source/gd32vf103_rcu.c **** {
 1258              		.loc 1 860 1 is_stmt 1
 1259              		.cfi_startproc
 1260              	.LVL126:
 861:./../../firmware/GD32VF103_standard_peripheral/Source/gd32vf103_rcu.c ****     RCU_REG_VAL(osci) &= ~BIT(RCU_BIT_POS(osci));
 1261              		.loc 1 861 5
 1262              		.loc 1 861 23 is_stmt 0
 1263 0000 B7170240 		li	a5,1073876992
 1264 0004 13576500 		srli	a4,a0,6
 1265 0008 3E97     		add	a4,a4,a5
 1266 000a 1443     		lw	a3,0(a4)
 1267              		.loc 1 861 27
 1268 000c 8547     		li	a5,1
 1269 000e B397A700 		sll	a5,a5,a0
 1270              		.loc 1 861 26
 1271 0012 93C7F7FF 		not	a5,a5
 1272              		.loc 1 861 23
 1273 0016 F58F     		and	a5,a5,a3
 1274 0018 1CC3     		sw	a5,0(a4)
 862:./../../firmware/GD32VF103_standard_peripheral/Source/gd32vf103_rcu.c **** }
 1275              		.loc 1 862 1
 1276 001a 8280     		ret
 1277              		.cfi_endproc
 1278              	.LFE35:
 1280              		.section	.text.rcu_osci_bypass_mode_enable,"ax",@progbits
 1281              		.align	1
 1282              		.globl	rcu_osci_bypass_mode_enable
 1284              	rcu_osci_bypass_mode_enable:
 1285              	.LFB36:
 863:./../../firmware/GD32VF103_standard_peripheral/Source/gd32vf103_rcu.c **** 
 864:./../../firmware/GD32VF103_standard_peripheral/Source/gd32vf103_rcu.c **** /*!
 865:./../../firmware/GD32VF103_standard_peripheral/Source/gd32vf103_rcu.c ****     \brief      enable the oscillator bypass mode, HXTALEN or LXTALEN must be reset before it
 866:./../../firmware/GD32VF103_standard_peripheral/Source/gd32vf103_rcu.c ****     \param[in]  osci: oscillator types, refer to rcu_osci_type_enum
 867:./../../firmware/GD32VF103_standard_peripheral/Source/gd32vf103_rcu.c ****                 only one parameter can be selected which is shown as below:
 868:./../../firmware/GD32VF103_standard_peripheral/Source/gd32vf103_rcu.c ****       \arg        RCU_HXTAL: high speed crystal oscillator(HXTAL)
 869:./../../firmware/GD32VF103_standard_peripheral/Source/gd32vf103_rcu.c ****       \arg        RCU_LXTAL: low speed crystal oscillator(LXTAL)
 870:./../../firmware/GD32VF103_standard_peripheral/Source/gd32vf103_rcu.c ****     \param[out] none
 871:./../../firmware/GD32VF103_standard_peripheral/Source/gd32vf103_rcu.c ****     \retval     none
 872:./../../firmware/GD32VF103_standard_peripheral/Source/gd32vf103_rcu.c **** */
 873:./../../firmware/GD32VF103_standard_peripheral/Source/gd32vf103_rcu.c **** void rcu_osci_bypass_mode_enable(rcu_osci_type_enum osci)
 874:./../../firmware/GD32VF103_standard_peripheral/Source/gd32vf103_rcu.c **** {
 1286              		.loc 1 874 1 is_stmt 1
 1287              		.cfi_startproc
 1288              	.LVL127:
 875:./../../firmware/GD32VF103_standard_peripheral/Source/gd32vf103_rcu.c ****     uint32_t reg;
 1289              		.loc 1 875 5
 876:./../../firmware/GD32VF103_standard_peripheral/Source/gd32vf103_rcu.c **** 
 877:./../../firmware/GD32VF103_standard_peripheral/Source/gd32vf103_rcu.c ****     switch(osci){
 1290              		.loc 1 877 5
 1291 0000 C147     		li	a5,16
 1292 0002 6306F500 		beq	a0,a5,.L76
 1293 0006 13050580 		addi	a0,a0,-2048
 1294              	.LVL128:
 1295 000a 19CD     		beq	a0,zero,.L77
 1296 000c 8280     		ret
 1297              	.LVL129:
GAS LISTING C:\Users\Karzan\AppData\Local\Temp\cc0WDOsQ.s 			page 40


 1298              	.L76:
 878:./../../firmware/GD32VF103_standard_peripheral/Source/gd32vf103_rcu.c ****     /* enable HXTAL to bypass mode */
 879:./../../firmware/GD32VF103_standard_peripheral/Source/gd32vf103_rcu.c ****     case RCU_HXTAL:
 880:./../../firmware/GD32VF103_standard_peripheral/Source/gd32vf103_rcu.c ****         reg = RCU_CTL;
 1299              		.loc 1 880 9
 1300              		.loc 1 880 13 is_stmt 0
 1301 000e B7170240 		li	a5,1073876992
 1302 0012 9843     		lw	a4,0(a5)
 1303              	.LVL130:
 881:./../../firmware/GD32VF103_standard_peripheral/Source/gd32vf103_rcu.c ****         RCU_CTL &= ~RCU_CTL_HXTALEN;
 1304              		.loc 1 881 9 is_stmt 1
 1305              		.loc 1 881 17 is_stmt 0
 1306 0014 9443     		lw	a3,0(a5)
 1307 0016 4176     		li	a2,-65536
 1308 0018 7D16     		addi	a2,a2,-1
 1309 001a F18E     		and	a3,a3,a2
 1310 001c 94C3     		sw	a3,0(a5)
 882:./../../firmware/GD32VF103_standard_peripheral/Source/gd32vf103_rcu.c ****         RCU_CTL = (reg | RCU_CTL_HXTALBPS);
 1311              		.loc 1 882 9 is_stmt 1
 1312              		.loc 1 882 24 is_stmt 0
 1313 001e B7060400 		li	a3,262144
 1314 0022 558F     		or	a4,a4,a3
 1315              	.LVL131:
 1316              		.loc 1 882 17
 1317 0024 98C3     		sw	a4,0(a5)
 883:./../../firmware/GD32VF103_standard_peripheral/Source/gd32vf103_rcu.c ****         break;
 1318              		.loc 1 883 9 is_stmt 1
 1319 0026 8280     		ret
 1320              	.LVL132:
 1321              	.L77:
 884:./../../firmware/GD32VF103_standard_peripheral/Source/gd32vf103_rcu.c ****     /* enable LXTAL to bypass mode */
 885:./../../firmware/GD32VF103_standard_peripheral/Source/gd32vf103_rcu.c ****     case RCU_LXTAL:
 886:./../../firmware/GD32VF103_standard_peripheral/Source/gd32vf103_rcu.c ****         reg = RCU_BDCTL;
 1322              		.loc 1 886 9
 1323              		.loc 1 886 13 is_stmt 0
 1324 0028 B7170240 		li	a5,1073876992
 1325 002c 9853     		lw	a4,32(a5)
 1326              	.LVL133:
 887:./../../firmware/GD32VF103_standard_peripheral/Source/gd32vf103_rcu.c ****         RCU_BDCTL &= ~RCU_BDCTL_LXTALEN;
 1327              		.loc 1 887 9 is_stmt 1
 1328              		.loc 1 887 19 is_stmt 0
 1329 002e 9453     		lw	a3,32(a5)
 888:./../../firmware/GD32VF103_standard_peripheral/Source/gd32vf103_rcu.c ****         RCU_BDCTL = (reg | RCU_BDCTL_LXTALBPS);
 1330              		.loc 1 888 26
 1331 0030 13674700 		ori	a4,a4,4
 1332              	.LVL134:
 887:./../../firmware/GD32VF103_standard_peripheral/Source/gd32vf103_rcu.c ****         RCU_BDCTL &= ~RCU_BDCTL_LXTALEN;
 1333              		.loc 1 887 19
 1334 0034 F99A     		andi	a3,a3,-2
 1335 0036 94D3     		sw	a3,32(a5)
 1336              		.loc 1 888 9 is_stmt 1
 1337              		.loc 1 888 19 is_stmt 0
 1338 0038 98D3     		sw	a4,32(a5)
 889:./../../firmware/GD32VF103_standard_peripheral/Source/gd32vf103_rcu.c ****         break;
 1339              		.loc 1 889 9 is_stmt 1
 890:./../../firmware/GD32VF103_standard_peripheral/Source/gd32vf103_rcu.c ****     case RCU_IRC8M:
 891:./../../firmware/GD32VF103_standard_peripheral/Source/gd32vf103_rcu.c ****     case RCU_IRC40K:
GAS LISTING C:\Users\Karzan\AppData\Local\Temp\cc0WDOsQ.s 			page 41


 892:./../../firmware/GD32VF103_standard_peripheral/Source/gd32vf103_rcu.c ****     case RCU_PLL_CK:
 893:./../../firmware/GD32VF103_standard_peripheral/Source/gd32vf103_rcu.c ****     case RCU_PLL1_CK:
 894:./../../firmware/GD32VF103_standard_peripheral/Source/gd32vf103_rcu.c ****     case RCU_PLL2_CK:
 895:./../../firmware/GD32VF103_standard_peripheral/Source/gd32vf103_rcu.c ****         break;
 896:./../../firmware/GD32VF103_standard_peripheral/Source/gd32vf103_rcu.c ****     default:
 897:./../../firmware/GD32VF103_standard_peripheral/Source/gd32vf103_rcu.c ****         break;
 898:./../../firmware/GD32VF103_standard_peripheral/Source/gd32vf103_rcu.c ****     }
 899:./../../firmware/GD32VF103_standard_peripheral/Source/gd32vf103_rcu.c **** }
 1340              		.loc 1 899 1 is_stmt 0
 1341 003a 8280     		ret
 1342              		.cfi_endproc
 1343              	.LFE36:
 1345              		.section	.text.rcu_osci_bypass_mode_disable,"ax",@progbits
 1346              		.align	1
 1347              		.globl	rcu_osci_bypass_mode_disable
 1349              	rcu_osci_bypass_mode_disable:
 1350              	.LFB37:
 900:./../../firmware/GD32VF103_standard_peripheral/Source/gd32vf103_rcu.c **** 
 901:./../../firmware/GD32VF103_standard_peripheral/Source/gd32vf103_rcu.c **** /*!
 902:./../../firmware/GD32VF103_standard_peripheral/Source/gd32vf103_rcu.c ****     \brief      disable the oscillator bypass mode, HXTALEN or LXTALEN must be reset before it
 903:./../../firmware/GD32VF103_standard_peripheral/Source/gd32vf103_rcu.c ****     \param[in]  osci: oscillator types, refer to rcu_osci_type_enum
 904:./../../firmware/GD32VF103_standard_peripheral/Source/gd32vf103_rcu.c ****                 only one parameter can be selected which is shown as below:
 905:./../../firmware/GD32VF103_standard_peripheral/Source/gd32vf103_rcu.c ****       \arg        RCU_HXTAL: high speed crystal oscillator(HXTAL)
 906:./../../firmware/GD32VF103_standard_peripheral/Source/gd32vf103_rcu.c ****       \arg        RCU_LXTAL: low speed crystal oscillator(LXTAL)
 907:./../../firmware/GD32VF103_standard_peripheral/Source/gd32vf103_rcu.c ****     \param[out] none
 908:./../../firmware/GD32VF103_standard_peripheral/Source/gd32vf103_rcu.c ****     \retval     none
 909:./../../firmware/GD32VF103_standard_peripheral/Source/gd32vf103_rcu.c **** */
 910:./../../firmware/GD32VF103_standard_peripheral/Source/gd32vf103_rcu.c **** void rcu_osci_bypass_mode_disable(rcu_osci_type_enum osci)
 911:./../../firmware/GD32VF103_standard_peripheral/Source/gd32vf103_rcu.c **** {
 1351              		.loc 1 911 1 is_stmt 1
 1352              		.cfi_startproc
 1353              	.LVL135:
 912:./../../firmware/GD32VF103_standard_peripheral/Source/gd32vf103_rcu.c ****     uint32_t reg;
 1354              		.loc 1 912 5
 913:./../../firmware/GD32VF103_standard_peripheral/Source/gd32vf103_rcu.c ****     
 914:./../../firmware/GD32VF103_standard_peripheral/Source/gd32vf103_rcu.c ****     switch(osci){
 1355              		.loc 1 914 5
 1356 0000 C147     		li	a5,16
 1357 0002 6306F500 		beq	a0,a5,.L80
 1358 0006 13050580 		addi	a0,a0,-2048
 1359              	.LVL136:
 1360 000a 05C1     		beq	a0,zero,.L81
 1361 000c 8280     		ret
 1362              	.LVL137:
 1363              	.L80:
 915:./../../firmware/GD32VF103_standard_peripheral/Source/gd32vf103_rcu.c ****     /* disable HXTAL to bypass mode */
 916:./../../firmware/GD32VF103_standard_peripheral/Source/gd32vf103_rcu.c ****     case RCU_HXTAL:
 917:./../../firmware/GD32VF103_standard_peripheral/Source/gd32vf103_rcu.c ****         reg = RCU_CTL;
 1364              		.loc 1 917 9
 1365              		.loc 1 917 13 is_stmt 0
 1366 000e B7170240 		li	a5,1073876992
 1367 0012 9843     		lw	a4,0(a5)
 1368              	.LVL138:
 918:./../../firmware/GD32VF103_standard_peripheral/Source/gd32vf103_rcu.c ****         RCU_CTL &= ~RCU_CTL_HXTALEN;
 1369              		.loc 1 918 9 is_stmt 1
 1370              		.loc 1 918 17 is_stmt 0
 1371 0014 9443     		lw	a3,0(a5)
GAS LISTING C:\Users\Karzan\AppData\Local\Temp\cc0WDOsQ.s 			page 42


 1372 0016 4176     		li	a2,-65536
 1373 0018 7D16     		addi	a2,a2,-1
 1374 001a F18E     		and	a3,a3,a2
 1375 001c 94C3     		sw	a3,0(a5)
 919:./../../firmware/GD32VF103_standard_peripheral/Source/gd32vf103_rcu.c ****         RCU_CTL = (reg & ~RCU_CTL_HXTALBPS);
 1376              		.loc 1 919 9 is_stmt 1
 1377              		.loc 1 919 24 is_stmt 0
 1378 001e B706FCFF 		li	a3,-262144
 1379 0022 FD16     		addi	a3,a3,-1
 1380 0024 758F     		and	a4,a4,a3
 1381              	.LVL139:
 1382              		.loc 1 919 17
 1383 0026 98C3     		sw	a4,0(a5)
 920:./../../firmware/GD32VF103_standard_peripheral/Source/gd32vf103_rcu.c ****         break;
 1384              		.loc 1 920 9 is_stmt 1
 1385 0028 8280     		ret
 1386              	.LVL140:
 1387              	.L81:
 921:./../../firmware/GD32VF103_standard_peripheral/Source/gd32vf103_rcu.c ****     /* disable LXTAL to bypass mode */
 922:./../../firmware/GD32VF103_standard_peripheral/Source/gd32vf103_rcu.c ****     case RCU_LXTAL:
 923:./../../firmware/GD32VF103_standard_peripheral/Source/gd32vf103_rcu.c ****         reg = RCU_BDCTL;
 1388              		.loc 1 923 9
 1389              		.loc 1 923 13 is_stmt 0
 1390 002a B7170240 		li	a5,1073876992
 1391 002e 9853     		lw	a4,32(a5)
 1392              	.LVL141:
 924:./../../firmware/GD32VF103_standard_peripheral/Source/gd32vf103_rcu.c ****         RCU_BDCTL &= ~RCU_BDCTL_LXTALEN;
 1393              		.loc 1 924 9 is_stmt 1
 1394              		.loc 1 924 19 is_stmt 0
 1395 0030 9453     		lw	a3,32(a5)
 925:./../../firmware/GD32VF103_standard_peripheral/Source/gd32vf103_rcu.c ****         RCU_BDCTL = (reg & ~RCU_BDCTL_LXTALBPS);
 1396              		.loc 1 925 26
 1397 0032 6D9B     		andi	a4,a4,-5
 1398              	.LVL142:
 924:./../../firmware/GD32VF103_standard_peripheral/Source/gd32vf103_rcu.c ****         RCU_BDCTL &= ~RCU_BDCTL_LXTALEN;
 1399              		.loc 1 924 19
 1400 0034 F99A     		andi	a3,a3,-2
 1401 0036 94D3     		sw	a3,32(a5)
 1402              		.loc 1 925 9 is_stmt 1
 1403              		.loc 1 925 19 is_stmt 0
 1404 0038 98D3     		sw	a4,32(a5)
 926:./../../firmware/GD32VF103_standard_peripheral/Source/gd32vf103_rcu.c ****         break;
 1405              		.loc 1 926 9 is_stmt 1
 927:./../../firmware/GD32VF103_standard_peripheral/Source/gd32vf103_rcu.c ****     case RCU_IRC8M:
 928:./../../firmware/GD32VF103_standard_peripheral/Source/gd32vf103_rcu.c ****     case RCU_IRC40K:
 929:./../../firmware/GD32VF103_standard_peripheral/Source/gd32vf103_rcu.c ****     case RCU_PLL_CK:
 930:./../../firmware/GD32VF103_standard_peripheral/Source/gd32vf103_rcu.c ****     case RCU_PLL1_CK:
 931:./../../firmware/GD32VF103_standard_peripheral/Source/gd32vf103_rcu.c ****     case RCU_PLL2_CK:
 932:./../../firmware/GD32VF103_standard_peripheral/Source/gd32vf103_rcu.c ****         break;
 933:./../../firmware/GD32VF103_standard_peripheral/Source/gd32vf103_rcu.c ****     default:
 934:./../../firmware/GD32VF103_standard_peripheral/Source/gd32vf103_rcu.c ****         break;
 935:./../../firmware/GD32VF103_standard_peripheral/Source/gd32vf103_rcu.c ****     }
 936:./../../firmware/GD32VF103_standard_peripheral/Source/gd32vf103_rcu.c **** }
 1406              		.loc 1 936 1 is_stmt 0
 1407 003a 8280     		ret
 1408              		.cfi_endproc
 1409              	.LFE37:
GAS LISTING C:\Users\Karzan\AppData\Local\Temp\cc0WDOsQ.s 			page 43


 1411              		.section	.text.rcu_hxtal_clock_monitor_enable,"ax",@progbits
 1412              		.align	1
 1413              		.globl	rcu_hxtal_clock_monitor_enable
 1415              	rcu_hxtal_clock_monitor_enable:
 1416              	.LFB38:
 937:./../../firmware/GD32VF103_standard_peripheral/Source/gd32vf103_rcu.c **** 
 938:./../../firmware/GD32VF103_standard_peripheral/Source/gd32vf103_rcu.c **** /*!
 939:./../../firmware/GD32VF103_standard_peripheral/Source/gd32vf103_rcu.c ****     \brief      enable the HXTAL clock monitor
 940:./../../firmware/GD32VF103_standard_peripheral/Source/gd32vf103_rcu.c ****     \param[in]  none
 941:./../../firmware/GD32VF103_standard_peripheral/Source/gd32vf103_rcu.c ****     \param[out] none
 942:./../../firmware/GD32VF103_standard_peripheral/Source/gd32vf103_rcu.c ****     \retval     none
 943:./../../firmware/GD32VF103_standard_peripheral/Source/gd32vf103_rcu.c **** */
 944:./../../firmware/GD32VF103_standard_peripheral/Source/gd32vf103_rcu.c **** 
 945:./../../firmware/GD32VF103_standard_peripheral/Source/gd32vf103_rcu.c **** void rcu_hxtal_clock_monitor_enable(void)
 946:./../../firmware/GD32VF103_standard_peripheral/Source/gd32vf103_rcu.c **** {
 1417              		.loc 1 946 1 is_stmt 1
 1418              		.cfi_startproc
 947:./../../firmware/GD32VF103_standard_peripheral/Source/gd32vf103_rcu.c ****     RCU_CTL |= RCU_CTL_CKMEN;
 1419              		.loc 1 947 5
 1420              		.loc 1 947 13 is_stmt 0
 1421 0000 37170240 		li	a4,1073876992
 1422 0004 1C43     		lw	a5,0(a4)
 1423 0006 B7060800 		li	a3,524288
 1424 000a D58F     		or	a5,a5,a3
 1425 000c 1CC3     		sw	a5,0(a4)
 948:./../../firmware/GD32VF103_standard_peripheral/Source/gd32vf103_rcu.c **** }
 1426              		.loc 1 948 1
 1427 000e 8280     		ret
 1428              		.cfi_endproc
 1429              	.LFE38:
 1431              		.section	.text.rcu_hxtal_clock_monitor_disable,"ax",@progbits
 1432              		.align	1
 1433              		.globl	rcu_hxtal_clock_monitor_disable
 1435              	rcu_hxtal_clock_monitor_disable:
 1436              	.LFB39:
 949:./../../firmware/GD32VF103_standard_peripheral/Source/gd32vf103_rcu.c **** 
 950:./../../firmware/GD32VF103_standard_peripheral/Source/gd32vf103_rcu.c **** /*!
 951:./../../firmware/GD32VF103_standard_peripheral/Source/gd32vf103_rcu.c ****     \brief      disable the HXTAL clock monitor
 952:./../../firmware/GD32VF103_standard_peripheral/Source/gd32vf103_rcu.c ****     \param[in]  none
 953:./../../firmware/GD32VF103_standard_peripheral/Source/gd32vf103_rcu.c ****     \param[out] none
 954:./../../firmware/GD32VF103_standard_peripheral/Source/gd32vf103_rcu.c ****     \retval     none
 955:./../../firmware/GD32VF103_standard_peripheral/Source/gd32vf103_rcu.c **** */
 956:./../../firmware/GD32VF103_standard_peripheral/Source/gd32vf103_rcu.c **** void rcu_hxtal_clock_monitor_disable(void)
 957:./../../firmware/GD32VF103_standard_peripheral/Source/gd32vf103_rcu.c **** {
 1437              		.loc 1 957 1 is_stmt 1
 1438              		.cfi_startproc
 958:./../../firmware/GD32VF103_standard_peripheral/Source/gd32vf103_rcu.c ****     RCU_CTL &= ~RCU_CTL_CKMEN;
 1439              		.loc 1 958 5
 1440              		.loc 1 958 13 is_stmt 0
 1441 0000 B7160240 		li	a3,1073876992
 1442 0004 9C42     		lw	a5,0(a3)
 1443 0006 3707F8FF 		li	a4,-524288
 1444 000a 7D17     		addi	a4,a4,-1
 1445 000c F98F     		and	a5,a5,a4
 1446 000e 9CC2     		sw	a5,0(a3)
 959:./../../firmware/GD32VF103_standard_peripheral/Source/gd32vf103_rcu.c **** }
 1447              		.loc 1 959 1
GAS LISTING C:\Users\Karzan\AppData\Local\Temp\cc0WDOsQ.s 			page 44


 1448 0010 8280     		ret
 1449              		.cfi_endproc
 1450              	.LFE39:
 1452              		.section	.text.rcu_irc8m_adjust_value_set,"ax",@progbits
 1453              		.align	1
 1454              		.globl	rcu_irc8m_adjust_value_set
 1456              	rcu_irc8m_adjust_value_set:
 1457              	.LFB40:
 960:./../../firmware/GD32VF103_standard_peripheral/Source/gd32vf103_rcu.c **** 
 961:./../../firmware/GD32VF103_standard_peripheral/Source/gd32vf103_rcu.c **** /*!
 962:./../../firmware/GD32VF103_standard_peripheral/Source/gd32vf103_rcu.c ****     \brief      set the IRC8M adjust value
 963:./../../firmware/GD32VF103_standard_peripheral/Source/gd32vf103_rcu.c ****     \param[in]  irc8m_adjval: IRC8M adjust value, must be between 0 and 0x1F
 964:./../../firmware/GD32VF103_standard_peripheral/Source/gd32vf103_rcu.c ****     \param[out] none
 965:./../../firmware/GD32VF103_standard_peripheral/Source/gd32vf103_rcu.c ****     \retval     none
 966:./../../firmware/GD32VF103_standard_peripheral/Source/gd32vf103_rcu.c **** */
 967:./../../firmware/GD32VF103_standard_peripheral/Source/gd32vf103_rcu.c **** void rcu_irc8m_adjust_value_set(uint32_t irc8m_adjval)
 968:./../../firmware/GD32VF103_standard_peripheral/Source/gd32vf103_rcu.c **** {
 1458              		.loc 1 968 1 is_stmt 1
 1459              		.cfi_startproc
 1460              	.LVL143:
 969:./../../firmware/GD32VF103_standard_peripheral/Source/gd32vf103_rcu.c ****     uint32_t reg;
 1461              		.loc 1 969 5
 970:./../../firmware/GD32VF103_standard_peripheral/Source/gd32vf103_rcu.c ****     
 971:./../../firmware/GD32VF103_standard_peripheral/Source/gd32vf103_rcu.c ****     reg = RCU_CTL;
 1462              		.loc 1 971 5
 1463              		.loc 1 971 9 is_stmt 0
 1464 0000 37170240 		li	a4,1073876992
 1465 0004 1C43     		lw	a5,0(a4)
 1466              	.LVL144:
 972:./../../firmware/GD32VF103_standard_peripheral/Source/gd32vf103_rcu.c ****     /* reset the IRC8MADJ bits and set according to irc8m_adjval */
 973:./../../firmware/GD32VF103_standard_peripheral/Source/gd32vf103_rcu.c ****     reg &= ~RCU_CTL_IRC8MADJ;
 1467              		.loc 1 973 5 is_stmt 1
 974:./../../firmware/GD32VF103_standard_peripheral/Source/gd32vf103_rcu.c ****     RCU_CTL = (reg | ((irc8m_adjval & 0x1FU) << 3));
 1468              		.loc 1 974 5
 1469              		.loc 1 974 46 is_stmt 0
 1470 0006 0E05     		slli	a0,a0,3
 1471              	.LVL145:
 1472 0008 1375F50F 		andi	a0,a0,255
 973:./../../firmware/GD32VF103_standard_peripheral/Source/gd32vf103_rcu.c ****     RCU_CTL = (reg | ((irc8m_adjval & 0x1FU) << 3));
 1473              		.loc 1 973 9
 1474 000c 93F777F0 		andi	a5,a5,-249
 1475              	.LVL146:
 1476              		.loc 1 974 20
 1477 0010 5D8D     		or	a0,a0,a5
 1478              		.loc 1 974 13
 1479 0012 08C3     		sw	a0,0(a4)
 975:./../../firmware/GD32VF103_standard_peripheral/Source/gd32vf103_rcu.c **** }
 1480              		.loc 1 975 1
 1481 0014 8280     		ret
 1482              		.cfi_endproc
 1483              	.LFE40:
 1485              		.section	.text.rcu_deepsleep_voltage_set,"ax",@progbits
 1486              		.align	1
 1487              		.globl	rcu_deepsleep_voltage_set
 1489              	rcu_deepsleep_voltage_set:
 1490              	.LFB41:
 976:./../../firmware/GD32VF103_standard_peripheral/Source/gd32vf103_rcu.c **** 
GAS LISTING C:\Users\Karzan\AppData\Local\Temp\cc0WDOsQ.s 			page 45


 977:./../../firmware/GD32VF103_standard_peripheral/Source/gd32vf103_rcu.c **** /*!
 978:./../../firmware/GD32VF103_standard_peripheral/Source/gd32vf103_rcu.c ****     \brief      deep-sleep mode voltage select
 979:./../../firmware/GD32VF103_standard_peripheral/Source/gd32vf103_rcu.c ****     \param[in]  dsvol: deep sleep mode voltage
 980:./../../firmware/GD32VF103_standard_peripheral/Source/gd32vf103_rcu.c ****                 only one parameter can be selected which is shown as below:
 981:./../../firmware/GD32VF103_standard_peripheral/Source/gd32vf103_rcu.c ****       \arg        RCU_DEEPSLEEP_V_1_2: the core voltage is 1.2V
 982:./../../firmware/GD32VF103_standard_peripheral/Source/gd32vf103_rcu.c ****       \arg        RCU_DEEPSLEEP_V_1_1: the core voltage is 1.1V
 983:./../../firmware/GD32VF103_standard_peripheral/Source/gd32vf103_rcu.c ****       \arg        RCU_DEEPSLEEP_V_1_0: the core voltage is 1.0V
 984:./../../firmware/GD32VF103_standard_peripheral/Source/gd32vf103_rcu.c ****       \arg        RCU_DEEPSLEEP_V_0_9: the core voltage is 0.9V
 985:./../../firmware/GD32VF103_standard_peripheral/Source/gd32vf103_rcu.c ****     \param[out] none
 986:./../../firmware/GD32VF103_standard_peripheral/Source/gd32vf103_rcu.c ****     \retval     none
 987:./../../firmware/GD32VF103_standard_peripheral/Source/gd32vf103_rcu.c **** */
 988:./../../firmware/GD32VF103_standard_peripheral/Source/gd32vf103_rcu.c **** void rcu_deepsleep_voltage_set(uint32_t dsvol)
 989:./../../firmware/GD32VF103_standard_peripheral/Source/gd32vf103_rcu.c **** {    
 1491              		.loc 1 989 1 is_stmt 1
 1492              		.cfi_startproc
 1493              	.LVL147:
 990:./../../firmware/GD32VF103_standard_peripheral/Source/gd32vf103_rcu.c ****     dsvol &= RCU_DSV_DSLPVS;
 1494              		.loc 1 990 5
 1495              		.loc 1 990 11 is_stmt 0
 1496 0000 0D89     		andi	a0,a0,3
 1497              	.LVL148:
 991:./../../firmware/GD32VF103_standard_peripheral/Source/gd32vf103_rcu.c ****     RCU_DSV = dsvol;
 1498              		.loc 1 991 5 is_stmt 1
 1499              		.loc 1 991 13 is_stmt 0
 1500 0002 B7170240 		li	a5,1073876992
 1501 0006 C8DB     		sw	a0,52(a5)
 992:./../../firmware/GD32VF103_standard_peripheral/Source/gd32vf103_rcu.c **** }
 1502              		.loc 1 992 1
 1503 0008 8280     		ret
 1504              		.cfi_endproc
 1505              	.LFE41:
 1507              		.section	.text.rcu_clock_freq_get,"ax",@progbits
 1508              		.align	1
 1509              		.globl	rcu_clock_freq_get
 1511              	rcu_clock_freq_get:
 1512              	.LFB42:
 993:./../../firmware/GD32VF103_standard_peripheral/Source/gd32vf103_rcu.c **** 
 994:./../../firmware/GD32VF103_standard_peripheral/Source/gd32vf103_rcu.c **** /*!
 995:./../../firmware/GD32VF103_standard_peripheral/Source/gd32vf103_rcu.c ****     \brief      get the system clock, bus and peripheral clock frequency
 996:./../../firmware/GD32VF103_standard_peripheral/Source/gd32vf103_rcu.c ****     \param[in]  clock: the clock frequency which to get
 997:./../../firmware/GD32VF103_standard_peripheral/Source/gd32vf103_rcu.c ****                 only one parameter can be selected which is shown as below:
 998:./../../firmware/GD32VF103_standard_peripheral/Source/gd32vf103_rcu.c ****       \arg        CK_SYS: system clock frequency
 999:./../../firmware/GD32VF103_standard_peripheral/Source/gd32vf103_rcu.c ****       \arg        CK_AHB: AHB clock frequency
1000:./../../firmware/GD32VF103_standard_peripheral/Source/gd32vf103_rcu.c ****       \arg        CK_APB1: APB1 clock frequency
1001:./../../firmware/GD32VF103_standard_peripheral/Source/gd32vf103_rcu.c ****       \arg        CK_APB2: APB2 clock frequency
1002:./../../firmware/GD32VF103_standard_peripheral/Source/gd32vf103_rcu.c ****     \param[out] none
1003:./../../firmware/GD32VF103_standard_peripheral/Source/gd32vf103_rcu.c ****     \retval     clock frequency of system, AHB, APB1, APB2
1004:./../../firmware/GD32VF103_standard_peripheral/Source/gd32vf103_rcu.c **** */
1005:./../../firmware/GD32VF103_standard_peripheral/Source/gd32vf103_rcu.c **** uint32_t rcu_clock_freq_get(rcu_clock_freq_enum clock)
1006:./../../firmware/GD32VF103_standard_peripheral/Source/gd32vf103_rcu.c **** {
 1513              		.loc 1 1006 1 is_stmt 1
 1514              		.cfi_startproc
 1515              	.LVL149:
1007:./../../firmware/GD32VF103_standard_peripheral/Source/gd32vf103_rcu.c ****     uint32_t sws, ck_freq = 0U;
 1516              		.loc 1 1007 5
1008:./../../firmware/GD32VF103_standard_peripheral/Source/gd32vf103_rcu.c ****     uint32_t cksys_freq, ahb_freq, apb1_freq, apb2_freq;
 1517              		.loc 1 1008 5
GAS LISTING C:\Users\Karzan\AppData\Local\Temp\cc0WDOsQ.s 			page 46


1009:./../../firmware/GD32VF103_standard_peripheral/Source/gd32vf103_rcu.c ****     uint32_t pllsel, predv0sel, pllmf,ck_src, idx, clk_exp;
 1518              		.loc 1 1009 5
1010:./../../firmware/GD32VF103_standard_peripheral/Source/gd32vf103_rcu.c ****     uint32_t predv0, predv1, pll1mf;
 1519              		.loc 1 1010 5
1011:./../../firmware/GD32VF103_standard_peripheral/Source/gd32vf103_rcu.c **** 
1012:./../../firmware/GD32VF103_standard_peripheral/Source/gd32vf103_rcu.c ****     /* exponent of AHB, APB1 and APB2 clock divider */
1013:./../../firmware/GD32VF103_standard_peripheral/Source/gd32vf103_rcu.c ****     uint8_t ahb_exp[16] = {0, 0, 0, 0, 0, 0, 0, 0, 1, 2, 3, 4, 6, 7, 8, 9};
 1520              		.loc 1 1013 5
1006:./../../firmware/GD32VF103_standard_peripheral/Source/gd32vf103_rcu.c ****     uint32_t sws, ck_freq = 0U;
 1521              		.loc 1 1006 1 is_stmt 0
 1522 0000 7971     		addi	sp,sp,-48
 1523              	.LCFI5:
 1524              		.cfi_def_cfa_offset 48
 1525              		.loc 1 1013 13
 1526 0002 B7050000 		lui	a1,%hi(.LANCHOR0)
1006:./../../firmware/GD32VF103_standard_peripheral/Source/gd32vf103_rcu.c ****     uint32_t sws, ck_freq = 0U;
 1527              		.loc 1 1006 1
 1528 0006 22D4     		sw	s0,40(sp)
 1529              		.loc 1 1013 13
 1530 0008 4146     		li	a2,16
 1531              		.cfi_offset 8, -8
1006:./../../firmware/GD32VF103_standard_peripheral/Source/gd32vf103_rcu.c ****     uint32_t sws, ck_freq = 0U;
 1532              		.loc 1 1006 1
 1533 000a 2A84     		mv	s0,a0
 1534              		.loc 1 1013 13
 1535 000c 93850500 		addi	a1,a1,%lo(.LANCHOR0)
 1536 0010 0808     		addi	a0,sp,16
 1537              	.LVL150:
1006:./../../firmware/GD32VF103_standard_peripheral/Source/gd32vf103_rcu.c ****     uint32_t sws, ck_freq = 0U;
 1538              		.loc 1 1006 1
 1539 0012 06D6     		sw	ra,44(sp)
 1540              		.cfi_offset 1, -4
 1541              		.loc 1 1013 13
 1542 0014 97000000 		call	memcpy
 1542      E7800000 
 1543              	.LVL151:
1014:./../../firmware/GD32VF103_standard_peripheral/Source/gd32vf103_rcu.c ****     uint8_t apb1_exp[8] = {0, 0, 0, 0, 1, 2, 3, 4};
 1544              		.loc 1 1014 5 is_stmt 1
 1545              		.loc 1 1014 13 is_stmt 0
 1546 001c B7070304 		li	a5,67305472
 1547 0020 93871720 		addi	a5,a5,513
 1548 0024 02C0     		sw	zero,0(sp)
 1549 0026 3EC2     		sw	a5,4(sp)
1015:./../../firmware/GD32VF103_standard_peripheral/Source/gd32vf103_rcu.c ****     uint8_t apb2_exp[8] = {0, 0, 0, 0, 1, 2, 3, 4};
 1550              		.loc 1 1015 5 is_stmt 1
 1551              		.loc 1 1015 13 is_stmt 0
 1552 0028 02C4     		sw	zero,8(sp)
 1553 002a 3EC6     		sw	a5,12(sp)
1016:./../../firmware/GD32VF103_standard_peripheral/Source/gd32vf103_rcu.c **** 
1017:./../../firmware/GD32VF103_standard_peripheral/Source/gd32vf103_rcu.c ****     sws = GET_BITS(RCU_CFG0, 2, 3);
 1554              		.loc 1 1017 5 is_stmt 1
 1555              		.loc 1 1017 11 is_stmt 0
 1556 002c 37170240 		li	a4,1073876992
 1557 0030 5C43     		lw	a5,4(a4)
 1558              	.LVL152:
1018:./../../firmware/GD32VF103_standard_peripheral/Source/gd32vf103_rcu.c ****     switch(sws){
 1559              		.loc 1 1018 5 is_stmt 1
GAS LISTING C:\Users\Karzan\AppData\Local\Temp\cc0WDOsQ.s 			page 47


 1560 0032 8946     		li	a3,2
1017:./../../firmware/GD32VF103_standard_peripheral/Source/gd32vf103_rcu.c ****     switch(sws){
 1561              		.loc 1 1017 11 is_stmt 0
 1562 0034 8983     		srli	a5,a5,2
 1563              	.LVL153:
1017:./../../firmware/GD32VF103_standard_peripheral/Source/gd32vf103_rcu.c ****     switch(sws){
 1564              		.loc 1 1017 9
 1565 0036 8D8B     		andi	a5,a5,3
 1566              	.LVL154:
 1567              		.loc 1 1018 5
 1568 0038 6397D70E 		bne	a5,a3,.L99
1019:./../../firmware/GD32VF103_standard_peripheral/Source/gd32vf103_rcu.c ****     /* IRC8M is selected as CK_SYS */
1020:./../../firmware/GD32VF103_standard_peripheral/Source/gd32vf103_rcu.c ****     case SEL_IRC8M:
1021:./../../firmware/GD32VF103_standard_peripheral/Source/gd32vf103_rcu.c ****         cksys_freq = IRC8M_VALUE;
1022:./../../firmware/GD32VF103_standard_peripheral/Source/gd32vf103_rcu.c ****         break;
1023:./../../firmware/GD32VF103_standard_peripheral/Source/gd32vf103_rcu.c ****     /* HXTAL is selected as CK_SYS */
1024:./../../firmware/GD32VF103_standard_peripheral/Source/gd32vf103_rcu.c ****     case SEL_HXTAL:
1025:./../../firmware/GD32VF103_standard_peripheral/Source/gd32vf103_rcu.c ****         cksys_freq = HXTAL_VALUE;
1026:./../../firmware/GD32VF103_standard_peripheral/Source/gd32vf103_rcu.c ****         break;
1027:./../../firmware/GD32VF103_standard_peripheral/Source/gd32vf103_rcu.c ****     /* PLL is selected as CK_SYS */
1028:./../../firmware/GD32VF103_standard_peripheral/Source/gd32vf103_rcu.c ****     case SEL_PLL:
1029:./../../firmware/GD32VF103_standard_peripheral/Source/gd32vf103_rcu.c ****         /* PLL clock source selection, HXTAL or IRC8M/2 */
1030:./../../firmware/GD32VF103_standard_peripheral/Source/gd32vf103_rcu.c ****         pllsel = (RCU_CFG0 & RCU_CFG0_PLLSEL);
 1569              		.loc 1 1030 9 is_stmt 1
 1570              		.loc 1 1030 19 is_stmt 0
 1571 003c 5C43     		lw	a5,4(a4)
 1572              	.LVL155:
1031:./../../firmware/GD32VF103_standard_peripheral/Source/gd32vf103_rcu.c **** 
1032:./../../firmware/GD32VF103_standard_peripheral/Source/gd32vf103_rcu.c ****         if(RCU_PLLSRC_HXTAL == pllsel) {
 1573              		.loc 1 1032 9 is_stmt 1
 1574              		.loc 1 1032 11 is_stmt 0
 1575 003e 9396F700 		slli	a3,a5,15
 1576 0042 63D60606 		bge	a3,zero,.L100
1033:./../../firmware/GD32VF103_standard_peripheral/Source/gd32vf103_rcu.c ****             /* PLL clock source is HXTAL */
1034:./../../firmware/GD32VF103_standard_peripheral/Source/gd32vf103_rcu.c ****             ck_src = HXTAL_VALUE;
 1577              		.loc 1 1034 13 is_stmt 1
 1578              	.LVL156:
1035:./../../firmware/GD32VF103_standard_peripheral/Source/gd32vf103_rcu.c **** 
1036:./../../firmware/GD32VF103_standard_peripheral/Source/gd32vf103_rcu.c ****             predv0sel = (RCU_CFG1 & RCU_CFG1_PREDV0SEL);
 1579              		.loc 1 1036 13
 1580              		.loc 1 1036 26 is_stmt 0
 1581 0046 5C57     		lw	a5,44(a4)
 1582              	.LVL157:
1037:./../../firmware/GD32VF103_standard_peripheral/Source/gd32vf103_rcu.c ****             /* source clock use PLL1 */
1038:./../../firmware/GD32VF103_standard_peripheral/Source/gd32vf103_rcu.c ****             if(RCU_PREDV0SRC_CKPLL1 == predv0sel){
 1583              		.loc 1 1038 13 is_stmt 1
 1584              		.loc 1 1038 15 is_stmt 0
 1585 0048 9396F700 		slli	a3,a5,15
 1586 004c 63DC0604 		bge	a3,zero,.L101
1039:./../../firmware/GD32VF103_standard_peripheral/Source/gd32vf103_rcu.c ****                 predv1 = (uint32_t)((RCU_CFG1 & RCU_CFG1_PREDV1) >> 4) + 1U;
 1587              		.loc 1 1039 17 is_stmt 1
 1588              		.loc 1 1039 38 is_stmt 0
 1589 0050 5C57     		lw	a5,44(a4)
 1590              	.LVL158:
1040:./../../firmware/GD32VF103_standard_peripheral/Source/gd32vf103_rcu.c ****                 pll1mf = (uint32_t)((RCU_CFG1 & RCU_CFG1_PLL1MF) >> 8) + 2U;
 1591              		.loc 1 1040 38
 1592 0052 5857     		lw	a4,44(a4)
GAS LISTING C:\Users\Karzan\AppData\Local\Temp\cc0WDOsQ.s 			page 48


1039:./../../firmware/GD32VF103_standard_peripheral/Source/gd32vf103_rcu.c ****                 predv1 = (uint32_t)((RCU_CFG1 & RCU_CFG1_PREDV1) >> 4) + 1U;
 1593              		.loc 1 1039 26
 1594 0054 9183     		srli	a5,a5,4
 1595              		.loc 1 1040 26
 1596 0056 2183     		srli	a4,a4,8
1039:./../../firmware/GD32VF103_standard_peripheral/Source/gd32vf103_rcu.c ****                 predv1 = (uint32_t)((RCU_CFG1 & RCU_CFG1_PREDV1) >> 4) + 1U;
 1597              		.loc 1 1039 26
 1598 0058 BD8B     		andi	a5,a5,15
 1599              		.loc 1 1040 26
 1600 005a 3D8B     		andi	a4,a4,15
1039:./../../firmware/GD32VF103_standard_peripheral/Source/gd32vf103_rcu.c ****                 predv1 = (uint32_t)((RCU_CFG1 & RCU_CFG1_PREDV1) >> 4) + 1U;
 1601              		.loc 1 1039 24
 1602 005c 93861700 		addi	a3,a5,1
 1603              	.LVL159:
 1604              		.loc 1 1040 17 is_stmt 1
 1605              		.loc 1 1040 24 is_stmt 0
 1606 0060 0907     		addi	a4,a4,2
 1607              	.LVL160:
1041:./../../firmware/GD32VF103_standard_peripheral/Source/gd32vf103_rcu.c ****                 if(17U == pll1mf){
 1608              		.loc 1 1041 17 is_stmt 1
 1609              		.loc 1 1041 19 is_stmt 0
 1610 0062 C547     		li	a5,17
 1611 0064 6313F700 		bne	a4,a5,.L91
1042:./../../firmware/GD32VF103_standard_peripheral/Source/gd32vf103_rcu.c ****                     pll1mf = 20U;
 1612              		.loc 1 1042 28
 1613 0068 5147     		li	a4,20
 1614              	.LVL161:
 1615              	.L91:
1043:./../../firmware/GD32VF103_standard_peripheral/Source/gd32vf103_rcu.c ****                 }
1044:./../../firmware/GD32VF103_standard_peripheral/Source/gd32vf103_rcu.c ****                 ck_src = (ck_src / predv1) * pll1mf;
 1616              		.loc 1 1044 17 is_stmt 1
 1617              		.loc 1 1044 34 is_stmt 0
 1618 006a B7177A00 		li	a5,7999488
 1619 006e 93870720 		addi	a5,a5,512
 1620 0072 B3D7D702 		divu	a5,a5,a3
 1621              		.loc 1 1044 24
 1622 0076 B387E702 		mul	a5,a5,a4
 1623              	.LVL162:
 1624              	.L90:
1045:./../../firmware/GD32VF103_standard_peripheral/Source/gd32vf103_rcu.c ****             }
1046:./../../firmware/GD32VF103_standard_peripheral/Source/gd32vf103_rcu.c ****             predv0 = (RCU_CFG1 & RCU_CFG1_PREDV0) + 1U;
 1625              		.loc 1 1046 13 is_stmt 1
 1626              		.loc 1 1046 23 is_stmt 0
 1627 007a 37170240 		li	a4,1073876992
 1628 007e 5857     		lw	a4,44(a4)
 1629              	.LVL163:
1047:./../../firmware/GD32VF103_standard_peripheral/Source/gd32vf103_rcu.c ****             ck_src /= predv0;
 1630              		.loc 1 1047 13 is_stmt 1
1046:./../../firmware/GD32VF103_standard_peripheral/Source/gd32vf103_rcu.c ****             ck_src /= predv0;
 1631              		.loc 1 1046 32 is_stmt 0
 1632 0080 3D8B     		andi	a4,a4,15
 1633              	.LVL164:
1046:./../../firmware/GD32VF103_standard_peripheral/Source/gd32vf103_rcu.c ****             ck_src /= predv0;
 1634              		.loc 1 1046 20
 1635 0082 0507     		addi	a4,a4,1
 1636              	.LVL165:
 1637              		.loc 1 1047 20
GAS LISTING C:\Users\Karzan\AppData\Local\Temp\cc0WDOsQ.s 			page 49


 1638 0084 33D7E702 		divu	a4,a5,a4
 1639              	.LVL166:
 1640              	.L89:
1048:./../../firmware/GD32VF103_standard_peripheral/Source/gd32vf103_rcu.c ****         }else{
1049:./../../firmware/GD32VF103_standard_peripheral/Source/gd32vf103_rcu.c ****             /* PLL clock source is IRC8M/2 */
1050:./../../firmware/GD32VF103_standard_peripheral/Source/gd32vf103_rcu.c ****             ck_src = IRC8M_VALUE/2U;
1051:./../../firmware/GD32VF103_standard_peripheral/Source/gd32vf103_rcu.c ****         }
1052:./../../firmware/GD32VF103_standard_peripheral/Source/gd32vf103_rcu.c **** 
1053:./../../firmware/GD32VF103_standard_peripheral/Source/gd32vf103_rcu.c ****         /* PLL multiplication factor */
1054:./../../firmware/GD32VF103_standard_peripheral/Source/gd32vf103_rcu.c ****         pllmf = GET_BITS(RCU_CFG0, 18, 21);
 1641              		.loc 1 1054 9 is_stmt 1
 1642              		.loc 1 1054 17 is_stmt 0
 1643 0088 B7160240 		li	a3,1073876992
 1644 008c DC42     		lw	a5,4(a3)
1055:./../../firmware/GD32VF103_standard_peripheral/Source/gd32vf103_rcu.c ****         if((RCU_CFG0 & RCU_CFG0_PLLMF_4)){
 1645              		.loc 1 1055 13
 1646 008e D442     		lw	a3,4(a3)
1054:./../../firmware/GD32VF103_standard_peripheral/Source/gd32vf103_rcu.c ****         if((RCU_CFG0 & RCU_CFG0_PLLMF_4)){
 1647              		.loc 1 1054 17
 1648 0090 C983     		srli	a5,a5,18
 1649              		.loc 1 1055 11
 1650 0092 13962600 		slli	a2,a3,2
1054:./../../firmware/GD32VF103_standard_peripheral/Source/gd32vf103_rcu.c ****         if((RCU_CFG0 & RCU_CFG0_PLLMF_4)){
 1651              		.loc 1 1054 15
 1652 0096 BD8B     		andi	a5,a5,15
 1653              	.LVL167:
 1654              		.loc 1 1055 9 is_stmt 1
 1655              		.loc 1 1055 11 is_stmt 0
 1656 0098 63500602 		bge	a2,zero,.L92
1056:./../../firmware/GD32VF103_standard_peripheral/Source/gd32vf103_rcu.c ****             pllmf |= 0x10U;
 1657              		.loc 1 1056 13 is_stmt 1
 1658              		.loc 1 1056 19 is_stmt 0
 1659 009c 93E70701 		ori	a5,a5,16
 1660              	.LVL168:
1057:./../../firmware/GD32VF103_standard_peripheral/Source/gd32vf103_rcu.c ****         }
1058:./../../firmware/GD32VF103_standard_peripheral/Source/gd32vf103_rcu.c ****         if(pllmf < 15U){
 1661              		.loc 1 1058 9 is_stmt 1
 1662              	.L93:
1059:./../../firmware/GD32VF103_standard_peripheral/Source/gd32vf103_rcu.c ****             pllmf += 2U;
1060:./../../firmware/GD32VF103_standard_peripheral/Source/gd32vf103_rcu.c ****         }else{
1061:./../../firmware/GD32VF103_standard_peripheral/Source/gd32vf103_rcu.c ****             pllmf += 1U;
 1663              		.loc 1 1061 13
 1664              		.loc 1 1061 19 is_stmt 0
 1665 00a0 8507     		addi	a5,a5,1
 1666              	.LVL169:
1062:./../../firmware/GD32VF103_standard_peripheral/Source/gd32vf103_rcu.c ****         }
1063:./../../firmware/GD32VF103_standard_peripheral/Source/gd32vf103_rcu.c **** 
1064:./../../firmware/GD32VF103_standard_peripheral/Source/gd32vf103_rcu.c ****         cksys_freq = ck_src * pllmf;
 1667              		.loc 1 1064 9 is_stmt 1
1065:./../../firmware/GD32VF103_standard_peripheral/Source/gd32vf103_rcu.c **** 
1066:./../../firmware/GD32VF103_standard_peripheral/Source/gd32vf103_rcu.c ****         if(15U == pllmf){
 1668              		.loc 1 1066 9
 1669 00a2 0DA0     		j	.L95
 1670              	.LVL170:
 1671              	.L101:
1034:./../../firmware/GD32VF103_standard_peripheral/Source/gd32vf103_rcu.c **** 
 1672              		.loc 1 1034 20 is_stmt 0
GAS LISTING C:\Users\Karzan\AppData\Local\Temp\cc0WDOsQ.s 			page 50


 1673 00a4 B7177A00 		li	a5,7999488
 1674              	.LVL171:
 1675 00a8 93870720 		addi	a5,a5,512
 1676 00ac F9B7     		j	.L90
 1677              	.LVL172:
 1678              	.L100:
1050:./../../firmware/GD32VF103_standard_peripheral/Source/gd32vf103_rcu.c ****         }
 1679              		.loc 1 1050 20
 1680 00ae B7173D00 		li	a5,4001792
 1681              	.LVL173:
 1682 00b2 13870790 		addi	a4,a5,-1792
 1683 00b6 C9BF     		j	.L89
 1684              	.LVL174:
 1685              	.L92:
1058:./../../firmware/GD32VF103_standard_peripheral/Source/gd32vf103_rcu.c ****             pllmf += 2U;
 1686              		.loc 1 1058 9 is_stmt 1
1058:./../../firmware/GD32VF103_standard_peripheral/Source/gd32vf103_rcu.c ****             pllmf += 2U;
 1687              		.loc 1 1058 11 is_stmt 0
 1688 00b8 BD46     		li	a3,15
 1689 00ba E383D7FE 		beq	a5,a3,.L93
1059:./../../firmware/GD32VF103_standard_peripheral/Source/gd32vf103_rcu.c ****         }else{
 1690              		.loc 1 1059 13 is_stmt 1
1059:./../../firmware/GD32VF103_standard_peripheral/Source/gd32vf103_rcu.c ****         }else{
 1691              		.loc 1 1059 19 is_stmt 0
 1692 00be 8907     		addi	a5,a5,2
 1693              	.LVL175:
1064:./../../firmware/GD32VF103_standard_peripheral/Source/gd32vf103_rcu.c **** 
 1694              		.loc 1 1064 9 is_stmt 1
 1695              		.loc 1 1066 9
 1696              		.loc 1 1066 11 is_stmt 0
 1697 00c0 638DD704 		beq	a5,a3,.L94
 1698              	.LVL176:
 1699              	.L95:
1064:./../../firmware/GD32VF103_standard_peripheral/Source/gd32vf103_rcu.c **** 
 1700              		.loc 1 1064 20
 1701 00c4 B387E702 		mul	a5,a5,a4
 1702              	.LVL177:
 1703              	.L88:
1067:./../../firmware/GD32VF103_standard_peripheral/Source/gd32vf103_rcu.c ****             /* PLL source clock multiply by 6.5 */
1068:./../../firmware/GD32VF103_standard_peripheral/Source/gd32vf103_rcu.c ****             cksys_freq = ck_src * 6U + ck_src / 2U;
1069:./../../firmware/GD32VF103_standard_peripheral/Source/gd32vf103_rcu.c ****         }
1070:./../../firmware/GD32VF103_standard_peripheral/Source/gd32vf103_rcu.c **** 
1071:./../../firmware/GD32VF103_standard_peripheral/Source/gd32vf103_rcu.c ****         break;
1072:./../../firmware/GD32VF103_standard_peripheral/Source/gd32vf103_rcu.c ****     /* IRC8M is selected as CK_SYS */
1073:./../../firmware/GD32VF103_standard_peripheral/Source/gd32vf103_rcu.c ****     default:
1074:./../../firmware/GD32VF103_standard_peripheral/Source/gd32vf103_rcu.c ****         cksys_freq = IRC8M_VALUE;
1075:./../../firmware/GD32VF103_standard_peripheral/Source/gd32vf103_rcu.c ****         break;
1076:./../../firmware/GD32VF103_standard_peripheral/Source/gd32vf103_rcu.c ****     }
1077:./../../firmware/GD32VF103_standard_peripheral/Source/gd32vf103_rcu.c **** 
1078:./../../firmware/GD32VF103_standard_peripheral/Source/gd32vf103_rcu.c ****     /* calculate AHB clock frequency */
1079:./../../firmware/GD32VF103_standard_peripheral/Source/gd32vf103_rcu.c ****     idx = GET_BITS(RCU_CFG0, 4, 7);
 1704              		.loc 1 1079 5 is_stmt 1
 1705              		.loc 1 1079 11 is_stmt 0
 1706 00c8 B7160240 		li	a3,1073876992
 1707 00cc D842     		lw	a4,4(a3)
 1708              	.LVL178:
1080:./../../firmware/GD32VF103_standard_peripheral/Source/gd32vf103_rcu.c ****     clk_exp = ahb_exp[idx];
GAS LISTING C:\Users\Karzan\AppData\Local\Temp\cc0WDOsQ.s 			page 51


 1709              		.loc 1 1080 5 is_stmt 1
1081:./../../firmware/GD32VF103_standard_peripheral/Source/gd32vf103_rcu.c ****     ahb_freq = cksys_freq >> clk_exp;
 1710              		.loc 1 1081 5
1080:./../../firmware/GD32VF103_standard_peripheral/Source/gd32vf103_rcu.c ****     clk_exp = ahb_exp[idx];
 1711              		.loc 1 1080 22 is_stmt 0
 1712 00ce 1010     		addi	a2,sp,32
1079:./../../firmware/GD32VF103_standard_peripheral/Source/gd32vf103_rcu.c ****     clk_exp = ahb_exp[idx];
 1713              		.loc 1 1079 11
 1714 00d0 1183     		srli	a4,a4,4
 1715              	.LVL179:
1079:./../../firmware/GD32VF103_standard_peripheral/Source/gd32vf103_rcu.c ****     clk_exp = ahb_exp[idx];
 1716              		.loc 1 1079 9
 1717 00d2 3D8B     		andi	a4,a4,15
 1718              	.LVL180:
1080:./../../firmware/GD32VF103_standard_peripheral/Source/gd32vf103_rcu.c ****     clk_exp = ahb_exp[idx];
 1719              		.loc 1 1080 22
 1720 00d4 3297     		add	a4,a2,a4
 1721              	.LVL181:
1080:./../../firmware/GD32VF103_standard_peripheral/Source/gd32vf103_rcu.c ****     clk_exp = ahb_exp[idx];
 1722              		.loc 1 1080 13
 1723 00d6 034507FF 		lbu	a0,-16(a4)
1082:./../../firmware/GD32VF103_standard_peripheral/Source/gd32vf103_rcu.c ****     
1083:./../../firmware/GD32VF103_standard_peripheral/Source/gd32vf103_rcu.c ****     /* calculate APB1 clock frequency */
1084:./../../firmware/GD32VF103_standard_peripheral/Source/gd32vf103_rcu.c ****     idx = GET_BITS(RCU_CFG0, 8, 10);
 1724              		.loc 1 1084 11
 1725 00da D842     		lw	a4,4(a3)
1081:./../../firmware/GD32VF103_standard_peripheral/Source/gd32vf103_rcu.c ****     
 1726              		.loc 1 1081 14
 1727 00dc 33D5A700 		srl	a0,a5,a0
 1728              	.LVL182:
 1729              		.loc 1 1084 5 is_stmt 1
1085:./../../firmware/GD32VF103_standard_peripheral/Source/gd32vf103_rcu.c ****     clk_exp = apb1_exp[idx];
 1730              		.loc 1 1085 5
1084:./../../firmware/GD32VF103_standard_peripheral/Source/gd32vf103_rcu.c ****     clk_exp = apb1_exp[idx];
 1731              		.loc 1 1084 11 is_stmt 0
 1732 00e0 2183     		srli	a4,a4,8
 1733              	.LVL183:
1084:./../../firmware/GD32VF103_standard_peripheral/Source/gd32vf103_rcu.c ****     clk_exp = apb1_exp[idx];
 1734              		.loc 1 1084 9
 1735 00e2 1D8B     		andi	a4,a4,7
 1736              	.LVL184:
 1737              		.loc 1 1085 23
 1738 00e4 3297     		add	a4,a2,a4
 1739              	.LVL185:
 1740 00e6 034607FE 		lbu	a2,-32(a4)
 1741              	.LVL186:
1086:./../../firmware/GD32VF103_standard_peripheral/Source/gd32vf103_rcu.c ****     apb1_freq = ahb_freq >> clk_exp;
 1742              		.loc 1 1086 5 is_stmt 1
1087:./../../firmware/GD32VF103_standard_peripheral/Source/gd32vf103_rcu.c ****     
1088:./../../firmware/GD32VF103_standard_peripheral/Source/gd32vf103_rcu.c ****     /* calculate APB2 clock frequency */
1089:./../../firmware/GD32VF103_standard_peripheral/Source/gd32vf103_rcu.c ****     idx = GET_BITS(RCU_CFG0, 11, 13);
 1743              		.loc 1 1089 5
 1744              		.loc 1 1089 11 is_stmt 0
 1745 00ea D842     		lw	a4,4(a3)
 1746              	.LVL187:
1090:./../../firmware/GD32VF103_standard_peripheral/Source/gd32vf103_rcu.c ****     clk_exp = apb2_exp[idx];
 1747              		.loc 1 1090 5 is_stmt 1
GAS LISTING C:\Users\Karzan\AppData\Local\Temp\cc0WDOsQ.s 			page 52


 1748              		.loc 1 1090 23 is_stmt 0
 1749 00ec 1410     		addi	a3,sp,32
1089:./../../firmware/GD32VF103_standard_peripheral/Source/gd32vf103_rcu.c ****     clk_exp = apb2_exp[idx];
 1750              		.loc 1 1089 11
 1751 00ee 2D83     		srli	a4,a4,11
 1752              	.LVL188:
1089:./../../firmware/GD32VF103_standard_peripheral/Source/gd32vf103_rcu.c ****     clk_exp = apb2_exp[idx];
 1753              		.loc 1 1089 9
 1754 00f0 1D8B     		andi	a4,a4,7
 1755              	.LVL189:
 1756              		.loc 1 1090 23
 1757 00f2 3697     		add	a4,a3,a4
 1758              	.LVL190:
1091:./../../firmware/GD32VF103_standard_peripheral/Source/gd32vf103_rcu.c ****     apb2_freq = ahb_freq >> clk_exp;
1092:./../../firmware/GD32VF103_standard_peripheral/Source/gd32vf103_rcu.c ****     
1093:./../../firmware/GD32VF103_standard_peripheral/Source/gd32vf103_rcu.c ****     /* return the clocks frequency */
1094:./../../firmware/GD32VF103_standard_peripheral/Source/gd32vf103_rcu.c ****     switch(clock){
 1759              		.loc 1 1094 5
 1760 00f4 8546     		li	a3,1
1090:./../../firmware/GD32VF103_standard_peripheral/Source/gd32vf103_rcu.c ****     apb2_freq = ahb_freq >> clk_exp;
 1761              		.loc 1 1090 23
 1762 00f6 034787FE 		lbu	a4,-24(a4)
 1763              	.LVL191:
1091:./../../firmware/GD32VF103_standard_peripheral/Source/gd32vf103_rcu.c ****     apb2_freq = ahb_freq >> clk_exp;
 1764              		.loc 1 1091 5 is_stmt 1
 1765              		.loc 1 1094 5
 1766 00fa 630CD400 		beq	s0,a3,.L87
 1767 00fe 05CC     		beq	s0,zero,.L102
 1768 0100 8947     		li	a5,2
 1769              	.LVL192:
 1770 0102 6307F402 		beq	s0,a5,.L97
 1771 0106 8D47     		li	a5,3
1091:./../../firmware/GD32VF103_standard_peripheral/Source/gd32vf103_rcu.c ****     apb2_freq = ahb_freq >> clk_exp;
 1772              		.loc 1 1091 15 is_stmt 0
 1773 0108 3355E500 		srl	a0,a0,a4
 1774              	.LVL193:
 1775              		.loc 1 1094 5
 1776 010c 6303F400 		beq	s0,a5,.L87
1007:./../../firmware/GD32VF103_standard_peripheral/Source/gd32vf103_rcu.c ****     uint32_t cksys_freq, ahb_freq, apb1_freq, apb2_freq;
 1777              		.loc 1 1007 19
 1778 0110 0145     		li	a0,0
 1779              	.LVL194:
 1780              	.L87:
1095:./../../firmware/GD32VF103_standard_peripheral/Source/gd32vf103_rcu.c ****     case CK_SYS:
1096:./../../firmware/GD32VF103_standard_peripheral/Source/gd32vf103_rcu.c ****         ck_freq = cksys_freq;
1097:./../../firmware/GD32VF103_standard_peripheral/Source/gd32vf103_rcu.c ****         break;
1098:./../../firmware/GD32VF103_standard_peripheral/Source/gd32vf103_rcu.c ****     case CK_AHB:
1099:./../../firmware/GD32VF103_standard_peripheral/Source/gd32vf103_rcu.c ****         ck_freq = ahb_freq;
1100:./../../firmware/GD32VF103_standard_peripheral/Source/gd32vf103_rcu.c ****         break;
1101:./../../firmware/GD32VF103_standard_peripheral/Source/gd32vf103_rcu.c ****     case CK_APB1:
1102:./../../firmware/GD32VF103_standard_peripheral/Source/gd32vf103_rcu.c ****         ck_freq = apb1_freq;
1103:./../../firmware/GD32VF103_standard_peripheral/Source/gd32vf103_rcu.c ****         break;
1104:./../../firmware/GD32VF103_standard_peripheral/Source/gd32vf103_rcu.c ****     case CK_APB2:
1105:./../../firmware/GD32VF103_standard_peripheral/Source/gd32vf103_rcu.c ****         ck_freq = apb2_freq;
1106:./../../firmware/GD32VF103_standard_peripheral/Source/gd32vf103_rcu.c ****         break;
1107:./../../firmware/GD32VF103_standard_peripheral/Source/gd32vf103_rcu.c ****     default:
1108:./../../firmware/GD32VF103_standard_peripheral/Source/gd32vf103_rcu.c ****         break;
GAS LISTING C:\Users\Karzan\AppData\Local\Temp\cc0WDOsQ.s 			page 53


1109:./../../firmware/GD32VF103_standard_peripheral/Source/gd32vf103_rcu.c ****     }
1110:./../../firmware/GD32VF103_standard_peripheral/Source/gd32vf103_rcu.c ****     return ck_freq;
1111:./../../firmware/GD32VF103_standard_peripheral/Source/gd32vf103_rcu.c **** }
 1781              		.loc 1 1111 1
 1782 0112 B250     		lw	ra,44(sp)
 1783              		.cfi_remember_state
 1784              		.cfi_restore 1
 1785 0114 2254     		lw	s0,40(sp)
 1786              		.cfi_restore 8
 1787              	.LVL195:
 1788 0116 4561     		addi	sp,sp,48
 1789              	.LCFI6:
 1790              		.cfi_def_cfa_offset 0
 1791 0118 8280     		jr	ra
 1792              	.LVL196:
 1793              	.L94:
 1794              	.LCFI7:
 1795              		.cfi_restore_state
1068:./../../firmware/GD32VF103_standard_peripheral/Source/gd32vf103_rcu.c ****         }
 1796              		.loc 1 1068 13 is_stmt 1
1068:./../../firmware/GD32VF103_standard_peripheral/Source/gd32vf103_rcu.c ****         }
 1797              		.loc 1 1068 33 is_stmt 0
 1798 011a 9947     		li	a5,6
 1799              	.LVL197:
 1800 011c B307F702 		mul	a5,a4,a5
1068:./../../firmware/GD32VF103_standard_peripheral/Source/gd32vf103_rcu.c ****         }
 1801              		.loc 1 1068 47
 1802 0120 0583     		srli	a4,a4,1
 1803              	.LVL198:
1068:./../../firmware/GD32VF103_standard_peripheral/Source/gd32vf103_rcu.c ****         }
 1804              		.loc 1 1068 24
 1805 0122 BA97     		add	a5,a5,a4
 1806              	.LVL199:
 1807 0124 55B7     		j	.L88
 1808              	.LVL200:
 1809              	.L99:
1021:./../../firmware/GD32VF103_standard_peripheral/Source/gd32vf103_rcu.c ****         break;
 1810              		.loc 1 1021 20
 1811 0126 B7177A00 		li	a5,7999488
 1812              	.LVL201:
 1813 012a 93870720 		addi	a5,a5,512
 1814 012e 69BF     		j	.L88
 1815              	.LVL202:
 1816              	.L97:
1086:./../../firmware/GD32VF103_standard_peripheral/Source/gd32vf103_rcu.c ****     
 1817              		.loc 1 1086 15
 1818 0130 3355C500 		srl	a0,a0,a2
 1819              	.LVL203:
1102:./../../firmware/GD32VF103_standard_peripheral/Source/gd32vf103_rcu.c ****         break;
 1820              		.loc 1 1102 9 is_stmt 1
1103:./../../firmware/GD32VF103_standard_peripheral/Source/gd32vf103_rcu.c ****     case CK_APB2:
 1821              		.loc 1 1103 9
 1822 0134 F9BF     		j	.L87
 1823              	.LVL204:
 1824              	.L102:
1096:./../../firmware/GD32VF103_standard_peripheral/Source/gd32vf103_rcu.c ****         break;
 1825              		.loc 1 1096 17 is_stmt 0
GAS LISTING C:\Users\Karzan\AppData\Local\Temp\cc0WDOsQ.s 			page 54


 1826 0136 3E85     		mv	a0,a5
 1827              	.LVL205:
1110:./../../firmware/GD32VF103_standard_peripheral/Source/gd32vf103_rcu.c **** }
 1828              		.loc 1 1110 5 is_stmt 1
1110:./../../firmware/GD32VF103_standard_peripheral/Source/gd32vf103_rcu.c **** }
 1829              		.loc 1 1110 12 is_stmt 0
 1830 0138 E9BF     		j	.L87
 1831              		.cfi_endproc
 1832              	.LFE42:
 1834              		.section	.rodata
 1835              		.align	2
 1836              		.set	.LANCHOR0,. + 0
 1837              	.LC0:
 1838 0000 00       		.byte	0
 1839 0001 00       		.byte	0
 1840 0002 00       		.byte	0
 1841 0003 00       		.byte	0
 1842 0004 00       		.byte	0
 1843 0005 00       		.byte	0
 1844 0006 00       		.byte	0
 1845 0007 00       		.byte	0
 1846 0008 01       		.byte	1
 1847 0009 02       		.byte	2
 1848 000a 03       		.byte	3
 1849 000b 04       		.byte	4
 1850 000c 06       		.byte	6
 1851 000d 07       		.byte	7
 1852 000e 08       		.byte	8
 1853 000f 09       		.byte	9
 1854              		.text
 1855              	.Letext0:
 1856              		.file 2 "c:\\users\\karzan\\downloads\\toolchain-gd32v-v202-win\\toolchain-gd32v-v202-win\\compile
 1857              		.file 3 "c:\\users\\karzan\\downloads\\toolchain-gd32v-v202-win\\toolchain-gd32v-v202-win\\compile
 1858              		.file 4 "./../../firmware/GD32VF103_standard_peripheral/gd32vf103.h"
 1859              		.file 5 "./../../firmware/GD32VF103_standard_peripheral/Include/gd32vf103_rcu.h"
 1860              		.file 6 "./../../firmware/GD32VF103_standard_peripheral/system_gd32vf103.h"
 1861              		.file 7 "<built-in>"
GAS LISTING C:\Users\Karzan\AppData\Local\Temp\cc0WDOsQ.s 			page 55


DEFINED SYMBOLS
                            *ABS*:0000000000000000 gd32vf103_rcu.c
C:\Users\Karzan\AppData\Local\Temp\cc0WDOsQ.s:13     .text.rcu_periph_clock_enable:0000000000000000 rcu_periph_clock_enable
C:\Users\Karzan\AppData\Local\Temp\cc0WDOsQ.s:17     .text.rcu_periph_clock_enable:0000000000000000 .L0 
C:\Users\Karzan\AppData\Local\Temp\cc0WDOsQ.s:19     .text.rcu_periph_clock_enable:0000000000000000 .L0 
C:\Users\Karzan\AppData\Local\Temp\cc0WDOsQ.s:20     .text.rcu_periph_clock_enable:0000000000000000 .L0 
C:\Users\Karzan\AppData\Local\Temp\cc0WDOsQ.s:21     .text.rcu_periph_clock_enable:0000000000000000 .L0 
C:\Users\Karzan\AppData\Local\Temp\cc0WDOsQ.s:26     .text.rcu_periph_clock_enable:000000000000000c .L0 
C:\Users\Karzan\AppData\Local\Temp\cc0WDOsQ.s:29     .text.rcu_periph_clock_enable:0000000000000012 .L0 
C:\Users\Karzan\AppData\Local\Temp\cc0WDOsQ.s:32     .text.rcu_periph_clock_enable:0000000000000016 .L0 
C:\Users\Karzan\AppData\Local\Temp\cc0WDOsQ.s:33     .text.rcu_periph_clock_enable:0000000000000018 .L0 
C:\Users\Karzan\AppData\Local\Temp\cc0WDOsQ.s:40     .text.rcu_periph_clock_disable:0000000000000000 rcu_periph_clock_disable
C:\Users\Karzan\AppData\Local\Temp\cc0WDOsQ.s:43     .text.rcu_periph_clock_disable:0000000000000000 .L0 
C:\Users\Karzan\AppData\Local\Temp\cc0WDOsQ.s:45     .text.rcu_periph_clock_disable:0000000000000000 .L0 
C:\Users\Karzan\AppData\Local\Temp\cc0WDOsQ.s:46     .text.rcu_periph_clock_disable:0000000000000000 .L0 
C:\Users\Karzan\AppData\Local\Temp\cc0WDOsQ.s:47     .text.rcu_periph_clock_disable:0000000000000000 .L0 
C:\Users\Karzan\AppData\Local\Temp\cc0WDOsQ.s:52     .text.rcu_periph_clock_disable:000000000000000c .L0 
C:\Users\Karzan\AppData\Local\Temp\cc0WDOsQ.s:55     .text.rcu_periph_clock_disable:0000000000000012 .L0 
C:\Users\Karzan\AppData\Local\Temp\cc0WDOsQ.s:57     .text.rcu_periph_clock_disable:0000000000000016 .L0 
C:\Users\Karzan\AppData\Local\Temp\cc0WDOsQ.s:60     .text.rcu_periph_clock_disable:000000000000001a .L0 
C:\Users\Karzan\AppData\Local\Temp\cc0WDOsQ.s:61     .text.rcu_periph_clock_disable:000000000000001c .L0 
C:\Users\Karzan\AppData\Local\Temp\cc0WDOsQ.s:68     .text.rcu_periph_clock_sleep_enable:0000000000000000 rcu_periph_clock_sleep_enable
C:\Users\Karzan\AppData\Local\Temp\cc0WDOsQ.s:71     .text.rcu_periph_clock_sleep_enable:0000000000000000 .L0 
C:\Users\Karzan\AppData\Local\Temp\cc0WDOsQ.s:73     .text.rcu_periph_clock_sleep_enable:0000000000000000 .L0 
C:\Users\Karzan\AppData\Local\Temp\cc0WDOsQ.s:74     .text.rcu_periph_clock_sleep_enable:0000000000000000 .L0 
C:\Users\Karzan\AppData\Local\Temp\cc0WDOsQ.s:75     .text.rcu_periph_clock_sleep_enable:0000000000000000 .L0 
C:\Users\Karzan\AppData\Local\Temp\cc0WDOsQ.s:80     .text.rcu_periph_clock_sleep_enable:000000000000000c .L0 
C:\Users\Karzan\AppData\Local\Temp\cc0WDOsQ.s:83     .text.rcu_periph_clock_sleep_enable:0000000000000012 .L0 
C:\Users\Karzan\AppData\Local\Temp\cc0WDOsQ.s:86     .text.rcu_periph_clock_sleep_enable:0000000000000016 .L0 
C:\Users\Karzan\AppData\Local\Temp\cc0WDOsQ.s:87     .text.rcu_periph_clock_sleep_enable:0000000000000018 .L0 
C:\Users\Karzan\AppData\Local\Temp\cc0WDOsQ.s:94     .text.rcu_periph_clock_sleep_disable:0000000000000000 rcu_periph_clock_sleep_disable
C:\Users\Karzan\AppData\Local\Temp\cc0WDOsQ.s:97     .text.rcu_periph_clock_sleep_disable:0000000000000000 .L0 
C:\Users\Karzan\AppData\Local\Temp\cc0WDOsQ.s:99     .text.rcu_periph_clock_sleep_disable:0000000000000000 .L0 
C:\Users\Karzan\AppData\Local\Temp\cc0WDOsQ.s:100    .text.rcu_periph_clock_sleep_disable:0000000000000000 .L0 
C:\Users\Karzan\AppData\Local\Temp\cc0WDOsQ.s:101    .text.rcu_periph_clock_sleep_disable:0000000000000000 .L0 
C:\Users\Karzan\AppData\Local\Temp\cc0WDOsQ.s:106    .text.rcu_periph_clock_sleep_disable:000000000000000c .L0 
C:\Users\Karzan\AppData\Local\Temp\cc0WDOsQ.s:109    .text.rcu_periph_clock_sleep_disable:0000000000000012 .L0 
C:\Users\Karzan\AppData\Local\Temp\cc0WDOsQ.s:111    .text.rcu_periph_clock_sleep_disable:0000000000000016 .L0 
C:\Users\Karzan\AppData\Local\Temp\cc0WDOsQ.s:114    .text.rcu_periph_clock_sleep_disable:000000000000001a .L0 
C:\Users\Karzan\AppData\Local\Temp\cc0WDOsQ.s:115    .text.rcu_periph_clock_sleep_disable:000000000000001c .L0 
C:\Users\Karzan\AppData\Local\Temp\cc0WDOsQ.s:122    .text.rcu_periph_reset_enable:0000000000000000 rcu_periph_reset_enable
C:\Users\Karzan\AppData\Local\Temp\cc0WDOsQ.s:125    .text.rcu_periph_reset_enable:0000000000000000 .L0 
C:\Users\Karzan\AppData\Local\Temp\cc0WDOsQ.s:127    .text.rcu_periph_reset_enable:0000000000000000 .L0 
C:\Users\Karzan\AppData\Local\Temp\cc0WDOsQ.s:128    .text.rcu_periph_reset_enable:0000000000000000 .L0 
C:\Users\Karzan\AppData\Local\Temp\cc0WDOsQ.s:129    .text.rcu_periph_reset_enable:0000000000000000 .L0 
C:\Users\Karzan\AppData\Local\Temp\cc0WDOsQ.s:134    .text.rcu_periph_reset_enable:000000000000000c .L0 
C:\Users\Karzan\AppData\Local\Temp\cc0WDOsQ.s:137    .text.rcu_periph_reset_enable:0000000000000012 .L0 
C:\Users\Karzan\AppData\Local\Temp\cc0WDOsQ.s:140    .text.rcu_periph_reset_enable:0000000000000016 .L0 
C:\Users\Karzan\AppData\Local\Temp\cc0WDOsQ.s:141    .text.rcu_periph_reset_enable:0000000000000018 .L0 
C:\Users\Karzan\AppData\Local\Temp\cc0WDOsQ.s:148    .text.rcu_periph_reset_disable:0000000000000000 rcu_periph_reset_disable
C:\Users\Karzan\AppData\Local\Temp\cc0WDOsQ.s:151    .text.rcu_periph_reset_disable:0000000000000000 .L0 
C:\Users\Karzan\AppData\Local\Temp\cc0WDOsQ.s:153    .text.rcu_periph_reset_disable:0000000000000000 .L0 
C:\Users\Karzan\AppData\Local\Temp\cc0WDOsQ.s:154    .text.rcu_periph_reset_disable:0000000000000000 .L0 
C:\Users\Karzan\AppData\Local\Temp\cc0WDOsQ.s:155    .text.rcu_periph_reset_disable:0000000000000000 .L0 
C:\Users\Karzan\AppData\Local\Temp\cc0WDOsQ.s:160    .text.rcu_periph_reset_disable:000000000000000c .L0 
C:\Users\Karzan\AppData\Local\Temp\cc0WDOsQ.s:163    .text.rcu_periph_reset_disable:0000000000000012 .L0 
C:\Users\Karzan\AppData\Local\Temp\cc0WDOsQ.s:165    .text.rcu_periph_reset_disable:0000000000000016 .L0 
GAS LISTING C:\Users\Karzan\AppData\Local\Temp\cc0WDOsQ.s 			page 56


C:\Users\Karzan\AppData\Local\Temp\cc0WDOsQ.s:168    .text.rcu_periph_reset_disable:000000000000001a .L0 
C:\Users\Karzan\AppData\Local\Temp\cc0WDOsQ.s:169    .text.rcu_periph_reset_disable:000000000000001c .L0 
C:\Users\Karzan\AppData\Local\Temp\cc0WDOsQ.s:176    .text.rcu_bkp_reset_enable:0000000000000000 rcu_bkp_reset_enable
C:\Users\Karzan\AppData\Local\Temp\cc0WDOsQ.s:179    .text.rcu_bkp_reset_enable:0000000000000000 .L0 
C:\Users\Karzan\AppData\Local\Temp\cc0WDOsQ.s:180    .text.rcu_bkp_reset_enable:0000000000000000 .L0 
C:\Users\Karzan\AppData\Local\Temp\cc0WDOsQ.s:181    .text.rcu_bkp_reset_enable:0000000000000000 .L0 
C:\Users\Karzan\AppData\Local\Temp\cc0WDOsQ.s:182    .text.rcu_bkp_reset_enable:0000000000000000 .L0 
C:\Users\Karzan\AppData\Local\Temp\cc0WDOsQ.s:188    .text.rcu_bkp_reset_enable:000000000000000c .L0 
C:\Users\Karzan\AppData\Local\Temp\cc0WDOsQ.s:189    .text.rcu_bkp_reset_enable:000000000000000e .L0 
C:\Users\Karzan\AppData\Local\Temp\cc0WDOsQ.s:196    .text.rcu_bkp_reset_disable:0000000000000000 rcu_bkp_reset_disable
C:\Users\Karzan\AppData\Local\Temp\cc0WDOsQ.s:199    .text.rcu_bkp_reset_disable:0000000000000000 .L0 
C:\Users\Karzan\AppData\Local\Temp\cc0WDOsQ.s:200    .text.rcu_bkp_reset_disable:0000000000000000 .L0 
C:\Users\Karzan\AppData\Local\Temp\cc0WDOsQ.s:201    .text.rcu_bkp_reset_disable:0000000000000000 .L0 
C:\Users\Karzan\AppData\Local\Temp\cc0WDOsQ.s:202    .text.rcu_bkp_reset_disable:0000000000000000 .L0 
C:\Users\Karzan\AppData\Local\Temp\cc0WDOsQ.s:209    .text.rcu_bkp_reset_disable:000000000000000e .L0 
C:\Users\Karzan\AppData\Local\Temp\cc0WDOsQ.s:210    .text.rcu_bkp_reset_disable:0000000000000010 .L0 
C:\Users\Karzan\AppData\Local\Temp\cc0WDOsQ.s:217    .text.rcu_system_clock_source_config:0000000000000000 rcu_system_clock_source_config
C:\Users\Karzan\AppData\Local\Temp\cc0WDOsQ.s:220    .text.rcu_system_clock_source_config:0000000000000000 .L0 
C:\Users\Karzan\AppData\Local\Temp\cc0WDOsQ.s:222    .text.rcu_system_clock_source_config:0000000000000000 .L0 
C:\Users\Karzan\AppData\Local\Temp\cc0WDOsQ.s:223    .text.rcu_system_clock_source_config:0000000000000000 .L0 
C:\Users\Karzan\AppData\Local\Temp\cc0WDOsQ.s:224    .text.rcu_system_clock_source_config:0000000000000000 .L0 
C:\Users\Karzan\AppData\Local\Temp\cc0WDOsQ.s:225    .text.rcu_system_clock_source_config:0000000000000000 .L0 
C:\Users\Karzan\AppData\Local\Temp\cc0WDOsQ.s:229    .text.rcu_system_clock_source_config:0000000000000006 .L0 
C:\Users\Karzan\AppData\Local\Temp\cc0WDOsQ.s:230    .text.rcu_system_clock_source_config:0000000000000006 .L0 
C:\Users\Karzan\AppData\Local\Temp\cc0WDOsQ.s:231    .text.rcu_system_clock_source_config:0000000000000006 .L0 
C:\Users\Karzan\AppData\Local\Temp\cc0WDOsQ.s:234    .text.rcu_system_clock_source_config:0000000000000008 .L0 
C:\Users\Karzan\AppData\Local\Temp\cc0WDOsQ.s:237    .text.rcu_system_clock_source_config:000000000000000a .L0 
C:\Users\Karzan\AppData\Local\Temp\cc0WDOsQ.s:239    .text.rcu_system_clock_source_config:000000000000000c .L0 
C:\Users\Karzan\AppData\Local\Temp\cc0WDOsQ.s:240    .text.rcu_system_clock_source_config:000000000000000e .L0 
C:\Users\Karzan\AppData\Local\Temp\cc0WDOsQ.s:247    .text.rcu_system_clock_source_get:0000000000000000 rcu_system_clock_source_get
C:\Users\Karzan\AppData\Local\Temp\cc0WDOsQ.s:250    .text.rcu_system_clock_source_get:0000000000000000 .L0 
C:\Users\Karzan\AppData\Local\Temp\cc0WDOsQ.s:251    .text.rcu_system_clock_source_get:0000000000000000 .L0 
C:\Users\Karzan\AppData\Local\Temp\cc0WDOsQ.s:252    .text.rcu_system_clock_source_get:0000000000000000 .L0 
C:\Users\Karzan\AppData\Local\Temp\cc0WDOsQ.s:253    .text.rcu_system_clock_source_get:0000000000000000 .L0 
C:\Users\Karzan\AppData\Local\Temp\cc0WDOsQ.s:256    .text.rcu_system_clock_source_get:0000000000000006 .L0 
C:\Users\Karzan\AppData\Local\Temp\cc0WDOsQ.s:258    .text.rcu_system_clock_source_get:000000000000000a .L0 
C:\Users\Karzan\AppData\Local\Temp\cc0WDOsQ.s:265    .text.rcu_ahb_clock_config:0000000000000000 rcu_ahb_clock_config
C:\Users\Karzan\AppData\Local\Temp\cc0WDOsQ.s:268    .text.rcu_ahb_clock_config:0000000000000000 .L0 
C:\Users\Karzan\AppData\Local\Temp\cc0WDOsQ.s:270    .text.rcu_ahb_clock_config:0000000000000000 .L0 
C:\Users\Karzan\AppData\Local\Temp\cc0WDOsQ.s:271    .text.rcu_ahb_clock_config:0000000000000000 .L0 
C:\Users\Karzan\AppData\Local\Temp\cc0WDOsQ.s:272    .text.rcu_ahb_clock_config:0000000000000000 .L0 
C:\Users\Karzan\AppData\Local\Temp\cc0WDOsQ.s:273    .text.rcu_ahb_clock_config:0000000000000000 .L0 
C:\Users\Karzan\AppData\Local\Temp\cc0WDOsQ.s:277    .text.rcu_ahb_clock_config:0000000000000006 .L0 
C:\Users\Karzan\AppData\Local\Temp\cc0WDOsQ.s:278    .text.rcu_ahb_clock_config:0000000000000006 .L0 
C:\Users\Karzan\AppData\Local\Temp\cc0WDOsQ.s:279    .text.rcu_ahb_clock_config:0000000000000006 .L0 
C:\Users\Karzan\AppData\Local\Temp\cc0WDOsQ.s:282    .text.rcu_ahb_clock_config:000000000000000a .L0 
C:\Users\Karzan\AppData\Local\Temp\cc0WDOsQ.s:285    .text.rcu_ahb_clock_config:000000000000000c .L0 
C:\Users\Karzan\AppData\Local\Temp\cc0WDOsQ.s:287    .text.rcu_ahb_clock_config:000000000000000e .L0 
C:\Users\Karzan\AppData\Local\Temp\cc0WDOsQ.s:288    .text.rcu_ahb_clock_config:0000000000000010 .L0 
C:\Users\Karzan\AppData\Local\Temp\cc0WDOsQ.s:295    .text.rcu_apb1_clock_config:0000000000000000 rcu_apb1_clock_config
C:\Users\Karzan\AppData\Local\Temp\cc0WDOsQ.s:298    .text.rcu_apb1_clock_config:0000000000000000 .L0 
C:\Users\Karzan\AppData\Local\Temp\cc0WDOsQ.s:300    .text.rcu_apb1_clock_config:0000000000000000 .L0 
C:\Users\Karzan\AppData\Local\Temp\cc0WDOsQ.s:301    .text.rcu_apb1_clock_config:0000000000000000 .L0 
C:\Users\Karzan\AppData\Local\Temp\cc0WDOsQ.s:302    .text.rcu_apb1_clock_config:0000000000000000 .L0 
C:\Users\Karzan\AppData\Local\Temp\cc0WDOsQ.s:303    .text.rcu_apb1_clock_config:0000000000000000 .L0 
C:\Users\Karzan\AppData\Local\Temp\cc0WDOsQ.s:307    .text.rcu_apb1_clock_config:0000000000000006 .L0 
C:\Users\Karzan\AppData\Local\Temp\cc0WDOsQ.s:308    .text.rcu_apb1_clock_config:0000000000000006 .L0 
GAS LISTING C:\Users\Karzan\AppData\Local\Temp\cc0WDOsQ.s 			page 57


C:\Users\Karzan\AppData\Local\Temp\cc0WDOsQ.s:309    .text.rcu_apb1_clock_config:0000000000000006 .L0 
C:\Users\Karzan\AppData\Local\Temp\cc0WDOsQ.s:312    .text.rcu_apb1_clock_config:000000000000000a .L0 
C:\Users\Karzan\AppData\Local\Temp\cc0WDOsQ.s:315    .text.rcu_apb1_clock_config:000000000000000c .L0 
C:\Users\Karzan\AppData\Local\Temp\cc0WDOsQ.s:317    .text.rcu_apb1_clock_config:000000000000000e .L0 
C:\Users\Karzan\AppData\Local\Temp\cc0WDOsQ.s:318    .text.rcu_apb1_clock_config:0000000000000010 .L0 
C:\Users\Karzan\AppData\Local\Temp\cc0WDOsQ.s:325    .text.rcu_apb2_clock_config:0000000000000000 rcu_apb2_clock_config
C:\Users\Karzan\AppData\Local\Temp\cc0WDOsQ.s:328    .text.rcu_apb2_clock_config:0000000000000000 .L0 
C:\Users\Karzan\AppData\Local\Temp\cc0WDOsQ.s:330    .text.rcu_apb2_clock_config:0000000000000000 .L0 
C:\Users\Karzan\AppData\Local\Temp\cc0WDOsQ.s:331    .text.rcu_apb2_clock_config:0000000000000000 .L0 
C:\Users\Karzan\AppData\Local\Temp\cc0WDOsQ.s:332    .text.rcu_apb2_clock_config:0000000000000000 .L0 
C:\Users\Karzan\AppData\Local\Temp\cc0WDOsQ.s:333    .text.rcu_apb2_clock_config:0000000000000000 .L0 
C:\Users\Karzan\AppData\Local\Temp\cc0WDOsQ.s:337    .text.rcu_apb2_clock_config:0000000000000006 .L0 
C:\Users\Karzan\AppData\Local\Temp\cc0WDOsQ.s:338    .text.rcu_apb2_clock_config:0000000000000006 .L0 
C:\Users\Karzan\AppData\Local\Temp\cc0WDOsQ.s:339    .text.rcu_apb2_clock_config:0000000000000006 .L0 
C:\Users\Karzan\AppData\Local\Temp\cc0WDOsQ.s:344    .text.rcu_apb2_clock_config:000000000000000e .L0 
C:\Users\Karzan\AppData\Local\Temp\cc0WDOsQ.s:347    .text.rcu_apb2_clock_config:0000000000000010 .L0 
C:\Users\Karzan\AppData\Local\Temp\cc0WDOsQ.s:349    .text.rcu_apb2_clock_config:0000000000000012 .L0 
C:\Users\Karzan\AppData\Local\Temp\cc0WDOsQ.s:350    .text.rcu_apb2_clock_config:0000000000000014 .L0 
C:\Users\Karzan\AppData\Local\Temp\cc0WDOsQ.s:357    .text.rcu_ckout0_config:0000000000000000 rcu_ckout0_config
C:\Users\Karzan\AppData\Local\Temp\cc0WDOsQ.s:360    .text.rcu_ckout0_config:0000000000000000 .L0 
C:\Users\Karzan\AppData\Local\Temp\cc0WDOsQ.s:362    .text.rcu_ckout0_config:0000000000000000 .L0 
C:\Users\Karzan\AppData\Local\Temp\cc0WDOsQ.s:363    .text.rcu_ckout0_config:0000000000000000 .L0 
C:\Users\Karzan\AppData\Local\Temp\cc0WDOsQ.s:364    .text.rcu_ckout0_config:0000000000000000 .L0 
C:\Users\Karzan\AppData\Local\Temp\cc0WDOsQ.s:365    .text.rcu_ckout0_config:0000000000000000 .L0 
C:\Users\Karzan\AppData\Local\Temp\cc0WDOsQ.s:369    .text.rcu_ckout0_config:0000000000000006 .L0 
C:\Users\Karzan\AppData\Local\Temp\cc0WDOsQ.s:370    .text.rcu_ckout0_config:0000000000000006 .L0 
C:\Users\Karzan\AppData\Local\Temp\cc0WDOsQ.s:371    .text.rcu_ckout0_config:0000000000000006 .L0 
C:\Users\Karzan\AppData\Local\Temp\cc0WDOsQ.s:376    .text.rcu_ckout0_config:000000000000000e .L0 
C:\Users\Karzan\AppData\Local\Temp\cc0WDOsQ.s:379    .text.rcu_ckout0_config:0000000000000010 .L0 
C:\Users\Karzan\AppData\Local\Temp\cc0WDOsQ.s:381    .text.rcu_ckout0_config:0000000000000012 .L0 
C:\Users\Karzan\AppData\Local\Temp\cc0WDOsQ.s:382    .text.rcu_ckout0_config:0000000000000014 .L0 
C:\Users\Karzan\AppData\Local\Temp\cc0WDOsQ.s:389    .text.rcu_pll_config:0000000000000000 rcu_pll_config
C:\Users\Karzan\AppData\Local\Temp\cc0WDOsQ.s:392    .text.rcu_pll_config:0000000000000000 .L0 
C:\Users\Karzan\AppData\Local\Temp\cc0WDOsQ.s:394    .text.rcu_pll_config:0000000000000000 .L0 
C:\Users\Karzan\AppData\Local\Temp\cc0WDOsQ.s:395    .text.rcu_pll_config:0000000000000000 .L0 
C:\Users\Karzan\AppData\Local\Temp\cc0WDOsQ.s:396    .text.rcu_pll_config:0000000000000000 .L0 
C:\Users\Karzan\AppData\Local\Temp\cc0WDOsQ.s:397    .text.rcu_pll_config:0000000000000000 .L0 
C:\Users\Karzan\AppData\Local\Temp\cc0WDOsQ.s:401    .text.rcu_pll_config:0000000000000006 .L0 
C:\Users\Karzan\AppData\Local\Temp\cc0WDOsQ.s:402    .text.rcu_pll_config:0000000000000006 .L0 
C:\Users\Karzan\AppData\Local\Temp\cc0WDOsQ.s:403    .text.rcu_pll_config:0000000000000006 .L0 
C:\Users\Karzan\AppData\Local\Temp\cc0WDOsQ.s:410    .text.rcu_pll_config:0000000000000010 .L0 
C:\Users\Karzan\AppData\Local\Temp\cc0WDOsQ.s:413    .text.rcu_pll_config:0000000000000012 .L0 
C:\Users\Karzan\AppData\Local\Temp\cc0WDOsQ.s:414    .text.rcu_pll_config:0000000000000012 .L0 
C:\Users\Karzan\AppData\Local\Temp\cc0WDOsQ.s:416    .text.rcu_pll_config:0000000000000014 .L0 
C:\Users\Karzan\AppData\Local\Temp\cc0WDOsQ.s:417    .text.rcu_pll_config:0000000000000016 .L0 
C:\Users\Karzan\AppData\Local\Temp\cc0WDOsQ.s:424    .text.rcu_predv0_config:0000000000000000 rcu_predv0_config
C:\Users\Karzan\AppData\Local\Temp\cc0WDOsQ.s:427    .text.rcu_predv0_config:0000000000000000 .L0 
C:\Users\Karzan\AppData\Local\Temp\cc0WDOsQ.s:429    .text.rcu_predv0_config:0000000000000000 .L0 
C:\Users\Karzan\AppData\Local\Temp\cc0WDOsQ.s:430    .text.rcu_predv0_config:0000000000000000 .L0 
C:\Users\Karzan\AppData\Local\Temp\cc0WDOsQ.s:431    .text.rcu_predv0_config:0000000000000000 .L0 
C:\Users\Karzan\AppData\Local\Temp\cc0WDOsQ.s:432    .text.rcu_predv0_config:0000000000000000 .L0 
C:\Users\Karzan\AppData\Local\Temp\cc0WDOsQ.s:436    .text.rcu_predv0_config:0000000000000006 .L0 
C:\Users\Karzan\AppData\Local\Temp\cc0WDOsQ.s:437    .text.rcu_predv0_config:0000000000000006 .L0 
C:\Users\Karzan\AppData\Local\Temp\cc0WDOsQ.s:438    .text.rcu_predv0_config:0000000000000006 .L0 
C:\Users\Karzan\AppData\Local\Temp\cc0WDOsQ.s:445    .text.rcu_predv0_config:000000000000000e .L0 
C:\Users\Karzan\AppData\Local\Temp\cc0WDOsQ.s:448    .text.rcu_predv0_config:0000000000000010 .L0 
C:\Users\Karzan\AppData\Local\Temp\cc0WDOsQ.s:449    .text.rcu_predv0_config:0000000000000010 .L0 
GAS LISTING C:\Users\Karzan\AppData\Local\Temp\cc0WDOsQ.s 			page 58


C:\Users\Karzan\AppData\Local\Temp\cc0WDOsQ.s:451    .text.rcu_predv0_config:0000000000000012 .L0 
C:\Users\Karzan\AppData\Local\Temp\cc0WDOsQ.s:452    .text.rcu_predv0_config:0000000000000014 .L0 
C:\Users\Karzan\AppData\Local\Temp\cc0WDOsQ.s:459    .text.rcu_predv1_config:0000000000000000 rcu_predv1_config
C:\Users\Karzan\AppData\Local\Temp\cc0WDOsQ.s:462    .text.rcu_predv1_config:0000000000000000 .L0 
C:\Users\Karzan\AppData\Local\Temp\cc0WDOsQ.s:464    .text.rcu_predv1_config:0000000000000000 .L0 
C:\Users\Karzan\AppData\Local\Temp\cc0WDOsQ.s:465    .text.rcu_predv1_config:0000000000000000 .L0 
C:\Users\Karzan\AppData\Local\Temp\cc0WDOsQ.s:466    .text.rcu_predv1_config:0000000000000000 .L0 
C:\Users\Karzan\AppData\Local\Temp\cc0WDOsQ.s:467    .text.rcu_predv1_config:0000000000000000 .L0 
C:\Users\Karzan\AppData\Local\Temp\cc0WDOsQ.s:471    .text.rcu_predv1_config:0000000000000006 .L0 
C:\Users\Karzan\AppData\Local\Temp\cc0WDOsQ.s:472    .text.rcu_predv1_config:0000000000000006 .L0 
C:\Users\Karzan\AppData\Local\Temp\cc0WDOsQ.s:475    .text.rcu_predv1_config:000000000000000a .L0 
C:\Users\Karzan\AppData\Local\Temp\cc0WDOsQ.s:476    .text.rcu_predv1_config:000000000000000a .L0 
C:\Users\Karzan\AppData\Local\Temp\cc0WDOsQ.s:479    .text.rcu_predv1_config:000000000000000c .L0 
C:\Users\Karzan\AppData\Local\Temp\cc0WDOsQ.s:480    .text.rcu_predv1_config:000000000000000c .L0 
C:\Users\Karzan\AppData\Local\Temp\cc0WDOsQ.s:482    .text.rcu_predv1_config:000000000000000e .L0 
C:\Users\Karzan\AppData\Local\Temp\cc0WDOsQ.s:483    .text.rcu_predv1_config:0000000000000010 .L0 
C:\Users\Karzan\AppData\Local\Temp\cc0WDOsQ.s:490    .text.rcu_pll1_config:0000000000000000 rcu_pll1_config
C:\Users\Karzan\AppData\Local\Temp\cc0WDOsQ.s:493    .text.rcu_pll1_config:0000000000000000 .L0 
C:\Users\Karzan\AppData\Local\Temp\cc0WDOsQ.s:495    .text.rcu_pll1_config:0000000000000000 .L0 
C:\Users\Karzan\AppData\Local\Temp\cc0WDOsQ.s:496    .text.rcu_pll1_config:0000000000000000 .L0 
C:\Users\Karzan\AppData\Local\Temp\cc0WDOsQ.s:497    .text.rcu_pll1_config:0000000000000000 .L0 
C:\Users\Karzan\AppData\Local\Temp\cc0WDOsQ.s:504    .text.rcu_pll1_config:0000000000000010 .L0 
C:\Users\Karzan\AppData\Local\Temp\cc0WDOsQ.s:505    .text.rcu_pll1_config:0000000000000010 .L0 
C:\Users\Karzan\AppData\Local\Temp\cc0WDOsQ.s:510    .text.rcu_pll1_config:0000000000000016 .L0 
C:\Users\Karzan\AppData\Local\Temp\cc0WDOsQ.s:511    .text.rcu_pll1_config:0000000000000018 .L0 
C:\Users\Karzan\AppData\Local\Temp\cc0WDOsQ.s:518    .text.rcu_pll2_config:0000000000000000 rcu_pll2_config
C:\Users\Karzan\AppData\Local\Temp\cc0WDOsQ.s:521    .text.rcu_pll2_config:0000000000000000 .L0 
C:\Users\Karzan\AppData\Local\Temp\cc0WDOsQ.s:523    .text.rcu_pll2_config:0000000000000000 .L0 
C:\Users\Karzan\AppData\Local\Temp\cc0WDOsQ.s:524    .text.rcu_pll2_config:0000000000000000 .L0 
C:\Users\Karzan\AppData\Local\Temp\cc0WDOsQ.s:525    .text.rcu_pll2_config:0000000000000000 .L0 
C:\Users\Karzan\AppData\Local\Temp\cc0WDOsQ.s:532    .text.rcu_pll2_config:000000000000000e .L0 
C:\Users\Karzan\AppData\Local\Temp\cc0WDOsQ.s:533    .text.rcu_pll2_config:000000000000000e .L0 
C:\Users\Karzan\AppData\Local\Temp\cc0WDOsQ.s:538    .text.rcu_pll2_config:0000000000000014 .L0 
C:\Users\Karzan\AppData\Local\Temp\cc0WDOsQ.s:539    .text.rcu_pll2_config:0000000000000016 .L0 
C:\Users\Karzan\AppData\Local\Temp\cc0WDOsQ.s:546    .text.rcu_adc_clock_config:0000000000000000 rcu_adc_clock_config
C:\Users\Karzan\AppData\Local\Temp\cc0WDOsQ.s:549    .text.rcu_adc_clock_config:0000000000000000 .L0 
C:\Users\Karzan\AppData\Local\Temp\cc0WDOsQ.s:551    .text.rcu_adc_clock_config:0000000000000000 .L0 
C:\Users\Karzan\AppData\Local\Temp\cc0WDOsQ.s:552    .text.rcu_adc_clock_config:0000000000000000 .L0 
C:\Users\Karzan\AppData\Local\Temp\cc0WDOsQ.s:553    .text.rcu_adc_clock_config:0000000000000000 .L0 
C:\Users\Karzan\AppData\Local\Temp\cc0WDOsQ.s:554    .text.rcu_adc_clock_config:0000000000000000 .L0 
C:\Users\Karzan\AppData\Local\Temp\cc0WDOsQ.s:558    .text.rcu_adc_clock_config:0000000000000006 .L0 
C:\Users\Karzan\AppData\Local\Temp\cc0WDOsQ.s:559    .text.rcu_adc_clock_config:0000000000000006 .L0 
C:\Users\Karzan\AppData\Local\Temp\cc0WDOsQ.s:564    .text.rcu_adc_clock_config:000000000000000e .L0 
C:\Users\Karzan\AppData\Local\Temp\cc0WDOsQ.s:572    .text.rcu_adc_clock_config:000000000000001e .L0 
C:\Users\Karzan\AppData\Local\Temp\cc0WDOsQ.s:573    .text.rcu_adc_clock_config:000000000000001e .L0 
C:\Users\Karzan\AppData\Local\Temp\cc0WDOsQ.s:576    .text.rcu_adc_clock_config:0000000000000024 .L0 
C:\Users\Karzan\AppData\Local\Temp\cc0WDOsQ.s:580    .text.rcu_adc_clock_config:0000000000000026 .L0 
C:\Users\Karzan\AppData\Local\Temp\cc0WDOsQ.s:585    .text.rcu_adc_clock_config:000000000000002c .L0 
C:\Users\Karzan\AppData\Local\Temp\cc0WDOsQ.s:586    .text.rcu_adc_clock_config:000000000000002c .L0 
C:\Users\Karzan\AppData\Local\Temp\cc0WDOsQ.s:587    .text.rcu_adc_clock_config:000000000000002c .L0 
C:\Users\Karzan\AppData\Local\Temp\cc0WDOsQ.s:592    .text.rcu_adc_clock_config:0000000000000032 .L0 
C:\Users\Karzan\AppData\Local\Temp\cc0WDOsQ.s:599    .text.rcu_adc_clock_config:000000000000003a .L0 
C:\Users\Karzan\AppData\Local\Temp\cc0WDOsQ.s:600    .text.rcu_adc_clock_config:000000000000003a .L0 
C:\Users\Karzan\AppData\Local\Temp\cc0WDOsQ.s:604    .text.rcu_adc_clock_config:000000000000003c .L0 
C:\Users\Karzan\AppData\Local\Temp\cc0WDOsQ.s:607    .text.rcu_adc_clock_config:000000000000003e .L0 
C:\Users\Karzan\AppData\Local\Temp\cc0WDOsQ.s:608    .text.rcu_adc_clock_config:0000000000000040 .L0 
C:\Users\Karzan\AppData\Local\Temp\cc0WDOsQ.s:615    .text.rcu_usb_clock_config:0000000000000000 rcu_usb_clock_config
GAS LISTING C:\Users\Karzan\AppData\Local\Temp\cc0WDOsQ.s 			page 59


C:\Users\Karzan\AppData\Local\Temp\cc0WDOsQ.s:618    .text.rcu_usb_clock_config:0000000000000000 .L0 
C:\Users\Karzan\AppData\Local\Temp\cc0WDOsQ.s:620    .text.rcu_usb_clock_config:0000000000000000 .L0 
C:\Users\Karzan\AppData\Local\Temp\cc0WDOsQ.s:621    .text.rcu_usb_clock_config:0000000000000000 .L0 
C:\Users\Karzan\AppData\Local\Temp\cc0WDOsQ.s:622    .text.rcu_usb_clock_config:0000000000000000 .L0 
C:\Users\Karzan\AppData\Local\Temp\cc0WDOsQ.s:623    .text.rcu_usb_clock_config:0000000000000000 .L0 
C:\Users\Karzan\AppData\Local\Temp\cc0WDOsQ.s:627    .text.rcu_usb_clock_config:0000000000000006 .L0 
C:\Users\Karzan\AppData\Local\Temp\cc0WDOsQ.s:628    .text.rcu_usb_clock_config:0000000000000006 .L0 
C:\Users\Karzan\AppData\Local\Temp\cc0WDOsQ.s:629    .text.rcu_usb_clock_config:0000000000000006 .L0 
C:\Users\Karzan\AppData\Local\Temp\cc0WDOsQ.s:634    .text.rcu_usb_clock_config:000000000000000e .L0 
C:\Users\Karzan\AppData\Local\Temp\cc0WDOsQ.s:637    .text.rcu_usb_clock_config:0000000000000010 .L0 
C:\Users\Karzan\AppData\Local\Temp\cc0WDOsQ.s:639    .text.rcu_usb_clock_config:0000000000000012 .L0 
C:\Users\Karzan\AppData\Local\Temp\cc0WDOsQ.s:640    .text.rcu_usb_clock_config:0000000000000014 .L0 
C:\Users\Karzan\AppData\Local\Temp\cc0WDOsQ.s:647    .text.rcu_rtc_clock_config:0000000000000000 rcu_rtc_clock_config
C:\Users\Karzan\AppData\Local\Temp\cc0WDOsQ.s:650    .text.rcu_rtc_clock_config:0000000000000000 .L0 
C:\Users\Karzan\AppData\Local\Temp\cc0WDOsQ.s:652    .text.rcu_rtc_clock_config:0000000000000000 .L0 
C:\Users\Karzan\AppData\Local\Temp\cc0WDOsQ.s:653    .text.rcu_rtc_clock_config:0000000000000000 .L0 
C:\Users\Karzan\AppData\Local\Temp\cc0WDOsQ.s:654    .text.rcu_rtc_clock_config:0000000000000000 .L0 
C:\Users\Karzan\AppData\Local\Temp\cc0WDOsQ.s:655    .text.rcu_rtc_clock_config:0000000000000000 .L0 
C:\Users\Karzan\AppData\Local\Temp\cc0WDOsQ.s:659    .text.rcu_rtc_clock_config:0000000000000006 .L0 
C:\Users\Karzan\AppData\Local\Temp\cc0WDOsQ.s:660    .text.rcu_rtc_clock_config:0000000000000006 .L0 
C:\Users\Karzan\AppData\Local\Temp\cc0WDOsQ.s:661    .text.rcu_rtc_clock_config:0000000000000006 .L0 
C:\Users\Karzan\AppData\Local\Temp\cc0WDOsQ.s:664    .text.rcu_rtc_clock_config:000000000000000a .L0 
C:\Users\Karzan\AppData\Local\Temp\cc0WDOsQ.s:667    .text.rcu_rtc_clock_config:000000000000000c .L0 
C:\Users\Karzan\AppData\Local\Temp\cc0WDOsQ.s:669    .text.rcu_rtc_clock_config:000000000000000e .L0 
C:\Users\Karzan\AppData\Local\Temp\cc0WDOsQ.s:670    .text.rcu_rtc_clock_config:0000000000000010 .L0 
C:\Users\Karzan\AppData\Local\Temp\cc0WDOsQ.s:677    .text.rcu_i2s1_clock_config:0000000000000000 rcu_i2s1_clock_config
C:\Users\Karzan\AppData\Local\Temp\cc0WDOsQ.s:680    .text.rcu_i2s1_clock_config:0000000000000000 .L0 
C:\Users\Karzan\AppData\Local\Temp\cc0WDOsQ.s:682    .text.rcu_i2s1_clock_config:0000000000000000 .L0 
C:\Users\Karzan\AppData\Local\Temp\cc0WDOsQ.s:683    .text.rcu_i2s1_clock_config:0000000000000000 .L0 
C:\Users\Karzan\AppData\Local\Temp\cc0WDOsQ.s:684    .text.rcu_i2s1_clock_config:0000000000000000 .L0 
C:\Users\Karzan\AppData\Local\Temp\cc0WDOsQ.s:685    .text.rcu_i2s1_clock_config:0000000000000000 .L0 
C:\Users\Karzan\AppData\Local\Temp\cc0WDOsQ.s:689    .text.rcu_i2s1_clock_config:0000000000000006 .L0 
C:\Users\Karzan\AppData\Local\Temp\cc0WDOsQ.s:690    .text.rcu_i2s1_clock_config:0000000000000006 .L0 
C:\Users\Karzan\AppData\Local\Temp\cc0WDOsQ.s:691    .text.rcu_i2s1_clock_config:0000000000000006 .L0 
C:\Users\Karzan\AppData\Local\Temp\cc0WDOsQ.s:696    .text.rcu_i2s1_clock_config:000000000000000c .L0 
C:\Users\Karzan\AppData\Local\Temp\cc0WDOsQ.s:699    .text.rcu_i2s1_clock_config:000000000000000e .L0 
C:\Users\Karzan\AppData\Local\Temp\cc0WDOsQ.s:701    .text.rcu_i2s1_clock_config:0000000000000010 .L0 
C:\Users\Karzan\AppData\Local\Temp\cc0WDOsQ.s:702    .text.rcu_i2s1_clock_config:0000000000000012 .L0 
C:\Users\Karzan\AppData\Local\Temp\cc0WDOsQ.s:709    .text.rcu_i2s2_clock_config:0000000000000000 rcu_i2s2_clock_config
C:\Users\Karzan\AppData\Local\Temp\cc0WDOsQ.s:712    .text.rcu_i2s2_clock_config:0000000000000000 .L0 
C:\Users\Karzan\AppData\Local\Temp\cc0WDOsQ.s:714    .text.rcu_i2s2_clock_config:0000000000000000 .L0 
C:\Users\Karzan\AppData\Local\Temp\cc0WDOsQ.s:715    .text.rcu_i2s2_clock_config:0000000000000000 .L0 
C:\Users\Karzan\AppData\Local\Temp\cc0WDOsQ.s:716    .text.rcu_i2s2_clock_config:0000000000000000 .L0 
C:\Users\Karzan\AppData\Local\Temp\cc0WDOsQ.s:717    .text.rcu_i2s2_clock_config:0000000000000000 .L0 
C:\Users\Karzan\AppData\Local\Temp\cc0WDOsQ.s:721    .text.rcu_i2s2_clock_config:0000000000000006 .L0 
C:\Users\Karzan\AppData\Local\Temp\cc0WDOsQ.s:722    .text.rcu_i2s2_clock_config:0000000000000006 .L0 
C:\Users\Karzan\AppData\Local\Temp\cc0WDOsQ.s:723    .text.rcu_i2s2_clock_config:0000000000000006 .L0 
C:\Users\Karzan\AppData\Local\Temp\cc0WDOsQ.s:728    .text.rcu_i2s2_clock_config:000000000000000e .L0 
C:\Users\Karzan\AppData\Local\Temp\cc0WDOsQ.s:731    .text.rcu_i2s2_clock_config:0000000000000010 .L0 
C:\Users\Karzan\AppData\Local\Temp\cc0WDOsQ.s:733    .text.rcu_i2s2_clock_config:0000000000000012 .L0 
C:\Users\Karzan\AppData\Local\Temp\cc0WDOsQ.s:734    .text.rcu_i2s2_clock_config:0000000000000014 .L0 
C:\Users\Karzan\AppData\Local\Temp\cc0WDOsQ.s:741    .text.rcu_flag_get:0000000000000000 rcu_flag_get
C:\Users\Karzan\AppData\Local\Temp\cc0WDOsQ.s:744    .text.rcu_flag_get:0000000000000000 .L0 
C:\Users\Karzan\AppData\Local\Temp\cc0WDOsQ.s:746    .text.rcu_flag_get:0000000000000000 .L0 
C:\Users\Karzan\AppData\Local\Temp\cc0WDOsQ.s:747    .text.rcu_flag_get:0000000000000000 .L0 
C:\Users\Karzan\AppData\Local\Temp\cc0WDOsQ.s:748    .text.rcu_flag_get:0000000000000000 .L0 
C:\Users\Karzan\AppData\Local\Temp\cc0WDOsQ.s:753    .text.rcu_flag_get:000000000000000c .L0 
GAS LISTING C:\Users\Karzan\AppData\Local\Temp\cc0WDOsQ.s 			page 60


C:\Users\Karzan\AppData\Local\Temp\cc0WDOsQ.s:756    .text.rcu_flag_get:0000000000000010 .L0 
C:\Users\Karzan\AppData\Local\Temp\cc0WDOsQ.s:758    .text.rcu_flag_get:0000000000000014 .L0 
C:\Users\Karzan\AppData\Local\Temp\cc0WDOsQ.s:765    .text.rcu_all_reset_flag_clear:0000000000000000 rcu_all_reset_flag_clear
C:\Users\Karzan\AppData\Local\Temp\cc0WDOsQ.s:768    .text.rcu_all_reset_flag_clear:0000000000000000 .L0 
C:\Users\Karzan\AppData\Local\Temp\cc0WDOsQ.s:769    .text.rcu_all_reset_flag_clear:0000000000000000 .L0 
C:\Users\Karzan\AppData\Local\Temp\cc0WDOsQ.s:770    .text.rcu_all_reset_flag_clear:0000000000000000 .L0 
C:\Users\Karzan\AppData\Local\Temp\cc0WDOsQ.s:771    .text.rcu_all_reset_flag_clear:0000000000000000 .L0 
C:\Users\Karzan\AppData\Local\Temp\cc0WDOsQ.s:777    .text.rcu_all_reset_flag_clear:000000000000000e .L0 
C:\Users\Karzan\AppData\Local\Temp\cc0WDOsQ.s:778    .text.rcu_all_reset_flag_clear:0000000000000010 .L0 
C:\Users\Karzan\AppData\Local\Temp\cc0WDOsQ.s:785    .text.rcu_interrupt_flag_get:0000000000000000 rcu_interrupt_flag_get
C:\Users\Karzan\AppData\Local\Temp\cc0WDOsQ.s:788    .text.rcu_interrupt_flag_get:0000000000000000 .L0 
C:\Users\Karzan\AppData\Local\Temp\cc0WDOsQ.s:790    .text.rcu_interrupt_flag_get:0000000000000000 .L0 
C:\Users\Karzan\AppData\Local\Temp\cc0WDOsQ.s:791    .text.rcu_interrupt_flag_get:0000000000000000 .L0 
C:\Users\Karzan\AppData\Local\Temp\cc0WDOsQ.s:792    .text.rcu_interrupt_flag_get:0000000000000000 .L0 
C:\Users\Karzan\AppData\Local\Temp\cc0WDOsQ.s:797    .text.rcu_interrupt_flag_get:000000000000000c .L0 
C:\Users\Karzan\AppData\Local\Temp\cc0WDOsQ.s:800    .text.rcu_interrupt_flag_get:0000000000000010 .L0 
C:\Users\Karzan\AppData\Local\Temp\cc0WDOsQ.s:802    .text.rcu_interrupt_flag_get:0000000000000014 .L0 
C:\Users\Karzan\AppData\Local\Temp\cc0WDOsQ.s:809    .text.rcu_interrupt_flag_clear:0000000000000000 rcu_interrupt_flag_clear
C:\Users\Karzan\AppData\Local\Temp\cc0WDOsQ.s:812    .text.rcu_interrupt_flag_clear:0000000000000000 .L0 
C:\Users\Karzan\AppData\Local\Temp\cc0WDOsQ.s:814    .text.rcu_interrupt_flag_clear:0000000000000000 .L0 
C:\Users\Karzan\AppData\Local\Temp\cc0WDOsQ.s:815    .text.rcu_interrupt_flag_clear:0000000000000000 .L0 
C:\Users\Karzan\AppData\Local\Temp\cc0WDOsQ.s:816    .text.rcu_interrupt_flag_clear:0000000000000000 .L0 
C:\Users\Karzan\AppData\Local\Temp\cc0WDOsQ.s:821    .text.rcu_interrupt_flag_clear:000000000000000c .L0 
C:\Users\Karzan\AppData\Local\Temp\cc0WDOsQ.s:824    .text.rcu_interrupt_flag_clear:0000000000000012 .L0 
C:\Users\Karzan\AppData\Local\Temp\cc0WDOsQ.s:827    .text.rcu_interrupt_flag_clear:0000000000000016 .L0 
C:\Users\Karzan\AppData\Local\Temp\cc0WDOsQ.s:828    .text.rcu_interrupt_flag_clear:0000000000000018 .L0 
C:\Users\Karzan\AppData\Local\Temp\cc0WDOsQ.s:835    .text.rcu_interrupt_enable:0000000000000000 rcu_interrupt_enable
C:\Users\Karzan\AppData\Local\Temp\cc0WDOsQ.s:838    .text.rcu_interrupt_enable:0000000000000000 .L0 
C:\Users\Karzan\AppData\Local\Temp\cc0WDOsQ.s:840    .text.rcu_interrupt_enable:0000000000000000 .L0 
C:\Users\Karzan\AppData\Local\Temp\cc0WDOsQ.s:841    .text.rcu_interrupt_enable:0000000000000000 .L0 
C:\Users\Karzan\AppData\Local\Temp\cc0WDOsQ.s:842    .text.rcu_interrupt_enable:0000000000000000 .L0 
C:\Users\Karzan\AppData\Local\Temp\cc0WDOsQ.s:847    .text.rcu_interrupt_enable:000000000000000c .L0 
C:\Users\Karzan\AppData\Local\Temp\cc0WDOsQ.s:850    .text.rcu_interrupt_enable:0000000000000012 .L0 
C:\Users\Karzan\AppData\Local\Temp\cc0WDOsQ.s:853    .text.rcu_interrupt_enable:0000000000000016 .L0 
C:\Users\Karzan\AppData\Local\Temp\cc0WDOsQ.s:854    .text.rcu_interrupt_enable:0000000000000018 .L0 
C:\Users\Karzan\AppData\Local\Temp\cc0WDOsQ.s:861    .text.rcu_interrupt_disable:0000000000000000 rcu_interrupt_disable
C:\Users\Karzan\AppData\Local\Temp\cc0WDOsQ.s:864    .text.rcu_interrupt_disable:0000000000000000 .L0 
C:\Users\Karzan\AppData\Local\Temp\cc0WDOsQ.s:866    .text.rcu_interrupt_disable:0000000000000000 .L0 
C:\Users\Karzan\AppData\Local\Temp\cc0WDOsQ.s:867    .text.rcu_interrupt_disable:0000000000000000 .L0 
C:\Users\Karzan\AppData\Local\Temp\cc0WDOsQ.s:868    .text.rcu_interrupt_disable:0000000000000000 .L0 
C:\Users\Karzan\AppData\Local\Temp\cc0WDOsQ.s:873    .text.rcu_interrupt_disable:000000000000000c .L0 
C:\Users\Karzan\AppData\Local\Temp\cc0WDOsQ.s:876    .text.rcu_interrupt_disable:0000000000000012 .L0 
C:\Users\Karzan\AppData\Local\Temp\cc0WDOsQ.s:878    .text.rcu_interrupt_disable:0000000000000016 .L0 
C:\Users\Karzan\AppData\Local\Temp\cc0WDOsQ.s:881    .text.rcu_interrupt_disable:000000000000001a .L0 
C:\Users\Karzan\AppData\Local\Temp\cc0WDOsQ.s:882    .text.rcu_interrupt_disable:000000000000001c .L0 
C:\Users\Karzan\AppData\Local\Temp\cc0WDOsQ.s:889    .text.rcu_osci_stab_wait:0000000000000000 rcu_osci_stab_wait
C:\Users\Karzan\AppData\Local\Temp\cc0WDOsQ.s:892    .text.rcu_osci_stab_wait:0000000000000000 .L0 
C:\Users\Karzan\AppData\Local\Temp\cc0WDOsQ.s:894    .text.rcu_osci_stab_wait:0000000000000000 .L0 
C:\Users\Karzan\AppData\Local\Temp\cc0WDOsQ.s:895    .text.rcu_osci_stab_wait:0000000000000000 .L0 
C:\Users\Karzan\AppData\Local\Temp\cc0WDOsQ.s:896    .text.rcu_osci_stab_wait:0000000000000000 .L0 
C:\Users\Karzan\AppData\Local\Temp\cc0WDOsQ.s:897    .text.rcu_osci_stab_wait:0000000000000000 .L0 
C:\Users\Karzan\AppData\Local\Temp\cc0WDOsQ.s:898    .text.rcu_osci_stab_wait:0000000000000000 .L0 
C:\Users\Karzan\AppData\Local\Temp\cc0WDOsQ.s:899    .text.rcu_osci_stab_wait:0000000000000000 .L0 
C:\Users\Karzan\AppData\Local\Temp\cc0WDOsQ.s:901    .text.rcu_osci_stab_wait:0000000000000002 .L0 
C:\Users\Karzan\AppData\Local\Temp\cc0WDOsQ.s:905    .text.rcu_osci_stab_wait:0000000000000008 .L0 
C:\Users\Karzan\AppData\Local\Temp\cc0WDOsQ.s:906    .text.rcu_osci_stab_wait:0000000000000008 .L0 
C:\Users\Karzan\AppData\Local\Temp\cc0WDOsQ.s:907    .text.rcu_osci_stab_wait:0000000000000008 .L0 
GAS LISTING C:\Users\Karzan\AppData\Local\Temp\cc0WDOsQ.s 			page 61


C:\Users\Karzan\AppData\Local\Temp\cc0WDOsQ.s:909    .text.rcu_osci_stab_wait:0000000000000008 .L0 
C:\Users\Karzan\AppData\Local\Temp\cc0WDOsQ.s:919    .text.rcu_osci_stab_wait:0000000000000020 .L0 
C:\Users\Karzan\AppData\Local\Temp\cc0WDOsQ.s:923    .text.rcu_osci_stab_wait:0000000000000022 .L0 
C:\Users\Karzan\AppData\Local\Temp\cc0WDOsQ.s:924    .text.rcu_osci_stab_wait:0000000000000024 .L0 
C:\Users\Karzan\AppData\Local\Temp\cc0WDOsQ.s:925    .text.rcu_osci_stab_wait:0000000000000024 .L0 
C:\Users\Karzan\AppData\Local\Temp\cc0WDOsQ.s:927    .text.rcu_osci_stab_wait:0000000000000026 .L0 
C:\Users\Karzan\AppData\Local\Temp\cc0WDOsQ.s:929    .text.rcu_osci_stab_wait:0000000000000028 .L0 
C:\Users\Karzan\AppData\Local\Temp\cc0WDOsQ.s:932    .text.rcu_osci_stab_wait:000000000000002a .L0 
C:\Users\Karzan\AppData\Local\Temp\cc0WDOsQ.s:937    .text.rcu_osci_stab_wait:000000000000002c .L0 
C:\Users\Karzan\AppData\Local\Temp\cc0WDOsQ.s:939    .text.rcu_osci_stab_wait:000000000000002c .L0 
C:\Users\Karzan\AppData\Local\Temp\cc0WDOsQ.s:951    .text.rcu_osci_stab_wait:0000000000000048 .L0 
C:\Users\Karzan\AppData\Local\Temp\cc0WDOsQ.s:952    .text.rcu_osci_stab_wait:0000000000000048 .L0 
C:\Users\Karzan\AppData\Local\Temp\cc0WDOsQ.s:956    .text.rcu_osci_stab_wait:0000000000000052 .L0 
C:\Users\Karzan\AppData\Local\Temp\cc0WDOsQ.s:957    .text.rcu_osci_stab_wait:0000000000000052 .L0 
C:\Users\Karzan\AppData\Local\Temp\cc0WDOsQ.s:961    .text.rcu_osci_stab_wait:0000000000000056 .L0 
C:\Users\Karzan\AppData\Local\Temp\cc0WDOsQ.s:965    .text.rcu_osci_stab_wait:0000000000000058 .L0 
C:\Users\Karzan\AppData\Local\Temp\cc0WDOsQ.s:966    .text.rcu_osci_stab_wait:0000000000000058 .L0 
C:\Users\Karzan\AppData\Local\Temp\cc0WDOsQ.s:972    .text.rcu_osci_stab_wait:000000000000005c .L0 
C:\Users\Karzan\AppData\Local\Temp\cc0WDOsQ.s:977    .text.rcu_osci_stab_wait:0000000000000060 .L0 
C:\Users\Karzan\AppData\Local\Temp\cc0WDOsQ.s:978    .text.rcu_osci_stab_wait:0000000000000060 .L0 
C:\Users\Karzan\AppData\Local\Temp\cc0WDOsQ.s:982    .text.rcu_osci_stab_wait:000000000000006a .L0 
C:\Users\Karzan\AppData\Local\Temp\cc0WDOsQ.s:983    .text.rcu_osci_stab_wait:000000000000006a .L0 
C:\Users\Karzan\AppData\Local\Temp\cc0WDOsQ.s:987    .text.rcu_osci_stab_wait:000000000000006e .L0 
C:\Users\Karzan\AppData\Local\Temp\cc0WDOsQ.s:991    .text.rcu_osci_stab_wait:0000000000000070 .L0 
C:\Users\Karzan\AppData\Local\Temp\cc0WDOsQ.s:992    .text.rcu_osci_stab_wait:0000000000000070 .L0 
C:\Users\Karzan\AppData\Local\Temp\cc0WDOsQ.s:996    .text.rcu_osci_stab_wait:0000000000000072 .L0 
C:\Users\Karzan\AppData\Local\Temp\cc0WDOsQ.s:999    .text.rcu_osci_stab_wait:000000000000007a .L0 
C:\Users\Karzan\AppData\Local\Temp\cc0WDOsQ.s:1002   .text.rcu_osci_stab_wait:000000000000007e .L0 
C:\Users\Karzan\AppData\Local\Temp\cc0WDOsQ.s:1003   .text.rcu_osci_stab_wait:000000000000007e .L0 
C:\Users\Karzan\AppData\Local\Temp\cc0WDOsQ.s:1007   .text.rcu_osci_stab_wait:0000000000000080 .L0 
C:\Users\Karzan\AppData\Local\Temp\cc0WDOsQ.s:1009   .text.rcu_osci_stab_wait:0000000000000084 .L0 
C:\Users\Karzan\AppData\Local\Temp\cc0WDOsQ.s:1011   .text.rcu_osci_stab_wait:0000000000000086 .L0 
C:\Users\Karzan\AppData\Local\Temp\cc0WDOsQ.s:1013   .text.rcu_osci_stab_wait:0000000000000088 .L0 
C:\Users\Karzan\AppData\Local\Temp\cc0WDOsQ.s:1017   .text.rcu_osci_stab_wait:000000000000008c .L0 
C:\Users\Karzan\AppData\Local\Temp\cc0WDOsQ.s:1018   .text.rcu_osci_stab_wait:000000000000008c .L0 
C:\Users\Karzan\AppData\Local\Temp\cc0WDOsQ.s:1022   .text.rcu_osci_stab_wait:0000000000000096 .L0 
C:\Users\Karzan\AppData\Local\Temp\cc0WDOsQ.s:1023   .text.rcu_osci_stab_wait:0000000000000096 .L0 
C:\Users\Karzan\AppData\Local\Temp\cc0WDOsQ.s:1027   .text.rcu_osci_stab_wait:000000000000009a .L0 
C:\Users\Karzan\AppData\Local\Temp\cc0WDOsQ.s:1031   .text.rcu_osci_stab_wait:000000000000009c .L0 
C:\Users\Karzan\AppData\Local\Temp\cc0WDOsQ.s:1032   .text.rcu_osci_stab_wait:000000000000009c .L0 
C:\Users\Karzan\AppData\Local\Temp\cc0WDOsQ.s:1039   .text.rcu_osci_stab_wait:00000000000000a4 .L0 
C:\Users\Karzan\AppData\Local\Temp\cc0WDOsQ.s:1043   .text.rcu_osci_stab_wait:00000000000000a8 .L0 
C:\Users\Karzan\AppData\Local\Temp\cc0WDOsQ.s:1044   .text.rcu_osci_stab_wait:00000000000000a8 .L0 
C:\Users\Karzan\AppData\Local\Temp\cc0WDOsQ.s:1048   .text.rcu_osci_stab_wait:00000000000000b2 .L0 
C:\Users\Karzan\AppData\Local\Temp\cc0WDOsQ.s:1049   .text.rcu_osci_stab_wait:00000000000000b2 .L0 
C:\Users\Karzan\AppData\Local\Temp\cc0WDOsQ.s:1053   .text.rcu_osci_stab_wait:00000000000000b6 .L0 
C:\Users\Karzan\AppData\Local\Temp\cc0WDOsQ.s:1057   .text.rcu_osci_stab_wait:00000000000000b8 .L0 
C:\Users\Karzan\AppData\Local\Temp\cc0WDOsQ.s:1058   .text.rcu_osci_stab_wait:00000000000000b8 .L0 
C:\Users\Karzan\AppData\Local\Temp\cc0WDOsQ.s:1064   .text.rcu_osci_stab_wait:00000000000000bc .L0 
C:\Users\Karzan\AppData\Local\Temp\cc0WDOsQ.s:1067   .text.rcu_osci_stab_wait:00000000000000c2 .L0 
C:\Users\Karzan\AppData\Local\Temp\cc0WDOsQ.s:1071   .text.rcu_osci_stab_wait:00000000000000c6 .L0 
C:\Users\Karzan\AppData\Local\Temp\cc0WDOsQ.s:1072   .text.rcu_osci_stab_wait:00000000000000c6 .L0 
C:\Users\Karzan\AppData\Local\Temp\cc0WDOsQ.s:1076   .text.rcu_osci_stab_wait:00000000000000d0 .L0 
C:\Users\Karzan\AppData\Local\Temp\cc0WDOsQ.s:1077   .text.rcu_osci_stab_wait:00000000000000d0 .L0 
C:\Users\Karzan\AppData\Local\Temp\cc0WDOsQ.s:1081   .text.rcu_osci_stab_wait:00000000000000d4 .L0 
C:\Users\Karzan\AppData\Local\Temp\cc0WDOsQ.s:1085   .text.rcu_osci_stab_wait:00000000000000d6 .L0 
C:\Users\Karzan\AppData\Local\Temp\cc0WDOsQ.s:1086   .text.rcu_osci_stab_wait:00000000000000d6 .L0 
GAS LISTING C:\Users\Karzan\AppData\Local\Temp\cc0WDOsQ.s 			page 62


C:\Users\Karzan\AppData\Local\Temp\cc0WDOsQ.s:1093   .text.rcu_osci_stab_wait:00000000000000de .L0 
C:\Users\Karzan\AppData\Local\Temp\cc0WDOsQ.s:1098   .text.rcu_osci_stab_wait:00000000000000e4 .L0 
C:\Users\Karzan\AppData\Local\Temp\cc0WDOsQ.s:1099   .text.rcu_osci_stab_wait:00000000000000e4 .L0 
C:\Users\Karzan\AppData\Local\Temp\cc0WDOsQ.s:1103   .text.rcu_osci_stab_wait:00000000000000ee .L0 
C:\Users\Karzan\AppData\Local\Temp\cc0WDOsQ.s:1104   .text.rcu_osci_stab_wait:00000000000000ee .L0 
C:\Users\Karzan\AppData\Local\Temp\cc0WDOsQ.s:1108   .text.rcu_osci_stab_wait:00000000000000f2 .L0 
C:\Users\Karzan\AppData\Local\Temp\cc0WDOsQ.s:1112   .text.rcu_osci_stab_wait:00000000000000f4 .L0 
C:\Users\Karzan\AppData\Local\Temp\cc0WDOsQ.s:1113   .text.rcu_osci_stab_wait:00000000000000f4 .L0 
C:\Users\Karzan\AppData\Local\Temp\cc0WDOsQ.s:1119   .text.rcu_osci_stab_wait:00000000000000f8 .L0 
C:\Users\Karzan\AppData\Local\Temp\cc0WDOsQ.s:1124   .text.rcu_osci_stab_wait:00000000000000fe .L0 
C:\Users\Karzan\AppData\Local\Temp\cc0WDOsQ.s:1125   .text.rcu_osci_stab_wait:00000000000000fe .L0 
C:\Users\Karzan\AppData\Local\Temp\cc0WDOsQ.s:1129   .text.rcu_osci_stab_wait:0000000000000108 .L0 
C:\Users\Karzan\AppData\Local\Temp\cc0WDOsQ.s:1130   .text.rcu_osci_stab_wait:0000000000000108 .L0 
C:\Users\Karzan\AppData\Local\Temp\cc0WDOsQ.s:1134   .text.rcu_osci_stab_wait:000000000000010c .L0 
C:\Users\Karzan\AppData\Local\Temp\cc0WDOsQ.s:1138   .text.rcu_osci_stab_wait:000000000000010e .L0 
C:\Users\Karzan\AppData\Local\Temp\cc0WDOsQ.s:1139   .text.rcu_osci_stab_wait:000000000000010e .L0 
C:\Users\Karzan\AppData\Local\Temp\cc0WDOsQ.s:1142   .text.rcu_osci_stab_wait:0000000000000112 .L0 
C:\Users\Karzan\AppData\Local\Temp\cc0WDOsQ.s:1149   .text.rcu_deinit:0000000000000000 rcu_deinit
C:\Users\Karzan\AppData\Local\Temp\cc0WDOsQ.s:1152   .text.rcu_deinit:0000000000000000 .L0 
C:\Users\Karzan\AppData\Local\Temp\cc0WDOsQ.s:1153   .text.rcu_deinit:0000000000000000 .L0 
C:\Users\Karzan\AppData\Local\Temp\cc0WDOsQ.s:1154   .text.rcu_deinit:0000000000000000 .L0 
C:\Users\Karzan\AppData\Local\Temp\cc0WDOsQ.s:1155   .text.rcu_deinit:0000000000000000 .L0 
C:\Users\Karzan\AppData\Local\Temp\cc0WDOsQ.s:1157   .text.rcu_deinit:0000000000000002 .L0 
C:\Users\Karzan\AppData\Local\Temp\cc0WDOsQ.s:1159   .text.rcu_deinit:0000000000000004 .L0 
C:\Users\Karzan\AppData\Local\Temp\cc0WDOsQ.s:1161   .text.rcu_deinit:0000000000000004 .L0 
C:\Users\Karzan\AppData\Local\Temp\cc0WDOsQ.s:1164   .text.rcu_deinit:000000000000000a .L0 
C:\Users\Karzan\AppData\Local\Temp\cc0WDOsQ.s:1165   .text.rcu_deinit:000000000000000c .L0 
C:\Users\Karzan\AppData\Local\Temp\cc0WDOsQ.s:1167   .text.rcu_deinit:000000000000000c .L0 
C:\Users\Karzan\AppData\Local\Temp\cc0WDOsQ.s:1169   .text.rcu_deinit:000000000000000e .L0 
C:\Users\Karzan\AppData\Local\Temp\cc0WDOsQ.s:1172   .text.rcu_deinit:0000000000000014 .L0 
C:\Users\Karzan\AppData\Local\Temp\cc0WDOsQ.s:1175   .text.rcu_deinit:000000000000001c .L0 
C:\Users\Karzan\AppData\Local\Temp\cc0WDOsQ.s:1176   .text.rcu_deinit:000000000000001c .L0 
C:\Users\Karzan\AppData\Local\Temp\cc0WDOsQ.s:1182   .text.rcu_deinit:0000000000000028 .L0 
C:\Users\Karzan\AppData\Local\Temp\cc0WDOsQ.s:1183   .text.rcu_deinit:0000000000000028 .L0 
C:\Users\Karzan\AppData\Local\Temp\cc0WDOsQ.s:1189   .text.rcu_deinit:0000000000000034 .L0 
C:\Users\Karzan\AppData\Local\Temp\cc0WDOsQ.s:1190   .text.rcu_deinit:0000000000000034 .L0 
C:\Users\Karzan\AppData\Local\Temp\cc0WDOsQ.s:1196   .text.rcu_deinit:0000000000000040 .L0 
C:\Users\Karzan\AppData\Local\Temp\cc0WDOsQ.s:1197   .text.rcu_deinit:0000000000000040 .L0 
C:\Users\Karzan\AppData\Local\Temp\cc0WDOsQ.s:1203   .text.rcu_deinit:000000000000004c .L0 
C:\Users\Karzan\AppData\Local\Temp\cc0WDOsQ.s:1204   .text.rcu_deinit:000000000000004c .L0 
C:\Users\Karzan\AppData\Local\Temp\cc0WDOsQ.s:1207   .text.rcu_deinit:0000000000000052 .L0 
C:\Users\Karzan\AppData\Local\Temp\cc0WDOsQ.s:1208   .text.rcu_deinit:0000000000000052 .L0 
C:\Users\Karzan\AppData\Local\Temp\cc0WDOsQ.s:1211   .text.rcu_deinit:0000000000000058 .L0 
C:\Users\Karzan\AppData\Local\Temp\cc0WDOsQ.s:1212   .text.rcu_deinit:000000000000005a .L0 
C:\Users\Karzan\AppData\Local\Temp\cc0WDOsQ.s:1214   .text.rcu_deinit:000000000000005a .L0 
C:\Users\Karzan\AppData\Local\Temp\cc0WDOsQ.s:1217   .text.rcu_deinit:000000000000005e .L0 
C:\Users\Karzan\AppData\Local\Temp\cc0WDOsQ.s:1218   .text.rcu_deinit:0000000000000060 .L0 
C:\Users\Karzan\AppData\Local\Temp\cc0WDOsQ.s:1221   .text.rcu_deinit:0000000000000062 .L0 
C:\Users\Karzan\AppData\Local\Temp\cc0WDOsQ.s:1223   .text.rcu_deinit:0000000000000064 .L0 
C:\Users\Karzan\AppData\Local\Temp\cc0WDOsQ.s:1230   .text.rcu_osci_on:0000000000000000 rcu_osci_on
C:\Users\Karzan\AppData\Local\Temp\cc0WDOsQ.s:1233   .text.rcu_osci_on:0000000000000000 .L0 
C:\Users\Karzan\AppData\Local\Temp\cc0WDOsQ.s:1235   .text.rcu_osci_on:0000000000000000 .L0 
C:\Users\Karzan\AppData\Local\Temp\cc0WDOsQ.s:1236   .text.rcu_osci_on:0000000000000000 .L0 
C:\Users\Karzan\AppData\Local\Temp\cc0WDOsQ.s:1237   .text.rcu_osci_on:0000000000000000 .L0 
C:\Users\Karzan\AppData\Local\Temp\cc0WDOsQ.s:1242   .text.rcu_osci_on:000000000000000c .L0 
C:\Users\Karzan\AppData\Local\Temp\cc0WDOsQ.s:1245   .text.rcu_osci_on:0000000000000012 .L0 
C:\Users\Karzan\AppData\Local\Temp\cc0WDOsQ.s:1248   .text.rcu_osci_on:0000000000000016 .L0 
GAS LISTING C:\Users\Karzan\AppData\Local\Temp\cc0WDOsQ.s 			page 63


C:\Users\Karzan\AppData\Local\Temp\cc0WDOsQ.s:1249   .text.rcu_osci_on:0000000000000018 .L0 
C:\Users\Karzan\AppData\Local\Temp\cc0WDOsQ.s:1256   .text.rcu_osci_off:0000000000000000 rcu_osci_off
C:\Users\Karzan\AppData\Local\Temp\cc0WDOsQ.s:1259   .text.rcu_osci_off:0000000000000000 .L0 
C:\Users\Karzan\AppData\Local\Temp\cc0WDOsQ.s:1261   .text.rcu_osci_off:0000000000000000 .L0 
C:\Users\Karzan\AppData\Local\Temp\cc0WDOsQ.s:1262   .text.rcu_osci_off:0000000000000000 .L0 
C:\Users\Karzan\AppData\Local\Temp\cc0WDOsQ.s:1263   .text.rcu_osci_off:0000000000000000 .L0 
C:\Users\Karzan\AppData\Local\Temp\cc0WDOsQ.s:1268   .text.rcu_osci_off:000000000000000c .L0 
C:\Users\Karzan\AppData\Local\Temp\cc0WDOsQ.s:1271   .text.rcu_osci_off:0000000000000012 .L0 
C:\Users\Karzan\AppData\Local\Temp\cc0WDOsQ.s:1273   .text.rcu_osci_off:0000000000000016 .L0 
C:\Users\Karzan\AppData\Local\Temp\cc0WDOsQ.s:1276   .text.rcu_osci_off:000000000000001a .L0 
C:\Users\Karzan\AppData\Local\Temp\cc0WDOsQ.s:1277   .text.rcu_osci_off:000000000000001c .L0 
C:\Users\Karzan\AppData\Local\Temp\cc0WDOsQ.s:1284   .text.rcu_osci_bypass_mode_enable:0000000000000000 rcu_osci_bypass_mode_enable
C:\Users\Karzan\AppData\Local\Temp\cc0WDOsQ.s:1287   .text.rcu_osci_bypass_mode_enable:0000000000000000 .L0 
C:\Users\Karzan\AppData\Local\Temp\cc0WDOsQ.s:1289   .text.rcu_osci_bypass_mode_enable:0000000000000000 .L0 
C:\Users\Karzan\AppData\Local\Temp\cc0WDOsQ.s:1290   .text.rcu_osci_bypass_mode_enable:0000000000000000 .L0 
C:\Users\Karzan\AppData\Local\Temp\cc0WDOsQ.s:1291   .text.rcu_osci_bypass_mode_enable:0000000000000000 .L0 
C:\Users\Karzan\AppData\Local\Temp\cc0WDOsQ.s:1300   .text.rcu_osci_bypass_mode_enable:000000000000000e .L0 
C:\Users\Karzan\AppData\Local\Temp\cc0WDOsQ.s:1301   .text.rcu_osci_bypass_mode_enable:000000000000000e .L0 
C:\Users\Karzan\AppData\Local\Temp\cc0WDOsQ.s:1305   .text.rcu_osci_bypass_mode_enable:0000000000000014 .L0 
C:\Users\Karzan\AppData\Local\Temp\cc0WDOsQ.s:1306   .text.rcu_osci_bypass_mode_enable:0000000000000014 .L0 
C:\Users\Karzan\AppData\Local\Temp\cc0WDOsQ.s:1312   .text.rcu_osci_bypass_mode_enable:000000000000001e .L0 
C:\Users\Karzan\AppData\Local\Temp\cc0WDOsQ.s:1313   .text.rcu_osci_bypass_mode_enable:000000000000001e .L0 
C:\Users\Karzan\AppData\Local\Temp\cc0WDOsQ.s:1317   .text.rcu_osci_bypass_mode_enable:0000000000000024 .L0 
C:\Users\Karzan\AppData\Local\Temp\cc0WDOsQ.s:1319   .text.rcu_osci_bypass_mode_enable:0000000000000026 .L0 
C:\Users\Karzan\AppData\Local\Temp\cc0WDOsQ.s:1323   .text.rcu_osci_bypass_mode_enable:0000000000000028 .L0 
C:\Users\Karzan\AppData\Local\Temp\cc0WDOsQ.s:1324   .text.rcu_osci_bypass_mode_enable:0000000000000028 .L0 
C:\Users\Karzan\AppData\Local\Temp\cc0WDOsQ.s:1328   .text.rcu_osci_bypass_mode_enable:000000000000002e .L0 
C:\Users\Karzan\AppData\Local\Temp\cc0WDOsQ.s:1329   .text.rcu_osci_bypass_mode_enable:000000000000002e .L0 
C:\Users\Karzan\AppData\Local\Temp\cc0WDOsQ.s:1331   .text.rcu_osci_bypass_mode_enable:0000000000000030 .L0 
C:\Users\Karzan\AppData\Local\Temp\cc0WDOsQ.s:1334   .text.rcu_osci_bypass_mode_enable:0000000000000034 .L0 
C:\Users\Karzan\AppData\Local\Temp\cc0WDOsQ.s:1337   .text.rcu_osci_bypass_mode_enable:0000000000000038 .L0 
C:\Users\Karzan\AppData\Local\Temp\cc0WDOsQ.s:1338   .text.rcu_osci_bypass_mode_enable:0000000000000038 .L0 
C:\Users\Karzan\AppData\Local\Temp\cc0WDOsQ.s:1340   .text.rcu_osci_bypass_mode_enable:000000000000003a .L0 
C:\Users\Karzan\AppData\Local\Temp\cc0WDOsQ.s:1341   .text.rcu_osci_bypass_mode_enable:000000000000003a .L0 
C:\Users\Karzan\AppData\Local\Temp\cc0WDOsQ.s:1342   .text.rcu_osci_bypass_mode_enable:000000000000003c .L0 
C:\Users\Karzan\AppData\Local\Temp\cc0WDOsQ.s:1349   .text.rcu_osci_bypass_mode_disable:0000000000000000 rcu_osci_bypass_mode_disable
C:\Users\Karzan\AppData\Local\Temp\cc0WDOsQ.s:1352   .text.rcu_osci_bypass_mode_disable:0000000000000000 .L0 
C:\Users\Karzan\AppData\Local\Temp\cc0WDOsQ.s:1354   .text.rcu_osci_bypass_mode_disable:0000000000000000 .L0 
C:\Users\Karzan\AppData\Local\Temp\cc0WDOsQ.s:1355   .text.rcu_osci_bypass_mode_disable:0000000000000000 .L0 
C:\Users\Karzan\AppData\Local\Temp\cc0WDOsQ.s:1356   .text.rcu_osci_bypass_mode_disable:0000000000000000 .L0 
C:\Users\Karzan\AppData\Local\Temp\cc0WDOsQ.s:1365   .text.rcu_osci_bypass_mode_disable:000000000000000e .L0 
C:\Users\Karzan\AppData\Local\Temp\cc0WDOsQ.s:1366   .text.rcu_osci_bypass_mode_disable:000000000000000e .L0 
C:\Users\Karzan\AppData\Local\Temp\cc0WDOsQ.s:1370   .text.rcu_osci_bypass_mode_disable:0000000000000014 .L0 
C:\Users\Karzan\AppData\Local\Temp\cc0WDOsQ.s:1371   .text.rcu_osci_bypass_mode_disable:0000000000000014 .L0 
C:\Users\Karzan\AppData\Local\Temp\cc0WDOsQ.s:1377   .text.rcu_osci_bypass_mode_disable:000000000000001e .L0 
C:\Users\Karzan\AppData\Local\Temp\cc0WDOsQ.s:1378   .text.rcu_osci_bypass_mode_disable:000000000000001e .L0 
C:\Users\Karzan\AppData\Local\Temp\cc0WDOsQ.s:1383   .text.rcu_osci_bypass_mode_disable:0000000000000026 .L0 
C:\Users\Karzan\AppData\Local\Temp\cc0WDOsQ.s:1385   .text.rcu_osci_bypass_mode_disable:0000000000000028 .L0 
C:\Users\Karzan\AppData\Local\Temp\cc0WDOsQ.s:1389   .text.rcu_osci_bypass_mode_disable:000000000000002a .L0 
C:\Users\Karzan\AppData\Local\Temp\cc0WDOsQ.s:1390   .text.rcu_osci_bypass_mode_disable:000000000000002a .L0 
C:\Users\Karzan\AppData\Local\Temp\cc0WDOsQ.s:1394   .text.rcu_osci_bypass_mode_disable:0000000000000030 .L0 
C:\Users\Karzan\AppData\Local\Temp\cc0WDOsQ.s:1395   .text.rcu_osci_bypass_mode_disable:0000000000000030 .L0 
C:\Users\Karzan\AppData\Local\Temp\cc0WDOsQ.s:1397   .text.rcu_osci_bypass_mode_disable:0000000000000032 .L0 
C:\Users\Karzan\AppData\Local\Temp\cc0WDOsQ.s:1400   .text.rcu_osci_bypass_mode_disable:0000000000000034 .L0 
C:\Users\Karzan\AppData\Local\Temp\cc0WDOsQ.s:1403   .text.rcu_osci_bypass_mode_disable:0000000000000038 .L0 
C:\Users\Karzan\AppData\Local\Temp\cc0WDOsQ.s:1404   .text.rcu_osci_bypass_mode_disable:0000000000000038 .L0 
C:\Users\Karzan\AppData\Local\Temp\cc0WDOsQ.s:1406   .text.rcu_osci_bypass_mode_disable:000000000000003a .L0 
GAS LISTING C:\Users\Karzan\AppData\Local\Temp\cc0WDOsQ.s 			page 64


C:\Users\Karzan\AppData\Local\Temp\cc0WDOsQ.s:1407   .text.rcu_osci_bypass_mode_disable:000000000000003a .L0 
C:\Users\Karzan\AppData\Local\Temp\cc0WDOsQ.s:1408   .text.rcu_osci_bypass_mode_disable:000000000000003c .L0 
C:\Users\Karzan\AppData\Local\Temp\cc0WDOsQ.s:1415   .text.rcu_hxtal_clock_monitor_enable:0000000000000000 rcu_hxtal_clock_monitor_enable
C:\Users\Karzan\AppData\Local\Temp\cc0WDOsQ.s:1418   .text.rcu_hxtal_clock_monitor_enable:0000000000000000 .L0 
C:\Users\Karzan\AppData\Local\Temp\cc0WDOsQ.s:1419   .text.rcu_hxtal_clock_monitor_enable:0000000000000000 .L0 
C:\Users\Karzan\AppData\Local\Temp\cc0WDOsQ.s:1420   .text.rcu_hxtal_clock_monitor_enable:0000000000000000 .L0 
C:\Users\Karzan\AppData\Local\Temp\cc0WDOsQ.s:1421   .text.rcu_hxtal_clock_monitor_enable:0000000000000000 .L0 
C:\Users\Karzan\AppData\Local\Temp\cc0WDOsQ.s:1427   .text.rcu_hxtal_clock_monitor_enable:000000000000000e .L0 
C:\Users\Karzan\AppData\Local\Temp\cc0WDOsQ.s:1428   .text.rcu_hxtal_clock_monitor_enable:0000000000000010 .L0 
C:\Users\Karzan\AppData\Local\Temp\cc0WDOsQ.s:1435   .text.rcu_hxtal_clock_monitor_disable:0000000000000000 rcu_hxtal_clock_monitor_disable
C:\Users\Karzan\AppData\Local\Temp\cc0WDOsQ.s:1438   .text.rcu_hxtal_clock_monitor_disable:0000000000000000 .L0 
C:\Users\Karzan\AppData\Local\Temp\cc0WDOsQ.s:1439   .text.rcu_hxtal_clock_monitor_disable:0000000000000000 .L0 
C:\Users\Karzan\AppData\Local\Temp\cc0WDOsQ.s:1440   .text.rcu_hxtal_clock_monitor_disable:0000000000000000 .L0 
C:\Users\Karzan\AppData\Local\Temp\cc0WDOsQ.s:1441   .text.rcu_hxtal_clock_monitor_disable:0000000000000000 .L0 
C:\Users\Karzan\AppData\Local\Temp\cc0WDOsQ.s:1448   .text.rcu_hxtal_clock_monitor_disable:0000000000000010 .L0 
C:\Users\Karzan\AppData\Local\Temp\cc0WDOsQ.s:1449   .text.rcu_hxtal_clock_monitor_disable:0000000000000012 .L0 
C:\Users\Karzan\AppData\Local\Temp\cc0WDOsQ.s:1456   .text.rcu_irc8m_adjust_value_set:0000000000000000 rcu_irc8m_adjust_value_set
C:\Users\Karzan\AppData\Local\Temp\cc0WDOsQ.s:1459   .text.rcu_irc8m_adjust_value_set:0000000000000000 .L0 
C:\Users\Karzan\AppData\Local\Temp\cc0WDOsQ.s:1461   .text.rcu_irc8m_adjust_value_set:0000000000000000 .L0 
C:\Users\Karzan\AppData\Local\Temp\cc0WDOsQ.s:1462   .text.rcu_irc8m_adjust_value_set:0000000000000000 .L0 
C:\Users\Karzan\AppData\Local\Temp\cc0WDOsQ.s:1463   .text.rcu_irc8m_adjust_value_set:0000000000000000 .L0 
C:\Users\Karzan\AppData\Local\Temp\cc0WDOsQ.s:1464   .text.rcu_irc8m_adjust_value_set:0000000000000000 .L0 
C:\Users\Karzan\AppData\Local\Temp\cc0WDOsQ.s:1468   .text.rcu_irc8m_adjust_value_set:0000000000000006 .L0 
C:\Users\Karzan\AppData\Local\Temp\cc0WDOsQ.s:1469   .text.rcu_irc8m_adjust_value_set:0000000000000006 .L0 
C:\Users\Karzan\AppData\Local\Temp\cc0WDOsQ.s:1470   .text.rcu_irc8m_adjust_value_set:0000000000000006 .L0 
C:\Users\Karzan\AppData\Local\Temp\cc0WDOsQ.s:1474   .text.rcu_irc8m_adjust_value_set:000000000000000c .L0 
C:\Users\Karzan\AppData\Local\Temp\cc0WDOsQ.s:1477   .text.rcu_irc8m_adjust_value_set:0000000000000010 .L0 
C:\Users\Karzan\AppData\Local\Temp\cc0WDOsQ.s:1479   .text.rcu_irc8m_adjust_value_set:0000000000000012 .L0 
C:\Users\Karzan\AppData\Local\Temp\cc0WDOsQ.s:1481   .text.rcu_irc8m_adjust_value_set:0000000000000014 .L0 
C:\Users\Karzan\AppData\Local\Temp\cc0WDOsQ.s:1482   .text.rcu_irc8m_adjust_value_set:0000000000000016 .L0 
C:\Users\Karzan\AppData\Local\Temp\cc0WDOsQ.s:1489   .text.rcu_deepsleep_voltage_set:0000000000000000 rcu_deepsleep_voltage_set
C:\Users\Karzan\AppData\Local\Temp\cc0WDOsQ.s:1492   .text.rcu_deepsleep_voltage_set:0000000000000000 .L0 
C:\Users\Karzan\AppData\Local\Temp\cc0WDOsQ.s:1494   .text.rcu_deepsleep_voltage_set:0000000000000000 .L0 
C:\Users\Karzan\AppData\Local\Temp\cc0WDOsQ.s:1495   .text.rcu_deepsleep_voltage_set:0000000000000000 .L0 
C:\Users\Karzan\AppData\Local\Temp\cc0WDOsQ.s:1496   .text.rcu_deepsleep_voltage_set:0000000000000000 .L0 
C:\Users\Karzan\AppData\Local\Temp\cc0WDOsQ.s:1499   .text.rcu_deepsleep_voltage_set:0000000000000002 .L0 
C:\Users\Karzan\AppData\Local\Temp\cc0WDOsQ.s:1500   .text.rcu_deepsleep_voltage_set:0000000000000002 .L0 
C:\Users\Karzan\AppData\Local\Temp\cc0WDOsQ.s:1503   .text.rcu_deepsleep_voltage_set:0000000000000008 .L0 
C:\Users\Karzan\AppData\Local\Temp\cc0WDOsQ.s:1504   .text.rcu_deepsleep_voltage_set:000000000000000a .L0 
C:\Users\Karzan\AppData\Local\Temp\cc0WDOsQ.s:1511   .text.rcu_clock_freq_get:0000000000000000 rcu_clock_freq_get
C:\Users\Karzan\AppData\Local\Temp\cc0WDOsQ.s:1514   .text.rcu_clock_freq_get:0000000000000000 .L0 
C:\Users\Karzan\AppData\Local\Temp\cc0WDOsQ.s:1516   .text.rcu_clock_freq_get:0000000000000000 .L0 
C:\Users\Karzan\AppData\Local\Temp\cc0WDOsQ.s:1517   .text.rcu_clock_freq_get:0000000000000000 .L0 
C:\Users\Karzan\AppData\Local\Temp\cc0WDOsQ.s:1518   .text.rcu_clock_freq_get:0000000000000000 .L0 
C:\Users\Karzan\AppData\Local\Temp\cc0WDOsQ.s:1519   .text.rcu_clock_freq_get:0000000000000000 .L0 
C:\Users\Karzan\AppData\Local\Temp\cc0WDOsQ.s:1520   .text.rcu_clock_freq_get:0000000000000000 .L0 
C:\Users\Karzan\AppData\Local\Temp\cc0WDOsQ.s:1521   .text.rcu_clock_freq_get:0000000000000000 .L0 
C:\Users\Karzan\AppData\Local\Temp\cc0WDOsQ.s:1522   .text.rcu_clock_freq_get:0000000000000000 .L0 
C:\Users\Karzan\AppData\Local\Temp\cc0WDOsQ.s:1524   .text.rcu_clock_freq_get:0000000000000002 .L0 
C:\Users\Karzan\AppData\Local\Temp\cc0WDOsQ.s:1526   .text.rcu_clock_freq_get:0000000000000002 .L0 
C:\Users\Karzan\AppData\Local\Temp\cc0WDOsQ.s:1528   .text.rcu_clock_freq_get:0000000000000006 .L0 
C:\Users\Karzan\AppData\Local\Temp\cc0WDOsQ.s:1530   .text.rcu_clock_freq_get:0000000000000008 .L0 
C:\Users\Karzan\AppData\Local\Temp\cc0WDOsQ.s:1531   .text.rcu_clock_freq_get:000000000000000a .L0 
C:\Users\Karzan\AppData\Local\Temp\cc0WDOsQ.s:1533   .text.rcu_clock_freq_get:000000000000000a .L0 
C:\Users\Karzan\AppData\Local\Temp\cc0WDOsQ.s:1535   .text.rcu_clock_freq_get:000000000000000c .L0 
C:\Users\Karzan\AppData\Local\Temp\cc0WDOsQ.s:1539   .text.rcu_clock_freq_get:0000000000000012 .L0 
C:\Users\Karzan\AppData\Local\Temp\cc0WDOsQ.s:1540   .text.rcu_clock_freq_get:0000000000000014 .L0 
GAS LISTING C:\Users\Karzan\AppData\Local\Temp\cc0WDOsQ.s 			page 65


C:\Users\Karzan\AppData\Local\Temp\cc0WDOsQ.s:1542   .text.rcu_clock_freq_get:0000000000000014 .L0 
C:\Users\Karzan\AppData\Local\Temp\cc0WDOsQ.s:1545   .text.rcu_clock_freq_get:000000000000001c .L0 
C:\Users\Karzan\AppData\Local\Temp\cc0WDOsQ.s:1546   .text.rcu_clock_freq_get:000000000000001c .L0 
C:\Users\Karzan\AppData\Local\Temp\cc0WDOsQ.s:1551   .text.rcu_clock_freq_get:0000000000000028 .L0 
C:\Users\Karzan\AppData\Local\Temp\cc0WDOsQ.s:1552   .text.rcu_clock_freq_get:0000000000000028 .L0 
C:\Users\Karzan\AppData\Local\Temp\cc0WDOsQ.s:1555   .text.rcu_clock_freq_get:000000000000002c .L0 
C:\Users\Karzan\AppData\Local\Temp\cc0WDOsQ.s:1556   .text.rcu_clock_freq_get:000000000000002c .L0 
C:\Users\Karzan\AppData\Local\Temp\cc0WDOsQ.s:1560   .text.rcu_clock_freq_get:0000000000000032 .L0 
C:\Users\Karzan\AppData\Local\Temp\cc0WDOsQ.s:1562   .text.rcu_clock_freq_get:0000000000000034 .L0 
C:\Users\Karzan\AppData\Local\Temp\cc0WDOsQ.s:1565   .text.rcu_clock_freq_get:0000000000000036 .L0 
C:\Users\Karzan\AppData\Local\Temp\cc0WDOsQ.s:1568   .text.rcu_clock_freq_get:0000000000000038 .L0 
C:\Users\Karzan\AppData\Local\Temp\cc0WDOsQ.s:1570   .text.rcu_clock_freq_get:000000000000003c .L0 
C:\Users\Karzan\AppData\Local\Temp\cc0WDOsQ.s:1571   .text.rcu_clock_freq_get:000000000000003c .L0 
C:\Users\Karzan\AppData\Local\Temp\cc0WDOsQ.s:1574   .text.rcu_clock_freq_get:000000000000003e .L0 
C:\Users\Karzan\AppData\Local\Temp\cc0WDOsQ.s:1575   .text.rcu_clock_freq_get:000000000000003e .L0 
C:\Users\Karzan\AppData\Local\Temp\cc0WDOsQ.s:1579   .text.rcu_clock_freq_get:0000000000000046 .L0 
C:\Users\Karzan\AppData\Local\Temp\cc0WDOsQ.s:1580   .text.rcu_clock_freq_get:0000000000000046 .L0 
C:\Users\Karzan\AppData\Local\Temp\cc0WDOsQ.s:1581   .text.rcu_clock_freq_get:0000000000000046 .L0 
C:\Users\Karzan\AppData\Local\Temp\cc0WDOsQ.s:1584   .text.rcu_clock_freq_get:0000000000000048 .L0 
C:\Users\Karzan\AppData\Local\Temp\cc0WDOsQ.s:1585   .text.rcu_clock_freq_get:0000000000000048 .L0 
C:\Users\Karzan\AppData\Local\Temp\cc0WDOsQ.s:1588   .text.rcu_clock_freq_get:0000000000000050 .L0 
C:\Users\Karzan\AppData\Local\Temp\cc0WDOsQ.s:1589   .text.rcu_clock_freq_get:0000000000000050 .L0 
C:\Users\Karzan\AppData\Local\Temp\cc0WDOsQ.s:1592   .text.rcu_clock_freq_get:0000000000000052 .L0 
C:\Users\Karzan\AppData\Local\Temp\cc0WDOsQ.s:1594   .text.rcu_clock_freq_get:0000000000000054 .L0 
C:\Users\Karzan\AppData\Local\Temp\cc0WDOsQ.s:1596   .text.rcu_clock_freq_get:0000000000000056 .L0 
C:\Users\Karzan\AppData\Local\Temp\cc0WDOsQ.s:1598   .text.rcu_clock_freq_get:0000000000000058 .L0 
C:\Users\Karzan\AppData\Local\Temp\cc0WDOsQ.s:1600   .text.rcu_clock_freq_get:000000000000005a .L0 
C:\Users\Karzan\AppData\Local\Temp\cc0WDOsQ.s:1602   .text.rcu_clock_freq_get:000000000000005c .L0 
C:\Users\Karzan\AppData\Local\Temp\cc0WDOsQ.s:1605   .text.rcu_clock_freq_get:0000000000000060 .L0 
C:\Users\Karzan\AppData\Local\Temp\cc0WDOsQ.s:1606   .text.rcu_clock_freq_get:0000000000000060 .L0 
C:\Users\Karzan\AppData\Local\Temp\cc0WDOsQ.s:1609   .text.rcu_clock_freq_get:0000000000000062 .L0 
C:\Users\Karzan\AppData\Local\Temp\cc0WDOsQ.s:1610   .text.rcu_clock_freq_get:0000000000000062 .L0 
C:\Users\Karzan\AppData\Local\Temp\cc0WDOsQ.s:1613   .text.rcu_clock_freq_get:0000000000000068 .L0 
C:\Users\Karzan\AppData\Local\Temp\cc0WDOsQ.s:1617   .text.rcu_clock_freq_get:000000000000006a .L0 
C:\Users\Karzan\AppData\Local\Temp\cc0WDOsQ.s:1618   .text.rcu_clock_freq_get:000000000000006a .L0 
C:\Users\Karzan\AppData\Local\Temp\cc0WDOsQ.s:1622   .text.rcu_clock_freq_get:0000000000000076 .L0 
C:\Users\Karzan\AppData\Local\Temp\cc0WDOsQ.s:1626   .text.rcu_clock_freq_get:000000000000007a .L0 
C:\Users\Karzan\AppData\Local\Temp\cc0WDOsQ.s:1627   .text.rcu_clock_freq_get:000000000000007a .L0 
C:\Users\Karzan\AppData\Local\Temp\cc0WDOsQ.s:1631   .text.rcu_clock_freq_get:0000000000000080 .L0 
C:\Users\Karzan\AppData\Local\Temp\cc0WDOsQ.s:1632   .text.rcu_clock_freq_get:0000000000000080 .L0 
C:\Users\Karzan\AppData\Local\Temp\cc0WDOsQ.s:1635   .text.rcu_clock_freq_get:0000000000000082 .L0 
C:\Users\Karzan\AppData\Local\Temp\cc0WDOsQ.s:1638   .text.rcu_clock_freq_get:0000000000000084 .L0 
C:\Users\Karzan\AppData\Local\Temp\cc0WDOsQ.s:1642   .text.rcu_clock_freq_get:0000000000000088 .L0 
C:\Users\Karzan\AppData\Local\Temp\cc0WDOsQ.s:1643   .text.rcu_clock_freq_get:0000000000000088 .L0 
C:\Users\Karzan\AppData\Local\Temp\cc0WDOsQ.s:1646   .text.rcu_clock_freq_get:000000000000008e .L0 
C:\Users\Karzan\AppData\Local\Temp\cc0WDOsQ.s:1648   .text.rcu_clock_freq_get:0000000000000090 .L0 
C:\Users\Karzan\AppData\Local\Temp\cc0WDOsQ.s:1650   .text.rcu_clock_freq_get:0000000000000092 .L0 
C:\Users\Karzan\AppData\Local\Temp\cc0WDOsQ.s:1652   .text.rcu_clock_freq_get:0000000000000096 .L0 
C:\Users\Karzan\AppData\Local\Temp\cc0WDOsQ.s:1655   .text.rcu_clock_freq_get:0000000000000098 .L0 
C:\Users\Karzan\AppData\Local\Temp\cc0WDOsQ.s:1656   .text.rcu_clock_freq_get:0000000000000098 .L0 
C:\Users\Karzan\AppData\Local\Temp\cc0WDOsQ.s:1658   .text.rcu_clock_freq_get:000000000000009c .L0 
C:\Users\Karzan\AppData\Local\Temp\cc0WDOsQ.s:1659   .text.rcu_clock_freq_get:000000000000009c .L0 
C:\Users\Karzan\AppData\Local\Temp\cc0WDOsQ.s:1663   .text.rcu_clock_freq_get:00000000000000a0 .L0 
C:\Users\Karzan\AppData\Local\Temp\cc0WDOsQ.s:1664   .text.rcu_clock_freq_get:00000000000000a0 .L0 
C:\Users\Karzan\AppData\Local\Temp\cc0WDOsQ.s:1665   .text.rcu_clock_freq_get:00000000000000a0 .L0 
C:\Users\Karzan\AppData\Local\Temp\cc0WDOsQ.s:1668   .text.rcu_clock_freq_get:00000000000000a2 .L0 
C:\Users\Karzan\AppData\Local\Temp\cc0WDOsQ.s:1669   .text.rcu_clock_freq_get:00000000000000a2 .L0 
GAS LISTING C:\Users\Karzan\AppData\Local\Temp\cc0WDOsQ.s 			page 66


C:\Users\Karzan\AppData\Local\Temp\cc0WDOsQ.s:1673   .text.rcu_clock_freq_get:00000000000000a4 .L0 
C:\Users\Karzan\AppData\Local\Temp\cc0WDOsQ.s:1680   .text.rcu_clock_freq_get:00000000000000ae .L0 
C:\Users\Karzan\AppData\Local\Temp\cc0WDOsQ.s:1687   .text.rcu_clock_freq_get:00000000000000b8 .L0 
C:\Users\Karzan\AppData\Local\Temp\cc0WDOsQ.s:1688   .text.rcu_clock_freq_get:00000000000000b8 .L0 
C:\Users\Karzan\AppData\Local\Temp\cc0WDOsQ.s:1691   .text.rcu_clock_freq_get:00000000000000be .L0 
C:\Users\Karzan\AppData\Local\Temp\cc0WDOsQ.s:1692   .text.rcu_clock_freq_get:00000000000000be .L0 
C:\Users\Karzan\AppData\Local\Temp\cc0WDOsQ.s:1695   .text.rcu_clock_freq_get:00000000000000c0 .L0 
C:\Users\Karzan\AppData\Local\Temp\cc0WDOsQ.s:1696   .text.rcu_clock_freq_get:00000000000000c0 .L0 
C:\Users\Karzan\AppData\Local\Temp\cc0WDOsQ.s:1697   .text.rcu_clock_freq_get:00000000000000c0 .L0 
C:\Users\Karzan\AppData\Local\Temp\cc0WDOsQ.s:1701   .text.rcu_clock_freq_get:00000000000000c4 .L0 
C:\Users\Karzan\AppData\Local\Temp\cc0WDOsQ.s:1705   .text.rcu_clock_freq_get:00000000000000c8 .L0 
C:\Users\Karzan\AppData\Local\Temp\cc0WDOsQ.s:1706   .text.rcu_clock_freq_get:00000000000000c8 .L0 
C:\Users\Karzan\AppData\Local\Temp\cc0WDOsQ.s:1710   .text.rcu_clock_freq_get:00000000000000ce .L0 
C:\Users\Karzan\AppData\Local\Temp\cc0WDOsQ.s:1711   .text.rcu_clock_freq_get:00000000000000ce .L0 
C:\Users\Karzan\AppData\Local\Temp\cc0WDOsQ.s:1712   .text.rcu_clock_freq_get:00000000000000ce .L0 
C:\Users\Karzan\AppData\Local\Temp\cc0WDOsQ.s:1714   .text.rcu_clock_freq_get:00000000000000d0 .L0 
C:\Users\Karzan\AppData\Local\Temp\cc0WDOsQ.s:1717   .text.rcu_clock_freq_get:00000000000000d2 .L0 
C:\Users\Karzan\AppData\Local\Temp\cc0WDOsQ.s:1720   .text.rcu_clock_freq_get:00000000000000d4 .L0 
C:\Users\Karzan\AppData\Local\Temp\cc0WDOsQ.s:1723   .text.rcu_clock_freq_get:00000000000000d6 .L0 
C:\Users\Karzan\AppData\Local\Temp\cc0WDOsQ.s:1725   .text.rcu_clock_freq_get:00000000000000da .L0 
C:\Users\Karzan\AppData\Local\Temp\cc0WDOsQ.s:1727   .text.rcu_clock_freq_get:00000000000000dc .L0 
C:\Users\Karzan\AppData\Local\Temp\cc0WDOsQ.s:1730   .text.rcu_clock_freq_get:00000000000000e0 .L0 
C:\Users\Karzan\AppData\Local\Temp\cc0WDOsQ.s:1731   .text.rcu_clock_freq_get:00000000000000e0 .L0 
C:\Users\Karzan\AppData\Local\Temp\cc0WDOsQ.s:1732   .text.rcu_clock_freq_get:00000000000000e0 .L0 
C:\Users\Karzan\AppData\Local\Temp\cc0WDOsQ.s:1735   .text.rcu_clock_freq_get:00000000000000e2 .L0 
C:\Users\Karzan\AppData\Local\Temp\cc0WDOsQ.s:1738   .text.rcu_clock_freq_get:00000000000000e4 .L0 
C:\Users\Karzan\AppData\Local\Temp\cc0WDOsQ.s:1743   .text.rcu_clock_freq_get:00000000000000ea .L0 
C:\Users\Karzan\AppData\Local\Temp\cc0WDOsQ.s:1744   .text.rcu_clock_freq_get:00000000000000ea .L0 
C:\Users\Karzan\AppData\Local\Temp\cc0WDOsQ.s:1745   .text.rcu_clock_freq_get:00000000000000ea .L0 
C:\Users\Karzan\AppData\Local\Temp\cc0WDOsQ.s:1748   .text.rcu_clock_freq_get:00000000000000ec .L0 
C:\Users\Karzan\AppData\Local\Temp\cc0WDOsQ.s:1749   .text.rcu_clock_freq_get:00000000000000ec .L0 
C:\Users\Karzan\AppData\Local\Temp\cc0WDOsQ.s:1751   .text.rcu_clock_freq_get:00000000000000ee .L0 
C:\Users\Karzan\AppData\Local\Temp\cc0WDOsQ.s:1754   .text.rcu_clock_freq_get:00000000000000f0 .L0 
C:\Users\Karzan\AppData\Local\Temp\cc0WDOsQ.s:1757   .text.rcu_clock_freq_get:00000000000000f2 .L0 
C:\Users\Karzan\AppData\Local\Temp\cc0WDOsQ.s:1760   .text.rcu_clock_freq_get:00000000000000f4 .L0 
C:\Users\Karzan\AppData\Local\Temp\cc0WDOsQ.s:1762   .text.rcu_clock_freq_get:00000000000000f6 .L0 
C:\Users\Karzan\AppData\Local\Temp\cc0WDOsQ.s:1765   .text.rcu_clock_freq_get:00000000000000fa .L0 
C:\Users\Karzan\AppData\Local\Temp\cc0WDOsQ.s:1766   .text.rcu_clock_freq_get:00000000000000fa .L0 
C:\Users\Karzan\AppData\Local\Temp\cc0WDOsQ.s:1773   .text.rcu_clock_freq_get:0000000000000108 .L0 
C:\Users\Karzan\AppData\Local\Temp\cc0WDOsQ.s:1776   .text.rcu_clock_freq_get:000000000000010c .L0 
C:\Users\Karzan\AppData\Local\Temp\cc0WDOsQ.s:1778   .text.rcu_clock_freq_get:0000000000000110 .L0 
C:\Users\Karzan\AppData\Local\Temp\cc0WDOsQ.s:1782   .text.rcu_clock_freq_get:0000000000000112 .L0 
C:\Users\Karzan\AppData\Local\Temp\cc0WDOsQ.s:1783   .text.rcu_clock_freq_get:0000000000000114 .L0 
C:\Users\Karzan\AppData\Local\Temp\cc0WDOsQ.s:1784   .text.rcu_clock_freq_get:0000000000000114 .L0 
C:\Users\Karzan\AppData\Local\Temp\cc0WDOsQ.s:1786   .text.rcu_clock_freq_get:0000000000000116 .L0 
C:\Users\Karzan\AppData\Local\Temp\cc0WDOsQ.s:1790   .text.rcu_clock_freq_get:0000000000000118 .L0 
C:\Users\Karzan\AppData\Local\Temp\cc0WDOsQ.s:1795   .text.rcu_clock_freq_get:000000000000011a .L0 
C:\Users\Karzan\AppData\Local\Temp\cc0WDOsQ.s:1797   .text.rcu_clock_freq_get:000000000000011a .L0 
C:\Users\Karzan\AppData\Local\Temp\cc0WDOsQ.s:1798   .text.rcu_clock_freq_get:000000000000011a .L0 
C:\Users\Karzan\AppData\Local\Temp\cc0WDOsQ.s:1802   .text.rcu_clock_freq_get:0000000000000120 .L0 
C:\Users\Karzan\AppData\Local\Temp\cc0WDOsQ.s:1805   .text.rcu_clock_freq_get:0000000000000122 .L0 
C:\Users\Karzan\AppData\Local\Temp\cc0WDOsQ.s:1811   .text.rcu_clock_freq_get:0000000000000126 .L0 
C:\Users\Karzan\AppData\Local\Temp\cc0WDOsQ.s:1818   .text.rcu_clock_freq_get:0000000000000130 .L0 
C:\Users\Karzan\AppData\Local\Temp\cc0WDOsQ.s:1821   .text.rcu_clock_freq_get:0000000000000134 .L0 
C:\Users\Karzan\AppData\Local\Temp\cc0WDOsQ.s:1822   .text.rcu_clock_freq_get:0000000000000134 .L0 
C:\Users\Karzan\AppData\Local\Temp\cc0WDOsQ.s:1826   .text.rcu_clock_freq_get:0000000000000136 .L0 
C:\Users\Karzan\AppData\Local\Temp\cc0WDOsQ.s:1829   .text.rcu_clock_freq_get:0000000000000138 .L0 
GAS LISTING C:\Users\Karzan\AppData\Local\Temp\cc0WDOsQ.s 			page 67


C:\Users\Karzan\AppData\Local\Temp\cc0WDOsQ.s:1830   .text.rcu_clock_freq_get:0000000000000138 .L0 
C:\Users\Karzan\AppData\Local\Temp\cc0WDOsQ.s:1831   .text.rcu_clock_freq_get:000000000000013a .L0 
C:\Users\Karzan\AppData\Local\Temp\cc0WDOsQ.s:1836   .rodata:0000000000000000 .LANCHOR0
C:\Users\Karzan\AppData\Local\Temp\cc0WDOsQ.s:36     .text.rcu_periph_clock_enable:0000000000000018 .L0 
C:\Users\Karzan\AppData\Local\Temp\cc0WDOsQ.s:64     .text.rcu_periph_clock_disable:000000000000001c .L0 
C:\Users\Karzan\AppData\Local\Temp\cc0WDOsQ.s:90     .text.rcu_periph_clock_sleep_enable:0000000000000018 .L0 
C:\Users\Karzan\AppData\Local\Temp\cc0WDOsQ.s:118    .text.rcu_periph_clock_sleep_disable:000000000000001c .L0 
C:\Users\Karzan\AppData\Local\Temp\cc0WDOsQ.s:144    .text.rcu_periph_reset_enable:0000000000000018 .L0 
C:\Users\Karzan\AppData\Local\Temp\cc0WDOsQ.s:172    .text.rcu_periph_reset_disable:000000000000001c .L0 
C:\Users\Karzan\AppData\Local\Temp\cc0WDOsQ.s:192    .text.rcu_bkp_reset_enable:000000000000000e .L0 
C:\Users\Karzan\AppData\Local\Temp\cc0WDOsQ.s:213    .text.rcu_bkp_reset_disable:0000000000000010 .L0 
C:\Users\Karzan\AppData\Local\Temp\cc0WDOsQ.s:243    .text.rcu_system_clock_source_config:000000000000000e .L0 
C:\Users\Karzan\AppData\Local\Temp\cc0WDOsQ.s:261    .text.rcu_system_clock_source_get:000000000000000a .L0 
C:\Users\Karzan\AppData\Local\Temp\cc0WDOsQ.s:291    .text.rcu_ahb_clock_config:0000000000000010 .L0 
C:\Users\Karzan\AppData\Local\Temp\cc0WDOsQ.s:321    .text.rcu_apb1_clock_config:0000000000000010 .L0 
C:\Users\Karzan\AppData\Local\Temp\cc0WDOsQ.s:353    .text.rcu_apb2_clock_config:0000000000000014 .L0 
C:\Users\Karzan\AppData\Local\Temp\cc0WDOsQ.s:385    .text.rcu_ckout0_config:0000000000000014 .L0 
C:\Users\Karzan\AppData\Local\Temp\cc0WDOsQ.s:420    .text.rcu_pll_config:0000000000000016 .L0 
C:\Users\Karzan\AppData\Local\Temp\cc0WDOsQ.s:455    .text.rcu_predv0_config:0000000000000014 .L0 
C:\Users\Karzan\AppData\Local\Temp\cc0WDOsQ.s:486    .text.rcu_predv1_config:0000000000000010 .L0 
C:\Users\Karzan\AppData\Local\Temp\cc0WDOsQ.s:514    .text.rcu_pll1_config:0000000000000018 .L0 
C:\Users\Karzan\AppData\Local\Temp\cc0WDOsQ.s:542    .text.rcu_pll2_config:0000000000000016 .L0 
C:\Users\Karzan\AppData\Local\Temp\cc0WDOsQ.s:611    .text.rcu_adc_clock_config:0000000000000040 .L0 
C:\Users\Karzan\AppData\Local\Temp\cc0WDOsQ.s:643    .text.rcu_usb_clock_config:0000000000000014 .L0 
C:\Users\Karzan\AppData\Local\Temp\cc0WDOsQ.s:673    .text.rcu_rtc_clock_config:0000000000000010 .L0 
C:\Users\Karzan\AppData\Local\Temp\cc0WDOsQ.s:705    .text.rcu_i2s1_clock_config:0000000000000012 .L0 
C:\Users\Karzan\AppData\Local\Temp\cc0WDOsQ.s:737    .text.rcu_i2s2_clock_config:0000000000000014 .L0 
C:\Users\Karzan\AppData\Local\Temp\cc0WDOsQ.s:761    .text.rcu_flag_get:0000000000000014 .L0 
C:\Users\Karzan\AppData\Local\Temp\cc0WDOsQ.s:781    .text.rcu_all_reset_flag_clear:0000000000000010 .L0 
C:\Users\Karzan\AppData\Local\Temp\cc0WDOsQ.s:805    .text.rcu_interrupt_flag_get:0000000000000014 .L0 
C:\Users\Karzan\AppData\Local\Temp\cc0WDOsQ.s:831    .text.rcu_interrupt_flag_clear:0000000000000018 .L0 
C:\Users\Karzan\AppData\Local\Temp\cc0WDOsQ.s:857    .text.rcu_interrupt_enable:0000000000000018 .L0 
C:\Users\Karzan\AppData\Local\Temp\cc0WDOsQ.s:885    .text.rcu_interrupt_disable:000000000000001c .L0 
C:\Users\Karzan\AppData\Local\Temp\cc0WDOsQ.s:1145   .text.rcu_osci_stab_wait:0000000000000112 .L0 
C:\Users\Karzan\AppData\Local\Temp\cc0WDOsQ.s:1226   .text.rcu_deinit:0000000000000064 .L0 
C:\Users\Karzan\AppData\Local\Temp\cc0WDOsQ.s:1252   .text.rcu_osci_on:0000000000000018 .L0 
C:\Users\Karzan\AppData\Local\Temp\cc0WDOsQ.s:1280   .text.rcu_osci_off:000000000000001c .L0 
C:\Users\Karzan\AppData\Local\Temp\cc0WDOsQ.s:1345   .text.rcu_osci_bypass_mode_enable:000000000000003c .L0 
C:\Users\Karzan\AppData\Local\Temp\cc0WDOsQ.s:1411   .text.rcu_osci_bypass_mode_disable:000000000000003c .L0 
C:\Users\Karzan\AppData\Local\Temp\cc0WDOsQ.s:1431   .text.rcu_hxtal_clock_monitor_enable:0000000000000010 .L0 
C:\Users\Karzan\AppData\Local\Temp\cc0WDOsQ.s:1452   .text.rcu_hxtal_clock_monitor_disable:0000000000000012 .L0 
C:\Users\Karzan\AppData\Local\Temp\cc0WDOsQ.s:1485   .text.rcu_irc8m_adjust_value_set:0000000000000016 .L0 
C:\Users\Karzan\AppData\Local\Temp\cc0WDOsQ.s:1507   .text.rcu_deepsleep_voltage_set:000000000000000a .L0 
C:\Users\Karzan\AppData\Local\Temp\cc0WDOsQ.s:1834   .text.rcu_clock_freq_get:000000000000013a .L0 
                     .debug_frame:0000000000000000 .L0 
C:\Users\Karzan\AppData\Local\Temp\cc0WDOsQ.s:582    .text.rcu_adc_clock_config:000000000000002c .L21
C:\Users\Karzan\AppData\Local\Temp\cc0WDOsQ.s:578    .text.rcu_adc_clock_config:0000000000000026 .L22
C:\Users\Karzan\AppData\Local\Temp\cc0WDOsQ.s:597    .text.rcu_adc_clock_config:000000000000003a .L25
C:\Users\Karzan\AppData\Local\Temp\cc0WDOsQ.s:570    .text.rcu_adc_clock_config:000000000000001e .L23
C:\Users\Karzan\AppData\Local\Temp\cc0WDOsQ.s:602    .text.rcu_adc_clock_config:000000000000003c .L26
C:\Users\Karzan\AppData\Local\Temp\cc0WDOsQ.s:1117   .text.rcu_osci_stab_wait:00000000000000f8 .L54
C:\Users\Karzan\AppData\Local\Temp\cc0WDOsQ.s:935    .text.rcu_osci_stab_wait:000000000000002c .L39
C:\Users\Karzan\AppData\Local\Temp\cc0WDOsQ.s:970    .text.rcu_osci_stab_wait:000000000000005c .L55
C:\Users\Karzan\AppData\Local\Temp\cc0WDOsQ.s:1091   .text.rcu_osci_stab_wait:00000000000000de .L56
C:\Users\Karzan\AppData\Local\Temp\cc0WDOsQ.s:1037   .text.rcu_osci_stab_wait:00000000000000a4 .L57
C:\Users\Karzan\AppData\Local\Temp\cc0WDOsQ.s:1005   .text.rcu_osci_stab_wait:0000000000000080 .L58
C:\Users\Karzan\AppData\Local\Temp\cc0WDOsQ.s:1062   .text.rcu_osci_stab_wait:00000000000000bc .L59
GAS LISTING C:\Users\Karzan\AppData\Local\Temp\cc0WDOsQ.s 			page 68


C:\Users\Karzan\AppData\Local\Temp\cc0WDOsQ.s:917    .text.rcu_osci_stab_wait:0000000000000020 .L70
C:\Users\Karzan\AppData\Local\Temp\cc0WDOsQ.s:963    .text.rcu_osci_stab_wait:0000000000000058 .L53
C:\Users\Karzan\AppData\Local\Temp\cc0WDOsQ.s:949    .text.rcu_osci_stab_wait:0000000000000048 .L46
C:\Users\Karzan\AppData\Local\Temp\cc0WDOsQ.s:994    .text.rcu_osci_stab_wait:0000000000000072 .L69
C:\Users\Karzan\AppData\Local\Temp\cc0WDOsQ.s:989    .text.rcu_osci_stab_wait:0000000000000070 .L47
C:\Users\Karzan\AppData\Local\Temp\cc0WDOsQ.s:975    .text.rcu_osci_stab_wait:0000000000000060 .L40
C:\Users\Karzan\AppData\Local\Temp\cc0WDOsQ.s:921    .text.rcu_osci_stab_wait:0000000000000022 .L37
C:\Users\Karzan\AppData\Local\Temp\cc0WDOsQ.s:1029   .text.rcu_osci_stab_wait:000000000000009c .L48
C:\Users\Karzan\AppData\Local\Temp\cc0WDOsQ.s:1015   .text.rcu_osci_stab_wait:000000000000008c .L44
C:\Users\Karzan\AppData\Local\Temp\cc0WDOsQ.s:1055   .text.rcu_osci_stab_wait:00000000000000b8 .L49
C:\Users\Karzan\AppData\Local\Temp\cc0WDOsQ.s:1041   .text.rcu_osci_stab_wait:00000000000000a8 .L42
C:\Users\Karzan\AppData\Local\Temp\cc0WDOsQ.s:1083   .text.rcu_osci_stab_wait:00000000000000d6 .L50
C:\Users\Karzan\AppData\Local\Temp\cc0WDOsQ.s:1069   .text.rcu_osci_stab_wait:00000000000000c6 .L45
C:\Users\Karzan\AppData\Local\Temp\cc0WDOsQ.s:1110   .text.rcu_osci_stab_wait:00000000000000f4 .L51
C:\Users\Karzan\AppData\Local\Temp\cc0WDOsQ.s:1096   .text.rcu_osci_stab_wait:00000000000000e4 .L41
C:\Users\Karzan\AppData\Local\Temp\cc0WDOsQ.s:1136   .text.rcu_osci_stab_wait:000000000000010e .L52
C:\Users\Karzan\AppData\Local\Temp\cc0WDOsQ.s:1122   .text.rcu_osci_stab_wait:00000000000000fe .L38
C:\Users\Karzan\AppData\Local\Temp\cc0WDOsQ.s:1298   .text.rcu_osci_bypass_mode_enable:000000000000000e .L76
C:\Users\Karzan\AppData\Local\Temp\cc0WDOsQ.s:1321   .text.rcu_osci_bypass_mode_enable:0000000000000028 .L77
C:\Users\Karzan\AppData\Local\Temp\cc0WDOsQ.s:1363   .text.rcu_osci_bypass_mode_disable:000000000000000e .L80
C:\Users\Karzan\AppData\Local\Temp\cc0WDOsQ.s:1387   .text.rcu_osci_bypass_mode_disable:000000000000002a .L81
C:\Users\Karzan\AppData\Local\Temp\cc0WDOsQ.s:1809   .text.rcu_clock_freq_get:0000000000000126 .L99
C:\Users\Karzan\AppData\Local\Temp\cc0WDOsQ.s:1678   .text.rcu_clock_freq_get:00000000000000ae .L100
C:\Users\Karzan\AppData\Local\Temp\cc0WDOsQ.s:1671   .text.rcu_clock_freq_get:00000000000000a4 .L101
C:\Users\Karzan\AppData\Local\Temp\cc0WDOsQ.s:1615   .text.rcu_clock_freq_get:000000000000006a .L91
C:\Users\Karzan\AppData\Local\Temp\cc0WDOsQ.s:1685   .text.rcu_clock_freq_get:00000000000000b8 .L92
C:\Users\Karzan\AppData\Local\Temp\cc0WDOsQ.s:1699   .text.rcu_clock_freq_get:00000000000000c4 .L95
C:\Users\Karzan\AppData\Local\Temp\cc0WDOsQ.s:1624   .text.rcu_clock_freq_get:000000000000007a .L90
C:\Users\Karzan\AppData\Local\Temp\cc0WDOsQ.s:1640   .text.rcu_clock_freq_get:0000000000000088 .L89
C:\Users\Karzan\AppData\Local\Temp\cc0WDOsQ.s:1662   .text.rcu_clock_freq_get:00000000000000a0 .L93
C:\Users\Karzan\AppData\Local\Temp\cc0WDOsQ.s:1793   .text.rcu_clock_freq_get:000000000000011a .L94
C:\Users\Karzan\AppData\Local\Temp\cc0WDOsQ.s:1780   .text.rcu_clock_freq_get:0000000000000112 .L87
C:\Users\Karzan\AppData\Local\Temp\cc0WDOsQ.s:1824   .text.rcu_clock_freq_get:0000000000000136 .L102
C:\Users\Karzan\AppData\Local\Temp\cc0WDOsQ.s:1816   .text.rcu_clock_freq_get:0000000000000130 .L97
C:\Users\Karzan\AppData\Local\Temp\cc0WDOsQ.s:1703   .text.rcu_clock_freq_get:00000000000000c8 .L88
C:\Users\Karzan\AppData\Local\Temp\cc0WDOsQ.s:3755   .debug_abbrev:0000000000000000 .Ldebug_abbrev0
C:\Users\Karzan\AppData\Local\Temp\cc0WDOsQ.s:6322   .debug_str:0000000000000976 .LASF232
C:\Users\Karzan\AppData\Local\Temp\cc0WDOsQ.s:6092   .debug_str:00000000000002ea .LASF233
C:\Users\Karzan\AppData\Local\Temp\cc0WDOsQ.s:6044   .debug_str:0000000000000111 .LASF234
C:\Users\Karzan\AppData\Local\Temp\cc0WDOsQ.s:5920   .debug_ranges:0000000000000000 .Ldebug_ranges0
C:\Users\Karzan\AppData\Local\Temp\cc0WDOsQ.s:6006   .debug_line:0000000000000000 .Ldebug_line0
C:\Users\Karzan\AppData\Local\Temp\cc0WDOsQ.s:6038   .debug_str:00000000000000e7 .LASF0
C:\Users\Karzan\AppData\Local\Temp\cc0WDOsQ.s:6444   .debug_str:0000000000000cda .LASF1
C:\Users\Karzan\AppData\Local\Temp\cc0WDOsQ.s:6370   .debug_str:0000000000000af1 .LASF4
C:\Users\Karzan\AppData\Local\Temp\cc0WDOsQ.s:6406   .debug_str:0000000000000be0 .LASF2
C:\Users\Karzan\AppData\Local\Temp\cc0WDOsQ.s:6338   .debug_str:0000000000000a42 .LASF3
C:\Users\Karzan\AppData\Local\Temp\cc0WDOsQ.s:6130   .debug_str:000000000000045a .LASF5
C:\Users\Karzan\AppData\Local\Temp\cc0WDOsQ.s:6450   .debug_str:0000000000000d0a .LASF6
C:\Users\Karzan\AppData\Local\Temp\cc0WDOsQ.s:6342   .debug_str:0000000000000a56 .LASF7
C:\Users\Karzan\AppData\Local\Temp\cc0WDOsQ.s:6410   .debug_str:0000000000000bf6 .LASF8
C:\Users\Karzan\AppData\Local\Temp\cc0WDOsQ.s:6390   .debug_str:0000000000000b74 .LASF9
C:\Users\Karzan\AppData\Local\Temp\cc0WDOsQ.s:6254   .debug_str:00000000000007b6 .LASF10
C:\Users\Karzan\AppData\Local\Temp\cc0WDOsQ.s:6124   .debug_str:0000000000000412 .LASF11
C:\Users\Karzan\AppData\Local\Temp\cc0WDOsQ.s:6226   .debug_str:0000000000000710 .LASF12
C:\Users\Karzan\AppData\Local\Temp\cc0WDOsQ.s:6314   .debug_str:000000000000094c .LASF13
C:\Users\Karzan\AppData\Local\Temp\cc0WDOsQ.s:6100   .debug_str:000000000000034d .LASF14
C:\Users\Karzan\AppData\Local\Temp\cc0WDOsQ.s:6012   .debug_str:000000000000001b .LASF235
GAS LISTING C:\Users\Karzan\AppData\Local\Temp\cc0WDOsQ.s 			page 69


C:\Users\Karzan\AppData\Local\Temp\cc0WDOsQ.s:6348   .debug_str:0000000000000a73 .LASF15
C:\Users\Karzan\AppData\Local\Temp\cc0WDOsQ.s:6064   .debug_str:0000000000000216 .LASF16
C:\Users\Karzan\AppData\Local\Temp\cc0WDOsQ.s:6008   .debug_str:0000000000000000 .LASF17
C:\Users\Karzan\AppData\Local\Temp\cc0WDOsQ.s:6194   .debug_str:0000000000000616 .LASF18
C:\Users\Karzan\AppData\Local\Temp\cc0WDOsQ.s:6186   .debug_str:00000000000005c9 .LASF19
C:\Users\Karzan\AppData\Local\Temp\cc0WDOsQ.s:6312   .debug_str:0000000000000940 .LASF20
C:\Users\Karzan\AppData\Local\Temp\cc0WDOsQ.s:6026   .debug_str:00000000000000a3 .LASF21
C:\Users\Karzan\AppData\Local\Temp\cc0WDOsQ.s:6028   .debug_str:00000000000000ac .LASF22
C:\Users\Karzan\AppData\Local\Temp\cc0WDOsQ.s:6480   .debug_str:0000000000000e24 .LASF23
C:\Users\Karzan\AppData\Local\Temp\cc0WDOsQ.s:6396   .debug_str:0000000000000ba6 .LASF24
C:\Users\Karzan\AppData\Local\Temp\cc0WDOsQ.s:6434   .debug_str:0000000000000c8b .LASF25
C:\Users\Karzan\AppData\Local\Temp\cc0WDOsQ.s:6236   .debug_str:0000000000000752 .LASF26
C:\Users\Karzan\AppData\Local\Temp\cc0WDOsQ.s:6238   .debug_str:000000000000075d .LASF27
C:\Users\Karzan\AppData\Local\Temp\cc0WDOsQ.s:6240   .debug_str:0000000000000768 .LASF28
C:\Users\Karzan\AppData\Local\Temp\cc0WDOsQ.s:6242   .debug_str:0000000000000773 .LASF29
C:\Users\Karzan\AppData\Local\Temp\cc0WDOsQ.s:6244   .debug_str:000000000000077e .LASF30
C:\Users\Karzan\AppData\Local\Temp\cc0WDOsQ.s:6246   .debug_str:0000000000000789 .LASF31
C:\Users\Karzan\AppData\Local\Temp\cc0WDOsQ.s:6178   .debug_str:000000000000058c .LASF32
C:\Users\Karzan\AppData\Local\Temp\cc0WDOsQ.s:6212   .debug_str:00000000000006a1 .LASF33
C:\Users\Karzan\AppData\Local\Temp\cc0WDOsQ.s:6214   .debug_str:00000000000006aa .LASF34
C:\Users\Karzan\AppData\Local\Temp\cc0WDOsQ.s:6428   .debug_str:0000000000000c69 .LASF35
C:\Users\Karzan\AppData\Local\Temp\cc0WDOsQ.s:6430   .debug_str:0000000000000c74 .LASF36
C:\Users\Karzan\AppData\Local\Temp\cc0WDOsQ.s:6366   .debug_str:0000000000000add .LASF37
C:\Users\Karzan\AppData\Local\Temp\cc0WDOsQ.s:6368   .debug_str:0000000000000ae7 .LASF38
C:\Users\Karzan\AppData\Local\Temp\cc0WDOsQ.s:6174   .debug_str:000000000000057a .LASF39
C:\Users\Karzan\AppData\Local\Temp\cc0WDOsQ.s:6176   .debug_str:0000000000000583 .LASF40
C:\Users\Karzan\AppData\Local\Temp\cc0WDOsQ.s:6290   .debug_str:00000000000008aa .LASF41
C:\Users\Karzan\AppData\Local\Temp\cc0WDOsQ.s:6292   .debug_str:00000000000008b3 .LASF42
C:\Users\Karzan\AppData\Local\Temp\cc0WDOsQ.s:6058   .debug_str:00000000000001e9 .LASF43
C:\Users\Karzan\AppData\Local\Temp\cc0WDOsQ.s:6408   .debug_str:0000000000000bee .LASF44
C:\Users\Karzan\AppData\Local\Temp\cc0WDOsQ.s:6132   .debug_str:0000000000000465 .LASF45
C:\Users\Karzan\AppData\Local\Temp\cc0WDOsQ.s:6034   .debug_str:00000000000000ce .LASF46
C:\Users\Karzan\AppData\Local\Temp\cc0WDOsQ.s:6398   .debug_str:0000000000000baf .LASF47
C:\Users\Karzan\AppData\Local\Temp\cc0WDOsQ.s:6258   .debug_str:00000000000007d5 .LASF48
C:\Users\Karzan\AppData\Local\Temp\cc0WDOsQ.s:6260   .debug_str:00000000000007df .LASF49
C:\Users\Karzan\AppData\Local\Temp\cc0WDOsQ.s:6262   .debug_str:00000000000007e9 .LASF50
C:\Users\Karzan\AppData\Local\Temp\cc0WDOsQ.s:6264   .debug_str:00000000000007f3 .LASF51
C:\Users\Karzan\AppData\Local\Temp\cc0WDOsQ.s:6266   .debug_str:00000000000007fd .LASF52
C:\Users\Karzan\AppData\Local\Temp\cc0WDOsQ.s:6424   .debug_str:0000000000000c57 .LASF53
C:\Users\Karzan\AppData\Local\Temp\cc0WDOsQ.s:6426   .debug_str:0000000000000c60 .LASF54
C:\Users\Karzan\AppData\Local\Temp\cc0WDOsQ.s:6234   .debug_str:0000000000000747 .LASF55
C:\Users\Karzan\AppData\Local\Temp\cc0WDOsQ.s:6210   .debug_str:0000000000000698 .LASF56
C:\Users\Karzan\AppData\Local\Temp\cc0WDOsQ.s:6320   .debug_str:000000000000096b .LASF57
C:\Users\Karzan\AppData\Local\Temp\cc0WDOsQ.s:6478   .debug_str:0000000000000e14 .LASF58
C:\Users\Karzan\AppData\Local\Temp\cc0WDOsQ.s:6018   .debug_str:0000000000000065 .LASF59
C:\Users\Karzan\AppData\Local\Temp\cc0WDOsQ.s:6308   .debug_str:0000000000000927 .LASF60
C:\Users\Karzan\AppData\Local\Temp\cc0WDOsQ.s:6464   .debug_str:0000000000000d90 .LASF61
C:\Users\Karzan\AppData\Local\Temp\cc0WDOsQ.s:6228   .debug_str:0000000000000718 .LASF62
C:\Users\Karzan\AppData\Local\Temp\cc0WDOsQ.s:6160   .debug_str:0000000000000511 .LASF63
C:\Users\Karzan\AppData\Local\Temp\cc0WDOsQ.s:6440   .debug_str:0000000000000cbd .LASF64
C:\Users\Karzan\AppData\Local\Temp\cc0WDOsQ.s:6248   .debug_str:0000000000000794 .LASF65
C:\Users\Karzan\AppData\Local\Temp\cc0WDOsQ.s:6030   .debug_str:00000000000000b5 .LASF66
C:\Users\Karzan\AppData\Local\Temp\cc0WDOsQ.s:6318   .debug_str:000000000000095d .LASF67
C:\Users\Karzan\AppData\Local\Temp\cc0WDOsQ.s:6110   .debug_str:00000000000003ac .LASF68
C:\Users\Karzan\AppData\Local\Temp\cc0WDOsQ.s:6418   .debug_str:0000000000000c31 .LASF69
C:\Users\Karzan\AppData\Local\Temp\cc0WDOsQ.s:6048   .debug_str:0000000000000190 .LASF70
C:\Users\Karzan\AppData\Local\Temp\cc0WDOsQ.s:6334   .debug_str:0000000000000a2f .LASF71
GAS LISTING C:\Users\Karzan\AppData\Local\Temp\cc0WDOsQ.s 			page 70


C:\Users\Karzan\AppData\Local\Temp\cc0WDOsQ.s:6388   .debug_str:0000000000000b66 .LASF72
C:\Users\Karzan\AppData\Local\Temp\cc0WDOsQ.s:6172   .debug_str:000000000000056c .LASF73
C:\Users\Karzan\AppData\Local\Temp\cc0WDOsQ.s:6376   .debug_str:0000000000000b18 .LASF74
C:\Users\Karzan\AppData\Local\Temp\cc0WDOsQ.s:6162   .debug_str:000000000000051f .LASF75
C:\Users\Karzan\AppData\Local\Temp\cc0WDOsQ.s:6416   .debug_str:0000000000000c25 .LASF76
C:\Users\Karzan\AppData\Local\Temp\cc0WDOsQ.s:6218   .debug_str:00000000000006c9 .LASF77
C:\Users\Karzan\AppData\Local\Temp\cc0WDOsQ.s:6346   .debug_str:0000000000000a67 .LASF78
C:\Users\Karzan\AppData\Local\Temp\cc0WDOsQ.s:6250   .debug_str:00000000000007a2 .LASF79
C:\Users\Karzan\AppData\Local\Temp\cc0WDOsQ.s:6454   .debug_str:0000000000000d2e .LASF80
C:\Users\Karzan\AppData\Local\Temp\cc0WDOsQ.s:6392   .debug_str:0000000000000b86 .LASF81
C:\Users\Karzan\AppData\Local\Temp\cc0WDOsQ.s:6032   .debug_str:00000000000000c3 .LASF82
C:\Users\Karzan\AppData\Local\Temp\cc0WDOsQ.s:6340   .debug_str:0000000000000a4c .LASF83
C:\Users\Karzan\AppData\Local\Temp\cc0WDOsQ.s:6230   .debug_str:0000000000000725 .LASF84
C:\Users\Karzan\AppData\Local\Temp\cc0WDOsQ.s:6020   .debug_str:0000000000000072 .LASF85
C:\Users\Karzan\AppData\Local\Temp\cc0WDOsQ.s:6310   .debug_str:0000000000000933 .LASF86
C:\Users\Karzan\AppData\Local\Temp\cc0WDOsQ.s:6098   .debug_str:0000000000000340 .LASF87
C:\Users\Karzan\AppData\Local\Temp\cc0WDOsQ.s:6386   .debug_str:0000000000000b59 .LASF88
C:\Users\Karzan\AppData\Local\Temp\cc0WDOsQ.s:6150   .debug_str:00000000000004cf .LASF89
C:\Users\Karzan\AppData\Local\Temp\cc0WDOsQ.s:6432   .debug_str:0000000000000c7f .LASF90
C:\Users\Karzan\AppData\Local\Temp\cc0WDOsQ.s:6372   .debug_str:0000000000000afb .LASF91
C:\Users\Karzan\AppData\Local\Temp\cc0WDOsQ.s:6268   .debug_str:0000000000000807 .LASF92
C:\Users\Karzan\AppData\Local\Temp\cc0WDOsQ.s:6106   .debug_str:0000000000000383 .LASF93
C:\Users\Karzan\AppData\Local\Temp\cc0WDOsQ.s:6104   .debug_str:000000000000036d .LASF94
C:\Users\Karzan\AppData\Local\Temp\cc0WDOsQ.s:6364   .debug_str:0000000000000acb .LASF95
C:\Users\Karzan\AppData\Local\Temp\cc0WDOsQ.s:6126   .debug_str:0000000000000429 .LASF96
C:\Users\Karzan\AppData\Local\Temp\cc0WDOsQ.s:6420   .debug_str:0000000000000c3e .LASF97
C:\Users\Karzan\AppData\Local\Temp\cc0WDOsQ.s:6256   .debug_str:00000000000007c4 .LASF98
C:\Users\Karzan\AppData\Local\Temp\cc0WDOsQ.s:6036   .debug_str:00000000000000d6 .LASF99
C:\Users\Karzan\AppData\Local\Temp\cc0WDOsQ.s:6378   .debug_str:0000000000000b25 .LASF100
C:\Users\Karzan\AppData\Local\Temp\cc0WDOsQ.s:6040   .debug_str:00000000000000f4 .LASF101
C:\Users\Karzan\AppData\Local\Temp\cc0WDOsQ.s:6374   .debug_str:0000000000000b09 .LASF102
C:\Users\Karzan\AppData\Local\Temp\cc0WDOsQ.s:6412   .debug_str:0000000000000c01 .LASF103
C:\Users\Karzan\AppData\Local\Temp\cc0WDOsQ.s:6442   .debug_str:0000000000000ccb .LASF104
C:\Users\Karzan\AppData\Local\Temp\cc0WDOsQ.s:6060   .debug_str:00000000000001f2 .LASF105
C:\Users\Karzan\AppData\Local\Temp\cc0WDOsQ.s:6304   .debug_str:000000000000090e .LASF106
C:\Users\Karzan\AppData\Local\Temp\cc0WDOsQ.s:6146   .debug_str:00000000000004ba .LASF107
C:\Users\Karzan\AppData\Local\Temp\cc0WDOsQ.s:6074   .debug_str:000000000000025a .LASF108
C:\Users\Karzan\AppData\Local\Temp\cc0WDOsQ.s:6302   .debug_str:00000000000008f7 .LASF109
C:\Users\Karzan\AppData\Local\Temp\cc0WDOsQ.s:6216   .debug_str:00000000000006b3 .LASF110
C:\Users\Karzan\AppData\Local\Temp\cc0WDOsQ.s:6196   .debug_str:000000000000061e .LASF111
C:\Users\Karzan\AppData\Local\Temp\cc0WDOsQ.s:6460   .debug_str:0000000000000d65 .LASF112
C:\Users\Karzan\AppData\Local\Temp\cc0WDOsQ.s:6414   .debug_str:0000000000000c11 .LASF113
C:\Users\Karzan\AppData\Local\Temp\cc0WDOsQ.s:6180   .debug_str:0000000000000596 .LASF114
C:\Users\Karzan\AppData\Local\Temp\cc0WDOsQ.s:6462   .debug_str:0000000000000d7b .LASF115
C:\Users\Karzan\AppData\Local\Temp\cc0WDOsQ.s:6466   .debug_str:0000000000000da6 .LASF116
C:\Users\Karzan\AppData\Local\Temp\cc0WDOsQ.s:6360   .debug_str:0000000000000aaa .LASF117
C:\Users\Karzan\AppData\Local\Temp\cc0WDOsQ.s:6400   .debug_str:0000000000000bb6 .LASF118
C:\Users\Karzan\AppData\Local\Temp\cc0WDOsQ.s:6220   .debug_str:00000000000006d5 .LASF119
C:\Users\Karzan\AppData\Local\Temp\cc0WDOsQ.s:6122   .debug_str:00000000000003f8 .LASF120
C:\Users\Karzan\AppData\Local\Temp\cc0WDOsQ.s:6014   .debug_str:000000000000002b .LASF121
C:\Users\Karzan\AppData\Local\Temp\cc0WDOsQ.s:6182   .debug_str:00000000000005ab .LASF122
C:\Users\Karzan\AppData\Local\Temp\cc0WDOsQ.s:6276   .debug_str:000000000000084a .LASF123
C:\Users\Karzan\AppData\Local\Temp\cc0WDOsQ.s:6438   .debug_str:0000000000000ca4 .LASF124
C:\Users\Karzan\AppData\Local\Temp\cc0WDOsQ.s:6232   .debug_str:0000000000000732 .LASF125
C:\Users\Karzan\AppData\Local\Temp\cc0WDOsQ.s:6456   .debug_str:0000000000000d3a .LASF126
C:\Users\Karzan\AppData\Local\Temp\cc0WDOsQ.s:6206   .debug_str:0000000000000679 .LASF127
C:\Users\Karzan\AppData\Local\Temp\cc0WDOsQ.s:6204   .debug_str:0000000000000668 .LASF128
GAS LISTING C:\Users\Karzan\AppData\Local\Temp\cc0WDOsQ.s 			page 71


C:\Users\Karzan\AppData\Local\Temp\cc0WDOsQ.s:6192   .debug_str:0000000000000605 .LASF129
C:\Users\Karzan\AppData\Local\Temp\cc0WDOsQ.s:6452   .debug_str:0000000000000d1d .LASF130
C:\Users\Karzan\AppData\Local\Temp\cc0WDOsQ.s:6436   .debug_str:0000000000000c95 .LASF131
C:\Users\Karzan\AppData\Local\Temp\cc0WDOsQ.s:6326   .debug_str:0000000000000a04 .LASF132
C:\Users\Karzan\AppData\Local\Temp\cc0WDOsQ.s:6120   .debug_str:00000000000003e8 .LASF133
C:\Users\Karzan\AppData\Local\Temp\cc0WDOsQ.s:6156   .debug_str:00000000000004fd .LASF134
C:\Users\Karzan\AppData\Local\Temp\cc0WDOsQ.s:6114   .debug_str:00000000000003c3 .LASF135
C:\Users\Karzan\AppData\Local\Temp\cc0WDOsQ.s:6404   .debug_str:0000000000000bd6 .LASF136
C:\Users\Karzan\AppData\Local\Temp\cc0WDOsQ.s:6042   .debug_str:0000000000000107 .LASF137
C:\Users\Karzan\AppData\Local\Temp\cc0WDOsQ.s:6446   .debug_str:0000000000000ce6 .LASF138
C:\Users\Karzan\AppData\Local\Temp\cc0WDOsQ.s:6380   .debug_str:0000000000000b37 .LASF139
C:\Users\Karzan\AppData\Local\Temp\cc0WDOsQ.s:6484   .debug_str:0000000000000e42 .LASF140
C:\Users\Karzan\AppData\Local\Temp\cc0WDOsQ.s:6298   .debug_str:00000000000008d9 .LASF141
C:\Users\Karzan\AppData\Local\Temp\cc0WDOsQ.s:6458   .debug_str:0000000000000d52 .LASF142
C:\Users\Karzan\AppData\Local\Temp\cc0WDOsQ.s:6294   .debug_str:00000000000008bc .LASF143
C:\Users\Karzan\AppData\Local\Temp\cc0WDOsQ.s:6138   .debug_str:000000000000049b .LASF144
C:\Users\Karzan\AppData\Local\Temp\cc0WDOsQ.s:6352   .debug_str:0000000000000a82 .LASF145
C:\Users\Karzan\AppData\Local\Temp\cc0WDOsQ.s:6354   .debug_str:0000000000000a8a .LASF146
C:\Users\Karzan\AppData\Local\Temp\cc0WDOsQ.s:6474   .debug_str:0000000000000df3 .LASF147
C:\Users\Karzan\AppData\Local\Temp\cc0WDOsQ.s:6222   .debug_str:00000000000006ef .LASF176
C:\Users\Karzan\AppData\Local\Temp\cc0WDOsQ.s:1512   .text.rcu_clock_freq_get:0000000000000000 .LFB42
C:\Users\Karzan\AppData\Local\Temp\cc0WDOsQ.s:1832   .text.rcu_clock_freq_get:000000000000013a .LFE42
C:\Users\Karzan\AppData\Local\Temp\cc0WDOsQ.s:4341   .debug_loc:0000000000000000 .LLST43
C:\Users\Karzan\AppData\Local\Temp\cc0WDOsQ.s:6184   .debug_str:00000000000005c3 .LASF164
C:\Users\Karzan\AppData\Local\Temp\cc0WDOsQ.s:4364   .debug_loc:0000000000000038 .LLST44
C:\Users\Karzan\AppData\Local\Temp\cc0WDOsQ.s:4386   .debug_loc:000000000000006f .LLST45
C:\Users\Karzan\AppData\Local\Temp\cc0WDOsQ.s:6068   .debug_str:000000000000022c .LASF148
C:\Users\Karzan\AppData\Local\Temp\cc0WDOsQ.s:4407   .debug_loc:000000000000009e .LLST46
C:\Users\Karzan\AppData\Local\Temp\cc0WDOsQ.s:6468   .debug_str:0000000000000db7 .LASF149
C:\Users\Karzan\AppData\Local\Temp\cc0WDOsQ.s:4429   .debug_loc:00000000000000d5 .LLST47
C:\Users\Karzan\AppData\Local\Temp\cc0WDOsQ.s:6358   .debug_str:0000000000000aa1 .LASF150
C:\Users\Karzan\AppData\Local\Temp\cc0WDOsQ.s:4471   .debug_loc:000000000000012e .LLST48
C:\Users\Karzan\AppData\Local\Temp\cc0WDOsQ.s:6288   .debug_str:00000000000008a0 .LASF151
C:\Users\Karzan\AppData\Local\Temp\cc0WDOsQ.s:4486   .debug_loc:0000000000000157 .LLST49
C:\Users\Karzan\AppData\Local\Temp\cc0WDOsQ.s:6054   .debug_str:00000000000001c0 .LASF152
C:\Users\Karzan\AppData\Local\Temp\cc0WDOsQ.s:4525   .debug_loc:0000000000000198 .LLST50
C:\Users\Karzan\AppData\Local\Temp\cc0WDOsQ.s:6158   .debug_str:000000000000050a .LASF153
C:\Users\Karzan\AppData\Local\Temp\cc0WDOsQ.s:4564   .debug_loc:00000000000001d9 .LLST51
C:\Users\Karzan\AppData\Local\Temp\cc0WDOsQ.s:6144   .debug_str:00000000000004b0 .LASF154
C:\Users\Karzan\AppData\Local\Temp\cc0WDOsQ.s:4587   .debug_loc:0000000000000203 .LLST52
C:\Users\Karzan\AppData\Local\Temp\cc0WDOsQ.s:6148   .debug_str:00000000000004c9 .LASF155
C:\Users\Karzan\AppData\Local\Temp\cc0WDOsQ.s:4610   .debug_loc:000000000000022d .LLST53
C:\Users\Karzan\AppData\Local\Temp\cc0WDOsQ.s:6076   .debug_str:0000000000000268 .LASF156
C:\Users\Karzan\AppData\Local\Temp\cc0WDOsQ.s:4625   .debug_loc:0000000000000256 .LLST54
C:\Users\Karzan\AppData\Local\Temp\cc0WDOsQ.s:4656   .debug_loc:00000000000002aa .LLST55
C:\Users\Karzan\AppData\Local\Temp\cc0WDOsQ.s:6316   .debug_str:0000000000000955 .LASF157
C:\Users\Karzan\AppData\Local\Temp\cc0WDOsQ.s:4701   .debug_loc:0000000000000306 .LLST56
C:\Users\Karzan\AppData\Local\Temp\cc0WDOsQ.s:6140   .debug_str:00000000000004a2 .LASF158
C:\Users\Karzan\AppData\Local\Temp\cc0WDOsQ.s:4769   .debug_loc:0000000000000372 .LLST57
C:\Users\Karzan\AppData\Local\Temp\cc0WDOsQ.s:6142   .debug_str:00000000000004a9 .LASF159
C:\Users\Karzan\AppData\Local\Temp\cc0WDOsQ.s:4786   .debug_loc:0000000000000396 .LLST58
C:\Users\Karzan\AppData\Local\Temp\cc0WDOsQ.s:6336   .debug_str:0000000000000a3b .LASF160
C:\Users\Karzan\AppData\Local\Temp\cc0WDOsQ.s:4793   .debug_loc:00000000000003a9 .LLST59
C:\Users\Karzan\AppData\Local\Temp\cc0WDOsQ.s:6344   .debug_str:0000000000000a5f .LASF161
C:\Users\Karzan\AppData\Local\Temp\cc0WDOsQ.s:6118   .debug_str:00000000000003df .LASF162
C:\Users\Karzan\AppData\Local\Temp\cc0WDOsQ.s:6422   .debug_str:0000000000000c4e .LASF163
C:\Users\Karzan\AppData\Local\Temp\cc0WDOsQ.s:1543   .text.rcu_clock_freq_get:000000000000001c .LVL151
GAS LISTING C:\Users\Karzan\AppData\Local\Temp\cc0WDOsQ.s 			page 72


C:\Users\Karzan\AppData\Local\Temp\cc0WDOsQ.s:6272   .debug_str:0000000000000828 .LASF166
C:\Users\Karzan\AppData\Local\Temp\cc0WDOsQ.s:1490   .text.rcu_deepsleep_voltage_set:0000000000000000 .LFB41
C:\Users\Karzan\AppData\Local\Temp\cc0WDOsQ.s:1505   .text.rcu_deepsleep_voltage_set:000000000000000a .LFE41
C:\Users\Karzan\AppData\Local\Temp\cc0WDOsQ.s:6324   .debug_str:00000000000009fe .LASF165
C:\Users\Karzan\AppData\Local\Temp\cc0WDOsQ.s:4800   .debug_loc:00000000000003bc .LLST42
C:\Users\Karzan\AppData\Local\Temp\cc0WDOsQ.s:6108   .debug_str:0000000000000391 .LASF167
C:\Users\Karzan\AppData\Local\Temp\cc0WDOsQ.s:1457   .text.rcu_irc8m_adjust_value_set:0000000000000000 .LFB40
C:\Users\Karzan\AppData\Local\Temp\cc0WDOsQ.s:1483   .text.rcu_irc8m_adjust_value_set:0000000000000016 .LFE40
C:\Users\Karzan\AppData\Local\Temp\cc0WDOsQ.s:6332   .debug_str:0000000000000a22 .LASF168
C:\Users\Karzan\AppData\Local\Temp\cc0WDOsQ.s:4811   .debug_loc:00000000000003da .LLST40
C:\Users\Karzan\AppData\Local\Temp\cc0WDOsQ.s:4825   .debug_loc:00000000000003fb .LLST41
C:\Users\Karzan\AppData\Local\Temp\cc0WDOsQ.s:6016   .debug_str:0000000000000045 .LASF169
C:\Users\Karzan\AppData\Local\Temp\cc0WDOsQ.s:1436   .text.rcu_hxtal_clock_monitor_disable:0000000000000000 .LFB39
C:\Users\Karzan\AppData\Local\Temp\cc0WDOsQ.s:1450   .text.rcu_hxtal_clock_monitor_disable:0000000000000012 .LFE39
C:\Users\Karzan\AppData\Local\Temp\cc0WDOsQ.s:6050   .debug_str:000000000000019c .LASF170
C:\Users\Karzan\AppData\Local\Temp\cc0WDOsQ.s:1416   .text.rcu_hxtal_clock_monitor_enable:0000000000000000 .LFB38
C:\Users\Karzan\AppData\Local\Temp\cc0WDOsQ.s:1429   .text.rcu_hxtal_clock_monitor_enable:0000000000000010 .LFE38
C:\Users\Karzan\AppData\Local\Temp\cc0WDOsQ.s:6190   .debug_str:00000000000005e8 .LASF171
C:\Users\Karzan\AppData\Local\Temp\cc0WDOsQ.s:1350   .text.rcu_osci_bypass_mode_disable:0000000000000000 .LFB37
C:\Users\Karzan\AppData\Local\Temp\cc0WDOsQ.s:1409   .text.rcu_osci_bypass_mode_disable:000000000000003c .LFE37
C:\Users\Karzan\AppData\Local\Temp\cc0WDOsQ.s:6402   .debug_str:0000000000000bd1 .LASF172
C:\Users\Karzan\AppData\Local\Temp\cc0WDOsQ.s:4841   .debug_loc:000000000000041f .LLST38
C:\Users\Karzan\AppData\Local\Temp\cc0WDOsQ.s:4864   .debug_loc:0000000000000459 .LLST39
C:\Users\Karzan\AppData\Local\Temp\cc0WDOsQ.s:6024   .debug_str:0000000000000087 .LASF173
C:\Users\Karzan\AppData\Local\Temp\cc0WDOsQ.s:1285   .text.rcu_osci_bypass_mode_enable:0000000000000000 .LFB36
C:\Users\Karzan\AppData\Local\Temp\cc0WDOsQ.s:1343   .text.rcu_osci_bypass_mode_enable:000000000000003c .LFE36
C:\Users\Karzan\AppData\Local\Temp\cc0WDOsQ.s:4875   .debug_loc:0000000000000477 .LLST36
C:\Users\Karzan\AppData\Local\Temp\cc0WDOsQ.s:4898   .debug_loc:00000000000004b1 .LLST37
C:\Users\Karzan\AppData\Local\Temp\cc0WDOsQ.s:6208   .debug_str:000000000000068b .LASF174
C:\Users\Karzan\AppData\Local\Temp\cc0WDOsQ.s:1257   .text.rcu_osci_off:0000000000000000 .LFB35
C:\Users\Karzan\AppData\Local\Temp\cc0WDOsQ.s:1278   .text.rcu_osci_off:000000000000001c .LFE35
C:\Users\Karzan\AppData\Local\Temp\cc0WDOsQ.s:6152   .debug_str:00000000000004db .LASF175
C:\Users\Karzan\AppData\Local\Temp\cc0WDOsQ.s:1231   .text.rcu_osci_on:0000000000000000 .LFB34
C:\Users\Karzan\AppData\Local\Temp\cc0WDOsQ.s:1250   .text.rcu_osci_on:0000000000000018 .LFE34
C:\Users\Karzan\AppData\Local\Temp\cc0WDOsQ.s:6084   .debug_str:0000000000000298 .LASF177
C:\Users\Karzan\AppData\Local\Temp\cc0WDOsQ.s:890    .text.rcu_osci_stab_wait:0000000000000000 .LFB33
C:\Users\Karzan\AppData\Local\Temp\cc0WDOsQ.s:1143   .text.rcu_osci_stab_wait:0000000000000112 .LFE33
C:\Users\Karzan\AppData\Local\Temp\cc0WDOsQ.s:4909   .debug_loc:00000000000004cf .LLST30
C:\Users\Karzan\AppData\Local\Temp\cc0WDOsQ.s:4932   .debug_loc:0000000000000507 .LLST31
C:\Users\Karzan\AppData\Local\Temp\cc0WDOsQ.s:6078   .debug_str:000000000000026f .LASF178
C:\Users\Karzan\AppData\Local\Temp\cc0WDOsQ.s:5023   .debug_loc:00000000000005d7 .LLST32
C:\Users\Karzan\AppData\Local\Temp\cc0WDOsQ.s:6328   .debug_str:0000000000000a14 .LASF179
C:\Users\Karzan\AppData\Local\Temp\cc0WDOsQ.s:5261   .debug_loc:00000000000007b8 .LLST33
C:\Users\Karzan\AppData\Local\Temp\cc0WDOsQ.s:6086   .debug_str:00000000000002ab .LASF180
C:\Users\Karzan\AppData\Local\Temp\cc0WDOsQ.s:5283   .debug_loc:00000000000007ef .LLST34
C:\Users\Karzan\AppData\Local\Temp\cc0WDOsQ.s:954    .text.rcu_osci_stab_wait:0000000000000052 .LVL82
C:\Users\Karzan\AppData\Local\Temp\cc0WDOsQ.s:980    .text.rcu_osci_stab_wait:000000000000006a .LVL88
C:\Users\Karzan\AppData\Local\Temp\cc0WDOsQ.s:997    .text.rcu_osci_stab_wait:000000000000007a .LVL92
C:\Users\Karzan\AppData\Local\Temp\cc0WDOsQ.s:1020   .text.rcu_osci_stab_wait:0000000000000096 .LVL96
C:\Users\Karzan\AppData\Local\Temp\cc0WDOsQ.s:1046   .text.rcu_osci_stab_wait:00000000000000b2 .LVL102
C:\Users\Karzan\AppData\Local\Temp\cc0WDOsQ.s:1074   .text.rcu_osci_stab_wait:00000000000000d0 .LVL108
C:\Users\Karzan\AppData\Local\Temp\cc0WDOsQ.s:1101   .text.rcu_osci_stab_wait:00000000000000ee .LVL114
C:\Users\Karzan\AppData\Local\Temp\cc0WDOsQ.s:1127   .text.rcu_osci_stab_wait:0000000000000108 .LVL120
C:\Users\Karzan\AppData\Local\Temp\cc0WDOsQ.s:6296   .debug_str:00000000000008c3 .LASF181
C:\Users\Karzan\AppData\Local\Temp\cc0WDOsQ.s:862    .text.rcu_interrupt_disable:0000000000000000 .LFB32
C:\Users\Karzan\AppData\Local\Temp\cc0WDOsQ.s:883    .text.rcu_interrupt_disable:000000000000001c .LFE32
C:\Users\Karzan\AppData\Local\Temp\cc0WDOsQ.s:6350   .debug_str:0000000000000a79 .LASF182
GAS LISTING C:\Users\Karzan\AppData\Local\Temp\cc0WDOsQ.s 			page 73


C:\Users\Karzan\AppData\Local\Temp\cc0WDOsQ.s:6282   .debug_str:0000000000000879 .LASF183
C:\Users\Karzan\AppData\Local\Temp\cc0WDOsQ.s:836    .text.rcu_interrupt_enable:0000000000000000 .LFB31
C:\Users\Karzan\AppData\Local\Temp\cc0WDOsQ.s:855    .text.rcu_interrupt_enable:0000000000000018 .LFE31
C:\Users\Karzan\AppData\Local\Temp\cc0WDOsQ.s:6046   .debug_str:0000000000000177 .LASF184
C:\Users\Karzan\AppData\Local\Temp\cc0WDOsQ.s:810    .text.rcu_interrupt_flag_clear:0000000000000000 .LFB30
C:\Users\Karzan\AppData\Local\Temp\cc0WDOsQ.s:829    .text.rcu_interrupt_flag_clear:0000000000000018 .LFE30
C:\Users\Karzan\AppData\Local\Temp\cc0WDOsQ.s:6356   .debug_str:0000000000000a92 .LASF185
C:\Users\Karzan\AppData\Local\Temp\cc0WDOsQ.s:6102   .debug_str:0000000000000356 .LASF186
C:\Users\Karzan\AppData\Local\Temp\cc0WDOsQ.s:786    .text.rcu_interrupt_flag_get:0000000000000000 .LFB29
C:\Users\Karzan\AppData\Local\Temp\cc0WDOsQ.s:803    .text.rcu_interrupt_flag_get:0000000000000014 .LFE29
C:\Users\Karzan\AppData\Local\Temp\cc0WDOsQ.s:6112   .debug_str:00000000000003ba .LASF187
C:\Users\Karzan\AppData\Local\Temp\cc0WDOsQ.s:5354   .debug_loc:00000000000008a4 .LLST29
C:\Users\Karzan\AppData\Local\Temp\cc0WDOsQ.s:6470   .debug_str:0000000000000dc2 .LASF188
C:\Users\Karzan\AppData\Local\Temp\cc0WDOsQ.s:766    .text.rcu_all_reset_flag_clear:0000000000000000 .LFB28
C:\Users\Karzan\AppData\Local\Temp\cc0WDOsQ.s:779    .text.rcu_all_reset_flag_clear:0000000000000010 .LFE28
C:\Users\Karzan\AppData\Local\Temp\cc0WDOsQ.s:6476   .debug_str:0000000000000e07 .LASF189
C:\Users\Karzan\AppData\Local\Temp\cc0WDOsQ.s:742    .text.rcu_flag_get:0000000000000000 .LFB27
C:\Users\Karzan\AppData\Local\Temp\cc0WDOsQ.s:759    .text.rcu_flag_get:0000000000000014 .LFE27
C:\Users\Karzan\AppData\Local\Temp\cc0WDOsQ.s:6200   .debug_str:0000000000000652 .LASF190
C:\Users\Karzan\AppData\Local\Temp\cc0WDOsQ.s:5368   .debug_loc:00000000000008c5 .LLST28
C:\Users\Karzan\AppData\Local\Temp\cc0WDOsQ.s:6134   .debug_str:000000000000046d .LASF191
C:\Users\Karzan\AppData\Local\Temp\cc0WDOsQ.s:710    .text.rcu_i2s2_clock_config:0000000000000000 .LFB26
C:\Users\Karzan\AppData\Local\Temp\cc0WDOsQ.s:735    .text.rcu_i2s2_clock_config:0000000000000014 .LFE26
C:\Users\Karzan\AppData\Local\Temp\cc0WDOsQ.s:6070   .debug_str:0000000000000234 .LASF192
C:\Users\Karzan\AppData\Local\Temp\cc0WDOsQ.s:5382   .debug_loc:00000000000008e6 .LLST26
C:\Users\Karzan\AppData\Local\Temp\cc0WDOsQ.s:5396   .debug_loc:0000000000000907 .LLST27
C:\Users\Karzan\AppData\Local\Temp\cc0WDOsQ.s:6154   .debug_str:00000000000004e7 .LASF193
C:\Users\Karzan\AppData\Local\Temp\cc0WDOsQ.s:678    .text.rcu_i2s1_clock_config:0000000000000000 .LFB25
C:\Users\Karzan\AppData\Local\Temp\cc0WDOsQ.s:703    .text.rcu_i2s1_clock_config:0000000000000012 .LFE25
C:\Users\Karzan\AppData\Local\Temp\cc0WDOsQ.s:5408   .debug_loc:0000000000000921 .LLST24
C:\Users\Karzan\AppData\Local\Temp\cc0WDOsQ.s:5422   .debug_loc:0000000000000942 .LLST25
C:\Users\Karzan\AppData\Local\Temp\cc0WDOsQ.s:6188   .debug_str:00000000000005d3 .LASF194
C:\Users\Karzan\AppData\Local\Temp\cc0WDOsQ.s:648    .text.rcu_rtc_clock_config:0000000000000000 .LFB24
C:\Users\Karzan\AppData\Local\Temp\cc0WDOsQ.s:671    .text.rcu_rtc_clock_config:0000000000000010 .LFE24
C:\Users\Karzan\AppData\Local\Temp\cc0WDOsQ.s:6202   .debug_str:0000000000000657 .LASF195
C:\Users\Karzan\AppData\Local\Temp\cc0WDOsQ.s:5434   .debug_loc:000000000000095c .LLST22
C:\Users\Karzan\AppData\Local\Temp\cc0WDOsQ.s:5448   .debug_loc:000000000000097d .LLST23
C:\Users\Karzan\AppData\Local\Temp\cc0WDOsQ.s:6270   .debug_str:0000000000000813 .LASF196
C:\Users\Karzan\AppData\Local\Temp\cc0WDOsQ.s:616    .text.rcu_usb_clock_config:0000000000000000 .LFB23
C:\Users\Karzan\AppData\Local\Temp\cc0WDOsQ.s:641    .text.rcu_usb_clock_config:0000000000000014 .LFE23
C:\Users\Karzan\AppData\Local\Temp\cc0WDOsQ.s:6022   .debug_str:000000000000007f .LASF197
C:\Users\Karzan\AppData\Local\Temp\cc0WDOsQ.s:5464   .debug_loc:00000000000009a1 .LLST20
C:\Users\Karzan\AppData\Local\Temp\cc0WDOsQ.s:5478   .debug_loc:00000000000009c2 .LLST21
C:\Users\Karzan\AppData\Local\Temp\cc0WDOsQ.s:6072   .debug_str:0000000000000245 .LASF198
C:\Users\Karzan\AppData\Local\Temp\cc0WDOsQ.s:547    .text.rcu_adc_clock_config:0000000000000000 .LFB22
C:\Users\Karzan\AppData\Local\Temp\cc0WDOsQ.s:609    .text.rcu_adc_clock_config:0000000000000040 .LFE22
C:\Users\Karzan\AppData\Local\Temp\cc0WDOsQ.s:6274   .debug_str:0000000000000842 .LASF199
C:\Users\Karzan\AppData\Local\Temp\cc0WDOsQ.s:5490   .debug_loc:00000000000009dd .LLST18
C:\Users\Karzan\AppData\Local\Temp\cc0WDOsQ.s:6052   .debug_str:00000000000001bb .LASF200
C:\Users\Karzan\AppData\Local\Temp\cc0WDOsQ.s:5524   .debug_loc:0000000000000a27 .LLST19
C:\Users\Karzan\AppData\Local\Temp\cc0WDOsQ.s:6080   .debug_str:0000000000000277 .LASF201
C:\Users\Karzan\AppData\Local\Temp\cc0WDOsQ.s:519    .text.rcu_pll2_config:0000000000000000 .LFB21
C:\Users\Karzan\AppData\Local\Temp\cc0WDOsQ.s:540    .text.rcu_pll2_config:0000000000000016 .LFE21
C:\Users\Karzan\AppData\Local\Temp\cc0WDOsQ.s:6252   .debug_str:00000000000007ae .LASF202
C:\Users\Karzan\AppData\Local\Temp\cc0WDOsQ.s:5539   .debug_loc:0000000000000a50 .LLST17
C:\Users\Karzan\AppData\Local\Temp\cc0WDOsQ.s:6384   .debug_str:0000000000000b49 .LASF203
C:\Users\Karzan\AppData\Local\Temp\cc0WDOsQ.s:491    .text.rcu_pll1_config:0000000000000000 .LFB20
GAS LISTING C:\Users\Karzan\AppData\Local\Temp\cc0WDOsQ.s 			page 74


C:\Users\Karzan\AppData\Local\Temp\cc0WDOsQ.s:512    .text.rcu_pll1_config:0000000000000018 .LFE20
C:\Users\Karzan\AppData\Local\Temp\cc0WDOsQ.s:5553   .debug_loc:0000000000000a71 .LLST16
C:\Users\Karzan\AppData\Local\Temp\cc0WDOsQ.s:6300   .debug_str:00000000000008e5 .LASF204
C:\Users\Karzan\AppData\Local\Temp\cc0WDOsQ.s:460    .text.rcu_predv1_config:0000000000000000 .LFB19
C:\Users\Karzan\AppData\Local\Temp\cc0WDOsQ.s:484    .text.rcu_predv1_config:0000000000000010 .LFE19
C:\Users\Karzan\AppData\Local\Temp\cc0WDOsQ.s:6278   .debug_str:0000000000000863 .LASF205
C:\Users\Karzan\AppData\Local\Temp\cc0WDOsQ.s:5567   .debug_loc:0000000000000a92 .LLST14
C:\Users\Karzan\AppData\Local\Temp\cc0WDOsQ.s:5581   .debug_loc:0000000000000ab3 .LLST15
C:\Users\Karzan\AppData\Local\Temp\cc0WDOsQ.s:6116   .debug_str:00000000000003cd .LASF206
C:\Users\Karzan\AppData\Local\Temp\cc0WDOsQ.s:425    .text.rcu_predv0_config:0000000000000000 .LFB18
C:\Users\Karzan\AppData\Local\Temp\cc0WDOsQ.s:453    .text.rcu_predv0_config:0000000000000014 .LFE18
C:\Users\Karzan\AppData\Local\Temp\cc0WDOsQ.s:6224   .debug_str:0000000000000702 .LASF207
C:\Users\Karzan\AppData\Local\Temp\cc0WDOsQ.s:6066   .debug_str:0000000000000221 .LASF208
C:\Users\Karzan\AppData\Local\Temp\cc0WDOsQ.s:5597   .debug_loc:0000000000000add .LLST12
C:\Users\Karzan\AppData\Local\Temp\cc0WDOsQ.s:5611   .debug_loc:0000000000000afe .LLST13
C:\Users\Karzan\AppData\Local\Temp\cc0WDOsQ.s:6362   .debug_str:0000000000000abc .LASF209
C:\Users\Karzan\AppData\Local\Temp\cc0WDOsQ.s:390    .text.rcu_pll_config:0000000000000000 .LFB17
C:\Users\Karzan\AppData\Local\Temp\cc0WDOsQ.s:418    .text.rcu_pll_config:0000000000000016 .LFE17
C:\Users\Karzan\AppData\Local\Temp\cc0WDOsQ.s:6330   .debug_str:0000000000000a1a .LASF210
C:\Users\Karzan\AppData\Local\Temp\cc0WDOsQ.s:5632   .debug_loc:0000000000000b2f .LLST10
C:\Users\Karzan\AppData\Local\Temp\cc0WDOsQ.s:5646   .debug_loc:0000000000000b50 .LLST11
C:\Users\Karzan\AppData\Local\Temp\cc0WDOsQ.s:6062   .debug_str:0000000000000204 .LASF211
C:\Users\Karzan\AppData\Local\Temp\cc0WDOsQ.s:358    .text.rcu_ckout0_config:0000000000000000 .LFB16
C:\Users\Karzan\AppData\Local\Temp\cc0WDOsQ.s:383    .text.rcu_ckout0_config:0000000000000014 .LFE16
C:\Users\Karzan\AppData\Local\Temp\cc0WDOsQ.s:6280   .debug_str:000000000000086e .LASF212
C:\Users\Karzan\AppData\Local\Temp\cc0WDOsQ.s:5667   .debug_loc:0000000000000b83 .LLST8
C:\Users\Karzan\AppData\Local\Temp\cc0WDOsQ.s:5681   .debug_loc:0000000000000ba4 .LLST9
C:\Users\Karzan\AppData\Local\Temp\cc0WDOsQ.s:6164   .debug_str:000000000000052c .LASF213
C:\Users\Karzan\AppData\Local\Temp\cc0WDOsQ.s:326    .text.rcu_apb2_clock_config:0000000000000000 .LFB15
C:\Users\Karzan\AppData\Local\Temp\cc0WDOsQ.s:351    .text.rcu_apb2_clock_config:0000000000000014 .LFE15
C:\Users\Karzan\AppData\Local\Temp\cc0WDOsQ.s:6096   .debug_str:0000000000000338 .LASF214
C:\Users\Karzan\AppData\Local\Temp\cc0WDOsQ.s:5693   .debug_loc:0000000000000bc0 .LLST6
C:\Users\Karzan\AppData\Local\Temp\cc0WDOsQ.s:5707   .debug_loc:0000000000000be1 .LLST7
C:\Users\Karzan\AppData\Local\Temp\cc0WDOsQ.s:6166   .debug_str:0000000000000542 .LASF215
C:\Users\Karzan\AppData\Local\Temp\cc0WDOsQ.s:296    .text.rcu_apb1_clock_config:0000000000000000 .LFB14
C:\Users\Karzan\AppData\Local\Temp\cc0WDOsQ.s:319    .text.rcu_apb1_clock_config:0000000000000010 .LFE14
C:\Users\Karzan\AppData\Local\Temp\cc0WDOsQ.s:6094   .debug_str:0000000000000330 .LASF216
C:\Users\Karzan\AppData\Local\Temp\cc0WDOsQ.s:5719   .debug_loc:0000000000000bfa .LLST4
C:\Users\Karzan\AppData\Local\Temp\cc0WDOsQ.s:5733   .debug_loc:0000000000000c1b .LLST5
C:\Users\Karzan\AppData\Local\Temp\cc0WDOsQ.s:6010   .debug_str:0000000000000006 .LASF217
C:\Users\Karzan\AppData\Local\Temp\cc0WDOsQ.s:266    .text.rcu_ahb_clock_config:0000000000000000 .LFB13
C:\Users\Karzan\AppData\Local\Temp\cc0WDOsQ.s:289    .text.rcu_ahb_clock_config:0000000000000010 .LFE13
C:\Users\Karzan\AppData\Local\Temp\cc0WDOsQ.s:6168   .debug_str:0000000000000558 .LASF218
C:\Users\Karzan\AppData\Local\Temp\cc0WDOsQ.s:5749   .debug_loc:0000000000000c3f .LLST2
C:\Users\Karzan\AppData\Local\Temp\cc0WDOsQ.s:5763   .debug_loc:0000000000000c60 .LLST3
C:\Users\Karzan\AppData\Local\Temp\cc0WDOsQ.s:6090   .debug_str:00000000000002ce .LASF236
C:\Users\Karzan\AppData\Local\Temp\cc0WDOsQ.s:248    .text.rcu_system_clock_source_get:0000000000000000 .LFB12
C:\Users\Karzan\AppData\Local\Temp\cc0WDOsQ.s:259    .text.rcu_system_clock_source_get:000000000000000a .LFE12
C:\Users\Karzan\AppData\Local\Temp\cc0WDOsQ.s:6128   .debug_str:000000000000043b .LASF219
C:\Users\Karzan\AppData\Local\Temp\cc0WDOsQ.s:218    .text.rcu_system_clock_source_config:0000000000000000 .LFB11
C:\Users\Karzan\AppData\Local\Temp\cc0WDOsQ.s:241    .text.rcu_system_clock_source_config:000000000000000e .LFE11
C:\Users\Karzan\AppData\Local\Temp\cc0WDOsQ.s:6382   .debug_str:0000000000000b42 .LASF220
C:\Users\Karzan\AppData\Local\Temp\cc0WDOsQ.s:5779   .debug_loc:0000000000000c84 .LLST0
C:\Users\Karzan\AppData\Local\Temp\cc0WDOsQ.s:5793   .debug_loc:0000000000000ca5 .LLST1
C:\Users\Karzan\AppData\Local\Temp\cc0WDOsQ.s:6482   .debug_str:0000000000000e2c .LASF221
C:\Users\Karzan\AppData\Local\Temp\cc0WDOsQ.s:197    .text.rcu_bkp_reset_disable:0000000000000000 .LFB10
C:\Users\Karzan\AppData\Local\Temp\cc0WDOsQ.s:211    .text.rcu_bkp_reset_disable:0000000000000010 .LFE10
GAS LISTING C:\Users\Karzan\AppData\Local\Temp\cc0WDOsQ.s 			page 75


C:\Users\Karzan\AppData\Local\Temp\cc0WDOsQ.s:6394   .debug_str:0000000000000b91 .LASF222
C:\Users\Karzan\AppData\Local\Temp\cc0WDOsQ.s:177    .text.rcu_bkp_reset_enable:0000000000000000 .LFB9
C:\Users\Karzan\AppData\Local\Temp\cc0WDOsQ.s:190    .text.rcu_bkp_reset_enable:000000000000000e .LFE9
C:\Users\Karzan\AppData\Local\Temp\cc0WDOsQ.s:6088   .debug_str:00000000000002b5 .LASF223
C:\Users\Karzan\AppData\Local\Temp\cc0WDOsQ.s:149    .text.rcu_periph_reset_disable:0000000000000000 .LFB8
C:\Users\Karzan\AppData\Local\Temp\cc0WDOsQ.s:170    .text.rcu_periph_reset_disable:000000000000001c .LFE8
C:\Users\Karzan\AppData\Local\Temp\cc0WDOsQ.s:6170   .debug_str:000000000000055f .LASF224
C:\Users\Karzan\AppData\Local\Temp\cc0WDOsQ.s:6136   .debug_str:0000000000000483 .LASF225
C:\Users\Karzan\AppData\Local\Temp\cc0WDOsQ.s:123    .text.rcu_periph_reset_enable:0000000000000000 .LFB7
C:\Users\Karzan\AppData\Local\Temp\cc0WDOsQ.s:142    .text.rcu_periph_reset_enable:0000000000000018 .LFE7
C:\Users\Karzan\AppData\Local\Temp\cc0WDOsQ.s:6056   .debug_str:00000000000001ca .LASF226
C:\Users\Karzan\AppData\Local\Temp\cc0WDOsQ.s:95     .text.rcu_periph_clock_sleep_disable:0000000000000000 .LFB6
C:\Users\Karzan\AppData\Local\Temp\cc0WDOsQ.s:116    .text.rcu_periph_clock_sleep_disable:000000000000001c .LFE6
C:\Users\Karzan\AppData\Local\Temp\cc0WDOsQ.s:6306   .debug_str:0000000000000920 .LASF227
C:\Users\Karzan\AppData\Local\Temp\cc0WDOsQ.s:6198   .debug_str:0000000000000634 .LASF228
C:\Users\Karzan\AppData\Local\Temp\cc0WDOsQ.s:69     .text.rcu_periph_clock_sleep_enable:0000000000000000 .LFB5
C:\Users\Karzan\AppData\Local\Temp\cc0WDOsQ.s:88     .text.rcu_periph_clock_sleep_enable:0000000000000018 .LFE5
C:\Users\Karzan\AppData\Local\Temp\cc0WDOsQ.s:6448   .debug_str:0000000000000cf1 .LASF229
C:\Users\Karzan\AppData\Local\Temp\cc0WDOsQ.s:41     .text.rcu_periph_clock_disable:0000000000000000 .LFB4
C:\Users\Karzan\AppData\Local\Temp\cc0WDOsQ.s:62     .text.rcu_periph_clock_disable:000000000000001c .LFE4
C:\Users\Karzan\AppData\Local\Temp\cc0WDOsQ.s:6472   .debug_str:0000000000000ddb .LASF230
C:\Users\Karzan\AppData\Local\Temp\cc0WDOsQ.s:14     .text.rcu_periph_clock_enable:0000000000000000 .LFB3
C:\Users\Karzan\AppData\Local\Temp\cc0WDOsQ.s:34     .text.rcu_periph_clock_enable:0000000000000018 .LFE3
C:\Users\Karzan\AppData\Local\Temp\cc0WDOsQ.s:6284   .debug_str:000000000000088e .LASF231
C:\Users\Karzan\AppData\Local\Temp\cc0WDOsQ.s:1150   .text.rcu_deinit:0000000000000000 .LFB2
C:\Users\Karzan\AppData\Local\Temp\cc0WDOsQ.s:1224   .text.rcu_deinit:0000000000000064 .LFE2
C:\Users\Karzan\AppData\Local\Temp\cc0WDOsQ.s:5809   .debug_loc:0000000000000cc8 .LLST35
C:\Users\Karzan\AppData\Local\Temp\cc0WDOsQ.s:1173   .text.rcu_deinit:000000000000001c .LVL124
C:\Users\Karzan\AppData\Local\Temp\cc0WDOsQ.s:6286   .debug_str:0000000000000899 .LASF237
C:\Users\Karzan\AppData\Local\Temp\cc0WDOsQ.s:6082   .debug_str:0000000000000287 .LASF238
C:\Users\Karzan\AppData\Local\Temp\cc0WDOsQ.s:1523   .text.rcu_clock_freq_get:0000000000000002 .LCFI5
C:\Users\Karzan\AppData\Local\Temp\cc0WDOsQ.s:1789   .text.rcu_clock_freq_get:0000000000000118 .LCFI6
C:\Users\Karzan\AppData\Local\Temp\cc0WDOsQ.s:1794   .text.rcu_clock_freq_get:000000000000011a .LCFI7
C:\Users\Karzan\AppData\Local\Temp\cc0WDOsQ.s:1515   .text.rcu_clock_freq_get:0000000000000000 .LVL149
C:\Users\Karzan\AppData\Local\Temp\cc0WDOsQ.s:1537   .text.rcu_clock_freq_get:0000000000000012 .LVL150
C:\Users\Karzan\AppData\Local\Temp\cc0WDOsQ.s:1787   .text.rcu_clock_freq_get:0000000000000116 .LVL195
C:\Users\Karzan\AppData\Local\Temp\cc0WDOsQ.s:1792   .text.rcu_clock_freq_get:000000000000011a .LVL196
C:\Users\Karzan\AppData\Local\Temp\cc0WDOsQ.s:1558   .text.rcu_clock_freq_get:0000000000000032 .LVL152
C:\Users\Karzan\AppData\Local\Temp\cc0WDOsQ.s:1563   .text.rcu_clock_freq_get:0000000000000036 .LVL153
C:\Users\Karzan\AppData\Local\Temp\cc0WDOsQ.s:1566   .text.rcu_clock_freq_get:0000000000000038 .LVL154
C:\Users\Karzan\AppData\Local\Temp\cc0WDOsQ.s:1572   .text.rcu_clock_freq_get:000000000000003e .LVL155
C:\Users\Karzan\AppData\Local\Temp\cc0WDOsQ.s:1808   .text.rcu_clock_freq_get:0000000000000126 .LVL200
C:\Users\Karzan\AppData\Local\Temp\cc0WDOsQ.s:1812   .text.rcu_clock_freq_get:000000000000012a .LVL201
C:\Users\Karzan\AppData\Local\Temp\cc0WDOsQ.s:1779   .text.rcu_clock_freq_get:0000000000000112 .LVL194
C:\Users\Karzan\AppData\Local\Temp\cc0WDOsQ.s:1819   .text.rcu_clock_freq_get:0000000000000134 .LVL203
C:\Users\Karzan\AppData\Local\Temp\cc0WDOsQ.s:1823   .text.rcu_clock_freq_get:0000000000000136 .LVL204
C:\Users\Karzan\AppData\Local\Temp\cc0WDOsQ.s:1827   .text.rcu_clock_freq_get:0000000000000138 .LVL205
C:\Users\Karzan\AppData\Local\Temp\cc0WDOsQ.s:1666   .text.rcu_clock_freq_get:00000000000000a2 .LVL169
C:\Users\Karzan\AppData\Local\Temp\cc0WDOsQ.s:1670   .text.rcu_clock_freq_get:00000000000000a4 .LVL170
C:\Users\Karzan\AppData\Local\Temp\cc0WDOsQ.s:1693   .text.rcu_clock_freq_get:00000000000000c0 .LVL175
C:\Users\Karzan\AppData\Local\Temp\cc0WDOsQ.s:1702   .text.rcu_clock_freq_get:00000000000000c8 .LVL177
C:\Users\Karzan\AppData\Local\Temp\cc0WDOsQ.s:1769   .text.rcu_clock_freq_get:0000000000000102 .LVL192
C:\Users\Karzan\AppData\Local\Temp\cc0WDOsQ.s:1799   .text.rcu_clock_freq_get:000000000000011c .LVL197
C:\Users\Karzan\AppData\Local\Temp\cc0WDOsQ.s:1806   .text.rcu_clock_freq_get:0000000000000124 .LVL199
C:\Users\Karzan\AppData\Local\Temp\cc0WDOsQ.s:1728   .text.rcu_clock_freq_get:00000000000000e0 .LVL182
C:\Users\Karzan\AppData\Local\Temp\cc0WDOsQ.s:1774   .text.rcu_clock_freq_get:000000000000010c .LVL193
C:\Users\Karzan\AppData\Local\Temp\cc0WDOsQ.s:1815   .text.rcu_clock_freq_get:0000000000000130 .LVL202
GAS LISTING C:\Users\Karzan\AppData\Local\Temp\cc0WDOsQ.s 			page 76


C:\Users\Karzan\AppData\Local\Temp\cc0WDOsQ.s:1741   .text.rcu_clock_freq_get:00000000000000ea .LVL186
C:\Users\Karzan\AppData\Local\Temp\cc0WDOsQ.s:1763   .text.rcu_clock_freq_get:00000000000000fa .LVL191
C:\Users\Karzan\AppData\Local\Temp\cc0WDOsQ.s:1582   .text.rcu_clock_freq_get:0000000000000048 .LVL157
C:\Users\Karzan\AppData\Local\Temp\cc0WDOsQ.s:1677   .text.rcu_clock_freq_get:00000000000000ae .LVL172
C:\Users\Karzan\AppData\Local\Temp\cc0WDOsQ.s:1681   .text.rcu_clock_freq_get:00000000000000b2 .LVL173
C:\Users\Karzan\AppData\Local\Temp\cc0WDOsQ.s:1590   .text.rcu_clock_freq_get:0000000000000052 .LVL158
C:\Users\Karzan\AppData\Local\Temp\cc0WDOsQ.s:1674   .text.rcu_clock_freq_get:00000000000000a8 .LVL171
C:\Users\Karzan\AppData\Local\Temp\cc0WDOsQ.s:1653   .text.rcu_clock_freq_get:0000000000000098 .LVL167
C:\Users\Karzan\AppData\Local\Temp\cc0WDOsQ.s:1684   .text.rcu_clock_freq_get:00000000000000b8 .LVL174
C:\Users\Karzan\AppData\Local\Temp\cc0WDOsQ.s:1578   .text.rcu_clock_freq_get:0000000000000046 .LVL156
C:\Users\Karzan\AppData\Local\Temp\cc0WDOsQ.s:1623   .text.rcu_clock_freq_get:000000000000007a .LVL162
C:\Users\Karzan\AppData\Local\Temp\cc0WDOsQ.s:1639   .text.rcu_clock_freq_get:0000000000000088 .LVL166
C:\Users\Karzan\AppData\Local\Temp\cc0WDOsQ.s:1803   .text.rcu_clock_freq_get:0000000000000122 .LVL198
C:\Users\Karzan\AppData\Local\Temp\cc0WDOsQ.s:1708   .text.rcu_clock_freq_get:00000000000000ce .LVL178
C:\Users\Karzan\AppData\Local\Temp\cc0WDOsQ.s:1715   .text.rcu_clock_freq_get:00000000000000d2 .LVL179
C:\Users\Karzan\AppData\Local\Temp\cc0WDOsQ.s:1718   .text.rcu_clock_freq_get:00000000000000d4 .LVL180
C:\Users\Karzan\AppData\Local\Temp\cc0WDOsQ.s:1721   .text.rcu_clock_freq_get:00000000000000d6 .LVL181
C:\Users\Karzan\AppData\Local\Temp\cc0WDOsQ.s:1733   .text.rcu_clock_freq_get:00000000000000e2 .LVL183
C:\Users\Karzan\AppData\Local\Temp\cc0WDOsQ.s:1736   .text.rcu_clock_freq_get:00000000000000e4 .LVL184
C:\Users\Karzan\AppData\Local\Temp\cc0WDOsQ.s:1739   .text.rcu_clock_freq_get:00000000000000e6 .LVL185
C:\Users\Karzan\AppData\Local\Temp\cc0WDOsQ.s:1746   .text.rcu_clock_freq_get:00000000000000ec .LVL187
C:\Users\Karzan\AppData\Local\Temp\cc0WDOsQ.s:1752   .text.rcu_clock_freq_get:00000000000000f0 .LVL188
C:\Users\Karzan\AppData\Local\Temp\cc0WDOsQ.s:1755   .text.rcu_clock_freq_get:00000000000000f2 .LVL189
C:\Users\Karzan\AppData\Local\Temp\cc0WDOsQ.s:1758   .text.rcu_clock_freq_get:00000000000000f4 .LVL190
C:\Users\Karzan\AppData\Local\Temp\cc0WDOsQ.s:1629   .text.rcu_clock_freq_get:0000000000000080 .LVL163
C:\Users\Karzan\AppData\Local\Temp\cc0WDOsQ.s:1633   .text.rcu_clock_freq_get:0000000000000082 .LVL164
C:\Users\Karzan\AppData\Local\Temp\cc0WDOsQ.s:1636   .text.rcu_clock_freq_get:0000000000000084 .LVL165
C:\Users\Karzan\AppData\Local\Temp\cc0WDOsQ.s:1603   .text.rcu_clock_freq_get:0000000000000060 .LVL159
C:\Users\Karzan\AppData\Local\Temp\cc0WDOsQ.s:1607   .text.rcu_clock_freq_get:0000000000000062 .LVL160
C:\Users\Karzan\AppData\Local\Temp\cc0WDOsQ.s:1493   .text.rcu_deepsleep_voltage_set:0000000000000000 .LVL147
C:\Users\Karzan\AppData\Local\Temp\cc0WDOsQ.s:1497   .text.rcu_deepsleep_voltage_set:0000000000000002 .LVL148
C:\Users\Karzan\AppData\Local\Temp\cc0WDOsQ.s:1460   .text.rcu_irc8m_adjust_value_set:0000000000000000 .LVL143
C:\Users\Karzan\AppData\Local\Temp\cc0WDOsQ.s:1471   .text.rcu_irc8m_adjust_value_set:0000000000000008 .LVL145
C:\Users\Karzan\AppData\Local\Temp\cc0WDOsQ.s:1466   .text.rcu_irc8m_adjust_value_set:0000000000000006 .LVL144
C:\Users\Karzan\AppData\Local\Temp\cc0WDOsQ.s:1475   .text.rcu_irc8m_adjust_value_set:0000000000000010 .LVL146
C:\Users\Karzan\AppData\Local\Temp\cc0WDOsQ.s:1353   .text.rcu_osci_bypass_mode_disable:0000000000000000 .LVL135
C:\Users\Karzan\AppData\Local\Temp\cc0WDOsQ.s:1359   .text.rcu_osci_bypass_mode_disable:000000000000000a .LVL136
C:\Users\Karzan\AppData\Local\Temp\cc0WDOsQ.s:1362   .text.rcu_osci_bypass_mode_disable:000000000000000e .LVL137
C:\Users\Karzan\AppData\Local\Temp\cc0WDOsQ.s:1386   .text.rcu_osci_bypass_mode_disable:000000000000002a .LVL140
C:\Users\Karzan\AppData\Local\Temp\cc0WDOsQ.s:1368   .text.rcu_osci_bypass_mode_disable:0000000000000014 .LVL138
C:\Users\Karzan\AppData\Local\Temp\cc0WDOsQ.s:1381   .text.rcu_osci_bypass_mode_disable:0000000000000026 .LVL139
C:\Users\Karzan\AppData\Local\Temp\cc0WDOsQ.s:1392   .text.rcu_osci_bypass_mode_disable:0000000000000030 .LVL141
C:\Users\Karzan\AppData\Local\Temp\cc0WDOsQ.s:1398   .text.rcu_osci_bypass_mode_disable:0000000000000034 .LVL142
C:\Users\Karzan\AppData\Local\Temp\cc0WDOsQ.s:1288   .text.rcu_osci_bypass_mode_enable:0000000000000000 .LVL127
C:\Users\Karzan\AppData\Local\Temp\cc0WDOsQ.s:1294   .text.rcu_osci_bypass_mode_enable:000000000000000a .LVL128
C:\Users\Karzan\AppData\Local\Temp\cc0WDOsQ.s:1297   .text.rcu_osci_bypass_mode_enable:000000000000000e .LVL129
C:\Users\Karzan\AppData\Local\Temp\cc0WDOsQ.s:1320   .text.rcu_osci_bypass_mode_enable:0000000000000028 .LVL132
C:\Users\Karzan\AppData\Local\Temp\cc0WDOsQ.s:1303   .text.rcu_osci_bypass_mode_enable:0000000000000014 .LVL130
C:\Users\Karzan\AppData\Local\Temp\cc0WDOsQ.s:1315   .text.rcu_osci_bypass_mode_enable:0000000000000024 .LVL131
C:\Users\Karzan\AppData\Local\Temp\cc0WDOsQ.s:1326   .text.rcu_osci_bypass_mode_enable:000000000000002e .LVL133
C:\Users\Karzan\AppData\Local\Temp\cc0WDOsQ.s:1332   .text.rcu_osci_bypass_mode_enable:0000000000000034 .LVL134
C:\Users\Karzan\AppData\Local\Temp\cc0WDOsQ.s:900    .text.rcu_osci_stab_wait:0000000000000002 .LCFI0
C:\Users\Karzan\AppData\Local\Temp\cc0WDOsQ.s:931    .text.rcu_osci_stab_wait:000000000000002a .LCFI1
C:\Users\Karzan\AppData\Local\Temp\cc0WDOsQ.s:936    .text.rcu_osci_stab_wait:000000000000002c .LCFI2
C:\Users\Karzan\AppData\Local\Temp\cc0WDOsQ.s:893    .text.rcu_osci_stab_wait:0000000000000000 .LVL78
C:\Users\Karzan\AppData\Local\Temp\cc0WDOsQ.s:920    .text.rcu_osci_stab_wait:0000000000000022 .LVL79
C:\Users\Karzan\AppData\Local\Temp\cc0WDOsQ.s:934    .text.rcu_osci_stab_wait:000000000000002c .LVL80
GAS LISTING C:\Users\Karzan\AppData\Local\Temp\cc0WDOsQ.s 			page 77


C:\Users\Karzan\AppData\Local\Temp\cc0WDOsQ.s:948    .text.rcu_osci_stab_wait:0000000000000048 .LVL81
C:\Users\Karzan\AppData\Local\Temp\cc0WDOsQ.s:969    .text.rcu_osci_stab_wait:000000000000005c .LVL86
C:\Users\Karzan\AppData\Local\Temp\cc0WDOsQ.s:974    .text.rcu_osci_stab_wait:0000000000000060 .LVL87
C:\Users\Karzan\AppData\Local\Temp\cc0WDOsQ.s:1004   .text.rcu_osci_stab_wait:0000000000000080 .LVL94
C:\Users\Karzan\AppData\Local\Temp\cc0WDOsQ.s:1014   .text.rcu_osci_stab_wait:000000000000008c .LVL95
C:\Users\Karzan\AppData\Local\Temp\cc0WDOsQ.s:1036   .text.rcu_osci_stab_wait:00000000000000a4 .LVL100
C:\Users\Karzan\AppData\Local\Temp\cc0WDOsQ.s:1040   .text.rcu_osci_stab_wait:00000000000000a8 .LVL101
C:\Users\Karzan\AppData\Local\Temp\cc0WDOsQ.s:1061   .text.rcu_osci_stab_wait:00000000000000bc .LVL106
C:\Users\Karzan\AppData\Local\Temp\cc0WDOsQ.s:1068   .text.rcu_osci_stab_wait:00000000000000c6 .LVL107
C:\Users\Karzan\AppData\Local\Temp\cc0WDOsQ.s:1090   .text.rcu_osci_stab_wait:00000000000000de .LVL112
C:\Users\Karzan\AppData\Local\Temp\cc0WDOsQ.s:1095   .text.rcu_osci_stab_wait:00000000000000e4 .LVL113
C:\Users\Karzan\AppData\Local\Temp\cc0WDOsQ.s:1116   .text.rcu_osci_stab_wait:00000000000000f8 .LVL118
C:\Users\Karzan\AppData\Local\Temp\cc0WDOsQ.s:1121   .text.rcu_osci_stab_wait:00000000000000fe .LVL119
C:\Users\Karzan\AppData\Local\Temp\cc0WDOsQ.s:959    .text.rcu_osci_stab_wait:0000000000000056 .LVL83
C:\Users\Karzan\AppData\Local\Temp\cc0WDOsQ.s:962    .text.rcu_osci_stab_wait:0000000000000058 .LVL84
C:\Users\Karzan\AppData\Local\Temp\cc0WDOsQ.s:985    .text.rcu_osci_stab_wait:000000000000006e .LVL89
C:\Users\Karzan\AppData\Local\Temp\cc0WDOsQ.s:988    .text.rcu_osci_stab_wait:0000000000000070 .LVL90
C:\Users\Karzan\AppData\Local\Temp\cc0WDOsQ.s:1025   .text.rcu_osci_stab_wait:000000000000009a .LVL97
C:\Users\Karzan\AppData\Local\Temp\cc0WDOsQ.s:1028   .text.rcu_osci_stab_wait:000000000000009c .LVL98
C:\Users\Karzan\AppData\Local\Temp\cc0WDOsQ.s:1051   .text.rcu_osci_stab_wait:00000000000000b6 .LVL103
C:\Users\Karzan\AppData\Local\Temp\cc0WDOsQ.s:1054   .text.rcu_osci_stab_wait:00000000000000b8 .LVL104
C:\Users\Karzan\AppData\Local\Temp\cc0WDOsQ.s:1079   .text.rcu_osci_stab_wait:00000000000000d4 .LVL109
C:\Users\Karzan\AppData\Local\Temp\cc0WDOsQ.s:1082   .text.rcu_osci_stab_wait:00000000000000d6 .LVL110
C:\Users\Karzan\AppData\Local\Temp\cc0WDOsQ.s:1106   .text.rcu_osci_stab_wait:00000000000000f2 .LVL115
C:\Users\Karzan\AppData\Local\Temp\cc0WDOsQ.s:1109   .text.rcu_osci_stab_wait:00000000000000f4 .LVL116
C:\Users\Karzan\AppData\Local\Temp\cc0WDOsQ.s:1132   .text.rcu_osci_stab_wait:000000000000010c .LVL121
C:\Users\Karzan\AppData\Local\Temp\cc0WDOsQ.s:1135   .text.rcu_osci_stab_wait:000000000000010e .LVL122
C:\Users\Karzan\AppData\Local\Temp\cc0WDOsQ.s:1000   .text.rcu_osci_stab_wait:000000000000007e .LVL93
C:\Users\Karzan\AppData\Local\Temp\cc0WDOsQ.s:967    .text.rcu_osci_stab_wait:000000000000005a .LVL85
C:\Users\Karzan\AppData\Local\Temp\cc0WDOsQ.s:993    .text.rcu_osci_stab_wait:0000000000000072 .LVL91
C:\Users\Karzan\AppData\Local\Temp\cc0WDOsQ.s:1033   .text.rcu_osci_stab_wait:000000000000009e .LVL99
C:\Users\Karzan\AppData\Local\Temp\cc0WDOsQ.s:1059   .text.rcu_osci_stab_wait:00000000000000ba .LVL105
C:\Users\Karzan\AppData\Local\Temp\cc0WDOsQ.s:1087   .text.rcu_osci_stab_wait:00000000000000d8 .LVL111
C:\Users\Karzan\AppData\Local\Temp\cc0WDOsQ.s:1114   .text.rcu_osci_stab_wait:00000000000000f6 .LVL117
C:\Users\Karzan\AppData\Local\Temp\cc0WDOsQ.s:1140   .text.rcu_osci_stab_wait:0000000000000110 .LVL123
C:\Users\Karzan\AppData\Local\Temp\cc0WDOsQ.s:789    .text.rcu_interrupt_flag_get:0000000000000000 .LVL73
C:\Users\Karzan\AppData\Local\Temp\cc0WDOsQ.s:798    .text.rcu_interrupt_flag_get:0000000000000010 .LVL74
C:\Users\Karzan\AppData\Local\Temp\cc0WDOsQ.s:745    .text.rcu_flag_get:0000000000000000 .LVL71
C:\Users\Karzan\AppData\Local\Temp\cc0WDOsQ.s:754    .text.rcu_flag_get:0000000000000010 .LVL72
C:\Users\Karzan\AppData\Local\Temp\cc0WDOsQ.s:713    .text.rcu_i2s2_clock_config:0000000000000000 .LVL67
C:\Users\Karzan\AppData\Local\Temp\cc0WDOsQ.s:729    .text.rcu_i2s2_clock_config:0000000000000010 .LVL70
C:\Users\Karzan\AppData\Local\Temp\cc0WDOsQ.s:719    .text.rcu_i2s2_clock_config:0000000000000006 .LVL68
C:\Users\Karzan\AppData\Local\Temp\cc0WDOsQ.s:726    .text.rcu_i2s2_clock_config:000000000000000e .LVL69
C:\Users\Karzan\AppData\Local\Temp\cc0WDOsQ.s:681    .text.rcu_i2s1_clock_config:0000000000000000 .LVL63
C:\Users\Karzan\AppData\Local\Temp\cc0WDOsQ.s:697    .text.rcu_i2s1_clock_config:000000000000000e .LVL66
C:\Users\Karzan\AppData\Local\Temp\cc0WDOsQ.s:687    .text.rcu_i2s1_clock_config:0000000000000006 .LVL64
C:\Users\Karzan\AppData\Local\Temp\cc0WDOsQ.s:694    .text.rcu_i2s1_clock_config:000000000000000c .LVL65
C:\Users\Karzan\AppData\Local\Temp\cc0WDOsQ.s:651    .text.rcu_rtc_clock_config:0000000000000000 .LVL59
C:\Users\Karzan\AppData\Local\Temp\cc0WDOsQ.s:665    .text.rcu_rtc_clock_config:000000000000000c .LVL62
C:\Users\Karzan\AppData\Local\Temp\cc0WDOsQ.s:657    .text.rcu_rtc_clock_config:0000000000000006 .LVL60
C:\Users\Karzan\AppData\Local\Temp\cc0WDOsQ.s:662    .text.rcu_rtc_clock_config:000000000000000a .LVL61
C:\Users\Karzan\AppData\Local\Temp\cc0WDOsQ.s:619    .text.rcu_usb_clock_config:0000000000000000 .LVL55
C:\Users\Karzan\AppData\Local\Temp\cc0WDOsQ.s:635    .text.rcu_usb_clock_config:0000000000000010 .LVL58
C:\Users\Karzan\AppData\Local\Temp\cc0WDOsQ.s:625    .text.rcu_usb_clock_config:0000000000000006 .LVL56
C:\Users\Karzan\AppData\Local\Temp\cc0WDOsQ.s:632    .text.rcu_usb_clock_config:000000000000000e .LVL57
C:\Users\Karzan\AppData\Local\Temp\cc0WDOsQ.s:550    .text.rcu_adc_clock_config:0000000000000000 .LVL44
C:\Users\Karzan\AppData\Local\Temp\cc0WDOsQ.s:569    .text.rcu_adc_clock_config:000000000000001e .LVL47
GAS LISTING C:\Users\Karzan\AppData\Local\Temp\cc0WDOsQ.s 			page 78


C:\Users\Karzan\AppData\Local\Temp\cc0WDOsQ.s:577    .text.rcu_adc_clock_config:0000000000000026 .LVL48
C:\Users\Karzan\AppData\Local\Temp\cc0WDOsQ.s:584    .text.rcu_adc_clock_config:000000000000002c .LVL49
C:\Users\Karzan\AppData\Local\Temp\cc0WDOsQ.s:588    .text.rcu_adc_clock_config:000000000000002e .LVL50
C:\Users\Karzan\AppData\Local\Temp\cc0WDOsQ.s:596    .text.rcu_adc_clock_config:000000000000003a .LVL52
C:\Users\Karzan\AppData\Local\Temp\cc0WDOsQ.s:601    .text.rcu_adc_clock_config:000000000000003c .LVL53
C:\Users\Karzan\AppData\Local\Temp\cc0WDOsQ.s:556    .text.rcu_adc_clock_config:0000000000000006 .LVL45
C:\Users\Karzan\AppData\Local\Temp\cc0WDOsQ.s:594    .text.rcu_adc_clock_config:0000000000000038 .LVL51
C:\Users\Karzan\AppData\Local\Temp\cc0WDOsQ.s:605    .text.rcu_adc_clock_config:000000000000003e .LVL54
C:\Users\Karzan\AppData\Local\Temp\cc0WDOsQ.s:522    .text.rcu_pll2_config:0000000000000000 .LVL42
C:\Users\Karzan\AppData\Local\Temp\cc0WDOsQ.s:535    .text.rcu_pll2_config:0000000000000012 .LVL43
C:\Users\Karzan\AppData\Local\Temp\cc0WDOsQ.s:494    .text.rcu_pll1_config:0000000000000000 .LVL40
C:\Users\Karzan\AppData\Local\Temp\cc0WDOsQ.s:507    .text.rcu_pll1_config:0000000000000014 .LVL41
C:\Users\Karzan\AppData\Local\Temp\cc0WDOsQ.s:463    .text.rcu_predv1_config:0000000000000000 .LVL36
C:\Users\Karzan\AppData\Local\Temp\cc0WDOsQ.s:477    .text.rcu_predv1_config:000000000000000c .LVL39
C:\Users\Karzan\AppData\Local\Temp\cc0WDOsQ.s:469    .text.rcu_predv1_config:0000000000000006 .LVL37
C:\Users\Karzan\AppData\Local\Temp\cc0WDOsQ.s:428    .text.rcu_predv0_config:0000000000000000 .LVL31
C:\Users\Karzan\AppData\Local\Temp\cc0WDOsQ.s:443    .text.rcu_predv0_config:000000000000000e .LVL34
C:\Users\Karzan\AppData\Local\Temp\cc0WDOsQ.s:434    .text.rcu_predv0_config:0000000000000006 .LVL32
C:\Users\Karzan\AppData\Local\Temp\cc0WDOsQ.s:441    .text.rcu_predv0_config:000000000000000c .LVL33
C:\Users\Karzan\AppData\Local\Temp\cc0WDOsQ.s:446    .text.rcu_predv0_config:0000000000000010 .LVL35
C:\Users\Karzan\AppData\Local\Temp\cc0WDOsQ.s:393    .text.rcu_pll_config:0000000000000000 .LVL26
C:\Users\Karzan\AppData\Local\Temp\cc0WDOsQ.s:408    .text.rcu_pll_config:0000000000000010 .LVL29
C:\Users\Karzan\AppData\Local\Temp\cc0WDOsQ.s:399    .text.rcu_pll_config:0000000000000006 .LVL27
C:\Users\Karzan\AppData\Local\Temp\cc0WDOsQ.s:406    .text.rcu_pll_config:000000000000000e .LVL28
C:\Users\Karzan\AppData\Local\Temp\cc0WDOsQ.s:411    .text.rcu_pll_config:0000000000000012 .LVL30
C:\Users\Karzan\AppData\Local\Temp\cc0WDOsQ.s:361    .text.rcu_ckout0_config:0000000000000000 .LVL22
C:\Users\Karzan\AppData\Local\Temp\cc0WDOsQ.s:377    .text.rcu_ckout0_config:0000000000000010 .LVL25
C:\Users\Karzan\AppData\Local\Temp\cc0WDOsQ.s:367    .text.rcu_ckout0_config:0000000000000006 .LVL23
C:\Users\Karzan\AppData\Local\Temp\cc0WDOsQ.s:374    .text.rcu_ckout0_config:000000000000000e .LVL24
C:\Users\Karzan\AppData\Local\Temp\cc0WDOsQ.s:329    .text.rcu_apb2_clock_config:0000000000000000 .LVL18
C:\Users\Karzan\AppData\Local\Temp\cc0WDOsQ.s:345    .text.rcu_apb2_clock_config:0000000000000010 .LVL21
C:\Users\Karzan\AppData\Local\Temp\cc0WDOsQ.s:335    .text.rcu_apb2_clock_config:0000000000000006 .LVL19
C:\Users\Karzan\AppData\Local\Temp\cc0WDOsQ.s:342    .text.rcu_apb2_clock_config:000000000000000e .LVL20
C:\Users\Karzan\AppData\Local\Temp\cc0WDOsQ.s:299    .text.rcu_apb1_clock_config:0000000000000000 .LVL14
C:\Users\Karzan\AppData\Local\Temp\cc0WDOsQ.s:313    .text.rcu_apb1_clock_config:000000000000000c .LVL17
C:\Users\Karzan\AppData\Local\Temp\cc0WDOsQ.s:305    .text.rcu_apb1_clock_config:0000000000000006 .LVL15
C:\Users\Karzan\AppData\Local\Temp\cc0WDOsQ.s:310    .text.rcu_apb1_clock_config:000000000000000a .LVL16
C:\Users\Karzan\AppData\Local\Temp\cc0WDOsQ.s:269    .text.rcu_ahb_clock_config:0000000000000000 .LVL10
C:\Users\Karzan\AppData\Local\Temp\cc0WDOsQ.s:283    .text.rcu_ahb_clock_config:000000000000000c .LVL13
C:\Users\Karzan\AppData\Local\Temp\cc0WDOsQ.s:275    .text.rcu_ahb_clock_config:0000000000000006 .LVL11
C:\Users\Karzan\AppData\Local\Temp\cc0WDOsQ.s:280    .text.rcu_ahb_clock_config:000000000000000a .LVL12
C:\Users\Karzan\AppData\Local\Temp\cc0WDOsQ.s:221    .text.rcu_system_clock_source_config:0000000000000000 .LVL6
C:\Users\Karzan\AppData\Local\Temp\cc0WDOsQ.s:235    .text.rcu_system_clock_source_config:000000000000000a .LVL9
C:\Users\Karzan\AppData\Local\Temp\cc0WDOsQ.s:227    .text.rcu_system_clock_source_config:0000000000000006 .LVL7
C:\Users\Karzan\AppData\Local\Temp\cc0WDOsQ.s:232    .text.rcu_system_clock_source_config:0000000000000008 .LVL8
C:\Users\Karzan\AppData\Local\Temp\cc0WDOsQ.s:1156   .text.rcu_deinit:0000000000000002 .LCFI3
C:\Users\Karzan\AppData\Local\Temp\cc0WDOsQ.s:1220   .text.rcu_deinit:0000000000000062 .LCFI4
C:\Users\Karzan\AppData\Local\Temp\cc0WDOsQ.s:1863   .debug_info:0000000000000000 .Ldebug_info0

UNDEFINED SYMBOLS
memcpy
