GAS LISTING C:\Users\Karzan\AppData\Local\Temp\ccuVYx9Z.s 			page 1


   1              		.file	"gd32vf103_usart.c"
   2              		.option nopic
   3              		.attribute arch, "rv32i2p0_m2p0_a2p0_c2p0"
   4              		.attribute unaligned_access, 0
   5              		.attribute stack_align, 16
   6              		.text
   7              	.Ltext0:
   8              		.cfi_sections	.debug_frame
   9              		.section	.text.usart_deinit,"ax",@progbits
  10              		.align	1
  11              		.globl	usart_deinit
  13              	usart_deinit:
  14              	.LFB2:
  15              		.file 1 "./../../firmware/GD32VF103_standard_peripheral/Source/gd32vf103_usart.c"
   1:./../../firmware/GD32VF103_standard_peripheral/Source/gd32vf103_usart.c **** /*!
   2:./../../firmware/GD32VF103_standard_peripheral/Source/gd32vf103_usart.c ****     \file    gd32vf103_usart.c
   3:./../../firmware/GD32VF103_standard_peripheral/Source/gd32vf103_usart.c ****     \brief   USART driver
   4:./../../firmware/GD32VF103_standard_peripheral/Source/gd32vf103_usart.c **** 
   5:./../../firmware/GD32VF103_standard_peripheral/Source/gd32vf103_usart.c ****     \version 2019-06-05, V1.0.0, firmware for GD32VF103
   6:./../../firmware/GD32VF103_standard_peripheral/Source/gd32vf103_usart.c ****     \version 2019-09-18, V1.0.1, firmware for GD32VF103
   7:./../../firmware/GD32VF103_standard_peripheral/Source/gd32vf103_usart.c ****     \version 2020-08-04, V1.1.0, firmware for GD32VF103
   8:./../../firmware/GD32VF103_standard_peripheral/Source/gd32vf103_usart.c **** */
   9:./../../firmware/GD32VF103_standard_peripheral/Source/gd32vf103_usart.c **** 
  10:./../../firmware/GD32VF103_standard_peripheral/Source/gd32vf103_usart.c **** /*
  11:./../../firmware/GD32VF103_standard_peripheral/Source/gd32vf103_usart.c ****     Copyright (c) 2020, GigaDevice Semiconductor Inc.
  12:./../../firmware/GD32VF103_standard_peripheral/Source/gd32vf103_usart.c **** 
  13:./../../firmware/GD32VF103_standard_peripheral/Source/gd32vf103_usart.c ****     Redistribution and use in source and binary forms, with or without modification,
  14:./../../firmware/GD32VF103_standard_peripheral/Source/gd32vf103_usart.c **** are permitted provided that the following conditions are met:
  15:./../../firmware/GD32VF103_standard_peripheral/Source/gd32vf103_usart.c **** 
  16:./../../firmware/GD32VF103_standard_peripheral/Source/gd32vf103_usart.c ****     1. Redistributions of source code must retain the above copyright notice, this
  17:./../../firmware/GD32VF103_standard_peripheral/Source/gd32vf103_usart.c ****        list of conditions and the following disclaimer.
  18:./../../firmware/GD32VF103_standard_peripheral/Source/gd32vf103_usart.c ****     2. Redistributions in binary form must reproduce the above copyright notice,
  19:./../../firmware/GD32VF103_standard_peripheral/Source/gd32vf103_usart.c ****        this list of conditions and the following disclaimer in the documentation
  20:./../../firmware/GD32VF103_standard_peripheral/Source/gd32vf103_usart.c ****        and/or other materials provided with the distribution.
  21:./../../firmware/GD32VF103_standard_peripheral/Source/gd32vf103_usart.c ****     3. Neither the name of the copyright holder nor the names of its contributors
  22:./../../firmware/GD32VF103_standard_peripheral/Source/gd32vf103_usart.c ****        may be used to endorse or promote products derived from this software without
  23:./../../firmware/GD32VF103_standard_peripheral/Source/gd32vf103_usart.c ****        specific prior written permission.
  24:./../../firmware/GD32VF103_standard_peripheral/Source/gd32vf103_usart.c **** 
  25:./../../firmware/GD32VF103_standard_peripheral/Source/gd32vf103_usart.c ****     THIS SOFTWARE IS PROVIDED BY THE COPYRIGHT HOLDERS AND CONTRIBUTORS "AS IS"
  26:./../../firmware/GD32VF103_standard_peripheral/Source/gd32vf103_usart.c **** AND ANY EXPRESS OR IMPLIED WARRANTIES, INCLUDING, BUT NOT LIMITED TO, THE IMPLIED
  27:./../../firmware/GD32VF103_standard_peripheral/Source/gd32vf103_usart.c **** WARRANTIES OF MERCHANTABILITY AND FITNESS FOR A PARTICULAR PURPOSE ARE DISCLAIMED.
  28:./../../firmware/GD32VF103_standard_peripheral/Source/gd32vf103_usart.c **** IN NO EVENT SHALL THE COPYRIGHT HOLDER OR CONTRIBUTORS BE LIABLE FOR ANY DIRECT,
  29:./../../firmware/GD32VF103_standard_peripheral/Source/gd32vf103_usart.c **** INDIRECT, INCIDENTAL, SPECIAL, EXEMPLARY, OR CONSEQUENTIAL DAMAGES (INCLUDING, BUT
  30:./../../firmware/GD32VF103_standard_peripheral/Source/gd32vf103_usart.c **** NOT LIMITED TO, PROCUREMENT OF SUBSTITUTE GOODS OR SERVICES; LOSS OF USE, DATA, OR
  31:./../../firmware/GD32VF103_standard_peripheral/Source/gd32vf103_usart.c **** PROFITS; OR BUSINESS INTERRUPTION) HOWEVER CAUSED AND ON ANY THEORY OF LIABILITY,
  32:./../../firmware/GD32VF103_standard_peripheral/Source/gd32vf103_usart.c **** WHETHER IN CONTRACT, STRICT LIABILITY, OR TORT (INCLUDING NEGLIGENCE OR OTHERWISE)
  33:./../../firmware/GD32VF103_standard_peripheral/Source/gd32vf103_usart.c **** ARISING IN ANY WAY OUT OF THE USE OF THIS SOFTWARE, EVEN IF ADVISED OF THE POSSIBILITY
  34:./../../firmware/GD32VF103_standard_peripheral/Source/gd32vf103_usart.c **** OF SUCH DAMAGE.
  35:./../../firmware/GD32VF103_standard_peripheral/Source/gd32vf103_usart.c **** */
  36:./../../firmware/GD32VF103_standard_peripheral/Source/gd32vf103_usart.c **** 
  37:./../../firmware/GD32VF103_standard_peripheral/Source/gd32vf103_usart.c **** #include "gd32vf103_usart.h"
  38:./../../firmware/GD32VF103_standard_peripheral/Source/gd32vf103_usart.c **** 
  39:./../../firmware/GD32VF103_standard_peripheral/Source/gd32vf103_usart.c **** /*!
  40:./../../firmware/GD32VF103_standard_peripheral/Source/gd32vf103_usart.c ****     \brief      reset USART/UART 
  41:./../../firmware/GD32VF103_standard_peripheral/Source/gd32vf103_usart.c ****     \param[in]  usart_periph: USARTx(x=0,1,2)/UARTx(x=3,4)
  42:./../../firmware/GD32VF103_standard_peripheral/Source/gd32vf103_usart.c ****     \param[out] none
  43:./../../firmware/GD32VF103_standard_peripheral/Source/gd32vf103_usart.c ****     \retval     none
GAS LISTING C:\Users\Karzan\AppData\Local\Temp\ccuVYx9Z.s 			page 2


  44:./../../firmware/GD32VF103_standard_peripheral/Source/gd32vf103_usart.c **** */
  45:./../../firmware/GD32VF103_standard_peripheral/Source/gd32vf103_usart.c **** void usart_deinit(uint32_t usart_periph)
  46:./../../firmware/GD32VF103_standard_peripheral/Source/gd32vf103_usart.c **** {
  16              		.loc 1 46 1
  17              		.cfi_startproc
  18              	.LVL0:
  47:./../../firmware/GD32VF103_standard_peripheral/Source/gd32vf103_usart.c ****     switch(usart_periph){
  19              		.loc 1 47 5
  46:./../../firmware/GD32VF103_standard_peripheral/Source/gd32vf103_usart.c ****     switch(usart_periph){
  20              		.loc 1 46 1 is_stmt 0
  21 0000 4111     		addi	sp,sp,-16
  22              	.LCFI0:
  23              		.cfi_def_cfa_offset 16
  24              		.loc 1 47 5
  25 0002 B7570040 		li	a5,1073762304
  46:./../../firmware/GD32VF103_standard_peripheral/Source/gd32vf103_usart.c ****     switch(usart_periph){
  26              		.loc 1 46 1
  27 0006 06C6     		sw	ra,12(sp)
  28              		.cfi_offset 1, -4
  29              		.loc 1 47 5
  30 0008 138707C0 		addi	a4,a5,-1024
  31 000c 6309E506 		beq	a0,a4,.L2
  32 0010 636FA700 		bgtu	a0,a4,.L3
  33 0014 37470040 		li	a4,1073758208
  34 0018 13070740 		addi	a4,a4,1024
  35 001c 630FE502 		beq	a0,a4,.L4
  36 0020 93870780 		addi	a5,a5,-2048
  37 0024 6304F504 		beq	a0,a5,.L5
  38              	.L1:
  48:./../../firmware/GD32VF103_standard_peripheral/Source/gd32vf103_usart.c ****     case USART0:
  49:./../../firmware/GD32VF103_standard_peripheral/Source/gd32vf103_usart.c ****         /* reset USART0 */
  50:./../../firmware/GD32VF103_standard_peripheral/Source/gd32vf103_usart.c ****         rcu_periph_reset_enable(RCU_USART0RST);
  51:./../../firmware/GD32VF103_standard_peripheral/Source/gd32vf103_usart.c ****         rcu_periph_reset_disable(RCU_USART0RST);
  52:./../../firmware/GD32VF103_standard_peripheral/Source/gd32vf103_usart.c ****         break;
  53:./../../firmware/GD32VF103_standard_peripheral/Source/gd32vf103_usart.c ****     case USART1:
  54:./../../firmware/GD32VF103_standard_peripheral/Source/gd32vf103_usart.c ****         /* reset USART1 */
  55:./../../firmware/GD32VF103_standard_peripheral/Source/gd32vf103_usart.c ****         rcu_periph_reset_enable(RCU_USART1RST);
  56:./../../firmware/GD32VF103_standard_peripheral/Source/gd32vf103_usart.c ****         rcu_periph_reset_disable(RCU_USART1RST);
  57:./../../firmware/GD32VF103_standard_peripheral/Source/gd32vf103_usart.c ****         break;
  58:./../../firmware/GD32VF103_standard_peripheral/Source/gd32vf103_usart.c ****     case USART2:
  59:./../../firmware/GD32VF103_standard_peripheral/Source/gd32vf103_usart.c ****         /* reset USART2 */
  60:./../../firmware/GD32VF103_standard_peripheral/Source/gd32vf103_usart.c ****         rcu_periph_reset_enable(RCU_USART2RST);
  61:./../../firmware/GD32VF103_standard_peripheral/Source/gd32vf103_usart.c ****         rcu_periph_reset_disable(RCU_USART2RST);
  62:./../../firmware/GD32VF103_standard_peripheral/Source/gd32vf103_usart.c ****         break;
  63:./../../firmware/GD32VF103_standard_peripheral/Source/gd32vf103_usart.c ****     case UART3:
  64:./../../firmware/GD32VF103_standard_peripheral/Source/gd32vf103_usart.c ****         /* reset UART3 */
  65:./../../firmware/GD32VF103_standard_peripheral/Source/gd32vf103_usart.c ****         rcu_periph_reset_enable(RCU_UART3RST);
  66:./../../firmware/GD32VF103_standard_peripheral/Source/gd32vf103_usart.c ****         rcu_periph_reset_disable(RCU_UART3RST);
  67:./../../firmware/GD32VF103_standard_peripheral/Source/gd32vf103_usart.c ****         break;
  68:./../../firmware/GD32VF103_standard_peripheral/Source/gd32vf103_usart.c ****     case UART4:
  69:./../../firmware/GD32VF103_standard_peripheral/Source/gd32vf103_usart.c ****         /* reset UART4 */
  70:./../../firmware/GD32VF103_standard_peripheral/Source/gd32vf103_usart.c ****         rcu_periph_reset_enable(RCU_UART4RST);
  71:./../../firmware/GD32VF103_standard_peripheral/Source/gd32vf103_usart.c ****         rcu_periph_reset_disable(RCU_UART4RST);
  72:./../../firmware/GD32VF103_standard_peripheral/Source/gd32vf103_usart.c ****         break;
  73:./../../firmware/GD32VF103_standard_peripheral/Source/gd32vf103_usart.c ****     default:
  74:./../../firmware/GD32VF103_standard_peripheral/Source/gd32vf103_usart.c ****         break;
  75:./../../firmware/GD32VF103_standard_peripheral/Source/gd32vf103_usart.c ****     }
GAS LISTING C:\Users\Karzan\AppData\Local\Temp\ccuVYx9Z.s 			page 3


  76:./../../firmware/GD32VF103_standard_peripheral/Source/gd32vf103_usart.c **** }
  39              		.loc 1 76 1
  40 0028 B240     		lw	ra,12(sp)
  41              		.cfi_remember_state
  42              		.cfi_restore 1
  43 002a 4101     		addi	sp,sp,16
  44              	.LCFI1:
  45              		.cfi_def_cfa_offset 0
  46 002c 8280     		jr	ra
  47              	.L3:
  48              	.LCFI2:
  49              		.cfi_restore_state
  47:./../../firmware/GD32VF103_standard_peripheral/Source/gd32vf103_usart.c ****     case USART0:
  50              		.loc 1 47 5
  51 002e 6301F506 		beq	a0,a5,.L7
  52 0032 B7470140 		li	a5,1073823744
  53 0036 93870780 		addi	a5,a5,-2048
  54 003a E317F5FE 		bne	a0,a5,.L1
  50:./../../firmware/GD32VF103_standard_peripheral/Source/gd32vf103_usart.c ****         rcu_periph_reset_disable(RCU_USART0RST);
  55              		.loc 1 50 9 is_stmt 1
  56 003e 1305E030 		li	a0,782
  57              	.LVL1:
  58 0042 97000000 		call	rcu_periph_reset_enable
  58      E7800000 
  59              	.LVL2:
  51:./../../firmware/GD32VF103_standard_peripheral/Source/gd32vf103_usart.c ****         break;
  60              		.loc 1 51 9
  61 004a 1305E030 		li	a0,782
  62              	.L9:
  63              		.loc 1 76 1 is_stmt 0
  64 004e B240     		lw	ra,12(sp)
  65              		.cfi_remember_state
  66              		.cfi_restore 1
  67 0050 4101     		addi	sp,sp,16
  68              	.LCFI3:
  69              		.cfi_def_cfa_offset 0
  71:./../../firmware/GD32VF103_standard_peripheral/Source/gd32vf103_usart.c ****         break;
  70              		.loc 1 71 9
  71 0052 17030000 		tail	rcu_periph_reset_disable
  71      67000300 
  72              	.LVL3:
  73              	.L4:
  74              	.LCFI4:
  75              		.cfi_restore_state
  55:./../../firmware/GD32VF103_standard_peripheral/Source/gd32vf103_usart.c ****         rcu_periph_reset_disable(RCU_USART1RST);
  76              		.loc 1 55 9 is_stmt 1
  77 005a 13051041 		li	a0,1041
  78              	.LVL4:
  79 005e 97000000 		call	rcu_periph_reset_enable
  79      E7800000 
  80              	.LVL5:
  56:./../../firmware/GD32VF103_standard_peripheral/Source/gd32vf103_usart.c ****         break;
  81              		.loc 1 56 9
  82 0066 13051041 		li	a0,1041
  83 006a D5B7     		j	.L9
  84              	.LVL6:
  85              	.L5:
GAS LISTING C:\Users\Karzan\AppData\Local\Temp\ccuVYx9Z.s 			page 4


  60:./../../firmware/GD32VF103_standard_peripheral/Source/gd32vf103_usart.c ****         rcu_periph_reset_disable(RCU_USART2RST);
  86              		.loc 1 60 9
  87 006c 13052041 		li	a0,1042
  88              	.LVL7:
  89 0070 97000000 		call	rcu_periph_reset_enable
  89      E7800000 
  90              	.LVL8:
  61:./../../firmware/GD32VF103_standard_peripheral/Source/gd32vf103_usart.c ****         break;
  91              		.loc 1 61 9
  92 0078 13052041 		li	a0,1042
  93 007c C9BF     		j	.L9
  94              	.LVL9:
  95              	.L2:
  65:./../../firmware/GD32VF103_standard_peripheral/Source/gd32vf103_usart.c ****         rcu_periph_reset_disable(RCU_UART3RST);
  96              		.loc 1 65 9
  97 007e 13053041 		li	a0,1043
  98              	.LVL10:
  99 0082 97000000 		call	rcu_periph_reset_enable
  99      E7800000 
 100              	.LVL11:
  66:./../../firmware/GD32VF103_standard_peripheral/Source/gd32vf103_usart.c ****         break;
 101              		.loc 1 66 9
 102 008a 13053041 		li	a0,1043
 103 008e C1B7     		j	.L9
 104              	.LVL12:
 105              	.L7:
  70:./../../firmware/GD32VF103_standard_peripheral/Source/gd32vf103_usart.c ****         rcu_periph_reset_disable(RCU_UART4RST);
 106              		.loc 1 70 9
 107 0090 13054041 		li	a0,1044
 108              	.LVL13:
 109 0094 97000000 		call	rcu_periph_reset_enable
 109      E7800000 
 110              	.LVL14:
  71:./../../firmware/GD32VF103_standard_peripheral/Source/gd32vf103_usart.c ****         break;
 111              		.loc 1 71 9
 112 009c 13054041 		li	a0,1044
 113 00a0 7DB7     		j	.L9
 114              		.cfi_endproc
 115              	.LFE2:
 117              		.section	.text.usart_baudrate_set,"ax",@progbits
 118              		.align	1
 119              		.globl	usart_baudrate_set
 121              	usart_baudrate_set:
 122              	.LFB3:
  77:./../../firmware/GD32VF103_standard_peripheral/Source/gd32vf103_usart.c **** 
  78:./../../firmware/GD32VF103_standard_peripheral/Source/gd32vf103_usart.c **** /*!
  79:./../../firmware/GD32VF103_standard_peripheral/Source/gd32vf103_usart.c ****     \brief      configure USART baud rate value
  80:./../../firmware/GD32VF103_standard_peripheral/Source/gd32vf103_usart.c ****     \param[in]  usart_periph: USARTx(x=0,1,2)/UARTx(x=3,4)
  81:./../../firmware/GD32VF103_standard_peripheral/Source/gd32vf103_usart.c ****     \param[in]  baudval: baud rate value
  82:./../../firmware/GD32VF103_standard_peripheral/Source/gd32vf103_usart.c ****     \param[out] none
  83:./../../firmware/GD32VF103_standard_peripheral/Source/gd32vf103_usart.c ****     \retval     none
  84:./../../firmware/GD32VF103_standard_peripheral/Source/gd32vf103_usart.c **** */ 
  85:./../../firmware/GD32VF103_standard_peripheral/Source/gd32vf103_usart.c **** void usart_baudrate_set(uint32_t usart_periph, uint32_t baudval)
  86:./../../firmware/GD32VF103_standard_peripheral/Source/gd32vf103_usart.c **** {
 123              		.loc 1 86 1
 124              		.cfi_startproc
 125              	.LVL15:
GAS LISTING C:\Users\Karzan\AppData\Local\Temp\ccuVYx9Z.s 			page 5


  87:./../../firmware/GD32VF103_standard_peripheral/Source/gd32vf103_usart.c ****     uint32_t uclk=0U, intdiv=0U, fradiv=0U, udiv=0U;
 126              		.loc 1 87 5
  88:./../../firmware/GD32VF103_standard_peripheral/Source/gd32vf103_usart.c ****     switch(usart_periph){
 127              		.loc 1 88 5
  86:./../../firmware/GD32VF103_standard_peripheral/Source/gd32vf103_usart.c ****     uint32_t uclk=0U, intdiv=0U, fradiv=0U, udiv=0U;
 128              		.loc 1 86 1 is_stmt 0
 129 0000 4111     		addi	sp,sp,-16
 130              	.LCFI5:
 131              		.cfi_def_cfa_offset 16
 132              		.loc 1 88 5
 133 0002 B7570040 		li	a5,1073762304
  86:./../../firmware/GD32VF103_standard_peripheral/Source/gd32vf103_usart.c ****     uint32_t uclk=0U, intdiv=0U, fradiv=0U, udiv=0U;
 134              		.loc 1 86 1
 135 0006 22C4     		sw	s0,8(sp)
 136 0008 26C2     		sw	s1,4(sp)
 137 000a 06C6     		sw	ra,12(sp)
 138              		.cfi_offset 8, -8
 139              		.cfi_offset 9, -12
 140              		.cfi_offset 1, -4
 141              		.loc 1 88 5
 142 000c 138707C0 		addi	a4,a5,-1024
  86:./../../firmware/GD32VF103_standard_peripheral/Source/gd32vf103_usart.c ****     uint32_t uclk=0U, intdiv=0U, fradiv=0U, udiv=0U;
 143              		.loc 1 86 1
 144 0010 2A84     		mv	s0,a0
 145 0012 AE84     		mv	s1,a1
 146              		.loc 1 88 5
 147 0014 630FE500 		beq	a0,a4,.L11
 148 0018 636FA700 		bgtu	a0,a4,.L12
 149 001c 37470040 		li	a4,1073758208
 150 0020 13070740 		addi	a4,a4,1024
 151 0024 6307E500 		beq	a0,a4,.L11
 152 0028 93870780 		addi	a5,a5,-2048
  87:./../../firmware/GD32VF103_standard_peripheral/Source/gd32vf103_usart.c ****     uint32_t uclk=0U, intdiv=0U, fradiv=0U, udiv=0U;
 153              		.loc 1 87 14
 154 002c 0145     		li	a0,0
 155              	.LVL16:
 156              		.loc 1 88 5
 157 002e 6312F402 		bne	s0,a5,.L13
 158              	.L11:
  89:./../../firmware/GD32VF103_standard_peripheral/Source/gd32vf103_usart.c ****          /* get clock frequency */
  90:./../../firmware/GD32VF103_standard_peripheral/Source/gd32vf103_usart.c ****     case USART0:
  91:./../../firmware/GD32VF103_standard_peripheral/Source/gd32vf103_usart.c ****          /* get USART0 clock */
  92:./../../firmware/GD32VF103_standard_peripheral/Source/gd32vf103_usart.c ****          uclk=rcu_clock_freq_get(CK_APB2);
  93:./../../firmware/GD32VF103_standard_peripheral/Source/gd32vf103_usart.c ****          break;
  94:./../../firmware/GD32VF103_standard_peripheral/Source/gd32vf103_usart.c ****     case USART1:
  95:./../../firmware/GD32VF103_standard_peripheral/Source/gd32vf103_usart.c ****          /* get USART1 clock */
  96:./../../firmware/GD32VF103_standard_peripheral/Source/gd32vf103_usart.c ****          uclk=rcu_clock_freq_get(CK_APB1);
 159              		.loc 1 96 10 is_stmt 1
 160              		.loc 1 96 15 is_stmt 0
 161 0032 0945     		li	a0,2
 162 0034 19A8     		j	.L16
 163              	.L12:
  88:./../../firmware/GD32VF103_standard_peripheral/Source/gd32vf103_usart.c ****          /* get clock frequency */
 164              		.loc 1 88 5
 165 0036 E30EF5FE 		beq	a0,a5,.L11
 166 003a B7470140 		li	a5,1073823744
 167 003e 93870780 		addi	a5,a5,-2048
GAS LISTING C:\Users\Karzan\AppData\Local\Temp\ccuVYx9Z.s 			page 6


  87:./../../firmware/GD32VF103_standard_peripheral/Source/gd32vf103_usart.c ****     switch(usart_periph){
 168              		.loc 1 87 14
 169 0042 0145     		li	a0,0
  88:./../../firmware/GD32VF103_standard_peripheral/Source/gd32vf103_usart.c ****          /* get clock frequency */
 170              		.loc 1 88 5
 171 0044 6317F400 		bne	s0,a5,.L13
  92:./../../firmware/GD32VF103_standard_peripheral/Source/gd32vf103_usart.c ****          break;
 172              		.loc 1 92 10 is_stmt 1
  92:./../../firmware/GD32VF103_standard_peripheral/Source/gd32vf103_usart.c ****          break;
 173              		.loc 1 92 15 is_stmt 0
 174 0048 0D45     		li	a0,3
 175              	.L16:
 176              		.loc 1 96 15
 177 004a 97000000 		call	rcu_clock_freq_get
 177      E7800000 
 178              	.LVL17:
  97:./../../firmware/GD32VF103_standard_peripheral/Source/gd32vf103_usart.c ****          break;
 179              		.loc 1 97 10 is_stmt 1
 180              	.L13:
  98:./../../firmware/GD32VF103_standard_peripheral/Source/gd32vf103_usart.c ****     case USART2:
  99:./../../firmware/GD32VF103_standard_peripheral/Source/gd32vf103_usart.c ****          /* get USART2 clock */
 100:./../../firmware/GD32VF103_standard_peripheral/Source/gd32vf103_usart.c ****          uclk=rcu_clock_freq_get(CK_APB1);
 101:./../../firmware/GD32VF103_standard_peripheral/Source/gd32vf103_usart.c ****          break;
 102:./../../firmware/GD32VF103_standard_peripheral/Source/gd32vf103_usart.c ****     case UART3:
 103:./../../firmware/GD32VF103_standard_peripheral/Source/gd32vf103_usart.c ****          /* get UART3 clock */
 104:./../../firmware/GD32VF103_standard_peripheral/Source/gd32vf103_usart.c ****          uclk=rcu_clock_freq_get(CK_APB1);
 105:./../../firmware/GD32VF103_standard_peripheral/Source/gd32vf103_usart.c ****          break;
 106:./../../firmware/GD32VF103_standard_peripheral/Source/gd32vf103_usart.c ****     case UART4:
 107:./../../firmware/GD32VF103_standard_peripheral/Source/gd32vf103_usart.c ****          /* get UART4 clock */
 108:./../../firmware/GD32VF103_standard_peripheral/Source/gd32vf103_usart.c ****          uclk=rcu_clock_freq_get(CK_APB1);
 109:./../../firmware/GD32VF103_standard_peripheral/Source/gd32vf103_usart.c ****          break;  
 110:./../../firmware/GD32VF103_standard_peripheral/Source/gd32vf103_usart.c ****     default:
 111:./../../firmware/GD32VF103_standard_peripheral/Source/gd32vf103_usart.c ****          break;
 112:./../../firmware/GD32VF103_standard_peripheral/Source/gd32vf103_usart.c ****     }
 113:./../../firmware/GD32VF103_standard_peripheral/Source/gd32vf103_usart.c ****     /* oversampling by 16, configure the value of USART_BAUD */
 114:./../../firmware/GD32VF103_standard_peripheral/Source/gd32vf103_usart.c ****     udiv = (uclk+baudval/2U)/baudval;
 181              		.loc 1 114 5
 115:./../../firmware/GD32VF103_standard_peripheral/Source/gd32vf103_usart.c ****     intdiv = udiv & (0x0000fff0U);
 182              		.loc 1 115 5
 116:./../../firmware/GD32VF103_standard_peripheral/Source/gd32vf103_usart.c ****     fradiv = udiv & (0x0000000fU);
 183              		.loc 1 116 5
 117:./../../firmware/GD32VF103_standard_peripheral/Source/gd32vf103_usart.c ****     USART_BAUD(usart_periph) = ((USART_BAUD_FRADIV | USART_BAUD_INTDIV) & (intdiv | fradiv));
 184              		.loc 1 117 5
 114:./../../firmware/GD32VF103_standard_peripheral/Source/gd32vf103_usart.c ****     intdiv = udiv & (0x0000fff0U);
 185              		.loc 1 114 25 is_stmt 0
 186 0052 93D71400 		srli	a5,s1,1
 114:./../../firmware/GD32VF103_standard_peripheral/Source/gd32vf103_usart.c ****     intdiv = udiv & (0x0000fff0U);
 187              		.loc 1 114 17
 188 0056 AA97     		add	a5,a5,a0
 114:./../../firmware/GD32VF103_standard_peripheral/Source/gd32vf103_usart.c ****     intdiv = udiv & (0x0000fff0U);
 189              		.loc 1 114 10
 190 0058 B3D79702 		divu	a5,a5,s1
 191              	.LVL18:
 118:./../../firmware/GD32VF103_standard_peripheral/Source/gd32vf103_usart.c **** }
 192              		.loc 1 118 1
 193 005c B240     		lw	ra,12(sp)
 194              		.cfi_restore 1
GAS LISTING C:\Users\Karzan\AppData\Local\Temp\ccuVYx9Z.s 			page 7


 195 005e 9244     		lw	s1,4(sp)
 196              		.cfi_restore 9
 197              	.LVL19:
 117:./../../firmware/GD32VF103_standard_peripheral/Source/gd32vf103_usart.c ****     USART_BAUD(usart_periph) = ((USART_BAUD_FRADIV | USART_BAUD_INTDIV) & (intdiv | fradiv));
 198              		.loc 1 117 83
 199 0060 C207     		slli	a5,a5,16
 200              	.LVL20:
 201 0062 C183     		srli	a5,a5,16
 117:./../../firmware/GD32VF103_standard_peripheral/Source/gd32vf103_usart.c ****     USART_BAUD(usart_periph) = ((USART_BAUD_FRADIV | USART_BAUD_INTDIV) & (intdiv | fradiv));
 202              		.loc 1 117 30
 203 0064 1CC4     		sw	a5,8(s0)
 204              		.loc 1 118 1
 205 0066 2244     		lw	s0,8(sp)
 206              		.cfi_restore 8
 207              	.LVL21:
 208 0068 4101     		addi	sp,sp,16
 209              	.LCFI6:
 210              		.cfi_def_cfa_offset 0
 211 006a 8280     		jr	ra
 212              		.cfi_endproc
 213              	.LFE3:
 215              		.section	.text.usart_parity_config,"ax",@progbits
 216              		.align	1
 217              		.globl	usart_parity_config
 219              	usart_parity_config:
 220              	.LFB4:
 119:./../../firmware/GD32VF103_standard_peripheral/Source/gd32vf103_usart.c **** 
 120:./../../firmware/GD32VF103_standard_peripheral/Source/gd32vf103_usart.c **** /*!
 121:./../../firmware/GD32VF103_standard_peripheral/Source/gd32vf103_usart.c ****     \brief     configure USART parity
 122:./../../firmware/GD32VF103_standard_peripheral/Source/gd32vf103_usart.c ****     \param[in] usart_periph: USARTx(x=0,1,2)/UARTx(x=3,4)
 123:./../../firmware/GD32VF103_standard_peripheral/Source/gd32vf103_usart.c ****     \param[in] paritycfg: configure USART parity
 124:./../../firmware/GD32VF103_standard_peripheral/Source/gd32vf103_usart.c ****                only one parameter can be selected which is shown as below:
 125:./../../firmware/GD32VF103_standard_peripheral/Source/gd32vf103_usart.c ****       \arg       USART_PM_NONE: no parity
 126:./../../firmware/GD32VF103_standard_peripheral/Source/gd32vf103_usart.c ****       \arg       USART_PM_ODD:  odd parity
 127:./../../firmware/GD32VF103_standard_peripheral/Source/gd32vf103_usart.c ****       \arg       USART_PM_EVEN: even parity 
 128:./../../firmware/GD32VF103_standard_peripheral/Source/gd32vf103_usart.c ****     \param[out] none
 129:./../../firmware/GD32VF103_standard_peripheral/Source/gd32vf103_usart.c ****     \retval     none
 130:./../../firmware/GD32VF103_standard_peripheral/Source/gd32vf103_usart.c **** */
 131:./../../firmware/GD32VF103_standard_peripheral/Source/gd32vf103_usart.c **** void usart_parity_config(uint32_t usart_periph, uint32_t paritycfg)
 132:./../../firmware/GD32VF103_standard_peripheral/Source/gd32vf103_usart.c **** {
 221              		.loc 1 132 1 is_stmt 1
 222              		.cfi_startproc
 223              	.LVL22:
 133:./../../firmware/GD32VF103_standard_peripheral/Source/gd32vf103_usart.c ****     /* clear USART_CTL0 PM,PCEN bits */
 134:./../../firmware/GD32VF103_standard_peripheral/Source/gd32vf103_usart.c ****     USART_CTL0(usart_periph) &= ~(USART_CTL0_PM | USART_CTL0_PCEN);
 224              		.loc 1 134 5
 225              		.loc 1 134 30 is_stmt 0
 226 0000 5C45     		lw	a5,12(a0)
 227 0002 93F7F79F 		andi	a5,a5,-1537
 228 0006 5CC5     		sw	a5,12(a0)
 135:./../../firmware/GD32VF103_standard_peripheral/Source/gd32vf103_usart.c ****     /* configure USART parity mode */
 136:./../../firmware/GD32VF103_standard_peripheral/Source/gd32vf103_usart.c ****     USART_CTL0(usart_periph) |= paritycfg ;
 229              		.loc 1 136 5 is_stmt 1
 230              		.loc 1 136 30 is_stmt 0
 231 0008 5C45     		lw	a5,12(a0)
 232 000a DD8D     		or	a1,a5,a1
 233              	.LVL23:
GAS LISTING C:\Users\Karzan\AppData\Local\Temp\ccuVYx9Z.s 			page 8


 234 000c 4CC5     		sw	a1,12(a0)
 137:./../../firmware/GD32VF103_standard_peripheral/Source/gd32vf103_usart.c **** }
 235              		.loc 1 137 1
 236 000e 8280     		ret
 237              		.cfi_endproc
 238              	.LFE4:
 240              		.section	.text.usart_word_length_set,"ax",@progbits
 241              		.align	1
 242              		.globl	usart_word_length_set
 244              	usart_word_length_set:
 245              	.LFB5:
 138:./../../firmware/GD32VF103_standard_peripheral/Source/gd32vf103_usart.c **** 
 139:./../../firmware/GD32VF103_standard_peripheral/Source/gd32vf103_usart.c **** /*!
 140:./../../firmware/GD32VF103_standard_peripheral/Source/gd32vf103_usart.c ****     \brief     configure USART word length
 141:./../../firmware/GD32VF103_standard_peripheral/Source/gd32vf103_usart.c ****     \param[in] usart_periph: USARTx(x=0,1,2)/UARTx(x=3,4)
 142:./../../firmware/GD32VF103_standard_peripheral/Source/gd32vf103_usart.c ****     \param[in] wlen: USART word length configure
 143:./../../firmware/GD32VF103_standard_peripheral/Source/gd32vf103_usart.c ****                only one parameter can be selected which is shown as below:
 144:./../../firmware/GD32VF103_standard_peripheral/Source/gd32vf103_usart.c ****       \arg       USART_WL_8BIT: 8 bits
 145:./../../firmware/GD32VF103_standard_peripheral/Source/gd32vf103_usart.c ****       \arg       USART_WL_9BIT: 9 bits
 146:./../../firmware/GD32VF103_standard_peripheral/Source/gd32vf103_usart.c ****     \param[out] none
 147:./../../firmware/GD32VF103_standard_peripheral/Source/gd32vf103_usart.c ****     \retval     none
 148:./../../firmware/GD32VF103_standard_peripheral/Source/gd32vf103_usart.c **** */
 149:./../../firmware/GD32VF103_standard_peripheral/Source/gd32vf103_usart.c **** void usart_word_length_set(uint32_t usart_periph, uint32_t wlen)
 150:./../../firmware/GD32VF103_standard_peripheral/Source/gd32vf103_usart.c **** {
 246              		.loc 1 150 1 is_stmt 1
 247              		.cfi_startproc
 248              	.LVL24:
 151:./../../firmware/GD32VF103_standard_peripheral/Source/gd32vf103_usart.c ****     /* clear USART_CTL0 WL bit */
 152:./../../firmware/GD32VF103_standard_peripheral/Source/gd32vf103_usart.c ****     USART_CTL0(usart_periph) &= ~USART_CTL0_WL;
 249              		.loc 1 152 5
 250              		.loc 1 152 30 is_stmt 0
 251 0000 5C45     		lw	a5,12(a0)
 252 0002 7D77     		li	a4,-4096
 253 0004 7D17     		addi	a4,a4,-1
 254 0006 F98F     		and	a5,a5,a4
 255 0008 5CC5     		sw	a5,12(a0)
 153:./../../firmware/GD32VF103_standard_peripheral/Source/gd32vf103_usart.c ****     /* configure USART word length */
 154:./../../firmware/GD32VF103_standard_peripheral/Source/gd32vf103_usart.c ****     USART_CTL0(usart_periph) |= wlen;
 256              		.loc 1 154 5 is_stmt 1
 257              		.loc 1 154 30 is_stmt 0
 258 000a 5C45     		lw	a5,12(a0)
 259 000c DD8D     		or	a1,a5,a1
 260              	.LVL25:
 261 000e 4CC5     		sw	a1,12(a0)
 155:./../../firmware/GD32VF103_standard_peripheral/Source/gd32vf103_usart.c **** }
 262              		.loc 1 155 1
 263 0010 8280     		ret
 264              		.cfi_endproc
 265              	.LFE5:
 267              		.section	.text.usart_stop_bit_set,"ax",@progbits
 268              		.align	1
 269              		.globl	usart_stop_bit_set
 271              	usart_stop_bit_set:
 272              	.LFB6:
 156:./../../firmware/GD32VF103_standard_peripheral/Source/gd32vf103_usart.c **** 
 157:./../../firmware/GD32VF103_standard_peripheral/Source/gd32vf103_usart.c **** /*!
 158:./../../firmware/GD32VF103_standard_peripheral/Source/gd32vf103_usart.c ****     \brief     configure USART stop bit length
GAS LISTING C:\Users\Karzan\AppData\Local\Temp\ccuVYx9Z.s 			page 9


 159:./../../firmware/GD32VF103_standard_peripheral/Source/gd32vf103_usart.c ****     \param[in] usart_periph: USARTx(x=0,1,2)/UARTx(x=3,4)
 160:./../../firmware/GD32VF103_standard_peripheral/Source/gd32vf103_usart.c ****     \param[in] stblen: USART stop bit configure
 161:./../../firmware/GD32VF103_standard_peripheral/Source/gd32vf103_usart.c ****                only one parameter can be selected which is shown as below:
 162:./../../firmware/GD32VF103_standard_peripheral/Source/gd32vf103_usart.c ****       \arg       USART_STB_1BIT:   1 bit
 163:./../../firmware/GD32VF103_standard_peripheral/Source/gd32vf103_usart.c ****       \arg       USART_STB_0_5BIT: 0.5 bit, not available for UARTx(x=3,4)
 164:./../../firmware/GD32VF103_standard_peripheral/Source/gd32vf103_usart.c ****       \arg       USART_STB_2BIT:   2 bits
 165:./../../firmware/GD32VF103_standard_peripheral/Source/gd32vf103_usart.c ****       \arg       USART_STB_1_5BIT: 1.5 bits, not available for UARTx(x=3,4)
 166:./../../firmware/GD32VF103_standard_peripheral/Source/gd32vf103_usart.c ****     \param[out] none
 167:./../../firmware/GD32VF103_standard_peripheral/Source/gd32vf103_usart.c ****     \retval     none
 168:./../../firmware/GD32VF103_standard_peripheral/Source/gd32vf103_usart.c **** */
 169:./../../firmware/GD32VF103_standard_peripheral/Source/gd32vf103_usart.c **** void usart_stop_bit_set(uint32_t usart_periph, uint32_t stblen)
 170:./../../firmware/GD32VF103_standard_peripheral/Source/gd32vf103_usart.c **** {
 273              		.loc 1 170 1 is_stmt 1
 274              		.cfi_startproc
 275              	.LVL26:
 171:./../../firmware/GD32VF103_standard_peripheral/Source/gd32vf103_usart.c ****     /* clear USART_CTL1 STB bits */
 172:./../../firmware/GD32VF103_standard_peripheral/Source/gd32vf103_usart.c ****     USART_CTL1(usart_periph) &= ~USART_CTL1_STB; 
 276              		.loc 1 172 5
 277              		.loc 1 172 30 is_stmt 0
 278 0000 1C49     		lw	a5,16(a0)
 279 0002 7577     		li	a4,-12288
 280 0004 7D17     		addi	a4,a4,-1
 281 0006 F98F     		and	a5,a5,a4
 282 0008 1CC9     		sw	a5,16(a0)
 173:./../../firmware/GD32VF103_standard_peripheral/Source/gd32vf103_usart.c ****     /* configure USART stop bits */
 174:./../../firmware/GD32VF103_standard_peripheral/Source/gd32vf103_usart.c ****     USART_CTL1(usart_periph) |= stblen;
 283              		.loc 1 174 5 is_stmt 1
 284              		.loc 1 174 30 is_stmt 0
 285 000a 1C49     		lw	a5,16(a0)
 286 000c DD8D     		or	a1,a5,a1
 287              	.LVL27:
 288 000e 0CC9     		sw	a1,16(a0)
 175:./../../firmware/GD32VF103_standard_peripheral/Source/gd32vf103_usart.c **** }
 289              		.loc 1 175 1
 290 0010 8280     		ret
 291              		.cfi_endproc
 292              	.LFE6:
 294              		.section	.text.usart_enable,"ax",@progbits
 295              		.align	1
 296              		.globl	usart_enable
 298              	usart_enable:
 299              	.LFB7:
 176:./../../firmware/GD32VF103_standard_peripheral/Source/gd32vf103_usart.c **** 
 177:./../../firmware/GD32VF103_standard_peripheral/Source/gd32vf103_usart.c **** /*!
 178:./../../firmware/GD32VF103_standard_peripheral/Source/gd32vf103_usart.c ****     \brief      enable USART
 179:./../../firmware/GD32VF103_standard_peripheral/Source/gd32vf103_usart.c ****     \param[in]  usart_periph: USARTx(x=0,1,2)/UARTx(x=3,4)
 180:./../../firmware/GD32VF103_standard_peripheral/Source/gd32vf103_usart.c ****     \param[out] none
 181:./../../firmware/GD32VF103_standard_peripheral/Source/gd32vf103_usart.c ****     \retval     none
 182:./../../firmware/GD32VF103_standard_peripheral/Source/gd32vf103_usart.c **** */
 183:./../../firmware/GD32VF103_standard_peripheral/Source/gd32vf103_usart.c **** void usart_enable(uint32_t usart_periph)
 184:./../../firmware/GD32VF103_standard_peripheral/Source/gd32vf103_usart.c **** {
 300              		.loc 1 184 1 is_stmt 1
 301              		.cfi_startproc
 302              	.LVL28:
 185:./../../firmware/GD32VF103_standard_peripheral/Source/gd32vf103_usart.c ****     USART_CTL0(usart_periph) |= USART_CTL0_UEN;
 303              		.loc 1 185 5
 304              		.loc 1 185 30 is_stmt 0
GAS LISTING C:\Users\Karzan\AppData\Local\Temp\ccuVYx9Z.s 			page 10


 305 0000 5C45     		lw	a5,12(a0)
 306 0002 0967     		li	a4,8192
 307 0004 D98F     		or	a5,a5,a4
 308 0006 5CC5     		sw	a5,12(a0)
 186:./../../firmware/GD32VF103_standard_peripheral/Source/gd32vf103_usart.c **** }
 309              		.loc 1 186 1
 310 0008 8280     		ret
 311              		.cfi_endproc
 312              	.LFE7:
 314              		.section	.text.usart_disable,"ax",@progbits
 315              		.align	1
 316              		.globl	usart_disable
 318              	usart_disable:
 319              	.LFB8:
 187:./../../firmware/GD32VF103_standard_peripheral/Source/gd32vf103_usart.c **** 
 188:./../../firmware/GD32VF103_standard_peripheral/Source/gd32vf103_usart.c **** /*!
 189:./../../firmware/GD32VF103_standard_peripheral/Source/gd32vf103_usart.c ****     \brief     disable USART
 190:./../../firmware/GD32VF103_standard_peripheral/Source/gd32vf103_usart.c ****     \param[in] usart_periph: USARTx(x=0,1,2)/UARTx(x=3,4)
 191:./../../firmware/GD32VF103_standard_peripheral/Source/gd32vf103_usart.c ****     \param[out] none
 192:./../../firmware/GD32VF103_standard_peripheral/Source/gd32vf103_usart.c ****     \retval     none
 193:./../../firmware/GD32VF103_standard_peripheral/Source/gd32vf103_usart.c **** */
 194:./../../firmware/GD32VF103_standard_peripheral/Source/gd32vf103_usart.c **** void usart_disable(uint32_t usart_periph)
 195:./../../firmware/GD32VF103_standard_peripheral/Source/gd32vf103_usart.c **** {
 320              		.loc 1 195 1 is_stmt 1
 321              		.cfi_startproc
 322              	.LVL29:
 196:./../../firmware/GD32VF103_standard_peripheral/Source/gd32vf103_usart.c ****     USART_CTL0(usart_periph) &= ~(USART_CTL0_UEN);
 323              		.loc 1 196 5
 324              		.loc 1 196 30 is_stmt 0
 325 0000 5C45     		lw	a5,12(a0)
 326 0002 7977     		li	a4,-8192
 327 0004 7D17     		addi	a4,a4,-1
 328 0006 F98F     		and	a5,a5,a4
 329 0008 5CC5     		sw	a5,12(a0)
 197:./../../firmware/GD32VF103_standard_peripheral/Source/gd32vf103_usart.c **** }
 330              		.loc 1 197 1
 331 000a 8280     		ret
 332              		.cfi_endproc
 333              	.LFE8:
 335              		.section	.text.usart_transmit_config,"ax",@progbits
 336              		.align	1
 337              		.globl	usart_transmit_config
 339              	usart_transmit_config:
 340              	.LFB9:
 198:./../../firmware/GD32VF103_standard_peripheral/Source/gd32vf103_usart.c **** 
 199:./../../firmware/GD32VF103_standard_peripheral/Source/gd32vf103_usart.c **** /*!
 200:./../../firmware/GD32VF103_standard_peripheral/Source/gd32vf103_usart.c ****     \brief      configure USART transmitter
 201:./../../firmware/GD32VF103_standard_peripheral/Source/gd32vf103_usart.c ****     \param[in]  usart_periph: USARTx(x=0,1,2)/UARTx(x=3,4)
 202:./../../firmware/GD32VF103_standard_peripheral/Source/gd32vf103_usart.c ****     \param[in]  txconfig: enable or disable USART transmitter
 203:./../../firmware/GD32VF103_standard_peripheral/Source/gd32vf103_usart.c ****                 only one parameter can be selected which is shown as below:
 204:./../../firmware/GD32VF103_standard_peripheral/Source/gd32vf103_usart.c ****       \arg        USART_TRANSMIT_ENABLE: enable USART transmission
 205:./../../firmware/GD32VF103_standard_peripheral/Source/gd32vf103_usart.c ****       \arg        USART_TRANSMIT_DISABLE: disable USART transmission
 206:./../../firmware/GD32VF103_standard_peripheral/Source/gd32vf103_usart.c ****     \param[out] none
 207:./../../firmware/GD32VF103_standard_peripheral/Source/gd32vf103_usart.c ****     \retval     none
 208:./../../firmware/GD32VF103_standard_peripheral/Source/gd32vf103_usart.c **** */
 209:./../../firmware/GD32VF103_standard_peripheral/Source/gd32vf103_usart.c **** void usart_transmit_config(uint32_t usart_periph, uint32_t txconfig)
 210:./../../firmware/GD32VF103_standard_peripheral/Source/gd32vf103_usart.c **** {
GAS LISTING C:\Users\Karzan\AppData\Local\Temp\ccuVYx9Z.s 			page 11


 341              		.loc 1 210 1 is_stmt 1
 342              		.cfi_startproc
 343              	.LVL30:
 211:./../../firmware/GD32VF103_standard_peripheral/Source/gd32vf103_usart.c ****     uint32_t ctl = 0U;
 344              		.loc 1 211 5
 212:./../../firmware/GD32VF103_standard_peripheral/Source/gd32vf103_usart.c ****     
 213:./../../firmware/GD32VF103_standard_peripheral/Source/gd32vf103_usart.c ****     ctl = USART_CTL0(usart_periph);
 345              		.loc 1 213 5
 346              		.loc 1 213 9 is_stmt 0
 347 0000 5C45     		lw	a5,12(a0)
 348              	.LVL31:
 214:./../../firmware/GD32VF103_standard_peripheral/Source/gd32vf103_usart.c ****     ctl &= ~USART_CTL0_TEN;
 349              		.loc 1 214 5 is_stmt 1
 350              		.loc 1 214 9 is_stmt 0
 351 0002 DD9B     		andi	a5,a5,-9
 352              	.LVL32:
 215:./../../firmware/GD32VF103_standard_peripheral/Source/gd32vf103_usart.c ****     ctl |= txconfig;
 353              		.loc 1 215 5 is_stmt 1
 354              		.loc 1 215 9 is_stmt 0
 355 0004 DD8D     		or	a1,a5,a1
 356              	.LVL33:
 216:./../../firmware/GD32VF103_standard_peripheral/Source/gd32vf103_usart.c ****     /* configure transfer mode */
 217:./../../firmware/GD32VF103_standard_peripheral/Source/gd32vf103_usart.c ****     USART_CTL0(usart_periph) = ctl;
 357              		.loc 1 217 5 is_stmt 1
 358              		.loc 1 217 30 is_stmt 0
 359 0006 4CC5     		sw	a1,12(a0)
 218:./../../firmware/GD32VF103_standard_peripheral/Source/gd32vf103_usart.c **** }
 360              		.loc 1 218 1
 361 0008 8280     		ret
 362              		.cfi_endproc
 363              	.LFE9:
 365              		.section	.text.usart_receive_config,"ax",@progbits
 366              		.align	1
 367              		.globl	usart_receive_config
 369              	usart_receive_config:
 370              	.LFB10:
 219:./../../firmware/GD32VF103_standard_peripheral/Source/gd32vf103_usart.c **** 
 220:./../../firmware/GD32VF103_standard_peripheral/Source/gd32vf103_usart.c **** /*!
 221:./../../firmware/GD32VF103_standard_peripheral/Source/gd32vf103_usart.c ****     \brief      configure USART receiver
 222:./../../firmware/GD32VF103_standard_peripheral/Source/gd32vf103_usart.c ****     \param[in]  usart_periph: USARTx(x=0,1,2)/UARTx(x=3,4)
 223:./../../firmware/GD32VF103_standard_peripheral/Source/gd32vf103_usart.c ****     \param[in]  rxconfig: enable or disable USART receiver
 224:./../../firmware/GD32VF103_standard_peripheral/Source/gd32vf103_usart.c ****                 only one parameter can be selected which is shown as below:
 225:./../../firmware/GD32VF103_standard_peripheral/Source/gd32vf103_usart.c ****       \arg        USART_RECEIVE_ENABLE: enable USART reception
 226:./../../firmware/GD32VF103_standard_peripheral/Source/gd32vf103_usart.c ****       \arg        USART_RECEIVE_DISABLE: disable USART reception
 227:./../../firmware/GD32VF103_standard_peripheral/Source/gd32vf103_usart.c ****     \param[out] none
 228:./../../firmware/GD32VF103_standard_peripheral/Source/gd32vf103_usart.c ****     \retval     none
 229:./../../firmware/GD32VF103_standard_peripheral/Source/gd32vf103_usart.c **** */
 230:./../../firmware/GD32VF103_standard_peripheral/Source/gd32vf103_usart.c **** void usart_receive_config(uint32_t usart_periph, uint32_t rxconfig)
 231:./../../firmware/GD32VF103_standard_peripheral/Source/gd32vf103_usart.c **** {
 371              		.loc 1 231 1 is_stmt 1
 372              		.cfi_startproc
 373              	.LVL34:
 232:./../../firmware/GD32VF103_standard_peripheral/Source/gd32vf103_usart.c ****     uint32_t ctl = 0U;
 374              		.loc 1 232 5
 233:./../../firmware/GD32VF103_standard_peripheral/Source/gd32vf103_usart.c ****     
 234:./../../firmware/GD32VF103_standard_peripheral/Source/gd32vf103_usart.c ****     ctl = USART_CTL0(usart_periph);
 375              		.loc 1 234 5
GAS LISTING C:\Users\Karzan\AppData\Local\Temp\ccuVYx9Z.s 			page 12


 376              		.loc 1 234 9 is_stmt 0
 377 0000 5C45     		lw	a5,12(a0)
 378              	.LVL35:
 235:./../../firmware/GD32VF103_standard_peripheral/Source/gd32vf103_usart.c ****     ctl &= ~USART_CTL0_REN;
 379              		.loc 1 235 5 is_stmt 1
 380              		.loc 1 235 9 is_stmt 0
 381 0002 ED9B     		andi	a5,a5,-5
 382              	.LVL36:
 236:./../../firmware/GD32VF103_standard_peripheral/Source/gd32vf103_usart.c ****     ctl |= rxconfig;
 383              		.loc 1 236 5 is_stmt 1
 384              		.loc 1 236 9 is_stmt 0
 385 0004 DD8D     		or	a1,a5,a1
 386              	.LVL37:
 237:./../../firmware/GD32VF103_standard_peripheral/Source/gd32vf103_usart.c ****     /* configure receiver mode */
 238:./../../firmware/GD32VF103_standard_peripheral/Source/gd32vf103_usart.c ****     USART_CTL0(usart_periph) = ctl;
 387              		.loc 1 238 5 is_stmt 1
 388              		.loc 1 238 30 is_stmt 0
 389 0006 4CC5     		sw	a1,12(a0)
 239:./../../firmware/GD32VF103_standard_peripheral/Source/gd32vf103_usart.c **** }
 390              		.loc 1 239 1
 391 0008 8280     		ret
 392              		.cfi_endproc
 393              	.LFE10:
 395              		.section	.text.usart_data_transmit,"ax",@progbits
 396              		.align	1
 397              		.globl	usart_data_transmit
 399              	usart_data_transmit:
 400              	.LFB11:
 240:./../../firmware/GD32VF103_standard_peripheral/Source/gd32vf103_usart.c **** 
 241:./../../firmware/GD32VF103_standard_peripheral/Source/gd32vf103_usart.c **** /*!
 242:./../../firmware/GD32VF103_standard_peripheral/Source/gd32vf103_usart.c ****     \brief      USART transmit data function
 243:./../../firmware/GD32VF103_standard_peripheral/Source/gd32vf103_usart.c ****     \param[in]  usart_periph: USARTx(x=0,1,2)/UARTx(x=3,4)
 244:./../../firmware/GD32VF103_standard_peripheral/Source/gd32vf103_usart.c ****     \param[in]  data: data of transmission 
 245:./../../firmware/GD32VF103_standard_peripheral/Source/gd32vf103_usart.c ****     \param[out] none
 246:./../../firmware/GD32VF103_standard_peripheral/Source/gd32vf103_usart.c ****     \retval     none
 247:./../../firmware/GD32VF103_standard_peripheral/Source/gd32vf103_usart.c **** */
 248:./../../firmware/GD32VF103_standard_peripheral/Source/gd32vf103_usart.c **** void usart_data_transmit(uint32_t usart_periph, uint32_t data)
 249:./../../firmware/GD32VF103_standard_peripheral/Source/gd32vf103_usart.c **** {
 401              		.loc 1 249 1 is_stmt 1
 402              		.cfi_startproc
 403              	.LVL38:
 250:./../../firmware/GD32VF103_standard_peripheral/Source/gd32vf103_usart.c ****     USART_DATA(usart_periph) = USART_DATA_DATA & data;
 404              		.loc 1 250 5
 405              		.loc 1 250 48 is_stmt 0
 406 0000 93F5F51F 		andi	a1,a1,511
 407              	.LVL39:
 408              		.loc 1 250 30
 409 0004 4CC1     		sw	a1,4(a0)
 251:./../../firmware/GD32VF103_standard_peripheral/Source/gd32vf103_usart.c **** }
 410              		.loc 1 251 1
 411 0006 8280     		ret
 412              		.cfi_endproc
 413              	.LFE11:
 415              		.section	.text.usart_data_receive,"ax",@progbits
 416              		.align	1
 417              		.globl	usart_data_receive
 419              	usart_data_receive:
GAS LISTING C:\Users\Karzan\AppData\Local\Temp\ccuVYx9Z.s 			page 13


 420              	.LFB12:
 252:./../../firmware/GD32VF103_standard_peripheral/Source/gd32vf103_usart.c **** 
 253:./../../firmware/GD32VF103_standard_peripheral/Source/gd32vf103_usart.c **** /*!
 254:./../../firmware/GD32VF103_standard_peripheral/Source/gd32vf103_usart.c ****     \brief      USART receive data function
 255:./../../firmware/GD32VF103_standard_peripheral/Source/gd32vf103_usart.c ****     \param[in]  usart_periph: USARTx(x=0,1,2)/UARTx(x=3,4)
 256:./../../firmware/GD32VF103_standard_peripheral/Source/gd32vf103_usart.c ****     \param[out] none
 257:./../../firmware/GD32VF103_standard_peripheral/Source/gd32vf103_usart.c ****     \retval     data of received
 258:./../../firmware/GD32VF103_standard_peripheral/Source/gd32vf103_usart.c **** */
 259:./../../firmware/GD32VF103_standard_peripheral/Source/gd32vf103_usart.c **** uint16_t usart_data_receive(uint32_t usart_periph)
 260:./../../firmware/GD32VF103_standard_peripheral/Source/gd32vf103_usart.c **** {
 421              		.loc 1 260 1 is_stmt 1
 422              		.cfi_startproc
 423              	.LVL40:
 261:./../../firmware/GD32VF103_standard_peripheral/Source/gd32vf103_usart.c ****     return (uint16_t)(GET_BITS(USART_DATA(usart_periph), 0U, 8U));
 424              		.loc 1 261 5
 425              		.loc 1 261 23 is_stmt 0
 426 0000 4841     		lw	a0,4(a0)
 427              	.LVL41:
 262:./../../firmware/GD32VF103_standard_peripheral/Source/gd32vf103_usart.c **** }
 428              		.loc 1 262 1
 429 0002 1375F51F 		andi	a0,a0,511
 430 0006 8280     		ret
 431              		.cfi_endproc
 432              	.LFE12:
 434              		.section	.text.usart_address_config,"ax",@progbits
 435              		.align	1
 436              		.globl	usart_address_config
 438              	usart_address_config:
 439              	.LFB13:
 263:./../../firmware/GD32VF103_standard_peripheral/Source/gd32vf103_usart.c **** 
 264:./../../firmware/GD32VF103_standard_peripheral/Source/gd32vf103_usart.c **** /*!
 265:./../../firmware/GD32VF103_standard_peripheral/Source/gd32vf103_usart.c ****     \brief      configure the address of the USART in wake up by address match mode
 266:./../../firmware/GD32VF103_standard_peripheral/Source/gd32vf103_usart.c ****     \param[in]  usart_periph: USARTx(x=0,1,2)/UARTx(x=3,4)
 267:./../../firmware/GD32VF103_standard_peripheral/Source/gd32vf103_usart.c ****     \param[in]  addr: address of USART/UART
 268:./../../firmware/GD32VF103_standard_peripheral/Source/gd32vf103_usart.c ****     \param[out] none
 269:./../../firmware/GD32VF103_standard_peripheral/Source/gd32vf103_usart.c ****     \retval     none
 270:./../../firmware/GD32VF103_standard_peripheral/Source/gd32vf103_usart.c **** */
 271:./../../firmware/GD32VF103_standard_peripheral/Source/gd32vf103_usart.c **** void usart_address_config(uint32_t usart_periph, uint8_t addr)
 272:./../../firmware/GD32VF103_standard_peripheral/Source/gd32vf103_usart.c **** {
 440              		.loc 1 272 1 is_stmt 1
 441              		.cfi_startproc
 442              	.LVL42:
 273:./../../firmware/GD32VF103_standard_peripheral/Source/gd32vf103_usart.c ****     USART_CTL1(usart_periph) &= ~(USART_CTL1_ADDR);
 443              		.loc 1 273 5
 444              		.loc 1 273 30 is_stmt 0
 445 0000 1C49     		lw	a5,16(a0)
 274:./../../firmware/GD32VF103_standard_peripheral/Source/gd32vf103_usart.c ****     USART_CTL1(usart_periph) |= (USART_CTL1_ADDR & addr);
 446              		.loc 1 274 50
 447 0002 BD89     		andi	a1,a1,15
 448              	.LVL43:
 273:./../../firmware/GD32VF103_standard_peripheral/Source/gd32vf103_usart.c ****     USART_CTL1(usart_periph) &= ~(USART_CTL1_ADDR);
 449              		.loc 1 273 30
 450 0004 C19B     		andi	a5,a5,-16
 451 0006 1CC9     		sw	a5,16(a0)
 452              		.loc 1 274 5 is_stmt 1
 453              		.loc 1 274 30 is_stmt 0
 454 0008 1C49     		lw	a5,16(a0)
GAS LISTING C:\Users\Karzan\AppData\Local\Temp\ccuVYx9Z.s 			page 14


 455 000a DD8D     		or	a1,a1,a5
 456 000c 0CC9     		sw	a1,16(a0)
 275:./../../firmware/GD32VF103_standard_peripheral/Source/gd32vf103_usart.c **** }
 457              		.loc 1 275 1
 458 000e 8280     		ret
 459              		.cfi_endproc
 460              	.LFE13:
 462              		.section	.text.usart_mute_mode_enable,"ax",@progbits
 463              		.align	1
 464              		.globl	usart_mute_mode_enable
 466              	usart_mute_mode_enable:
 467              	.LFB14:
 276:./../../firmware/GD32VF103_standard_peripheral/Source/gd32vf103_usart.c **** 
 277:./../../firmware/GD32VF103_standard_peripheral/Source/gd32vf103_usart.c **** /*!
 278:./../../firmware/GD32VF103_standard_peripheral/Source/gd32vf103_usart.c ****     \brief      receiver in mute mode
 279:./../../firmware/GD32VF103_standard_peripheral/Source/gd32vf103_usart.c ****     \param[in]  usart_periph: USARTx(x=0,1,2)/UARTx(x=3,4)
 280:./../../firmware/GD32VF103_standard_peripheral/Source/gd32vf103_usart.c ****     \param[out] none
 281:./../../firmware/GD32VF103_standard_peripheral/Source/gd32vf103_usart.c ****     \retval     none
 282:./../../firmware/GD32VF103_standard_peripheral/Source/gd32vf103_usart.c **** */
 283:./../../firmware/GD32VF103_standard_peripheral/Source/gd32vf103_usart.c **** void usart_mute_mode_enable(uint32_t usart_periph)
 284:./../../firmware/GD32VF103_standard_peripheral/Source/gd32vf103_usart.c **** {
 468              		.loc 1 284 1 is_stmt 1
 469              		.cfi_startproc
 470              	.LVL44:
 285:./../../firmware/GD32VF103_standard_peripheral/Source/gd32vf103_usart.c ****     USART_CTL0(usart_periph) |= USART_CTL0_RWU;
 471              		.loc 1 285 5
 472              		.loc 1 285 30 is_stmt 0
 473 0000 5C45     		lw	a5,12(a0)
 474 0002 93E72700 		ori	a5,a5,2
 475 0006 5CC5     		sw	a5,12(a0)
 286:./../../firmware/GD32VF103_standard_peripheral/Source/gd32vf103_usart.c **** }
 476              		.loc 1 286 1
 477 0008 8280     		ret
 478              		.cfi_endproc
 479              	.LFE14:
 481              		.section	.text.usart_mute_mode_disable,"ax",@progbits
 482              		.align	1
 483              		.globl	usart_mute_mode_disable
 485              	usart_mute_mode_disable:
 486              	.LFB15:
 287:./../../firmware/GD32VF103_standard_peripheral/Source/gd32vf103_usart.c **** 
 288:./../../firmware/GD32VF103_standard_peripheral/Source/gd32vf103_usart.c **** /*!
 289:./../../firmware/GD32VF103_standard_peripheral/Source/gd32vf103_usart.c ****     \brief      receiver in active mode
 290:./../../firmware/GD32VF103_standard_peripheral/Source/gd32vf103_usart.c ****     \param[in]  usart_periph: USARTx(x=0,1,2)/UARTx(x=3,4)
 291:./../../firmware/GD32VF103_standard_peripheral/Source/gd32vf103_usart.c ****     \param[out] none
 292:./../../firmware/GD32VF103_standard_peripheral/Source/gd32vf103_usart.c ****     \retval     none
 293:./../../firmware/GD32VF103_standard_peripheral/Source/gd32vf103_usart.c **** */
 294:./../../firmware/GD32VF103_standard_peripheral/Source/gd32vf103_usart.c **** void usart_mute_mode_disable(uint32_t usart_periph)
 295:./../../firmware/GD32VF103_standard_peripheral/Source/gd32vf103_usart.c **** {
 487              		.loc 1 295 1 is_stmt 1
 488              		.cfi_startproc
 489              	.LVL45:
 296:./../../firmware/GD32VF103_standard_peripheral/Source/gd32vf103_usart.c ****     USART_CTL0(usart_periph) &= ~(USART_CTL0_RWU);
 490              		.loc 1 296 5
 491              		.loc 1 296 30 is_stmt 0
 492 0000 5C45     		lw	a5,12(a0)
 493 0002 F59B     		andi	a5,a5,-3
GAS LISTING C:\Users\Karzan\AppData\Local\Temp\ccuVYx9Z.s 			page 15


 494 0004 5CC5     		sw	a5,12(a0)
 297:./../../firmware/GD32VF103_standard_peripheral/Source/gd32vf103_usart.c **** }
 495              		.loc 1 297 1
 496 0006 8280     		ret
 497              		.cfi_endproc
 498              	.LFE15:
 500              		.section	.text.usart_mute_mode_wakeup_config,"ax",@progbits
 501              		.align	1
 502              		.globl	usart_mute_mode_wakeup_config
 504              	usart_mute_mode_wakeup_config:
 505              	.LFB16:
 298:./../../firmware/GD32VF103_standard_peripheral/Source/gd32vf103_usart.c **** 
 299:./../../firmware/GD32VF103_standard_peripheral/Source/gd32vf103_usart.c **** /*!
 300:./../../firmware/GD32VF103_standard_peripheral/Source/gd32vf103_usart.c ****     \brief      configure wakeup method in mute mode
 301:./../../firmware/GD32VF103_standard_peripheral/Source/gd32vf103_usart.c ****     \param[in]  usart_periph: USARTx(x=0,1,2)/UARTx(x=3,4)
 302:./../../firmware/GD32VF103_standard_peripheral/Source/gd32vf103_usart.c ****     \param[in]  wmethod: two methods be used to enter or exit the mute mode
 303:./../../firmware/GD32VF103_standard_peripheral/Source/gd32vf103_usart.c ****                 only one parameter can be selected which is shown as below:
 304:./../../firmware/GD32VF103_standard_peripheral/Source/gd32vf103_usart.c ****       \arg        USART_WM_IDLE: idle line
 305:./../../firmware/GD32VF103_standard_peripheral/Source/gd32vf103_usart.c ****       \arg        USART_WM_ADDR: address mask
 306:./../../firmware/GD32VF103_standard_peripheral/Source/gd32vf103_usart.c ****     \param[out] none
 307:./../../firmware/GD32VF103_standard_peripheral/Source/gd32vf103_usart.c ****     \retval     none
 308:./../../firmware/GD32VF103_standard_peripheral/Source/gd32vf103_usart.c **** */
 309:./../../firmware/GD32VF103_standard_peripheral/Source/gd32vf103_usart.c **** void usart_mute_mode_wakeup_config(uint32_t usart_periph, uint32_t wmethod)
 310:./../../firmware/GD32VF103_standard_peripheral/Source/gd32vf103_usart.c **** {
 506              		.loc 1 310 1 is_stmt 1
 507              		.cfi_startproc
 508              	.LVL46:
 311:./../../firmware/GD32VF103_standard_peripheral/Source/gd32vf103_usart.c ****     USART_CTL0(usart_periph) &= ~(USART_CTL0_WM);
 509              		.loc 1 311 5
 510              		.loc 1 311 30 is_stmt 0
 511 0000 5C45     		lw	a5,12(a0)
 512 0002 7D77     		li	a4,-4096
 513 0004 1307F77F 		addi	a4,a4,2047
 514 0008 F98F     		and	a5,a5,a4
 515 000a 5CC5     		sw	a5,12(a0)
 312:./../../firmware/GD32VF103_standard_peripheral/Source/gd32vf103_usart.c ****     USART_CTL0(usart_periph) |= wmethod;
 516              		.loc 1 312 5 is_stmt 1
 517              		.loc 1 312 30 is_stmt 0
 518 000c 5C45     		lw	a5,12(a0)
 519 000e DD8D     		or	a1,a5,a1
 520              	.LVL47:
 521 0010 4CC5     		sw	a1,12(a0)
 313:./../../firmware/GD32VF103_standard_peripheral/Source/gd32vf103_usart.c **** }
 522              		.loc 1 313 1
 523 0012 8280     		ret
 524              		.cfi_endproc
 525              	.LFE16:
 527              		.section	.text.usart_lin_mode_enable,"ax",@progbits
 528              		.align	1
 529              		.globl	usart_lin_mode_enable
 531              	usart_lin_mode_enable:
 532              	.LFB17:
 314:./../../firmware/GD32VF103_standard_peripheral/Source/gd32vf103_usart.c **** 
 315:./../../firmware/GD32VF103_standard_peripheral/Source/gd32vf103_usart.c **** /*!
 316:./../../firmware/GD32VF103_standard_peripheral/Source/gd32vf103_usart.c ****     \brief      enable LIN mode
 317:./../../firmware/GD32VF103_standard_peripheral/Source/gd32vf103_usart.c ****     \param[in]  usart_periph: USARTx(x=0,1,2)/UARTx(x=3,4)
 318:./../../firmware/GD32VF103_standard_peripheral/Source/gd32vf103_usart.c ****     \param[out] none
GAS LISTING C:\Users\Karzan\AppData\Local\Temp\ccuVYx9Z.s 			page 16


 319:./../../firmware/GD32VF103_standard_peripheral/Source/gd32vf103_usart.c ****     \retval     none
 320:./../../firmware/GD32VF103_standard_peripheral/Source/gd32vf103_usart.c **** */
 321:./../../firmware/GD32VF103_standard_peripheral/Source/gd32vf103_usart.c **** void usart_lin_mode_enable(uint32_t usart_periph)
 322:./../../firmware/GD32VF103_standard_peripheral/Source/gd32vf103_usart.c **** {   
 533              		.loc 1 322 1 is_stmt 1
 534              		.cfi_startproc
 535              	.LVL48:
 323:./../../firmware/GD32VF103_standard_peripheral/Source/gd32vf103_usart.c ****     USART_CTL1(usart_periph) |= USART_CTL1_LMEN;
 536              		.loc 1 323 5
 537              		.loc 1 323 30 is_stmt 0
 538 0000 1C49     		lw	a5,16(a0)
 539 0002 1167     		li	a4,16384
 540 0004 D98F     		or	a5,a5,a4
 541 0006 1CC9     		sw	a5,16(a0)
 324:./../../firmware/GD32VF103_standard_peripheral/Source/gd32vf103_usart.c **** }
 542              		.loc 1 324 1
 543 0008 8280     		ret
 544              		.cfi_endproc
 545              	.LFE17:
 547              		.section	.text.usart_lin_mode_disable,"ax",@progbits
 548              		.align	1
 549              		.globl	usart_lin_mode_disable
 551              	usart_lin_mode_disable:
 552              	.LFB18:
 325:./../../firmware/GD32VF103_standard_peripheral/Source/gd32vf103_usart.c **** 
 326:./../../firmware/GD32VF103_standard_peripheral/Source/gd32vf103_usart.c **** /*!
 327:./../../firmware/GD32VF103_standard_peripheral/Source/gd32vf103_usart.c ****     \brief      disable LIN mode
 328:./../../firmware/GD32VF103_standard_peripheral/Source/gd32vf103_usart.c ****     \param[in]  usart_periph: USARTx(x=0,1,2)/UARTx(x=3,4)
 329:./../../firmware/GD32VF103_standard_peripheral/Source/gd32vf103_usart.c ****     \param[out] none
 330:./../../firmware/GD32VF103_standard_peripheral/Source/gd32vf103_usart.c ****     \retval     none
 331:./../../firmware/GD32VF103_standard_peripheral/Source/gd32vf103_usart.c **** */
 332:./../../firmware/GD32VF103_standard_peripheral/Source/gd32vf103_usart.c **** void usart_lin_mode_disable(uint32_t usart_periph)
 333:./../../firmware/GD32VF103_standard_peripheral/Source/gd32vf103_usart.c **** {   
 553              		.loc 1 333 1 is_stmt 1
 554              		.cfi_startproc
 555              	.LVL49:
 334:./../../firmware/GD32VF103_standard_peripheral/Source/gd32vf103_usart.c ****     USART_CTL1(usart_periph) &= ~(USART_CTL1_LMEN);
 556              		.loc 1 334 5
 557              		.loc 1 334 30 is_stmt 0
 558 0000 1C49     		lw	a5,16(a0)
 559 0002 7177     		li	a4,-16384
 560 0004 7D17     		addi	a4,a4,-1
 561 0006 F98F     		and	a5,a5,a4
 562 0008 1CC9     		sw	a5,16(a0)
 335:./../../firmware/GD32VF103_standard_peripheral/Source/gd32vf103_usart.c **** }
 563              		.loc 1 335 1
 564 000a 8280     		ret
 565              		.cfi_endproc
 566              	.LFE18:
 568              		.section	.text.usart_lin_break_detection_length_config,"ax",@progbits
 569              		.align	1
 570              		.globl	usart_lin_break_detection_length_config
 572              	usart_lin_break_detection_length_config:
 573              	.LFB19:
 336:./../../firmware/GD32VF103_standard_peripheral/Source/gd32vf103_usart.c **** 
 337:./../../firmware/GD32VF103_standard_peripheral/Source/gd32vf103_usart.c **** /*!
 338:./../../firmware/GD32VF103_standard_peripheral/Source/gd32vf103_usart.c ****     \brief      configure lin break frame length
GAS LISTING C:\Users\Karzan\AppData\Local\Temp\ccuVYx9Z.s 			page 17


 339:./../../firmware/GD32VF103_standard_peripheral/Source/gd32vf103_usart.c ****     \param[in]  usart_periph: USARTx(x=0,1,2)/UARTx(x=3,4)
 340:./../../firmware/GD32VF103_standard_peripheral/Source/gd32vf103_usart.c ****     \param[in]  lblen: lin break frame length
 341:./../../firmware/GD32VF103_standard_peripheral/Source/gd32vf103_usart.c ****                 only one parameter can be selected which is shown as below:
 342:./../../firmware/GD32VF103_standard_peripheral/Source/gd32vf103_usart.c ****       \arg        USART_LBLEN_10B: 10 bits
 343:./../../firmware/GD32VF103_standard_peripheral/Source/gd32vf103_usart.c ****       \arg        USART_LBLEN_11B: 11 bits
 344:./../../firmware/GD32VF103_standard_peripheral/Source/gd32vf103_usart.c ****     \param[out] none
 345:./../../firmware/GD32VF103_standard_peripheral/Source/gd32vf103_usart.c ****     \retval     none
 346:./../../firmware/GD32VF103_standard_peripheral/Source/gd32vf103_usart.c **** */
 347:./../../firmware/GD32VF103_standard_peripheral/Source/gd32vf103_usart.c **** void usart_lin_break_detection_length_config(uint32_t usart_periph, uint32_t lblen)
 348:./../../firmware/GD32VF103_standard_peripheral/Source/gd32vf103_usart.c **** {
 574              		.loc 1 348 1 is_stmt 1
 575              		.cfi_startproc
 576              	.LVL50:
 349:./../../firmware/GD32VF103_standard_peripheral/Source/gd32vf103_usart.c ****     USART_CTL1(usart_periph) &= ~(USART_CTL1_LBLEN);
 577              		.loc 1 349 5
 578              		.loc 1 349 30 is_stmt 0
 579 0000 1C49     		lw	a5,16(a0)
 350:./../../firmware/GD32VF103_standard_peripheral/Source/gd32vf103_usart.c ****     USART_CTL1(usart_periph) |= (USART_CTL1_LBLEN & lblen);
 580              		.loc 1 350 51
 581 0002 93F50502 		andi	a1,a1,32
 582              	.LVL51:
 349:./../../firmware/GD32VF103_standard_peripheral/Source/gd32vf103_usart.c ****     USART_CTL1(usart_periph) &= ~(USART_CTL1_LBLEN);
 583              		.loc 1 349 30
 584 0006 93F7F7FD 		andi	a5,a5,-33
 585 000a 1CC9     		sw	a5,16(a0)
 586              		.loc 1 350 5 is_stmt 1
 587              		.loc 1 350 30 is_stmt 0
 588 000c 1C49     		lw	a5,16(a0)
 589 000e DD8D     		or	a1,a1,a5
 590 0010 0CC9     		sw	a1,16(a0)
 351:./../../firmware/GD32VF103_standard_peripheral/Source/gd32vf103_usart.c **** }
 591              		.loc 1 351 1
 592 0012 8280     		ret
 593              		.cfi_endproc
 594              	.LFE19:
 596              		.section	.text.usart_send_break,"ax",@progbits
 597              		.align	1
 598              		.globl	usart_send_break
 600              	usart_send_break:
 601              	.LFB20:
 352:./../../firmware/GD32VF103_standard_peripheral/Source/gd32vf103_usart.c **** 
 353:./../../firmware/GD32VF103_standard_peripheral/Source/gd32vf103_usart.c **** /*!
 354:./../../firmware/GD32VF103_standard_peripheral/Source/gd32vf103_usart.c ****     \brief      send break frame
 355:./../../firmware/GD32VF103_standard_peripheral/Source/gd32vf103_usart.c ****     \param[in]  usart_periph: USARTx(x=0,1,2)/UARTx(x=3,4)
 356:./../../firmware/GD32VF103_standard_peripheral/Source/gd32vf103_usart.c ****     \param[out] none
 357:./../../firmware/GD32VF103_standard_peripheral/Source/gd32vf103_usart.c ****     \retval     none
 358:./../../firmware/GD32VF103_standard_peripheral/Source/gd32vf103_usart.c **** */
 359:./../../firmware/GD32VF103_standard_peripheral/Source/gd32vf103_usart.c **** void usart_send_break(uint32_t usart_periph)
 360:./../../firmware/GD32VF103_standard_peripheral/Source/gd32vf103_usart.c **** {
 602              		.loc 1 360 1 is_stmt 1
 603              		.cfi_startproc
 604              	.LVL52:
 361:./../../firmware/GD32VF103_standard_peripheral/Source/gd32vf103_usart.c ****     USART_CTL0(usart_periph) |= USART_CTL0_SBKCMD;
 605              		.loc 1 361 5
 606              		.loc 1 361 30 is_stmt 0
 607 0000 5C45     		lw	a5,12(a0)
 608 0002 93E71700 		ori	a5,a5,1
GAS LISTING C:\Users\Karzan\AppData\Local\Temp\ccuVYx9Z.s 			page 18


 609 0006 5CC5     		sw	a5,12(a0)
 362:./../../firmware/GD32VF103_standard_peripheral/Source/gd32vf103_usart.c **** }
 610              		.loc 1 362 1
 611 0008 8280     		ret
 612              		.cfi_endproc
 613              	.LFE20:
 615              		.section	.text.usart_halfduplex_enable,"ax",@progbits
 616              		.align	1
 617              		.globl	usart_halfduplex_enable
 619              	usart_halfduplex_enable:
 620              	.LFB21:
 363:./../../firmware/GD32VF103_standard_peripheral/Source/gd32vf103_usart.c **** 
 364:./../../firmware/GD32VF103_standard_peripheral/Source/gd32vf103_usart.c **** /*!
 365:./../../firmware/GD32VF103_standard_peripheral/Source/gd32vf103_usart.c ****     \brief      enable half duplex mode
 366:./../../firmware/GD32VF103_standard_peripheral/Source/gd32vf103_usart.c ****     \param[in]  usart_periph: USARTx(x=0,1,2)/UARTx(x=3,4)
 367:./../../firmware/GD32VF103_standard_peripheral/Source/gd32vf103_usart.c ****     \param[out] none
 368:./../../firmware/GD32VF103_standard_peripheral/Source/gd32vf103_usart.c ****     \retval     none
 369:./../../firmware/GD32VF103_standard_peripheral/Source/gd32vf103_usart.c **** */
 370:./../../firmware/GD32VF103_standard_peripheral/Source/gd32vf103_usart.c **** void usart_halfduplex_enable(uint32_t usart_periph)
 371:./../../firmware/GD32VF103_standard_peripheral/Source/gd32vf103_usart.c **** {   
 621              		.loc 1 371 1 is_stmt 1
 622              		.cfi_startproc
 623              	.LVL53:
 372:./../../firmware/GD32VF103_standard_peripheral/Source/gd32vf103_usart.c ****     USART_CTL2(usart_periph) |= USART_CTL2_HDEN;
 624              		.loc 1 372 5
 625              		.loc 1 372 30 is_stmt 0
 626 0000 5C49     		lw	a5,20(a0)
 627 0002 93E78700 		ori	a5,a5,8
 628 0006 5CC9     		sw	a5,20(a0)
 373:./../../firmware/GD32VF103_standard_peripheral/Source/gd32vf103_usart.c **** }
 629              		.loc 1 373 1
 630 0008 8280     		ret
 631              		.cfi_endproc
 632              	.LFE21:
 634              		.section	.text.usart_halfduplex_disable,"ax",@progbits
 635              		.align	1
 636              		.globl	usart_halfduplex_disable
 638              	usart_halfduplex_disable:
 639              	.LFB22:
 374:./../../firmware/GD32VF103_standard_peripheral/Source/gd32vf103_usart.c **** 
 375:./../../firmware/GD32VF103_standard_peripheral/Source/gd32vf103_usart.c **** /*!
 376:./../../firmware/GD32VF103_standard_peripheral/Source/gd32vf103_usart.c ****     \brief      disable half duplex mode
 377:./../../firmware/GD32VF103_standard_peripheral/Source/gd32vf103_usart.c ****     \param[in]  usart_periph: USARTx(x=0,1,2)/UARTx(x=3,4)
 378:./../../firmware/GD32VF103_standard_peripheral/Source/gd32vf103_usart.c ****     \param[out] none
 379:./../../firmware/GD32VF103_standard_peripheral/Source/gd32vf103_usart.c ****     \retval     none
 380:./../../firmware/GD32VF103_standard_peripheral/Source/gd32vf103_usart.c **** */
 381:./../../firmware/GD32VF103_standard_peripheral/Source/gd32vf103_usart.c **** void usart_halfduplex_disable(uint32_t usart_periph)
 382:./../../firmware/GD32VF103_standard_peripheral/Source/gd32vf103_usart.c **** {  
 640              		.loc 1 382 1 is_stmt 1
 641              		.cfi_startproc
 642              	.LVL54:
 383:./../../firmware/GD32VF103_standard_peripheral/Source/gd32vf103_usart.c ****     USART_CTL2(usart_periph) &= ~(USART_CTL2_HDEN);
 643              		.loc 1 383 5
 644              		.loc 1 383 30 is_stmt 0
 645 0000 5C49     		lw	a5,20(a0)
 646 0002 DD9B     		andi	a5,a5,-9
 647 0004 5CC9     		sw	a5,20(a0)
GAS LISTING C:\Users\Karzan\AppData\Local\Temp\ccuVYx9Z.s 			page 19


 384:./../../firmware/GD32VF103_standard_peripheral/Source/gd32vf103_usart.c **** }
 648              		.loc 1 384 1
 649 0006 8280     		ret
 650              		.cfi_endproc
 651              	.LFE22:
 653              		.section	.text.usart_synchronous_clock_enable,"ax",@progbits
 654              		.align	1
 655              		.globl	usart_synchronous_clock_enable
 657              	usart_synchronous_clock_enable:
 658              	.LFB23:
 385:./../../firmware/GD32VF103_standard_peripheral/Source/gd32vf103_usart.c **** 
 386:./../../firmware/GD32VF103_standard_peripheral/Source/gd32vf103_usart.c **** /*!
 387:./../../firmware/GD32VF103_standard_peripheral/Source/gd32vf103_usart.c ****     \brief      enable CK pin in synchronous mode
 388:./../../firmware/GD32VF103_standard_peripheral/Source/gd32vf103_usart.c ****     \param[in]  usart_periph: USARTx(x=0,1,2)
 389:./../../firmware/GD32VF103_standard_peripheral/Source/gd32vf103_usart.c ****     \param[out] none
 390:./../../firmware/GD32VF103_standard_peripheral/Source/gd32vf103_usart.c ****     \retval     none
 391:./../../firmware/GD32VF103_standard_peripheral/Source/gd32vf103_usart.c **** */
 392:./../../firmware/GD32VF103_standard_peripheral/Source/gd32vf103_usart.c **** void usart_synchronous_clock_enable(uint32_t usart_periph)
 393:./../../firmware/GD32VF103_standard_peripheral/Source/gd32vf103_usart.c **** {
 659              		.loc 1 393 1 is_stmt 1
 660              		.cfi_startproc
 661              	.LVL55:
 394:./../../firmware/GD32VF103_standard_peripheral/Source/gd32vf103_usart.c ****     USART_CTL1(usart_periph) |= USART_CTL1_CKEN;
 662              		.loc 1 394 5
 663              		.loc 1 394 30 is_stmt 0
 664 0000 1C49     		lw	a5,16(a0)
 665 0002 0567     		li	a4,4096
 666 0004 13070780 		addi	a4,a4,-2048
 667 0008 D98F     		or	a5,a5,a4
 668 000a 1CC9     		sw	a5,16(a0)
 395:./../../firmware/GD32VF103_standard_peripheral/Source/gd32vf103_usart.c **** }
 669              		.loc 1 395 1
 670 000c 8280     		ret
 671              		.cfi_endproc
 672              	.LFE23:
 674              		.section	.text.usart_synchronous_clock_disable,"ax",@progbits
 675              		.align	1
 676              		.globl	usart_synchronous_clock_disable
 678              	usart_synchronous_clock_disable:
 679              	.LFB24:
 396:./../../firmware/GD32VF103_standard_peripheral/Source/gd32vf103_usart.c **** 
 397:./../../firmware/GD32VF103_standard_peripheral/Source/gd32vf103_usart.c **** /*!
 398:./../../firmware/GD32VF103_standard_peripheral/Source/gd32vf103_usart.c ****     \brief      disable CK pin in synchronous mode
 399:./../../firmware/GD32VF103_standard_peripheral/Source/gd32vf103_usart.c ****     \param[in]  usart_periph: USARTx(x=0,1,2)
 400:./../../firmware/GD32VF103_standard_peripheral/Source/gd32vf103_usart.c ****     \param[out] none
 401:./../../firmware/GD32VF103_standard_peripheral/Source/gd32vf103_usart.c ****     \retval     none
 402:./../../firmware/GD32VF103_standard_peripheral/Source/gd32vf103_usart.c **** */
 403:./../../firmware/GD32VF103_standard_peripheral/Source/gd32vf103_usart.c **** void usart_synchronous_clock_disable(uint32_t usart_periph)
 404:./../../firmware/GD32VF103_standard_peripheral/Source/gd32vf103_usart.c **** {
 680              		.loc 1 404 1 is_stmt 1
 681              		.cfi_startproc
 682              	.LVL56:
 405:./../../firmware/GD32VF103_standard_peripheral/Source/gd32vf103_usart.c ****     USART_CTL1(usart_periph) &= ~(USART_CTL1_CKEN);
 683              		.loc 1 405 5
 684              		.loc 1 405 30 is_stmt 0
 685 0000 1C49     		lw	a5,16(a0)
 686 0002 7D77     		li	a4,-4096
GAS LISTING C:\Users\Karzan\AppData\Local\Temp\ccuVYx9Z.s 			page 20


 687 0004 1307F77F 		addi	a4,a4,2047
 688 0008 F98F     		and	a5,a5,a4
 689 000a 1CC9     		sw	a5,16(a0)
 406:./../../firmware/GD32VF103_standard_peripheral/Source/gd32vf103_usart.c **** }
 690              		.loc 1 406 1
 691 000c 8280     		ret
 692              		.cfi_endproc
 693              	.LFE24:
 695              		.section	.text.usart_synchronous_clock_config,"ax",@progbits
 696              		.align	1
 697              		.globl	usart_synchronous_clock_config
 699              	usart_synchronous_clock_config:
 700              	.LFB25:
 407:./../../firmware/GD32VF103_standard_peripheral/Source/gd32vf103_usart.c **** 
 408:./../../firmware/GD32VF103_standard_peripheral/Source/gd32vf103_usart.c **** /*!
 409:./../../firmware/GD32VF103_standard_peripheral/Source/gd32vf103_usart.c ****     \brief      configure USART synchronous mode parameters
 410:./../../firmware/GD32VF103_standard_peripheral/Source/gd32vf103_usart.c ****     \param[in]  usart_periph: USARTx(x=0,1,2)
 411:./../../firmware/GD32VF103_standard_peripheral/Source/gd32vf103_usart.c ****     \param[in]  clen: CK length
 412:./../../firmware/GD32VF103_standard_peripheral/Source/gd32vf103_usart.c ****                 only one parameter can be selected which is shown as below:
 413:./../../firmware/GD32VF103_standard_peripheral/Source/gd32vf103_usart.c ****       \arg        USART_CLEN_NONE: there are 7 CK pulses for an 8 bit frame and 8 CK pulses for a 9
 414:./../../firmware/GD32VF103_standard_peripheral/Source/gd32vf103_usart.c ****       \arg        USART_CLEN_EN:   there are 8 CK pulses for an 8 bit frame and 9 CK pulses for a 9
 415:./../../firmware/GD32VF103_standard_peripheral/Source/gd32vf103_usart.c ****     \param[in]  cph: clock phase
 416:./../../firmware/GD32VF103_standard_peripheral/Source/gd32vf103_usart.c ****                 only one parameter can be selected which is shown as below:
 417:./../../firmware/GD32VF103_standard_peripheral/Source/gd32vf103_usart.c ****       \arg        USART_CPH_1CK: first clock transition is the first data capture edge 
 418:./../../firmware/GD32VF103_standard_peripheral/Source/gd32vf103_usart.c ****       \arg        USART_CPH_2CK: second clock transition is the first data capture edge
 419:./../../firmware/GD32VF103_standard_peripheral/Source/gd32vf103_usart.c ****     \param[in]  cpl: clock polarity
 420:./../../firmware/GD32VF103_standard_peripheral/Source/gd32vf103_usart.c ****                 only one parameter can be selected which is shown as below:
 421:./../../firmware/GD32VF103_standard_peripheral/Source/gd32vf103_usart.c ****       \arg        USART_CPL_LOW:  steady low value on CK pin 
 422:./../../firmware/GD32VF103_standard_peripheral/Source/gd32vf103_usart.c ****       \arg        USART_CPL_HIGH: steady high value on CK pin
 423:./../../firmware/GD32VF103_standard_peripheral/Source/gd32vf103_usart.c ****     \param[out] none
 424:./../../firmware/GD32VF103_standard_peripheral/Source/gd32vf103_usart.c ****     \retval     none
 425:./../../firmware/GD32VF103_standard_peripheral/Source/gd32vf103_usart.c **** */
 426:./../../firmware/GD32VF103_standard_peripheral/Source/gd32vf103_usart.c **** void usart_synchronous_clock_config(uint32_t usart_periph, uint32_t clen, uint32_t cph, uint32_t cp
 427:./../../firmware/GD32VF103_standard_peripheral/Source/gd32vf103_usart.c **** {
 701              		.loc 1 427 1 is_stmt 1
 702              		.cfi_startproc
 703              	.LVL57:
 428:./../../firmware/GD32VF103_standard_peripheral/Source/gd32vf103_usart.c ****     uint32_t ctl = 0U;
 704              		.loc 1 428 5
 429:./../../firmware/GD32VF103_standard_peripheral/Source/gd32vf103_usart.c ****     
 430:./../../firmware/GD32VF103_standard_peripheral/Source/gd32vf103_usart.c ****     /* read USART_CTL1 register */
 431:./../../firmware/GD32VF103_standard_peripheral/Source/gd32vf103_usart.c ****     ctl = USART_CTL1(usart_periph);
 705              		.loc 1 431 5
 706              		.loc 1 431 9 is_stmt 0
 707 0000 1C49     		lw	a5,16(a0)
 708              	.LVL58:
 432:./../../firmware/GD32VF103_standard_peripheral/Source/gd32vf103_usart.c ****     ctl &= ~(USART_CTL1_CLEN | USART_CTL1_CPH | USART_CTL1_CPL);
 709              		.loc 1 432 5 is_stmt 1
 433:./../../firmware/GD32VF103_standard_peripheral/Source/gd32vf103_usart.c ****     /* set CK length, CK phase, CK polarity */
 434:./../../firmware/GD32VF103_standard_peripheral/Source/gd32vf103_usart.c ****     ctl |= (USART_CTL1_CLEN & clen) | (USART_CTL1_CPH & cph) | (USART_CTL1_CPL & cpl);
 710              		.loc 1 434 55 is_stmt 0
 711 0002 13760620 		andi	a2,a2,512
 712              	.LVL59:
 713              		.loc 1 434 80
 714 0006 93F60640 		andi	a3,a3,1024
 715              	.LVL60:
 716              		.loc 1 434 62
GAS LISTING C:\Users\Karzan\AppData\Local\Temp\ccuVYx9Z.s 			page 21


 717 000a 558E     		or	a2,a2,a3
 718              		.loc 1 434 29
 719 000c 93F50510 		andi	a1,a1,256
 720              	.LVL61:
 432:./../../firmware/GD32VF103_standard_peripheral/Source/gd32vf103_usart.c ****     ctl &= ~(USART_CTL1_CLEN | USART_CTL1_CPH | USART_CTL1_CPL);
 721              		.loc 1 432 9
 722 0010 93F7F78F 		andi	a5,a5,-1793
 723              	.LVL62:
 724              		.loc 1 434 5 is_stmt 1
 725              		.loc 1 434 62 is_stmt 0
 726 0014 4D8E     		or	a2,a2,a1
 727              		.loc 1 434 9
 728 0016 5D8E     		or	a2,a2,a5
 729              	.LVL63:
 435:./../../firmware/GD32VF103_standard_peripheral/Source/gd32vf103_usart.c **** 
 436:./../../firmware/GD32VF103_standard_peripheral/Source/gd32vf103_usart.c ****     USART_CTL1(usart_periph) = ctl;
 730              		.loc 1 436 5 is_stmt 1
 731              		.loc 1 436 30 is_stmt 0
 732 0018 10C9     		sw	a2,16(a0)
 437:./../../firmware/GD32VF103_standard_peripheral/Source/gd32vf103_usart.c **** }
 733              		.loc 1 437 1
 734 001a 8280     		ret
 735              		.cfi_endproc
 736              	.LFE25:
 738              		.section	.text.usart_guard_time_config,"ax",@progbits
 739              		.align	1
 740              		.globl	usart_guard_time_config
 742              	usart_guard_time_config:
 743              	.LFB26:
 438:./../../firmware/GD32VF103_standard_peripheral/Source/gd32vf103_usart.c **** 
 439:./../../firmware/GD32VF103_standard_peripheral/Source/gd32vf103_usart.c **** /*!
 440:./../../firmware/GD32VF103_standard_peripheral/Source/gd32vf103_usart.c ****     \brief      configure guard time value in smartcard mode
 441:./../../firmware/GD32VF103_standard_peripheral/Source/gd32vf103_usart.c ****     \param[in]  usart_periph: USARTx(x=0,1,2)
 442:./../../firmware/GD32VF103_standard_peripheral/Source/gd32vf103_usart.c ****     \param[in]  gaut: guard time value
 443:./../../firmware/GD32VF103_standard_peripheral/Source/gd32vf103_usart.c ****     \param[out] none
 444:./../../firmware/GD32VF103_standard_peripheral/Source/gd32vf103_usart.c ****     \retval     none
 445:./../../firmware/GD32VF103_standard_peripheral/Source/gd32vf103_usart.c **** */
 446:./../../firmware/GD32VF103_standard_peripheral/Source/gd32vf103_usart.c **** void usart_guard_time_config(uint32_t usart_periph,uint32_t gaut)
 447:./../../firmware/GD32VF103_standard_peripheral/Source/gd32vf103_usart.c **** {
 744              		.loc 1 447 1 is_stmt 1
 745              		.cfi_startproc
 746              	.LVL64:
 448:./../../firmware/GD32VF103_standard_peripheral/Source/gd32vf103_usart.c ****     USART_GP(usart_periph) &= ~(USART_GP_GUAT);
 747              		.loc 1 448 5
 748              		.loc 1 448 28 is_stmt 0
 749 0000 1C4D     		lw	a5,24(a0)
 750 0002 4177     		li	a4,-65536
 751 0004 1307F70F 		addi	a4,a4,255
 752 0008 F98F     		and	a5,a5,a4
 753 000a 1CCD     		sw	a5,24(a0)
 449:./../../firmware/GD32VF103_standard_peripheral/Source/gd32vf103_usart.c ****     USART_GP(usart_periph) |= (USART_GP_GUAT & ((gaut)<<8));
 754              		.loc 1 449 5 is_stmt 1
 755              		.loc 1 449 28 is_stmt 0
 756 000c 184D     		lw	a4,24(a0)
 757              		.loc 1 449 46
 758 000e C167     		li	a5,65536
 759              		.loc 1 449 55
GAS LISTING C:\Users\Karzan\AppData\Local\Temp\ccuVYx9Z.s 			page 22


 760 0010 A205     		slli	a1,a1,8
 761              	.LVL65:
 762              		.loc 1 449 46
 763 0012 FD17     		addi	a5,a5,-1
 764 0014 FD8D     		and	a1,a1,a5
 765              		.loc 1 449 28
 766 0016 D98D     		or	a1,a1,a4
 767 0018 0CCD     		sw	a1,24(a0)
 450:./../../firmware/GD32VF103_standard_peripheral/Source/gd32vf103_usart.c **** }
 768              		.loc 1 450 1
 769 001a 8280     		ret
 770              		.cfi_endproc
 771              	.LFE26:
 773              		.section	.text.usart_smartcard_mode_enable,"ax",@progbits
 774              		.align	1
 775              		.globl	usart_smartcard_mode_enable
 777              	usart_smartcard_mode_enable:
 778              	.LFB27:
 451:./../../firmware/GD32VF103_standard_peripheral/Source/gd32vf103_usart.c **** 
 452:./../../firmware/GD32VF103_standard_peripheral/Source/gd32vf103_usart.c **** /*!
 453:./../../firmware/GD32VF103_standard_peripheral/Source/gd32vf103_usart.c ****     \brief      enable smartcard mode
 454:./../../firmware/GD32VF103_standard_peripheral/Source/gd32vf103_usart.c ****     \param[in]  usart_periph: USARTx(x=0,1,2)
 455:./../../firmware/GD32VF103_standard_peripheral/Source/gd32vf103_usart.c ****     \param[out] none
 456:./../../firmware/GD32VF103_standard_peripheral/Source/gd32vf103_usart.c ****     \retval     none
 457:./../../firmware/GD32VF103_standard_peripheral/Source/gd32vf103_usart.c **** */
 458:./../../firmware/GD32VF103_standard_peripheral/Source/gd32vf103_usart.c **** void usart_smartcard_mode_enable(uint32_t usart_periph)
 459:./../../firmware/GD32VF103_standard_peripheral/Source/gd32vf103_usart.c **** {
 779              		.loc 1 459 1 is_stmt 1
 780              		.cfi_startproc
 781              	.LVL66:
 460:./../../firmware/GD32VF103_standard_peripheral/Source/gd32vf103_usart.c ****     USART_CTL2(usart_periph) |= USART_CTL2_SCEN;
 782              		.loc 1 460 5
 783              		.loc 1 460 30 is_stmt 0
 784 0000 5C49     		lw	a5,20(a0)
 785 0002 93E70702 		ori	a5,a5,32
 786 0006 5CC9     		sw	a5,20(a0)
 461:./../../firmware/GD32VF103_standard_peripheral/Source/gd32vf103_usart.c **** }
 787              		.loc 1 461 1
 788 0008 8280     		ret
 789              		.cfi_endproc
 790              	.LFE27:
 792              		.section	.text.usart_smartcard_mode_disable,"ax",@progbits
 793              		.align	1
 794              		.globl	usart_smartcard_mode_disable
 796              	usart_smartcard_mode_disable:
 797              	.LFB28:
 462:./../../firmware/GD32VF103_standard_peripheral/Source/gd32vf103_usart.c **** 
 463:./../../firmware/GD32VF103_standard_peripheral/Source/gd32vf103_usart.c **** /*!
 464:./../../firmware/GD32VF103_standard_peripheral/Source/gd32vf103_usart.c ****     \brief      disable smartcard mode
 465:./../../firmware/GD32VF103_standard_peripheral/Source/gd32vf103_usart.c ****     \param[in]  usart_periph: USARTx(x=0,1,2)
 466:./../../firmware/GD32VF103_standard_peripheral/Source/gd32vf103_usart.c ****     \param[out] none
 467:./../../firmware/GD32VF103_standard_peripheral/Source/gd32vf103_usart.c ****     \retval     none
 468:./../../firmware/GD32VF103_standard_peripheral/Source/gd32vf103_usart.c **** */
 469:./../../firmware/GD32VF103_standard_peripheral/Source/gd32vf103_usart.c **** void usart_smartcard_mode_disable(uint32_t usart_periph)
 470:./../../firmware/GD32VF103_standard_peripheral/Source/gd32vf103_usart.c **** {
 798              		.loc 1 470 1 is_stmt 1
 799              		.cfi_startproc
GAS LISTING C:\Users\Karzan\AppData\Local\Temp\ccuVYx9Z.s 			page 23


 800              	.LVL67:
 471:./../../firmware/GD32VF103_standard_peripheral/Source/gd32vf103_usart.c ****     USART_CTL2(usart_periph) &= ~(USART_CTL2_SCEN);
 801              		.loc 1 471 5
 802              		.loc 1 471 30 is_stmt 0
 803 0000 5C49     		lw	a5,20(a0)
 804 0002 93F7F7FD 		andi	a5,a5,-33
 805 0006 5CC9     		sw	a5,20(a0)
 472:./../../firmware/GD32VF103_standard_peripheral/Source/gd32vf103_usart.c **** }
 806              		.loc 1 472 1
 807 0008 8280     		ret
 808              		.cfi_endproc
 809              	.LFE28:
 811              		.section	.text.usart_smartcard_mode_nack_enable,"ax",@progbits
 812              		.align	1
 813              		.globl	usart_smartcard_mode_nack_enable
 815              	usart_smartcard_mode_nack_enable:
 816              	.LFB29:
 473:./../../firmware/GD32VF103_standard_peripheral/Source/gd32vf103_usart.c **** 
 474:./../../firmware/GD32VF103_standard_peripheral/Source/gd32vf103_usart.c **** /*!
 475:./../../firmware/GD32VF103_standard_peripheral/Source/gd32vf103_usart.c ****     \brief      enable NACK in smartcard mode
 476:./../../firmware/GD32VF103_standard_peripheral/Source/gd32vf103_usart.c ****     \param[in]  usart_periph: USARTx(x=0,1,2)
 477:./../../firmware/GD32VF103_standard_peripheral/Source/gd32vf103_usart.c ****     \param[out] none
 478:./../../firmware/GD32VF103_standard_peripheral/Source/gd32vf103_usart.c ****     \retval     none
 479:./../../firmware/GD32VF103_standard_peripheral/Source/gd32vf103_usart.c **** */
 480:./../../firmware/GD32VF103_standard_peripheral/Source/gd32vf103_usart.c **** void usart_smartcard_mode_nack_enable(uint32_t usart_periph)
 481:./../../firmware/GD32VF103_standard_peripheral/Source/gd32vf103_usart.c **** {
 817              		.loc 1 481 1 is_stmt 1
 818              		.cfi_startproc
 819              	.LVL68:
 482:./../../firmware/GD32VF103_standard_peripheral/Source/gd32vf103_usart.c ****     USART_CTL2(usart_periph) |= USART_CTL2_NKEN;
 820              		.loc 1 482 5
 821              		.loc 1 482 30 is_stmt 0
 822 0000 5C49     		lw	a5,20(a0)
 823 0002 93E70701 		ori	a5,a5,16
 824 0006 5CC9     		sw	a5,20(a0)
 483:./../../firmware/GD32VF103_standard_peripheral/Source/gd32vf103_usart.c **** }
 825              		.loc 1 483 1
 826 0008 8280     		ret
 827              		.cfi_endproc
 828              	.LFE29:
 830              		.section	.text.usart_smartcard_mode_nack_disable,"ax",@progbits
 831              		.align	1
 832              		.globl	usart_smartcard_mode_nack_disable
 834              	usart_smartcard_mode_nack_disable:
 835              	.LFB30:
 484:./../../firmware/GD32VF103_standard_peripheral/Source/gd32vf103_usart.c **** 
 485:./../../firmware/GD32VF103_standard_peripheral/Source/gd32vf103_usart.c **** /*!
 486:./../../firmware/GD32VF103_standard_peripheral/Source/gd32vf103_usart.c ****     \brief      disable NACK in smartcard mode
 487:./../../firmware/GD32VF103_standard_peripheral/Source/gd32vf103_usart.c ****     \param[in]  usart_periph: USARTx(x=0,1,2)
 488:./../../firmware/GD32VF103_standard_peripheral/Source/gd32vf103_usart.c ****     \param[out] none
 489:./../../firmware/GD32VF103_standard_peripheral/Source/gd32vf103_usart.c ****     \retval     none
 490:./../../firmware/GD32VF103_standard_peripheral/Source/gd32vf103_usart.c **** */
 491:./../../firmware/GD32VF103_standard_peripheral/Source/gd32vf103_usart.c **** void usart_smartcard_mode_nack_disable(uint32_t usart_periph)
 492:./../../firmware/GD32VF103_standard_peripheral/Source/gd32vf103_usart.c **** {
 836              		.loc 1 492 1 is_stmt 1
 837              		.cfi_startproc
 838              	.LVL69:
GAS LISTING C:\Users\Karzan\AppData\Local\Temp\ccuVYx9Z.s 			page 24


 493:./../../firmware/GD32VF103_standard_peripheral/Source/gd32vf103_usart.c ****     USART_CTL2(usart_periph) &= ~(USART_CTL2_NKEN);
 839              		.loc 1 493 5
 840              		.loc 1 493 30 is_stmt 0
 841 0000 5C49     		lw	a5,20(a0)
 842 0002 BD9B     		andi	a5,a5,-17
 843 0004 5CC9     		sw	a5,20(a0)
 494:./../../firmware/GD32VF103_standard_peripheral/Source/gd32vf103_usart.c **** }
 844              		.loc 1 494 1
 845 0006 8280     		ret
 846              		.cfi_endproc
 847              	.LFE30:
 849              		.section	.text.usart_irda_mode_enable,"ax",@progbits
 850              		.align	1
 851              		.globl	usart_irda_mode_enable
 853              	usart_irda_mode_enable:
 854              	.LFB31:
 495:./../../firmware/GD32VF103_standard_peripheral/Source/gd32vf103_usart.c **** 
 496:./../../firmware/GD32VF103_standard_peripheral/Source/gd32vf103_usart.c **** /*!
 497:./../../firmware/GD32VF103_standard_peripheral/Source/gd32vf103_usart.c ****     \brief      enable IrDA mode
 498:./../../firmware/GD32VF103_standard_peripheral/Source/gd32vf103_usart.c ****     \param[in]  usart_periph: USARTx(x=0,1,2)/UARTx(x=3,4)
 499:./../../firmware/GD32VF103_standard_peripheral/Source/gd32vf103_usart.c ****     \param[out] none
 500:./../../firmware/GD32VF103_standard_peripheral/Source/gd32vf103_usart.c ****     \retval     none
 501:./../../firmware/GD32VF103_standard_peripheral/Source/gd32vf103_usart.c **** */
 502:./../../firmware/GD32VF103_standard_peripheral/Source/gd32vf103_usart.c **** void usart_irda_mode_enable(uint32_t usart_periph)
 503:./../../firmware/GD32VF103_standard_peripheral/Source/gd32vf103_usart.c **** {
 855              		.loc 1 503 1 is_stmt 1
 856              		.cfi_startproc
 857              	.LVL70:
 504:./../../firmware/GD32VF103_standard_peripheral/Source/gd32vf103_usart.c ****     USART_CTL2(usart_periph) |= USART_CTL2_IREN;
 858              		.loc 1 504 5
 859              		.loc 1 504 30 is_stmt 0
 860 0000 5C49     		lw	a5,20(a0)
 861 0002 93E72700 		ori	a5,a5,2
 862 0006 5CC9     		sw	a5,20(a0)
 505:./../../firmware/GD32VF103_standard_peripheral/Source/gd32vf103_usart.c **** }
 863              		.loc 1 505 1
 864 0008 8280     		ret
 865              		.cfi_endproc
 866              	.LFE31:
 868              		.section	.text.usart_irda_mode_disable,"ax",@progbits
 869              		.align	1
 870              		.globl	usart_irda_mode_disable
 872              	usart_irda_mode_disable:
 873              	.LFB32:
 506:./../../firmware/GD32VF103_standard_peripheral/Source/gd32vf103_usart.c **** 
 507:./../../firmware/GD32VF103_standard_peripheral/Source/gd32vf103_usart.c **** /*!
 508:./../../firmware/GD32VF103_standard_peripheral/Source/gd32vf103_usart.c ****     \brief      disable IrDA mode
 509:./../../firmware/GD32VF103_standard_peripheral/Source/gd32vf103_usart.c ****     \param[in]  usart_periph: USARTx(x=0,1,2)/UARTx(x=3,4)
 510:./../../firmware/GD32VF103_standard_peripheral/Source/gd32vf103_usart.c ****     \param[out] none
 511:./../../firmware/GD32VF103_standard_peripheral/Source/gd32vf103_usart.c ****     \retval     none
 512:./../../firmware/GD32VF103_standard_peripheral/Source/gd32vf103_usart.c **** */
 513:./../../firmware/GD32VF103_standard_peripheral/Source/gd32vf103_usart.c **** void usart_irda_mode_disable(uint32_t usart_periph)
 514:./../../firmware/GD32VF103_standard_peripheral/Source/gd32vf103_usart.c **** {
 874              		.loc 1 514 1 is_stmt 1
 875              		.cfi_startproc
 876              	.LVL71:
 515:./../../firmware/GD32VF103_standard_peripheral/Source/gd32vf103_usart.c ****     USART_CTL2(usart_periph) &= ~(USART_CTL2_IREN);
GAS LISTING C:\Users\Karzan\AppData\Local\Temp\ccuVYx9Z.s 			page 25


 877              		.loc 1 515 5
 878              		.loc 1 515 30 is_stmt 0
 879 0000 5C49     		lw	a5,20(a0)
 880 0002 F59B     		andi	a5,a5,-3
 881 0004 5CC9     		sw	a5,20(a0)
 516:./../../firmware/GD32VF103_standard_peripheral/Source/gd32vf103_usart.c **** }
 882              		.loc 1 516 1
 883 0006 8280     		ret
 884              		.cfi_endproc
 885              	.LFE32:
 887              		.section	.text.usart_prescaler_config,"ax",@progbits
 888              		.align	1
 889              		.globl	usart_prescaler_config
 891              	usart_prescaler_config:
 892              	.LFB33:
 517:./../../firmware/GD32VF103_standard_peripheral/Source/gd32vf103_usart.c **** 
 518:./../../firmware/GD32VF103_standard_peripheral/Source/gd32vf103_usart.c **** /*!
 519:./../../firmware/GD32VF103_standard_peripheral/Source/gd32vf103_usart.c ****     \brief      configure the peripheral clock prescaler in USART IrDA low-power mode
 520:./../../firmware/GD32VF103_standard_peripheral/Source/gd32vf103_usart.c ****     \param[in]  usart_periph: USARTx(x=0,1,2)/UARTx(x=3,4)
 521:./../../firmware/GD32VF103_standard_peripheral/Source/gd32vf103_usart.c ****     \param[in]  psc: 0x00-0xFF
 522:./../../firmware/GD32VF103_standard_peripheral/Source/gd32vf103_usart.c ****     \param[out] none
 523:./../../firmware/GD32VF103_standard_peripheral/Source/gd32vf103_usart.c ****     \retval     none
 524:./../../firmware/GD32VF103_standard_peripheral/Source/gd32vf103_usart.c **** */
 525:./../../firmware/GD32VF103_standard_peripheral/Source/gd32vf103_usart.c **** void usart_prescaler_config(uint32_t usart_periph, uint8_t psc)
 526:./../../firmware/GD32VF103_standard_peripheral/Source/gd32vf103_usart.c **** {
 893              		.loc 1 526 1 is_stmt 1
 894              		.cfi_startproc
 895              	.LVL72:
 527:./../../firmware/GD32VF103_standard_peripheral/Source/gd32vf103_usart.c ****     USART_GP(usart_periph) &= ~(USART_GP_PSC);
 896              		.loc 1 527 5
 897              		.loc 1 527 28 is_stmt 0
 898 0000 1C4D     		lw	a5,24(a0)
 899 0002 93F707F0 		andi	a5,a5,-256
 900 0006 1CCD     		sw	a5,24(a0)
 528:./../../firmware/GD32VF103_standard_peripheral/Source/gd32vf103_usart.c ****     USART_GP(usart_periph) |= psc;
 901              		.loc 1 528 5 is_stmt 1
 902              		.loc 1 528 28 is_stmt 0
 903 0008 1C4D     		lw	a5,24(a0)
 904 000a DD8D     		or	a1,a1,a5
 905              	.LVL73:
 906 000c 0CCD     		sw	a1,24(a0)
 529:./../../firmware/GD32VF103_standard_peripheral/Source/gd32vf103_usart.c **** }
 907              		.loc 1 529 1
 908 000e 8280     		ret
 909              		.cfi_endproc
 910              	.LFE33:
 912              		.section	.text.usart_irda_lowpower_config,"ax",@progbits
 913              		.align	1
 914              		.globl	usart_irda_lowpower_config
 916              	usart_irda_lowpower_config:
 917              	.LFB34:
 530:./../../firmware/GD32VF103_standard_peripheral/Source/gd32vf103_usart.c **** 
 531:./../../firmware/GD32VF103_standard_peripheral/Source/gd32vf103_usart.c **** /*!
 532:./../../firmware/GD32VF103_standard_peripheral/Source/gd32vf103_usart.c ****     \brief      configure IrDA low-power
 533:./../../firmware/GD32VF103_standard_peripheral/Source/gd32vf103_usart.c ****     \param[in]  usart_periph: USARTx(x=0,1,2)/UARTx(x=3,4)
 534:./../../firmware/GD32VF103_standard_peripheral/Source/gd32vf103_usart.c ****     \param[in]  irlp: IrDA low-power or normal
 535:./../../firmware/GD32VF103_standard_peripheral/Source/gd32vf103_usart.c ****                 only one parameter can be selected which is shown as below:
GAS LISTING C:\Users\Karzan\AppData\Local\Temp\ccuVYx9Z.s 			page 26


 536:./../../firmware/GD32VF103_standard_peripheral/Source/gd32vf103_usart.c ****       \arg        USART_IRLP_LOW: low-power
 537:./../../firmware/GD32VF103_standard_peripheral/Source/gd32vf103_usart.c ****       \arg        USART_IRLP_NORMAL: normal
 538:./../../firmware/GD32VF103_standard_peripheral/Source/gd32vf103_usart.c ****     \param[out] none
 539:./../../firmware/GD32VF103_standard_peripheral/Source/gd32vf103_usart.c ****     \retval     none
 540:./../../firmware/GD32VF103_standard_peripheral/Source/gd32vf103_usart.c **** */
 541:./../../firmware/GD32VF103_standard_peripheral/Source/gd32vf103_usart.c **** void usart_irda_lowpower_config(uint32_t usart_periph, uint32_t irlp)
 542:./../../firmware/GD32VF103_standard_peripheral/Source/gd32vf103_usart.c **** {
 918              		.loc 1 542 1 is_stmt 1
 919              		.cfi_startproc
 920              	.LVL74:
 543:./../../firmware/GD32VF103_standard_peripheral/Source/gd32vf103_usart.c ****     USART_CTL2(usart_periph) &= ~(USART_CTL2_IRLP);
 921              		.loc 1 543 5
 922              		.loc 1 543 30 is_stmt 0
 923 0000 5C49     		lw	a5,20(a0)
 544:./../../firmware/GD32VF103_standard_peripheral/Source/gd32vf103_usart.c ****     USART_CTL2(usart_periph) |= (USART_CTL2_IRLP & irlp);
 924              		.loc 1 544 50
 925 0002 9189     		andi	a1,a1,4
 926              	.LVL75:
 543:./../../firmware/GD32VF103_standard_peripheral/Source/gd32vf103_usart.c ****     USART_CTL2(usart_periph) &= ~(USART_CTL2_IRLP);
 927              		.loc 1 543 30
 928 0004 ED9B     		andi	a5,a5,-5
 929 0006 5CC9     		sw	a5,20(a0)
 930              		.loc 1 544 5 is_stmt 1
 931              		.loc 1 544 30 is_stmt 0
 932 0008 5C49     		lw	a5,20(a0)
 933 000a DD8D     		or	a1,a1,a5
 934 000c 4CC9     		sw	a1,20(a0)
 545:./../../firmware/GD32VF103_standard_peripheral/Source/gd32vf103_usart.c **** }
 935              		.loc 1 545 1
 936 000e 8280     		ret
 937              		.cfi_endproc
 938              	.LFE34:
 940              		.section	.text.usart_hardware_flow_rts_config,"ax",@progbits
 941              		.align	1
 942              		.globl	usart_hardware_flow_rts_config
 944              	usart_hardware_flow_rts_config:
 945              	.LFB35:
 546:./../../firmware/GD32VF103_standard_peripheral/Source/gd32vf103_usart.c **** 
 547:./../../firmware/GD32VF103_standard_peripheral/Source/gd32vf103_usart.c **** /*!
 548:./../../firmware/GD32VF103_standard_peripheral/Source/gd32vf103_usart.c ****     \brief      configure hardware flow control RTS
 549:./../../firmware/GD32VF103_standard_peripheral/Source/gd32vf103_usart.c ****     \param[in]  usart_periph: USARTx(x=0,1,2)
 550:./../../firmware/GD32VF103_standard_peripheral/Source/gd32vf103_usart.c ****     \param[in]  rtsconfig: enable or disable RTS
 551:./../../firmware/GD32VF103_standard_peripheral/Source/gd32vf103_usart.c ****                 only one parameter can be selected which is shown as below:
 552:./../../firmware/GD32VF103_standard_peripheral/Source/gd32vf103_usart.c ****       \arg        USART_RTS_ENABLE:  enable RTS
 553:./../../firmware/GD32VF103_standard_peripheral/Source/gd32vf103_usart.c ****       \arg        USART_RTS_DISABLE: disable RTS
 554:./../../firmware/GD32VF103_standard_peripheral/Source/gd32vf103_usart.c ****     \param[out] none
 555:./../../firmware/GD32VF103_standard_peripheral/Source/gd32vf103_usart.c ****     \retval     none
 556:./../../firmware/GD32VF103_standard_peripheral/Source/gd32vf103_usart.c **** */
 557:./../../firmware/GD32VF103_standard_peripheral/Source/gd32vf103_usart.c **** void usart_hardware_flow_rts_config(uint32_t usart_periph, uint32_t rtsconfig)
 558:./../../firmware/GD32VF103_standard_peripheral/Source/gd32vf103_usart.c **** {
 946              		.loc 1 558 1 is_stmt 1
 947              		.cfi_startproc
 948              	.LVL76:
 559:./../../firmware/GD32VF103_standard_peripheral/Source/gd32vf103_usart.c ****     uint32_t ctl = 0U;
 949              		.loc 1 559 5
 560:./../../firmware/GD32VF103_standard_peripheral/Source/gd32vf103_usart.c ****     
 561:./../../firmware/GD32VF103_standard_peripheral/Source/gd32vf103_usart.c ****     ctl = USART_CTL2(usart_periph);
GAS LISTING C:\Users\Karzan\AppData\Local\Temp\ccuVYx9Z.s 			page 27


 950              		.loc 1 561 5
 951              		.loc 1 561 9 is_stmt 0
 952 0000 5C49     		lw	a5,20(a0)
 953              	.LVL77:
 562:./../../firmware/GD32VF103_standard_peripheral/Source/gd32vf103_usart.c ****     ctl &= ~USART_CTL2_RTSEN;
 954              		.loc 1 562 5 is_stmt 1
 955              		.loc 1 562 9 is_stmt 0
 956 0002 93F7F7EF 		andi	a5,a5,-257
 957              	.LVL78:
 563:./../../firmware/GD32VF103_standard_peripheral/Source/gd32vf103_usart.c ****     ctl |= rtsconfig;
 958              		.loc 1 563 5 is_stmt 1
 959              		.loc 1 563 9 is_stmt 0
 960 0006 DD8D     		or	a1,a5,a1
 961              	.LVL79:
 564:./../../firmware/GD32VF103_standard_peripheral/Source/gd32vf103_usart.c ****     /* configure RTS */
 565:./../../firmware/GD32VF103_standard_peripheral/Source/gd32vf103_usart.c ****     USART_CTL2(usart_periph) = ctl;
 962              		.loc 1 565 5 is_stmt 1
 963              		.loc 1 565 30 is_stmt 0
 964 0008 4CC9     		sw	a1,20(a0)
 566:./../../firmware/GD32VF103_standard_peripheral/Source/gd32vf103_usart.c **** }
 965              		.loc 1 566 1
 966 000a 8280     		ret
 967              		.cfi_endproc
 968              	.LFE35:
 970              		.section	.text.usart_hardware_flow_cts_config,"ax",@progbits
 971              		.align	1
 972              		.globl	usart_hardware_flow_cts_config
 974              	usart_hardware_flow_cts_config:
 975              	.LFB36:
 567:./../../firmware/GD32VF103_standard_peripheral/Source/gd32vf103_usart.c **** 
 568:./../../firmware/GD32VF103_standard_peripheral/Source/gd32vf103_usart.c **** /*!
 569:./../../firmware/GD32VF103_standard_peripheral/Source/gd32vf103_usart.c ****     \brief      configure hardware flow control CTS
 570:./../../firmware/GD32VF103_standard_peripheral/Source/gd32vf103_usart.c ****     \param[in]  usart_periph: USARTx(x=0,1,2)
 571:./../../firmware/GD32VF103_standard_peripheral/Source/gd32vf103_usart.c ****     \param[in]  ctsconfig: enable or disable CTS
 572:./../../firmware/GD32VF103_standard_peripheral/Source/gd32vf103_usart.c ****                 only one parameter can be selected which is shown as below:
 573:./../../firmware/GD32VF103_standard_peripheral/Source/gd32vf103_usart.c ****       \arg        USART_CTS_ENABLE:  enable CTS
 574:./../../firmware/GD32VF103_standard_peripheral/Source/gd32vf103_usart.c ****       \arg        USART_CTS_DISABLE: disable CTS
 575:./../../firmware/GD32VF103_standard_peripheral/Source/gd32vf103_usart.c ****     \param[out] none
 576:./../../firmware/GD32VF103_standard_peripheral/Source/gd32vf103_usart.c ****     \retval     none
 577:./../../firmware/GD32VF103_standard_peripheral/Source/gd32vf103_usart.c **** */
 578:./../../firmware/GD32VF103_standard_peripheral/Source/gd32vf103_usart.c **** void usart_hardware_flow_cts_config(uint32_t usart_periph, uint32_t ctsconfig)
 579:./../../firmware/GD32VF103_standard_peripheral/Source/gd32vf103_usart.c **** {
 976              		.loc 1 579 1 is_stmt 1
 977              		.cfi_startproc
 978              	.LVL80:
 580:./../../firmware/GD32VF103_standard_peripheral/Source/gd32vf103_usart.c ****     uint32_t ctl = 0U;
 979              		.loc 1 580 5
 581:./../../firmware/GD32VF103_standard_peripheral/Source/gd32vf103_usart.c ****     
 582:./../../firmware/GD32VF103_standard_peripheral/Source/gd32vf103_usart.c ****     ctl = USART_CTL2(usart_periph);
 980              		.loc 1 582 5
 981              		.loc 1 582 9 is_stmt 0
 982 0000 5C49     		lw	a5,20(a0)
 983              	.LVL81:
 583:./../../firmware/GD32VF103_standard_peripheral/Source/gd32vf103_usart.c ****     ctl &= ~USART_CTL2_CTSEN;
 984              		.loc 1 583 5 is_stmt 1
 985              		.loc 1 583 9 is_stmt 0
 986 0002 93F7F7DF 		andi	a5,a5,-513
GAS LISTING C:\Users\Karzan\AppData\Local\Temp\ccuVYx9Z.s 			page 28


 987              	.LVL82:
 584:./../../firmware/GD32VF103_standard_peripheral/Source/gd32vf103_usart.c ****     ctl |= ctsconfig;
 988              		.loc 1 584 5 is_stmt 1
 989              		.loc 1 584 9 is_stmt 0
 990 0006 DD8D     		or	a1,a5,a1
 991              	.LVL83:
 585:./../../firmware/GD32VF103_standard_peripheral/Source/gd32vf103_usart.c ****     /* configure CTS */
 586:./../../firmware/GD32VF103_standard_peripheral/Source/gd32vf103_usart.c ****     USART_CTL2(usart_periph) = ctl;
 992              		.loc 1 586 5 is_stmt 1
 993              		.loc 1 586 30 is_stmt 0
 994 0008 4CC9     		sw	a1,20(a0)
 587:./../../firmware/GD32VF103_standard_peripheral/Source/gd32vf103_usart.c **** }
 995              		.loc 1 587 1
 996 000a 8280     		ret
 997              		.cfi_endproc
 998              	.LFE36:
 1000              		.section	.text.usart_dma_receive_config,"ax",@progbits
 1001              		.align	1
 1002              		.globl	usart_dma_receive_config
 1004              	usart_dma_receive_config:
 1005              	.LFB37:
 588:./../../firmware/GD32VF103_standard_peripheral/Source/gd32vf103_usart.c **** 
 589:./../../firmware/GD32VF103_standard_peripheral/Source/gd32vf103_usart.c **** /*!
 590:./../../firmware/GD32VF103_standard_peripheral/Source/gd32vf103_usart.c ****     \brief      configure USART DMA reception
 591:./../../firmware/GD32VF103_standard_peripheral/Source/gd32vf103_usart.c ****     \param[in]  usart_periph: USARTx(x=0,1,2)/UARTx(x=3)
 592:./../../firmware/GD32VF103_standard_peripheral/Source/gd32vf103_usart.c ****     \param[in]  dmacmd: enable or disable DMA for reception
 593:./../../firmware/GD32VF103_standard_peripheral/Source/gd32vf103_usart.c ****                 only one parameter can be selected which is shown as below:
 594:./../../firmware/GD32VF103_standard_peripheral/Source/gd32vf103_usart.c ****       \arg        USART_DENR_ENABLE:  DMA enable for reception
 595:./../../firmware/GD32VF103_standard_peripheral/Source/gd32vf103_usart.c ****       \arg        USART_DENR_DISABLE: DMA disable for reception
 596:./../../firmware/GD32VF103_standard_peripheral/Source/gd32vf103_usart.c ****     \param[out] none
 597:./../../firmware/GD32VF103_standard_peripheral/Source/gd32vf103_usart.c ****     \retval     none
 598:./../../firmware/GD32VF103_standard_peripheral/Source/gd32vf103_usart.c **** */
 599:./../../firmware/GD32VF103_standard_peripheral/Source/gd32vf103_usart.c **** void usart_dma_receive_config(uint32_t usart_periph, uint32_t dmacmd)
 600:./../../firmware/GD32VF103_standard_peripheral/Source/gd32vf103_usart.c **** {
 1006              		.loc 1 600 1 is_stmt 1
 1007              		.cfi_startproc
 1008              	.LVL84:
 601:./../../firmware/GD32VF103_standard_peripheral/Source/gd32vf103_usart.c ****     uint32_t ctl = 0U;
 1009              		.loc 1 601 5
 602:./../../firmware/GD32VF103_standard_peripheral/Source/gd32vf103_usart.c ****     
 603:./../../firmware/GD32VF103_standard_peripheral/Source/gd32vf103_usart.c ****     ctl = USART_CTL2(usart_periph);
 1010              		.loc 1 603 5
 1011              		.loc 1 603 9 is_stmt 0
 1012 0000 5C49     		lw	a5,20(a0)
 1013              	.LVL85:
 604:./../../firmware/GD32VF103_standard_peripheral/Source/gd32vf103_usart.c ****     ctl &= ~USART_CTL2_DENR;
 1014              		.loc 1 604 5 is_stmt 1
 1015              		.loc 1 604 9 is_stmt 0
 1016 0002 93F7F7FB 		andi	a5,a5,-65
 1017              	.LVL86:
 605:./../../firmware/GD32VF103_standard_peripheral/Source/gd32vf103_usart.c ****     ctl |= dmacmd;
 1018              		.loc 1 605 5 is_stmt 1
 1019              		.loc 1 605 9 is_stmt 0
 1020 0006 DD8D     		or	a1,a5,a1
 1021              	.LVL87:
 606:./../../firmware/GD32VF103_standard_peripheral/Source/gd32vf103_usart.c ****     /* configure DMA reception */
 607:./../../firmware/GD32VF103_standard_peripheral/Source/gd32vf103_usart.c ****     USART_CTL2(usart_periph) = ctl;
GAS LISTING C:\Users\Karzan\AppData\Local\Temp\ccuVYx9Z.s 			page 29


 1022              		.loc 1 607 5 is_stmt 1
 1023              		.loc 1 607 30 is_stmt 0
 1024 0008 4CC9     		sw	a1,20(a0)
 608:./../../firmware/GD32VF103_standard_peripheral/Source/gd32vf103_usart.c **** }
 1025              		.loc 1 608 1
 1026 000a 8280     		ret
 1027              		.cfi_endproc
 1028              	.LFE37:
 1030              		.section	.text.usart_dma_transmit_config,"ax",@progbits
 1031              		.align	1
 1032              		.globl	usart_dma_transmit_config
 1034              	usart_dma_transmit_config:
 1035              	.LFB38:
 609:./../../firmware/GD32VF103_standard_peripheral/Source/gd32vf103_usart.c **** 
 610:./../../firmware/GD32VF103_standard_peripheral/Source/gd32vf103_usart.c **** /*!
 611:./../../firmware/GD32VF103_standard_peripheral/Source/gd32vf103_usart.c ****     \brief      configure USART DMA transmission
 612:./../../firmware/GD32VF103_standard_peripheral/Source/gd32vf103_usart.c ****     \param[in]  usart_periph: USARTx(x=0,1,2)/UARTx(x=3)
 613:./../../firmware/GD32VF103_standard_peripheral/Source/gd32vf103_usart.c ****     \param[in]  dmacmd: enable or disable DMA for transmission
 614:./../../firmware/GD32VF103_standard_peripheral/Source/gd32vf103_usart.c ****                 only one parameter can be selected which is shown as below:
 615:./../../firmware/GD32VF103_standard_peripheral/Source/gd32vf103_usart.c ****       \arg        USART_DENT_ENABLE:  DMA enable for transmission
 616:./../../firmware/GD32VF103_standard_peripheral/Source/gd32vf103_usart.c ****       \arg        USART_DENT_DISABLE: DMA disable for transmission
 617:./../../firmware/GD32VF103_standard_peripheral/Source/gd32vf103_usart.c ****     \param[out] none
 618:./../../firmware/GD32VF103_standard_peripheral/Source/gd32vf103_usart.c ****     \retval     none
 619:./../../firmware/GD32VF103_standard_peripheral/Source/gd32vf103_usart.c **** */
 620:./../../firmware/GD32VF103_standard_peripheral/Source/gd32vf103_usart.c **** void usart_dma_transmit_config(uint32_t usart_periph, uint32_t dmacmd)
 621:./../../firmware/GD32VF103_standard_peripheral/Source/gd32vf103_usart.c **** {
 1036              		.loc 1 621 1 is_stmt 1
 1037              		.cfi_startproc
 1038              	.LVL88:
 622:./../../firmware/GD32VF103_standard_peripheral/Source/gd32vf103_usart.c ****     uint32_t ctl = 0U;
 1039              		.loc 1 622 5
 623:./../../firmware/GD32VF103_standard_peripheral/Source/gd32vf103_usart.c ****     
 624:./../../firmware/GD32VF103_standard_peripheral/Source/gd32vf103_usart.c ****     ctl = USART_CTL2(usart_periph);
 1040              		.loc 1 624 5
 1041              		.loc 1 624 9 is_stmt 0
 1042 0000 5C49     		lw	a5,20(a0)
 1043              	.LVL89:
 625:./../../firmware/GD32VF103_standard_peripheral/Source/gd32vf103_usart.c ****     ctl &= ~USART_CTL2_DENT;
 1044              		.loc 1 625 5 is_stmt 1
 1045              		.loc 1 625 9 is_stmt 0
 1046 0002 93F7F7F7 		andi	a5,a5,-129
 1047              	.LVL90:
 626:./../../firmware/GD32VF103_standard_peripheral/Source/gd32vf103_usart.c ****     ctl |= dmacmd;
 1048              		.loc 1 626 5 is_stmt 1
 1049              		.loc 1 626 9 is_stmt 0
 1050 0006 DD8D     		or	a1,a5,a1
 1051              	.LVL91:
 627:./../../firmware/GD32VF103_standard_peripheral/Source/gd32vf103_usart.c ****     /* configure DMA transmission */
 628:./../../firmware/GD32VF103_standard_peripheral/Source/gd32vf103_usart.c ****     USART_CTL2(usart_periph) = ctl;
 1052              		.loc 1 628 5 is_stmt 1
 1053              		.loc 1 628 30 is_stmt 0
 1054 0008 4CC9     		sw	a1,20(a0)
 629:./../../firmware/GD32VF103_standard_peripheral/Source/gd32vf103_usart.c **** }
 1055              		.loc 1 629 1
 1056 000a 8280     		ret
 1057              		.cfi_endproc
 1058              	.LFE38:
GAS LISTING C:\Users\Karzan\AppData\Local\Temp\ccuVYx9Z.s 			page 30


 1060              		.section	.text.usart_flag_get,"ax",@progbits
 1061              		.align	1
 1062              		.globl	usart_flag_get
 1064              	usart_flag_get:
 1065              	.LFB39:
 630:./../../firmware/GD32VF103_standard_peripheral/Source/gd32vf103_usart.c **** 
 631:./../../firmware/GD32VF103_standard_peripheral/Source/gd32vf103_usart.c **** /*!
 632:./../../firmware/GD32VF103_standard_peripheral/Source/gd32vf103_usart.c ****     \brief      get flag in STAT register
 633:./../../firmware/GD32VF103_standard_peripheral/Source/gd32vf103_usart.c ****     \param[in]  usart_periph: USARTx(x=0,1,2)/UARTx(x=3,4)
 634:./../../firmware/GD32VF103_standard_peripheral/Source/gd32vf103_usart.c ****     \param[in]  flag: USART flags, refer to usart_flag_enum
 635:./../../firmware/GD32VF103_standard_peripheral/Source/gd32vf103_usart.c ****                 only one parameter can be selected which is shown as below:
 636:./../../firmware/GD32VF103_standard_peripheral/Source/gd32vf103_usart.c ****       \arg        USART_FLAG_CTS: CTS change flag
 637:./../../firmware/GD32VF103_standard_peripheral/Source/gd32vf103_usart.c ****       \arg        USART_FLAG_LBD: LIN break detected flag 
 638:./../../firmware/GD32VF103_standard_peripheral/Source/gd32vf103_usart.c ****       \arg        USART_FLAG_TBE: transmit data buffer empty 
 639:./../../firmware/GD32VF103_standard_peripheral/Source/gd32vf103_usart.c ****       \arg        USART_FLAG_TC: transmission complete 
 640:./../../firmware/GD32VF103_standard_peripheral/Source/gd32vf103_usart.c ****       \arg        USART_FLAG_RBNE: read data buffer not empty 
 641:./../../firmware/GD32VF103_standard_peripheral/Source/gd32vf103_usart.c ****       \arg        USART_FLAG_IDLE: IDLE frame detected flag 
 642:./../../firmware/GD32VF103_standard_peripheral/Source/gd32vf103_usart.c ****       \arg        USART_FLAG_ORERR: overrun error 
 643:./../../firmware/GD32VF103_standard_peripheral/Source/gd32vf103_usart.c ****       \arg        USART_FLAG_NERR: noise error flag 
 644:./../../firmware/GD32VF103_standard_peripheral/Source/gd32vf103_usart.c ****       \arg        USART_FLAG_FERR: frame error flag 
 645:./../../firmware/GD32VF103_standard_peripheral/Source/gd32vf103_usart.c ****       \arg        USART_FLAG_PERR: parity error flag 
 646:./../../firmware/GD32VF103_standard_peripheral/Source/gd32vf103_usart.c ****     \param[out] none
 647:./../../firmware/GD32VF103_standard_peripheral/Source/gd32vf103_usart.c ****     \retval     FlagStatus: SET or RESET
 648:./../../firmware/GD32VF103_standard_peripheral/Source/gd32vf103_usart.c **** */
 649:./../../firmware/GD32VF103_standard_peripheral/Source/gd32vf103_usart.c **** FlagStatus usart_flag_get(uint32_t usart_periph, usart_flag_enum flag)
 650:./../../firmware/GD32VF103_standard_peripheral/Source/gd32vf103_usart.c **** {
 1066              		.loc 1 650 1 is_stmt 1
 1067              		.cfi_startproc
 1068              	.LVL92:
 651:./../../firmware/GD32VF103_standard_peripheral/Source/gd32vf103_usart.c ****     if(RESET != (USART_REG_VAL(usart_periph, flag) & BIT(USART_BIT_POS(flag)))){
 1069              		.loc 1 651 5
 1070              		.loc 1 651 18 is_stmt 0
 1071 0000 93D76500 		srli	a5,a1,6
 1072 0004 93F7F73F 		andi	a5,a5,1023
 1073 0008 3E95     		add	a0,a5,a0
 1074              	.LVL93:
 1075 000a 0841     		lw	a0,0(a0)
 1076              		.loc 1 651 14
 1077 000c 3355B500 		srl	a0,a0,a1
 652:./../../firmware/GD32VF103_standard_peripheral/Source/gd32vf103_usart.c ****         return SET;
 653:./../../firmware/GD32VF103_standard_peripheral/Source/gd32vf103_usart.c ****     }else{
 654:./../../firmware/GD32VF103_standard_peripheral/Source/gd32vf103_usart.c ****         return RESET;
 655:./../../firmware/GD32VF103_standard_peripheral/Source/gd32vf103_usart.c ****     }
 656:./../../firmware/GD32VF103_standard_peripheral/Source/gd32vf103_usart.c **** }
 1078              		.loc 1 656 1
 1079 0010 0589     		andi	a0,a0,1
 1080 0012 8280     		ret
 1081              		.cfi_endproc
 1082              	.LFE39:
 1084              		.section	.text.usart_flag_clear,"ax",@progbits
 1085              		.align	1
 1086              		.globl	usart_flag_clear
 1088              	usart_flag_clear:
 1089              	.LFB40:
 657:./../../firmware/GD32VF103_standard_peripheral/Source/gd32vf103_usart.c **** 
 658:./../../firmware/GD32VF103_standard_peripheral/Source/gd32vf103_usart.c **** /*!
 659:./../../firmware/GD32VF103_standard_peripheral/Source/gd32vf103_usart.c ****     \brief      clear flag in STAT register
GAS LISTING C:\Users\Karzan\AppData\Local\Temp\ccuVYx9Z.s 			page 31


 660:./../../firmware/GD32VF103_standard_peripheral/Source/gd32vf103_usart.c ****     \param[in]  usart_periph: USARTx(x=0,1,2)/UARTx(x=3,4)
 661:./../../firmware/GD32VF103_standard_peripheral/Source/gd32vf103_usart.c ****     \param[in]  flag: USART flags, refer to usart_flag_enum
 662:./../../firmware/GD32VF103_standard_peripheral/Source/gd32vf103_usart.c ****                 only one parameter can be selected which is shown as below:
 663:./../../firmware/GD32VF103_standard_peripheral/Source/gd32vf103_usart.c ****       \arg        USART_FLAG_CTS: CTS change flag
 664:./../../firmware/GD32VF103_standard_peripheral/Source/gd32vf103_usart.c ****       \arg        USART_FLAG_LBD: LIN break detected flag
 665:./../../firmware/GD32VF103_standard_peripheral/Source/gd32vf103_usart.c ****       \arg        USART_FLAG_TC: transmission complete
 666:./../../firmware/GD32VF103_standard_peripheral/Source/gd32vf103_usart.c ****       \arg        USART_FLAG_RBNE: read data buffer not empty
 667:./../../firmware/GD32VF103_standard_peripheral/Source/gd32vf103_usart.c ****     \param[out] none
 668:./../../firmware/GD32VF103_standard_peripheral/Source/gd32vf103_usart.c ****     \retval     none
 669:./../../firmware/GD32VF103_standard_peripheral/Source/gd32vf103_usart.c **** */
 670:./../../firmware/GD32VF103_standard_peripheral/Source/gd32vf103_usart.c **** void usart_flag_clear(uint32_t usart_periph, usart_flag_enum flag)
 671:./../../firmware/GD32VF103_standard_peripheral/Source/gd32vf103_usart.c **** {
 1090              		.loc 1 671 1 is_stmt 1
 1091              		.cfi_startproc
 1092              	.LVL94:
 672:./../../firmware/GD32VF103_standard_peripheral/Source/gd32vf103_usart.c ****     USART_REG_VAL(usart_periph, flag) &= ~BIT(USART_BIT_POS(flag));
 1093              		.loc 1 672 5
 1094              		.loc 1 672 39 is_stmt 0
 1095 0000 13D76500 		srli	a4,a1,6
 1096 0004 1377F73F 		andi	a4,a4,1023
 1097 0008 3A95     		add	a0,a4,a0
 1098              	.LVL95:
 1099 000a 1841     		lw	a4,0(a0)
 1100              		.loc 1 672 43
 1101 000c 8547     		li	a5,1
 1102 000e B397B700 		sll	a5,a5,a1
 1103              		.loc 1 672 42
 1104 0012 93C7F7FF 		not	a5,a5
 1105              		.loc 1 672 39
 1106 0016 F98F     		and	a5,a5,a4
 1107 0018 1CC1     		sw	a5,0(a0)
 673:./../../firmware/GD32VF103_standard_peripheral/Source/gd32vf103_usart.c **** }
 1108              		.loc 1 673 1
 1109 001a 8280     		ret
 1110              		.cfi_endproc
 1111              	.LFE40:
 1113              		.section	.text.usart_interrupt_enable,"ax",@progbits
 1114              		.align	1
 1115              		.globl	usart_interrupt_enable
 1117              	usart_interrupt_enable:
 1118              	.LFB41:
 674:./../../firmware/GD32VF103_standard_peripheral/Source/gd32vf103_usart.c **** 
 675:./../../firmware/GD32VF103_standard_peripheral/Source/gd32vf103_usart.c **** /*!
 676:./../../firmware/GD32VF103_standard_peripheral/Source/gd32vf103_usart.c ****     \brief      enable USART interrupt
 677:./../../firmware/GD32VF103_standard_peripheral/Source/gd32vf103_usart.c ****      \param[in]  usart_periph: USARTx(x=0,1,2)/UARTx(x=3,4)
 678:./../../firmware/GD32VF103_standard_peripheral/Source/gd32vf103_usart.c ****     \param[in]  interrupt
 679:./../../firmware/GD32VF103_standard_peripheral/Source/gd32vf103_usart.c ****                 only one parameter can be selected which is shown as below:
 680:./../../firmware/GD32VF103_standard_peripheral/Source/gd32vf103_usart.c ****       \arg        USART_INT_PERR: parity error interrupt
 681:./../../firmware/GD32VF103_standard_peripheral/Source/gd32vf103_usart.c ****       \arg        USART_INT_TBE: transmitter buffer empty interrupt
 682:./../../firmware/GD32VF103_standard_peripheral/Source/gd32vf103_usart.c ****       \arg        USART_INT_TC: transmission complete interrupt
 683:./../../firmware/GD32VF103_standard_peripheral/Source/gd32vf103_usart.c ****       \arg        USART_INT_RBNE: read data buffer not empty interrupt and overrun error interrupt
 684:./../../firmware/GD32VF103_standard_peripheral/Source/gd32vf103_usart.c ****       \arg        USART_INT_IDLE: IDLE line detected interrupt
 685:./../../firmware/GD32VF103_standard_peripheral/Source/gd32vf103_usart.c ****       \arg        USART_INT_LBD: LIN break detected interrupt
 686:./../../firmware/GD32VF103_standard_peripheral/Source/gd32vf103_usart.c ****       \arg        USART_INT_ERR: error interrupt
 687:./../../firmware/GD32VF103_standard_peripheral/Source/gd32vf103_usart.c ****       \arg        USART_INT_CTS: CTS interrupt
 688:./../../firmware/GD32VF103_standard_peripheral/Source/gd32vf103_usart.c ****     \param[out] none
 689:./../../firmware/GD32VF103_standard_peripheral/Source/gd32vf103_usart.c ****     \retval     none
GAS LISTING C:\Users\Karzan\AppData\Local\Temp\ccuVYx9Z.s 			page 32


 690:./../../firmware/GD32VF103_standard_peripheral/Source/gd32vf103_usart.c **** */
 691:./../../firmware/GD32VF103_standard_peripheral/Source/gd32vf103_usart.c **** void usart_interrupt_enable(uint32_t usart_periph, uint32_t interrupt)
 692:./../../firmware/GD32VF103_standard_peripheral/Source/gd32vf103_usart.c **** {
 1119              		.loc 1 692 1 is_stmt 1
 1120              		.cfi_startproc
 1121              	.LVL96:
 693:./../../firmware/GD32VF103_standard_peripheral/Source/gd32vf103_usart.c ****     USART_REG_VAL(usart_periph, interrupt) |= BIT(USART_BIT_POS(interrupt));
 1122              		.loc 1 693 5
 1123              		.loc 1 693 44 is_stmt 0
 1124 0000 93D76500 		srli	a5,a1,6
 1125 0004 93F7F73F 		andi	a5,a5,1023
 1126 0008 3E95     		add	a0,a5,a0
 1127              	.LVL97:
 1128 000a 1841     		lw	a4,0(a0)
 1129              		.loc 1 693 47
 1130 000c 8547     		li	a5,1
 1131 000e B397B700 		sll	a5,a5,a1
 1132              		.loc 1 693 44
 1133 0012 D98F     		or	a5,a5,a4
 1134 0014 1CC1     		sw	a5,0(a0)
 694:./../../firmware/GD32VF103_standard_peripheral/Source/gd32vf103_usart.c **** }
 1135              		.loc 1 694 1
 1136 0016 8280     		ret
 1137              		.cfi_endproc
 1138              	.LFE41:
 1140              		.section	.text.usart_interrupt_disable,"ax",@progbits
 1141              		.align	1
 1142              		.globl	usart_interrupt_disable
 1144              	usart_interrupt_disable:
 1145              	.LFB42:
 695:./../../firmware/GD32VF103_standard_peripheral/Source/gd32vf103_usart.c **** 
 696:./../../firmware/GD32VF103_standard_peripheral/Source/gd32vf103_usart.c **** /*!
 697:./../../firmware/GD32VF103_standard_peripheral/Source/gd32vf103_usart.c ****     \brief      disable USART interrupt
 698:./../../firmware/GD32VF103_standard_peripheral/Source/gd32vf103_usart.c ****      \param[in]  usart_periph: USARTx(x=0,1,2)/UARTx(x=3,4)
 699:./../../firmware/GD32VF103_standard_peripheral/Source/gd32vf103_usart.c ****     \param[in]  interrupt
 700:./../../firmware/GD32VF103_standard_peripheral/Source/gd32vf103_usart.c ****                 only one parameter can be selected which is shown as below:
 701:./../../firmware/GD32VF103_standard_peripheral/Source/gd32vf103_usart.c ****       \arg        USART_INT_PERR: parity error interrupt
 702:./../../firmware/GD32VF103_standard_peripheral/Source/gd32vf103_usart.c ****       \arg        USART_INT_TBE: transmitter buffer empty interrupt
 703:./../../firmware/GD32VF103_standard_peripheral/Source/gd32vf103_usart.c ****       \arg        USART_INT_TC: transmission complete interrupt
 704:./../../firmware/GD32VF103_standard_peripheral/Source/gd32vf103_usart.c ****       \arg        USART_INT_RBNE: read data buffer not empty interrupt and overrun error interrupt
 705:./../../firmware/GD32VF103_standard_peripheral/Source/gd32vf103_usart.c ****       \arg        USART_INT_IDLE: IDLE line detected interrupt
 706:./../../firmware/GD32VF103_standard_peripheral/Source/gd32vf103_usart.c ****       \arg        USART_INT_LBD: LIN break detected interrupt
 707:./../../firmware/GD32VF103_standard_peripheral/Source/gd32vf103_usart.c ****       \arg        USART_INT_ERR: error interrupt
 708:./../../firmware/GD32VF103_standard_peripheral/Source/gd32vf103_usart.c ****       \arg        USART_INT_CTS: CTS interrupt
 709:./../../firmware/GD32VF103_standard_peripheral/Source/gd32vf103_usart.c ****     \param[out] none
 710:./../../firmware/GD32VF103_standard_peripheral/Source/gd32vf103_usart.c ****     \retval     none
 711:./../../firmware/GD32VF103_standard_peripheral/Source/gd32vf103_usart.c **** */
 712:./../../firmware/GD32VF103_standard_peripheral/Source/gd32vf103_usart.c **** void usart_interrupt_disable(uint32_t usart_periph, uint32_t interrupt)
 713:./../../firmware/GD32VF103_standard_peripheral/Source/gd32vf103_usart.c **** {
 1146              		.loc 1 713 1 is_stmt 1
 1147              		.cfi_startproc
 1148              	.LVL98:
 714:./../../firmware/GD32VF103_standard_peripheral/Source/gd32vf103_usart.c ****     USART_REG_VAL(usart_periph, interrupt) &= ~BIT(USART_BIT_POS(interrupt));
 1149              		.loc 1 714 5
 1150              		.loc 1 714 44 is_stmt 0
 1151 0000 13D76500 		srli	a4,a1,6
 1152 0004 1377F73F 		andi	a4,a4,1023
GAS LISTING C:\Users\Karzan\AppData\Local\Temp\ccuVYx9Z.s 			page 33


 1153 0008 3A95     		add	a0,a4,a0
 1154              	.LVL99:
 1155 000a 1841     		lw	a4,0(a0)
 1156              		.loc 1 714 48
 1157 000c 8547     		li	a5,1
 1158 000e B397B700 		sll	a5,a5,a1
 1159              		.loc 1 714 47
 1160 0012 93C7F7FF 		not	a5,a5
 1161              		.loc 1 714 44
 1162 0016 F98F     		and	a5,a5,a4
 1163 0018 1CC1     		sw	a5,0(a0)
 715:./../../firmware/GD32VF103_standard_peripheral/Source/gd32vf103_usart.c **** }
 1164              		.loc 1 715 1
 1165 001a 8280     		ret
 1166              		.cfi_endproc
 1167              	.LFE42:
 1169              		.section	.text.usart_interrupt_flag_get,"ax",@progbits
 1170              		.align	1
 1171              		.globl	usart_interrupt_flag_get
 1173              	usart_interrupt_flag_get:
 1174              	.LFB43:
 716:./../../firmware/GD32VF103_standard_peripheral/Source/gd32vf103_usart.c **** 
 717:./../../firmware/GD32VF103_standard_peripheral/Source/gd32vf103_usart.c **** /*!
 718:./../../firmware/GD32VF103_standard_peripheral/Source/gd32vf103_usart.c ****     \brief      get USART interrupt and flag status
 719:./../../firmware/GD32VF103_standard_peripheral/Source/gd32vf103_usart.c ****      \param[in]  usart_periph: USARTx(x=0,1,2)/UARTx(x=3,4)
 720:./../../firmware/GD32VF103_standard_peripheral/Source/gd32vf103_usart.c ****     \param[in]  int_flag
 721:./../../firmware/GD32VF103_standard_peripheral/Source/gd32vf103_usart.c ****                 only one parameter can be selected which is shown as below:
 722:./../../firmware/GD32VF103_standard_peripheral/Source/gd32vf103_usart.c ****       \arg        USART_INT_FLAG_PERR: parity error interrupt and flag
 723:./../../firmware/GD32VF103_standard_peripheral/Source/gd32vf103_usart.c ****       \arg        USART_INT_FLAG_TBE: transmitter buffer empty interrupt and flag
 724:./../../firmware/GD32VF103_standard_peripheral/Source/gd32vf103_usart.c ****       \arg        USART_INT_FLAG_TC: transmission complete interrupt and flag
 725:./../../firmware/GD32VF103_standard_peripheral/Source/gd32vf103_usart.c ****       \arg        USART_INT_FLAG_RBNE: read data buffer not empty interrupt and flag
 726:./../../firmware/GD32VF103_standard_peripheral/Source/gd32vf103_usart.c ****       \arg        USART_INT_FLAG_RBNE_ORERR: read data buffer not empty interrupt and overrun error
 727:./../../firmware/GD32VF103_standard_peripheral/Source/gd32vf103_usart.c ****       \arg        USART_INT_FLAG_IDLE: IDLE line detected interrupt and flag
 728:./../../firmware/GD32VF103_standard_peripheral/Source/gd32vf103_usart.c ****       \arg        USART_INT_FLAG_LBD: LIN break detected interrupt and flag
 729:./../../firmware/GD32VF103_standard_peripheral/Source/gd32vf103_usart.c ****       \arg        USART_INT_FLAG_CTS: CTS interrupt and flag
 730:./../../firmware/GD32VF103_standard_peripheral/Source/gd32vf103_usart.c ****       \arg        USART_INT_FLAG_ERR_ORERR: error interrupt and overrun error
 731:./../../firmware/GD32VF103_standard_peripheral/Source/gd32vf103_usart.c ****       \arg        USART_INT_FLAG_ERR_NERR: error interrupt and noise error flag
 732:./../../firmware/GD32VF103_standard_peripheral/Source/gd32vf103_usart.c ****       \arg        USART_INT_FLAG_ERR_FERR: error interrupt and frame error flag
 733:./../../firmware/GD32VF103_standard_peripheral/Source/gd32vf103_usart.c ****     \param[out] none
 734:./../../firmware/GD32VF103_standard_peripheral/Source/gd32vf103_usart.c ****     \retval     FlagStatus: SET or RESET
 735:./../../firmware/GD32VF103_standard_peripheral/Source/gd32vf103_usart.c **** */
 736:./../../firmware/GD32VF103_standard_peripheral/Source/gd32vf103_usart.c **** FlagStatus usart_interrupt_flag_get(uint32_t usart_periph, uint32_t int_flag)
 737:./../../firmware/GD32VF103_standard_peripheral/Source/gd32vf103_usart.c **** {
 1175              		.loc 1 737 1 is_stmt 1
 1176              		.cfi_startproc
 1177              	.LVL100:
 738:./../../firmware/GD32VF103_standard_peripheral/Source/gd32vf103_usart.c ****     uint32_t intenable = 0U, flagstatus = 0U;
 1178              		.loc 1 738 5
 739:./../../firmware/GD32VF103_standard_peripheral/Source/gd32vf103_usart.c ****     /* get the interrupt enable bit status */
 740:./../../firmware/GD32VF103_standard_peripheral/Source/gd32vf103_usart.c ****     intenable = (USART_REG_VAL(usart_periph, int_flag) & BIT(USART_BIT_POS(int_flag)));
 1179              		.loc 1 740 5
 1180              		.loc 1 740 18 is_stmt 0
 1181 0000 13D76500 		srli	a4,a1,6
 1182 0004 1377F73F 		andi	a4,a4,1023
 1183 0008 2A97     		add	a4,a4,a0
 1184 000a 1443     		lw	a3,0(a4)
 1185              	.LVL101:
GAS LISTING C:\Users\Karzan\AppData\Local\Temp\ccuVYx9Z.s 			page 34


 741:./../../firmware/GD32VF103_standard_peripheral/Source/gd32vf103_usart.c ****     /* get the corresponding flag bit status */
 742:./../../firmware/GD32VF103_standard_peripheral/Source/gd32vf103_usart.c ****     flagstatus = (USART_REG_VAL2(usart_periph, int_flag) & BIT(USART_BIT_POS2(int_flag)));
 1186              		.loc 1 742 5 is_stmt 1
 1187              		.loc 1 742 19 is_stmt 0
 1188 000c 13D76501 		srli	a4,a1,22
 1189 0010 2A97     		add	a4,a4,a0
 1190 0012 1843     		lw	a4,0(a4)
 1191              		.loc 1 742 60
 1192 0014 13D50501 		srli	a0,a1,16
 1193              	.LVL102:
 1194 0018 8547     		li	a5,1
 1195 001a 3395A700 		sll	a0,a5,a0
 1196              		.loc 1 742 16
 1197 001e 798D     		and	a0,a0,a4
 1198              	.LVL103:
 743:./../../firmware/GD32VF103_standard_peripheral/Source/gd32vf103_usart.c **** 
 744:./../../firmware/GD32VF103_standard_peripheral/Source/gd32vf103_usart.c ****     if(flagstatus && intenable){
 1199              		.loc 1 744 5 is_stmt 1
 1200              		.loc 1 744 7 is_stmt 0
 1201 0020 11C5     		beq	a0,zero,.L56
 740:./../../firmware/GD32VF103_standard_peripheral/Source/gd32vf103_usart.c ****     /* get the corresponding flag bit status */
 1202              		.loc 1 740 58 discriminator 1
 1203 0022 3395B700 		sll	a0,a5,a1
 1204              	.LVL104:
 740:./../../firmware/GD32VF103_standard_peripheral/Source/gd32vf103_usart.c ****     /* get the corresponding flag bit status */
 1205              		.loc 1 740 15 discriminator 1
 1206 0026 758D     		and	a0,a0,a3
 1207              		.loc 1 744 19 discriminator 1
 1208 0028 3335A000 		snez	a0,a0
 1209              	.L56:
 745:./../../firmware/GD32VF103_standard_peripheral/Source/gd32vf103_usart.c ****         return SET;
 746:./../../firmware/GD32VF103_standard_peripheral/Source/gd32vf103_usart.c ****     }else{
 747:./../../firmware/GD32VF103_standard_peripheral/Source/gd32vf103_usart.c ****         return RESET; 
 748:./../../firmware/GD32VF103_standard_peripheral/Source/gd32vf103_usart.c ****     }
 749:./../../firmware/GD32VF103_standard_peripheral/Source/gd32vf103_usart.c **** }
 1210              		.loc 1 749 1
 1211 002c 8280     		ret
 1212              		.cfi_endproc
 1213              	.LFE43:
 1215              		.section	.text.usart_interrupt_flag_clear,"ax",@progbits
 1216              		.align	1
 1217              		.globl	usart_interrupt_flag_clear
 1219              	usart_interrupt_flag_clear:
 1220              	.LFB44:
 750:./../../firmware/GD32VF103_standard_peripheral/Source/gd32vf103_usart.c **** 
 751:./../../firmware/GD32VF103_standard_peripheral/Source/gd32vf103_usart.c **** /*!
 752:./../../firmware/GD32VF103_standard_peripheral/Source/gd32vf103_usart.c ****     \brief      clear USART interrupt flag in STAT register
 753:./../../firmware/GD32VF103_standard_peripheral/Source/gd32vf103_usart.c ****     \param[in]  usart_periph: USARTx(x=0,1,2)/UARTx(x=3,4)
 754:./../../firmware/GD32VF103_standard_peripheral/Source/gd32vf103_usart.c ****     \param[in]  int_flag: USART interrupt flag
 755:./../../firmware/GD32VF103_standard_peripheral/Source/gd32vf103_usart.c ****                 only one parameter can be selected which is shown as below:
 756:./../../firmware/GD32VF103_standard_peripheral/Source/gd32vf103_usart.c ****       \arg        USART_INT_FLAG_CTS: CTS change flag
 757:./../../firmware/GD32VF103_standard_peripheral/Source/gd32vf103_usart.c ****       \arg        USART_INT_FLAG_LBD: LIN break detected flag
 758:./../../firmware/GD32VF103_standard_peripheral/Source/gd32vf103_usart.c ****       \arg        USART_INT_FLAG_TC: transmission complete
 759:./../../firmware/GD32VF103_standard_peripheral/Source/gd32vf103_usart.c ****       \arg        USART_INT_FLAG_RBNE: read data buffer not empty
 760:./../../firmware/GD32VF103_standard_peripheral/Source/gd32vf103_usart.c ****     \param[out] none
 761:./../../firmware/GD32VF103_standard_peripheral/Source/gd32vf103_usart.c ****     \retval     none
 762:./../../firmware/GD32VF103_standard_peripheral/Source/gd32vf103_usart.c **** */
GAS LISTING C:\Users\Karzan\AppData\Local\Temp\ccuVYx9Z.s 			page 35


 763:./../../firmware/GD32VF103_standard_peripheral/Source/gd32vf103_usart.c **** void usart_interrupt_flag_clear(uint32_t usart_periph, uint32_t int_flag)
 764:./../../firmware/GD32VF103_standard_peripheral/Source/gd32vf103_usart.c **** {
 1221              		.loc 1 764 1 is_stmt 1
 1222              		.cfi_startproc
 1223              	.LVL105:
 765:./../../firmware/GD32VF103_standard_peripheral/Source/gd32vf103_usart.c ****     USART_REG_VAL2(usart_periph, int_flag) &= ~BIT(USART_BIT_POS2(int_flag));
 1224              		.loc 1 765 5
 1225              		.loc 1 765 44 is_stmt 0
 1226 0000 13D76501 		srli	a4,a1,22
 1227 0004 3A95     		add	a0,a4,a0
 1228              	.LVL106:
 1229 0006 1841     		lw	a4,0(a0)
 1230              		.loc 1 765 48
 1231 0008 C181     		srli	a1,a1,16
 1232              	.LVL107:
 1233 000a 8547     		li	a5,1
 1234 000c B397B700 		sll	a5,a5,a1
 1235              		.loc 1 765 47
 1236 0010 93C7F7FF 		not	a5,a5
 1237              		.loc 1 765 44
 1238 0014 F98F     		and	a5,a5,a4
 1239 0016 1CC1     		sw	a5,0(a0)
 766:./../../firmware/GD32VF103_standard_peripheral/Source/gd32vf103_usart.c **** }
 1240              		.loc 1 766 1
 1241 0018 8280     		ret
 1242              		.cfi_endproc
 1243              	.LFE44:
 1245              		.text
 1246              	.Letext0:
 1247              		.file 2 "c:\\users\\karzan\\downloads\\toolchain-gd32v-v202-win\\toolchain-gd32v-v202-win\\compile
 1248              		.file 3 "c:\\users\\karzan\\downloads\\toolchain-gd32v-v202-win\\toolchain-gd32v-v202-win\\compile
 1249              		.file 4 "./../../firmware/GD32VF103_standard_peripheral/gd32vf103.h"
 1250              		.file 5 "./../../firmware/GD32VF103_standard_peripheral/Include/gd32vf103_rcu.h"
 1251              		.file 6 "./../../firmware/GD32VF103_standard_peripheral/Include/gd32vf103_usart.h"
 1252              		.file 7 "./../../firmware/GD32VF103_standard_peripheral/system_gd32vf103.h"
GAS LISTING C:\Users\Karzan\AppData\Local\Temp\ccuVYx9Z.s 			page 36

