GAS LISTING C:\Users\Karzan\AppData\Local\Temp\cccP2hOc.s 			page 1


   1              		.file	"gd32vf103_pmu.c"
   2              		.option nopic
   3              		.attribute arch, "rv32i2p0_m2p0_a2p0_c2p0"
   4              		.attribute unaligned_access, 0
   5              		.attribute stack_align, 16
   6              		.text
   7              	.Ltext0:
   8              		.cfi_sections	.debug_frame
   9              		.section	.text.pmu_deinit,"ax",@progbits
  10              		.align	1
  11              		.globl	pmu_deinit
  13              	pmu_deinit:
  14              	.LFB2:
  15              		.file 1 "./../../firmware/GD32VF103_standard_peripheral/Source/gd32vf103_pmu.c"
   1:./../../firmware/GD32VF103_standard_peripheral/Source/gd32vf103_pmu.c **** /*!
   2:./../../firmware/GD32VF103_standard_peripheral/Source/gd32vf103_pmu.c ****     \file    gd32vf103_pmu.c
   3:./../../firmware/GD32VF103_standard_peripheral/Source/gd32vf103_pmu.c ****     \brief   PMU driver
   4:./../../firmware/GD32VF103_standard_peripheral/Source/gd32vf103_pmu.c **** 
   5:./../../firmware/GD32VF103_standard_peripheral/Source/gd32vf103_pmu.c ****     \version 2019-06-05, V1.0.0, firmware for GD32VF103
   6:./../../firmware/GD32VF103_standard_peripheral/Source/gd32vf103_pmu.c ****     \version 2020-08-04, V1.1.0, firmware for GD32VF103
   7:./../../firmware/GD32VF103_standard_peripheral/Source/gd32vf103_pmu.c **** */
   8:./../../firmware/GD32VF103_standard_peripheral/Source/gd32vf103_pmu.c **** 
   9:./../../firmware/GD32VF103_standard_peripheral/Source/gd32vf103_pmu.c **** /*
  10:./../../firmware/GD32VF103_standard_peripheral/Source/gd32vf103_pmu.c ****     Copyright (c) 2020, GigaDevice Semiconductor Inc.
  11:./../../firmware/GD32VF103_standard_peripheral/Source/gd32vf103_pmu.c **** 
  12:./../../firmware/GD32VF103_standard_peripheral/Source/gd32vf103_pmu.c ****     Redistribution and use in source and binary forms, with or without modification,
  13:./../../firmware/GD32VF103_standard_peripheral/Source/gd32vf103_pmu.c **** are permitted provided that the following conditions are met:
  14:./../../firmware/GD32VF103_standard_peripheral/Source/gd32vf103_pmu.c **** 
  15:./../../firmware/GD32VF103_standard_peripheral/Source/gd32vf103_pmu.c ****     1. Redistributions of source code must retain the above copyright notice, this
  16:./../../firmware/GD32VF103_standard_peripheral/Source/gd32vf103_pmu.c ****        list of conditions and the following disclaimer.
  17:./../../firmware/GD32VF103_standard_peripheral/Source/gd32vf103_pmu.c ****     2. Redistributions in binary form must reproduce the above copyright notice,
  18:./../../firmware/GD32VF103_standard_peripheral/Source/gd32vf103_pmu.c ****        this list of conditions and the following disclaimer in the documentation
  19:./../../firmware/GD32VF103_standard_peripheral/Source/gd32vf103_pmu.c ****        and/or other materials provided with the distribution.
  20:./../../firmware/GD32VF103_standard_peripheral/Source/gd32vf103_pmu.c ****     3. Neither the name of the copyright holder nor the names of its contributors
  21:./../../firmware/GD32VF103_standard_peripheral/Source/gd32vf103_pmu.c ****        may be used to endorse or promote products derived from this software without
  22:./../../firmware/GD32VF103_standard_peripheral/Source/gd32vf103_pmu.c ****        specific prior written permission.
  23:./../../firmware/GD32VF103_standard_peripheral/Source/gd32vf103_pmu.c **** 
  24:./../../firmware/GD32VF103_standard_peripheral/Source/gd32vf103_pmu.c ****     THIS SOFTWARE IS PROVIDED BY THE COPYRIGHT HOLDERS AND CONTRIBUTORS "AS IS"
  25:./../../firmware/GD32VF103_standard_peripheral/Source/gd32vf103_pmu.c **** AND ANY EXPRESS OR IMPLIED WARRANTIES, INCLUDING, BUT NOT LIMITED TO, THE IMPLIED
  26:./../../firmware/GD32VF103_standard_peripheral/Source/gd32vf103_pmu.c **** WARRANTIES OF MERCHANTABILITY AND FITNESS FOR A PARTICULAR PURPOSE ARE DISCLAIMED.
  27:./../../firmware/GD32VF103_standard_peripheral/Source/gd32vf103_pmu.c **** IN NO EVENT SHALL THE COPYRIGHT HOLDER OR CONTRIBUTORS BE LIABLE FOR ANY DIRECT,
  28:./../../firmware/GD32VF103_standard_peripheral/Source/gd32vf103_pmu.c **** INDIRECT, INCIDENTAL, SPECIAL, EXEMPLARY, OR CONSEQUENTIAL DAMAGES (INCLUDING, BUT
  29:./../../firmware/GD32VF103_standard_peripheral/Source/gd32vf103_pmu.c **** NOT LIMITED TO, PROCUREMENT OF SUBSTITUTE GOODS OR SERVICES; LOSS OF USE, DATA, OR
  30:./../../firmware/GD32VF103_standard_peripheral/Source/gd32vf103_pmu.c **** PROFITS; OR BUSINESS INTERRUPTION) HOWEVER CAUSED AND ON ANY THEORY OF LIABILITY,
  31:./../../firmware/GD32VF103_standard_peripheral/Source/gd32vf103_pmu.c **** WHETHER IN CONTRACT, STRICT LIABILITY, OR TORT (INCLUDING NEGLIGENCE OR OTHERWISE)
  32:./../../firmware/GD32VF103_standard_peripheral/Source/gd32vf103_pmu.c **** ARISING IN ANY WAY OUT OF THE USE OF THIS SOFTWARE, EVEN IF ADVISED OF THE POSSIBILITY
  33:./../../firmware/GD32VF103_standard_peripheral/Source/gd32vf103_pmu.c **** OF SUCH DAMAGE.
  34:./../../firmware/GD32VF103_standard_peripheral/Source/gd32vf103_pmu.c **** */
  35:./../../firmware/GD32VF103_standard_peripheral/Source/gd32vf103_pmu.c **** 
  36:./../../firmware/GD32VF103_standard_peripheral/Source/gd32vf103_pmu.c **** #include "gd32vf103_pmu.h"
  37:./../../firmware/GD32VF103_standard_peripheral/Source/gd32vf103_pmu.c **** #include "riscv_encoding.h"
  38:./../../firmware/GD32VF103_standard_peripheral/Source/gd32vf103_pmu.c **** 
  39:./../../firmware/GD32VF103_standard_peripheral/Source/gd32vf103_pmu.c **** /*!
  40:./../../firmware/GD32VF103_standard_peripheral/Source/gd32vf103_pmu.c ****     \brief      reset PMU register
  41:./../../firmware/GD32VF103_standard_peripheral/Source/gd32vf103_pmu.c ****     \param[in]  none
  42:./../../firmware/GD32VF103_standard_peripheral/Source/gd32vf103_pmu.c ****     \param[out] none
  43:./../../firmware/GD32VF103_standard_peripheral/Source/gd32vf103_pmu.c ****     \retval     none
GAS LISTING C:\Users\Karzan\AppData\Local\Temp\cccP2hOc.s 			page 2


  44:./../../firmware/GD32VF103_standard_peripheral/Source/gd32vf103_pmu.c **** */
  45:./../../firmware/GD32VF103_standard_peripheral/Source/gd32vf103_pmu.c **** void pmu_deinit(void)
  46:./../../firmware/GD32VF103_standard_peripheral/Source/gd32vf103_pmu.c **** {
  16              		.loc 1 46 1
  17              		.cfi_startproc
  47:./../../firmware/GD32VF103_standard_peripheral/Source/gd32vf103_pmu.c ****     /* reset PMU */
  48:./../../firmware/GD32VF103_standard_peripheral/Source/gd32vf103_pmu.c ****     rcu_periph_reset_enable(RCU_PMURST);
  18              		.loc 1 48 5
  46:./../../firmware/GD32VF103_standard_peripheral/Source/gd32vf103_pmu.c ****     /* reset PMU */
  19              		.loc 1 46 1 is_stmt 0
  20 0000 4111     		addi	sp,sp,-16
  21              	.LCFI0:
  22              		.cfi_def_cfa_offset 16
  23              		.loc 1 48 5
  24 0002 1305C041 		li	a0,1052
  46:./../../firmware/GD32VF103_standard_peripheral/Source/gd32vf103_pmu.c ****     /* reset PMU */
  25              		.loc 1 46 1
  26 0006 06C6     		sw	ra,12(sp)
  27              		.cfi_offset 1, -4
  28              		.loc 1 48 5
  29 0008 97000000 		call	rcu_periph_reset_enable
  29      E7800000 
  30              	.LVL0:
  49:./../../firmware/GD32VF103_standard_peripheral/Source/gd32vf103_pmu.c ****     rcu_periph_reset_disable(RCU_PMURST);
  31              		.loc 1 49 5 is_stmt 1
  50:./../../firmware/GD32VF103_standard_peripheral/Source/gd32vf103_pmu.c **** }
  32              		.loc 1 50 1 is_stmt 0
  33 0010 B240     		lw	ra,12(sp)
  34              		.cfi_restore 1
  49:./../../firmware/GD32VF103_standard_peripheral/Source/gd32vf103_pmu.c ****     rcu_periph_reset_disable(RCU_PMURST);
  35              		.loc 1 49 5
  36 0012 1305C041 		li	a0,1052
  37              		.loc 1 50 1
  38 0016 4101     		addi	sp,sp,16
  39              	.LCFI1:
  40              		.cfi_def_cfa_offset 0
  49:./../../firmware/GD32VF103_standard_peripheral/Source/gd32vf103_pmu.c ****     rcu_periph_reset_disable(RCU_PMURST);
  41              		.loc 1 49 5
  42 0018 17030000 		tail	rcu_periph_reset_disable
  42      67000300 
  43              	.LVL1:
  44              		.cfi_endproc
  45              	.LFE2:
  47              		.section	.text.pmu_lvd_select,"ax",@progbits
  48              		.align	1
  49              		.globl	pmu_lvd_select
  51              	pmu_lvd_select:
  52              	.LFB3:
  51:./../../firmware/GD32VF103_standard_peripheral/Source/gd32vf103_pmu.c **** 
  52:./../../firmware/GD32VF103_standard_peripheral/Source/gd32vf103_pmu.c **** /*!
  53:./../../firmware/GD32VF103_standard_peripheral/Source/gd32vf103_pmu.c ****     \brief      select low voltage detector threshold
  54:./../../firmware/GD32VF103_standard_peripheral/Source/gd32vf103_pmu.c ****     \param[in]  lvdt_n:
  55:./../../firmware/GD32VF103_standard_peripheral/Source/gd32vf103_pmu.c ****                 only one parameter can be selected which is shown as below:
  56:./../../firmware/GD32VF103_standard_peripheral/Source/gd32vf103_pmu.c ****       \arg        PMU_LVDT_0: voltage threshold is 2.2V
  57:./../../firmware/GD32VF103_standard_peripheral/Source/gd32vf103_pmu.c ****       \arg        PMU_LVDT_1: voltage threshold is 2.3V
  58:./../../firmware/GD32VF103_standard_peripheral/Source/gd32vf103_pmu.c ****       \arg        PMU_LVDT_2: voltage threshold is 2.4V
  59:./../../firmware/GD32VF103_standard_peripheral/Source/gd32vf103_pmu.c ****       \arg        PMU_LVDT_3: voltage threshold is 2.5V
GAS LISTING C:\Users\Karzan\AppData\Local\Temp\cccP2hOc.s 			page 3


  60:./../../firmware/GD32VF103_standard_peripheral/Source/gd32vf103_pmu.c ****       \arg        PMU_LVDT_4: voltage threshold is 2.6V
  61:./../../firmware/GD32VF103_standard_peripheral/Source/gd32vf103_pmu.c ****       \arg        PMU_LVDT_5: voltage threshold is 2.7V
  62:./../../firmware/GD32VF103_standard_peripheral/Source/gd32vf103_pmu.c ****       \arg        PMU_LVDT_6: voltage threshold is 2.8V
  63:./../../firmware/GD32VF103_standard_peripheral/Source/gd32vf103_pmu.c ****       \arg        PMU_LVDT_7: voltage threshold is 2.9V
  64:./../../firmware/GD32VF103_standard_peripheral/Source/gd32vf103_pmu.c ****     \param[out] none
  65:./../../firmware/GD32VF103_standard_peripheral/Source/gd32vf103_pmu.c ****     \retval     none
  66:./../../firmware/GD32VF103_standard_peripheral/Source/gd32vf103_pmu.c **** */
  67:./../../firmware/GD32VF103_standard_peripheral/Source/gd32vf103_pmu.c **** void pmu_lvd_select(uint32_t lvdt_n)
  68:./../../firmware/GD32VF103_standard_peripheral/Source/gd32vf103_pmu.c **** {
  53              		.loc 1 68 1 is_stmt 1
  54              		.cfi_startproc
  55              	.LVL2:
  69:./../../firmware/GD32VF103_standard_peripheral/Source/gd32vf103_pmu.c ****     /* disable LVD */
  70:./../../firmware/GD32VF103_standard_peripheral/Source/gd32vf103_pmu.c ****     PMU_CTL &= ~PMU_CTL_LVDEN;
  56              		.loc 1 70 5
  57              		.loc 1 70 13 is_stmt 0
  58 0000 B7770040 		li	a5,1073770496
  59 0004 9843     		lw	a4,0(a5)
  60 0006 3D9B     		andi	a4,a4,-17
  61 0008 98C3     		sw	a4,0(a5)
  71:./../../firmware/GD32VF103_standard_peripheral/Source/gd32vf103_pmu.c ****     /* clear LVDT bits */
  72:./../../firmware/GD32VF103_standard_peripheral/Source/gd32vf103_pmu.c ****     PMU_CTL &= ~PMU_CTL_LVDT;
  62              		.loc 1 72 5 is_stmt 1
  63              		.loc 1 72 13 is_stmt 0
  64 000a 9843     		lw	a4,0(a5)
  65 000c 1377F7F1 		andi	a4,a4,-225
  66 0010 98C3     		sw	a4,0(a5)
  73:./../../firmware/GD32VF103_standard_peripheral/Source/gd32vf103_pmu.c ****     /* set LVDT bits according to lvdt_n */
  74:./../../firmware/GD32VF103_standard_peripheral/Source/gd32vf103_pmu.c ****     PMU_CTL |= lvdt_n;
  67              		.loc 1 74 5 is_stmt 1
  68              		.loc 1 74 13 is_stmt 0
  69 0012 9843     		lw	a4,0(a5)
  70 0014 598D     		or	a0,a4,a0
  71              	.LVL3:
  72 0016 88C3     		sw	a0,0(a5)
  75:./../../firmware/GD32VF103_standard_peripheral/Source/gd32vf103_pmu.c ****     /* enable LVD */
  76:./../../firmware/GD32VF103_standard_peripheral/Source/gd32vf103_pmu.c ****     PMU_CTL |= PMU_CTL_LVDEN;
  73              		.loc 1 76 5 is_stmt 1
  74              		.loc 1 76 13 is_stmt 0
  75 0018 9843     		lw	a4,0(a5)
  76 001a 13670701 		ori	a4,a4,16
  77 001e 98C3     		sw	a4,0(a5)
  77:./../../firmware/GD32VF103_standard_peripheral/Source/gd32vf103_pmu.c **** }
  78              		.loc 1 77 1
  79 0020 8280     		ret
  80              		.cfi_endproc
  81              	.LFE3:
  83              		.section	.text.pmu_lvd_disable,"ax",@progbits
  84              		.align	1
  85              		.globl	pmu_lvd_disable
  87              	pmu_lvd_disable:
  88              	.LFB4:
  78:./../../firmware/GD32VF103_standard_peripheral/Source/gd32vf103_pmu.c **** 
  79:./../../firmware/GD32VF103_standard_peripheral/Source/gd32vf103_pmu.c **** /*!
  80:./../../firmware/GD32VF103_standard_peripheral/Source/gd32vf103_pmu.c ****     \brief      disable PMU lvd
  81:./../../firmware/GD32VF103_standard_peripheral/Source/gd32vf103_pmu.c ****     \param[in]  none
  82:./../../firmware/GD32VF103_standard_peripheral/Source/gd32vf103_pmu.c ****     \param[out] none
GAS LISTING C:\Users\Karzan\AppData\Local\Temp\cccP2hOc.s 			page 4


  83:./../../firmware/GD32VF103_standard_peripheral/Source/gd32vf103_pmu.c ****     \retval     none
  84:./../../firmware/GD32VF103_standard_peripheral/Source/gd32vf103_pmu.c **** */
  85:./../../firmware/GD32VF103_standard_peripheral/Source/gd32vf103_pmu.c **** void pmu_lvd_disable(void)
  86:./../../firmware/GD32VF103_standard_peripheral/Source/gd32vf103_pmu.c **** {
  89              		.loc 1 86 1 is_stmt 1
  90              		.cfi_startproc
  87:./../../firmware/GD32VF103_standard_peripheral/Source/gd32vf103_pmu.c ****     /* disable LVD */
  88:./../../firmware/GD32VF103_standard_peripheral/Source/gd32vf103_pmu.c ****     PMU_CTL &= ~PMU_CTL_LVDEN;
  91              		.loc 1 88 5
  92              		.loc 1 88 13 is_stmt 0
  93 0000 37770040 		li	a4,1073770496
  94 0004 1C43     		lw	a5,0(a4)
  95 0006 BD9B     		andi	a5,a5,-17
  96 0008 1CC3     		sw	a5,0(a4)
  89:./../../firmware/GD32VF103_standard_peripheral/Source/gd32vf103_pmu.c **** }
  97              		.loc 1 89 1
  98 000a 8280     		ret
  99              		.cfi_endproc
 100              	.LFE4:
 102              		.section	.text.pmu_to_sleepmode,"ax",@progbits
 103              		.align	1
 104              		.globl	pmu_to_sleepmode
 106              	pmu_to_sleepmode:
 107              	.LFB5:
  90:./../../firmware/GD32VF103_standard_peripheral/Source/gd32vf103_pmu.c **** 
  91:./../../firmware/GD32VF103_standard_peripheral/Source/gd32vf103_pmu.c **** /*!
  92:./../../firmware/GD32VF103_standard_peripheral/Source/gd32vf103_pmu.c ****     \brief      PMU work at sleep mode
  93:./../../firmware/GD32VF103_standard_peripheral/Source/gd32vf103_pmu.c ****     \param[in]  sleepmodecmd:
  94:./../../firmware/GD32VF103_standard_peripheral/Source/gd32vf103_pmu.c ****                 only one parameter can be selected which is shown as below:
  95:./../../firmware/GD32VF103_standard_peripheral/Source/gd32vf103_pmu.c ****       \arg        WFI_CMD: use WFI command
  96:./../../firmware/GD32VF103_standard_peripheral/Source/gd32vf103_pmu.c ****       \arg        WFE_CMD: use WFE command
  97:./../../firmware/GD32VF103_standard_peripheral/Source/gd32vf103_pmu.c ****     \param[out] none
  98:./../../firmware/GD32VF103_standard_peripheral/Source/gd32vf103_pmu.c ****     \retval     none
  99:./../../firmware/GD32VF103_standard_peripheral/Source/gd32vf103_pmu.c **** */
 100:./../../firmware/GD32VF103_standard_peripheral/Source/gd32vf103_pmu.c **** void pmu_to_sleepmode(uint8_t sleepmodecmd)
 101:./../../firmware/GD32VF103_standard_peripheral/Source/gd32vf103_pmu.c **** {
 108              		.loc 1 101 1 is_stmt 1
 109              		.cfi_startproc
 110              	.LVL4:
 102:./../../firmware/GD32VF103_standard_peripheral/Source/gd32vf103_pmu.c ****     /* clear sleepdeep bit of RISC-V system control register */
 103:./../../firmware/GD32VF103_standard_peripheral/Source/gd32vf103_pmu.c ****     clear_csr(0x811U, 0x1U);
 111              		.loc 1 103 5
 112              	.LBB31:
 113              		.loc 1 103 5
 114              		.loc 1 103 5
 115              		.loc 1 103 5
 116              	 #APP
 117              	# 103 "./../../firmware/GD32VF103_standard_peripheral/Source/gd32vf103_pmu.c" 1
 104              	
 118              		csrrc a5, 0x811U, 1
 119              	# 0 "" 2
 120              	.LVL5:
 103:./../../firmware/GD32VF103_standard_peripheral/Source/gd32vf103_pmu.c ****     clear_csr(0x811U, 0x1U);
 121              		.loc 1 103 5
 122              	 #NO_APP
 123              	.LBE31:
 105:./../../firmware/GD32VF103_standard_peripheral/Source/gd32vf103_pmu.c ****     /* select WFI or WFE command to enter sleep mode */
GAS LISTING C:\Users\Karzan\AppData\Local\Temp\cccP2hOc.s 			page 5


 106:./../../firmware/GD32VF103_standard_peripheral/Source/gd32vf103_pmu.c ****     if(WFI_CMD == sleepmodecmd){
 124              		.loc 1 106 5
 125              		.loc 1 106 7 is_stmt 0
 126 0004 01E5     		bne	a0,zero,.L6
 107:./../../firmware/GD32VF103_standard_peripheral/Source/gd32vf103_pmu.c ****         __WFI();
 127              		.loc 1 107 9 is_stmt 1
 128              	.LBB32:
 129              	.LBB33:
 130              		.file 2 "./../../firmware/RISCV/drivers/n200_func.h"
   1:./../../firmware/RISCV/drivers/n200_func.h **** /* See LICENSE file for licence details */
   2:./../../firmware/RISCV/drivers/n200_func.h **** 
   3:./../../firmware/RISCV/drivers/n200_func.h **** #ifndef N200_FUNC_H
   4:./../../firmware/RISCV/drivers/n200_func.h **** #define N200_FUNC_H
   5:./../../firmware/RISCV/drivers/n200_func.h **** 
   6:./../../firmware/RISCV/drivers/n200_func.h **** 
   7:./../../firmware/RISCV/drivers/n200_func.h **** #include <stddef.h>
   8:./../../firmware/RISCV/drivers/n200_func.h **** #include "n200_timer.h"
   9:./../../firmware/RISCV/drivers/n200_func.h **** #include "n200_eclic.h"
  10:./../../firmware/RISCV/drivers/n200_func.h **** 
  11:./../../firmware/RISCV/drivers/n200_func.h **** #define	ECLIC_GROUP_LEVEL0_PRIO4        0
  12:./../../firmware/RISCV/drivers/n200_func.h **** #define	ECLIC_GROUP_LEVEL1_PRIO3        1
  13:./../../firmware/RISCV/drivers/n200_func.h **** #define	ECLIC_GROUP_LEVEL2_PRIO2        2
  14:./../../firmware/RISCV/drivers/n200_func.h **** #define	ECLIC_GROUP_LEVEL3_PRIO1        3
  15:./../../firmware/RISCV/drivers/n200_func.h **** #define	ECLIC_GROUP_LEVEL4_PRIO0        4
  16:./../../firmware/RISCV/drivers/n200_func.h **** 
  17:./../../firmware/RISCV/drivers/n200_func.h **** void pmp_open_all_space(void);
  18:./../../firmware/RISCV/drivers/n200_func.h **** 
  19:./../../firmware/RISCV/drivers/n200_func.h **** void switch_m2u_mode(void);
  20:./../../firmware/RISCV/drivers/n200_func.h **** 
  21:./../../firmware/RISCV/drivers/n200_func.h **** uint32_t get_mtime_freq(void);
  22:./../../firmware/RISCV/drivers/n200_func.h **** 
  23:./../../firmware/RISCV/drivers/n200_func.h **** uint32_t mtime_lo(void);
  24:./../../firmware/RISCV/drivers/n200_func.h **** 
  25:./../../firmware/RISCV/drivers/n200_func.h **** uint32_t mtime_hi(void);
  26:./../../firmware/RISCV/drivers/n200_func.h **** 
  27:./../../firmware/RISCV/drivers/n200_func.h **** uint64_t get_mtime_value(void);
  28:./../../firmware/RISCV/drivers/n200_func.h **** 
  29:./../../firmware/RISCV/drivers/n200_func.h **** uint64_t get_instret_value(void);
  30:./../../firmware/RISCV/drivers/n200_func.h **** 
  31:./../../firmware/RISCV/drivers/n200_func.h **** uint64_t get_cycle_value(void);
  32:./../../firmware/RISCV/drivers/n200_func.h **** 
  33:./../../firmware/RISCV/drivers/n200_func.h **** uint32_t get_cpu_freq(void);
  34:./../../firmware/RISCV/drivers/n200_func.h **** 
  35:./../../firmware/RISCV/drivers/n200_func.h **** uint32_t __attribute__((noinline)) measure_cpu_freq(size_t n);
  36:./../../firmware/RISCV/drivers/n200_func.h **** 
  37:./../../firmware/RISCV/drivers/n200_func.h **** /* ECLIC relevant functions */
  38:./../../firmware/RISCV/drivers/n200_func.h **** void eclic_init ( uint32_t num_irq );
  39:./../../firmware/RISCV/drivers/n200_func.h **** uint64_t get_timer_value(void);
  40:./../../firmware/RISCV/drivers/n200_func.h **** void eclic_enable_interrupt (uint32_t source);
  41:./../../firmware/RISCV/drivers/n200_func.h **** void eclic_disable_interrupt (uint32_t source);
  42:./../../firmware/RISCV/drivers/n200_func.h **** 
  43:./../../firmware/RISCV/drivers/n200_func.h **** void eclic_set_pending(uint32_t source);
  44:./../../firmware/RISCV/drivers/n200_func.h **** void eclic_clear_pending(uint32_t source);
  45:./../../firmware/RISCV/drivers/n200_func.h **** 
  46:./../../firmware/RISCV/drivers/n200_func.h **** void eclic_set_intctrl (uint32_t source, uint8_t intctrl);
  47:./../../firmware/RISCV/drivers/n200_func.h **** uint8_t eclic_get_intctrl  (uint32_t source);
  48:./../../firmware/RISCV/drivers/n200_func.h **** 
GAS LISTING C:\Users\Karzan\AppData\Local\Temp\cccP2hOc.s 			page 6


  49:./../../firmware/RISCV/drivers/n200_func.h **** void eclic_set_intattr (uint32_t source, uint8_t intattr);
  50:./../../firmware/RISCV/drivers/n200_func.h **** uint8_t eclic_get_intattr  (uint32_t source);
  51:./../../firmware/RISCV/drivers/n200_func.h **** 
  52:./../../firmware/RISCV/drivers/n200_func.h **** void eclic_set_cliccfg (uint8_t cliccfg);
  53:./../../firmware/RISCV/drivers/n200_func.h **** uint8_t eclic_get_cliccfg (void);
  54:./../../firmware/RISCV/drivers/n200_func.h **** 
  55:./../../firmware/RISCV/drivers/n200_func.h **** void eclic_set_mth (uint8_t mth);
  56:./../../firmware/RISCV/drivers/n200_func.h **** uint8_t eclic_get_mth(void);
  57:./../../firmware/RISCV/drivers/n200_func.h **** 
  58:./../../firmware/RISCV/drivers/n200_func.h **** /* sets nlbits */
  59:./../../firmware/RISCV/drivers/n200_func.h **** void eclic_set_nlbits(uint8_t nlbits);
  60:./../../firmware/RISCV/drivers/n200_func.h **** 
  61:./../../firmware/RISCV/drivers/n200_func.h **** 
  62:./../../firmware/RISCV/drivers/n200_func.h **** /* get nlbits */
  63:./../../firmware/RISCV/drivers/n200_func.h **** uint8_t eclic_get_nlbits(void);
  64:./../../firmware/RISCV/drivers/n200_func.h **** 
  65:./../../firmware/RISCV/drivers/n200_func.h **** void eclic_set_irq_lvl(uint32_t source, uint8_t lvl);
  66:./../../firmware/RISCV/drivers/n200_func.h **** uint8_t eclic_get_irq_lvl(uint32_t source);
  67:./../../firmware/RISCV/drivers/n200_func.h **** 
  68:./../../firmware/RISCV/drivers/n200_func.h **** void eclic_set_irq_lvl_abs(uint32_t source, uint8_t lvl_abs);
  69:./../../firmware/RISCV/drivers/n200_func.h **** uint8_t eclic_get_irq_lvl_abs(uint32_t source);
  70:./../../firmware/RISCV/drivers/n200_func.h **** 
  71:./../../firmware/RISCV/drivers/n200_func.h **** uint8_t eclic_set_irq_priority(uint32_t source, uint8_t priority);
  72:./../../firmware/RISCV/drivers/n200_func.h **** uint8_t eclic_get_irq_priority(uint32_t source);
  73:./../../firmware/RISCV/drivers/n200_func.h **** 
  74:./../../firmware/RISCV/drivers/n200_func.h **** void eclic_mode_enable(void);
  75:./../../firmware/RISCV/drivers/n200_func.h **** 
  76:./../../firmware/RISCV/drivers/n200_func.h **** void eclic_set_vmode(uint32_t source);
  77:./../../firmware/RISCV/drivers/n200_func.h **** void eclic_set_nonvmode(uint32_t source);
  78:./../../firmware/RISCV/drivers/n200_func.h **** 
  79:./../../firmware/RISCV/drivers/n200_func.h **** void eclic_set_level_trig(uint32_t source);
  80:./../../firmware/RISCV/drivers/n200_func.h **** void eclic_set_posedge_trig(uint32_t source);
  81:./../../firmware/RISCV/drivers/n200_func.h **** void eclic_set_negedge_trig(uint32_t source);
  82:./../../firmware/RISCV/drivers/n200_func.h **** 
  83:./../../firmware/RISCV/drivers/n200_func.h **** 
  84:./../../firmware/RISCV/drivers/n200_func.h **** /** \brief  Wait For Interrupt
  85:./../../firmware/RISCV/drivers/n200_func.h **** 
  86:./../../firmware/RISCV/drivers/n200_func.h ****     Wait For Interrupt is a hint instruction that suspends execution
  87:./../../firmware/RISCV/drivers/n200_func.h ****     until one of a number of events occurs.
  88:./../../firmware/RISCV/drivers/n200_func.h ****  */
  89:./../../firmware/RISCV/drivers/n200_func.h **** __attribute__( ( always_inline ) ) static inline void __WFI(void) {
  90:./../../firmware/RISCV/drivers/n200_func.h ****     __asm volatile ("wfi");
 131              		.loc 2 90 5
 132              	 #APP
 133              	# 90 "./../../firmware/RISCV/drivers/n200_func.h" 1
  91              	}
 134              		wfi
 135              	# 0 "" 2
 136              	 #NO_APP
 137 000a 8280     		ret
 138              	.L6:
 139              	.LBE33:
 140              	.LBE32:
 108:./../../firmware/GD32VF103_standard_peripheral/Source/gd32vf103_pmu.c ****     }else{
 109:./../../firmware/GD32VF103_standard_peripheral/Source/gd32vf103_pmu.c ****         clear_csr(mstatus, MSTATUS_MIE);
 141              		.loc 1 109 9 discriminator 1
 142              	.LBB34:
GAS LISTING C:\Users\Karzan\AppData\Local\Temp\cccP2hOc.s 			page 7


 143              		.loc 1 109 9 discriminator 1
 144              		.loc 1 109 9 discriminator 1
 145              		.loc 1 109 9 discriminator 1
 146              	 #APP
 147              	# 109 "./../../firmware/GD32VF103_standard_peripheral/Source/gd32vf103_pmu.c" 1
 110              	        set_csr(0x810U, 0x1U);
 148              		csrrc a5, mstatus, 8
 149              	# 0 "" 2
 150              	.LVL6:
 109:./../../firmware/GD32VF103_standard_peripheral/Source/gd32vf103_pmu.c ****         clear_csr(mstatus, MSTATUS_MIE);
 151              		.loc 1 109 9 discriminator 1
 152              	 #NO_APP
 153              	.LBE34:
 154              		.loc 1 110 9 discriminator 1
 155              	.LBB35:
 156              		.loc 1 110 9 discriminator 1
 157              		.loc 1 110 9 discriminator 1
 158              		.loc 1 110 9 discriminator 1
 159              	 #APP
 160              	# 110 "./../../firmware/GD32VF103_standard_peripheral/Source/gd32vf103_pmu.c" 1
 111              	        __WFI();
 161              		csrrs a5, 0x810U, 1
 162              	# 0 "" 2
 163              	.LVL7:
 110:./../../firmware/GD32VF103_standard_peripheral/Source/gd32vf103_pmu.c ****         __WFI();
 164              		.loc 1 110 9 discriminator 1
 165              	 #NO_APP
 166              	.LBE35:
 167              		.loc 1 111 9 discriminator 1
 168              	.LBB36:
 169              	.LBB37:
  90:./../../firmware/RISCV/drivers/n200_func.h **** }
 170              		.loc 2 90 5 discriminator 1
 171              	 #APP
 172              	# 90 "./../../firmware/RISCV/drivers/n200_func.h" 1
 173              		wfi
 174              	# 0 "" 2
 175              	 #NO_APP
 176              	.LBE37:
 177              	.LBE36:
 112:./../../firmware/GD32VF103_standard_peripheral/Source/gd32vf103_pmu.c ****         clear_csr(0x810U, 0x1U);
 178              		.loc 1 112 9 discriminator 1
 179              	.LBB38:
 180              		.loc 1 112 9 discriminator 1
 181              		.loc 1 112 9 discriminator 1
 182              		.loc 1 112 9 discriminator 1
 183              	 #APP
 184              	# 112 "./../../firmware/GD32VF103_standard_peripheral/Source/gd32vf103_pmu.c" 1
 113              	        set_csr(mstatus, MSTATUS_MIE);
 185              		csrrc a5, 0x810U, 1
 186              	# 0 "" 2
 187              	.LVL8:
 112:./../../firmware/GD32VF103_standard_peripheral/Source/gd32vf103_pmu.c ****         clear_csr(0x810U, 0x1U);
 188              		.loc 1 112 9 discriminator 1
 189              	 #NO_APP
 190              	.LBE38:
 191              		.loc 1 113 9 discriminator 1
GAS LISTING C:\Users\Karzan\AppData\Local\Temp\cccP2hOc.s 			page 8


 192              	.LBB39:
 193              		.loc 1 113 9 discriminator 1
 194              		.loc 1 113 9 discriminator 1
 195              		.loc 1 113 9 discriminator 1
 196              	 #APP
 197              	# 113 "./../../firmware/GD32VF103_standard_peripheral/Source/gd32vf103_pmu.c" 1
 114              	    }
 198              		csrrs a5, mstatus, 8
 199              	# 0 "" 2
 200              	.LVL9:
 113:./../../firmware/GD32VF103_standard_peripheral/Source/gd32vf103_pmu.c ****     }
 201              		.loc 1 113 9 discriminator 1
 202              	 #NO_APP
 203              	.LBE39:
 115:./../../firmware/GD32VF103_standard_peripheral/Source/gd32vf103_pmu.c **** }
 204              		.loc 1 115 1 is_stmt 0 discriminator 1
 205 0020 8280     		ret
 206              		.cfi_endproc
 207              	.LFE5:
 209              		.section	.text.pmu_to_deepsleepmode,"ax",@progbits
 210              		.align	1
 211              		.globl	pmu_to_deepsleepmode
 213              	pmu_to_deepsleepmode:
 214              	.LFB6:
 116:./../../firmware/GD32VF103_standard_peripheral/Source/gd32vf103_pmu.c **** 
 117:./../../firmware/GD32VF103_standard_peripheral/Source/gd32vf103_pmu.c **** /*!
 118:./../../firmware/GD32VF103_standard_peripheral/Source/gd32vf103_pmu.c ****     \brief      PMU work at deepsleep mode
 119:./../../firmware/GD32VF103_standard_peripheral/Source/gd32vf103_pmu.c ****     \param[in]  ldo:
 120:./../../firmware/GD32VF103_standard_peripheral/Source/gd32vf103_pmu.c ****                 only one parameter can be selected which is shown as below:
 121:./../../firmware/GD32VF103_standard_peripheral/Source/gd32vf103_pmu.c ****       \arg        PMU_LDO_NORMAL: LDO work at normal power mode when pmu enter deepsleep mode
 122:./../../firmware/GD32VF103_standard_peripheral/Source/gd32vf103_pmu.c ****       \arg        PMU_LDO_LOWPOWER: LDO work at low power mode when pmu enter deepsleep mode
 123:./../../firmware/GD32VF103_standard_peripheral/Source/gd32vf103_pmu.c ****     \param[in]  deepsleepmodecmd:
 124:./../../firmware/GD32VF103_standard_peripheral/Source/gd32vf103_pmu.c ****                 only one parameter can be selected which is shown as below:
 125:./../../firmware/GD32VF103_standard_peripheral/Source/gd32vf103_pmu.c ****       \arg        WFI_CMD: use WFI command
 126:./../../firmware/GD32VF103_standard_peripheral/Source/gd32vf103_pmu.c ****       \arg        WFE_CMD: use WFE command
 127:./../../firmware/GD32VF103_standard_peripheral/Source/gd32vf103_pmu.c ****     \param[out] none
 128:./../../firmware/GD32VF103_standard_peripheral/Source/gd32vf103_pmu.c ****     \retval     none
 129:./../../firmware/GD32VF103_standard_peripheral/Source/gd32vf103_pmu.c **** */
 130:./../../firmware/GD32VF103_standard_peripheral/Source/gd32vf103_pmu.c **** void pmu_to_deepsleepmode(uint32_t ldo,uint8_t deepsleepmodecmd)
 131:./../../firmware/GD32VF103_standard_peripheral/Source/gd32vf103_pmu.c **** {
 215              		.loc 1 131 1 is_stmt 1
 216              		.cfi_startproc
 217              	.LVL10:
 132:./../../firmware/GD32VF103_standard_peripheral/Source/gd32vf103_pmu.c ****     /* clear stbmod and ldolp bits */
 133:./../../firmware/GD32VF103_standard_peripheral/Source/gd32vf103_pmu.c ****     PMU_CTL &= ~((uint32_t)(PMU_CTL_STBMOD | PMU_CTL_LDOLP));
 218              		.loc 1 133 5
 219              		.loc 1 133 13 is_stmt 0
 220 0000 B7770040 		li	a5,1073770496
 221 0004 9843     		lw	a4,0(a5)
 222 0006 719B     		andi	a4,a4,-4
 223 0008 98C3     		sw	a4,0(a5)
 134:./../../firmware/GD32VF103_standard_peripheral/Source/gd32vf103_pmu.c ****     /* set ldolp bit according to pmu_ldo */
 135:./../../firmware/GD32VF103_standard_peripheral/Source/gd32vf103_pmu.c ****     PMU_CTL |= ldo;
 224              		.loc 1 135 5 is_stmt 1
 225              		.loc 1 135 13 is_stmt 0
 226 000a 9843     		lw	a4,0(a5)
 227 000c 598D     		or	a0,a4,a0
GAS LISTING C:\Users\Karzan\AppData\Local\Temp\cccP2hOc.s 			page 9


 228              	.LVL11:
 229 000e 88C3     		sw	a0,0(a5)
 136:./../../firmware/GD32VF103_standard_peripheral/Source/gd32vf103_pmu.c ****     /* set CSR_SLEEPVALUE bit of RISC-V system control register */
 137:./../../firmware/GD32VF103_standard_peripheral/Source/gd32vf103_pmu.c ****     set_csr(0x811U, 0x1U);
 230              		.loc 1 137 5 is_stmt 1
 231              	.LBB40:
 232              		.loc 1 137 5
 233              		.loc 1 137 5
 234              		.loc 1 137 5
 235              	 #APP
 236              	# 137 "./../../firmware/GD32VF103_standard_peripheral/Source/gd32vf103_pmu.c" 1
 138              	    /* select WFI or WFE command to enter deepsleep mode */
 237              		csrrs a5, 0x811U, 1
 238              	# 0 "" 2
 239              	.LVL12:
 137:./../../firmware/GD32VF103_standard_peripheral/Source/gd32vf103_pmu.c ****     set_csr(0x811U, 0x1U);
 240              		.loc 1 137 5
 241              	 #NO_APP
 242              	.LBE40:
 139:./../../firmware/GD32VF103_standard_peripheral/Source/gd32vf103_pmu.c ****     if(WFI_CMD == deepsleepmodecmd){
 243              		.loc 1 139 5
 244              		.loc 1 139 7 is_stmt 0
 245 0014 91E5     		bne	a1,zero,.L9
 140:./../../firmware/GD32VF103_standard_peripheral/Source/gd32vf103_pmu.c ****         __WFI();
 246              		.loc 1 140 9 is_stmt 1
 247              	.LBB41:
 248              	.LBB42:
  90:./../../firmware/RISCV/drivers/n200_func.h **** }
 249              		.loc 2 90 5
 250              	 #APP
 251              	# 90 "./../../firmware/RISCV/drivers/n200_func.h" 1
 252              		wfi
 253              	# 0 "" 2
 254              	 #NO_APP
 255              	.L10:
 256              	.LBE42:
 257              	.LBE41:
 141:./../../firmware/GD32VF103_standard_peripheral/Source/gd32vf103_pmu.c ****     }else{
 142:./../../firmware/GD32VF103_standard_peripheral/Source/gd32vf103_pmu.c ****         clear_csr(mstatus, MSTATUS_MIE);
 143:./../../firmware/GD32VF103_standard_peripheral/Source/gd32vf103_pmu.c ****         set_csr(0x810U, 0x1U);
 144:./../../firmware/GD32VF103_standard_peripheral/Source/gd32vf103_pmu.c ****         __WFI();
 145:./../../firmware/GD32VF103_standard_peripheral/Source/gd32vf103_pmu.c ****         clear_csr(0x810U, 0x1U);
 146:./../../firmware/GD32VF103_standard_peripheral/Source/gd32vf103_pmu.c ****         set_csr(mstatus, MSTATUS_MIE);
 147:./../../firmware/GD32VF103_standard_peripheral/Source/gd32vf103_pmu.c ****     }
 148:./../../firmware/GD32VF103_standard_peripheral/Source/gd32vf103_pmu.c ****     /* reset sleepdeep bit of RISC-V system control register */
 149:./../../firmware/GD32VF103_standard_peripheral/Source/gd32vf103_pmu.c ****     clear_csr(0x811U, 0x1U);
 258              		.loc 1 149 5 discriminator 1
 259              	.LBB43:
 260              		.loc 1 149 5 discriminator 1
 261              		.loc 1 149 5 discriminator 1
 262              		.loc 1 149 5 discriminator 1
 263              	 #APP
 264              	# 149 "./../../firmware/GD32VF103_standard_peripheral/Source/gd32vf103_pmu.c" 1
 150              	}
 265              		csrrc a5, 0x811U, 1
 266              	# 0 "" 2
 267              	.LVL13:
GAS LISTING C:\Users\Karzan\AppData\Local\Temp\cccP2hOc.s 			page 10


 149:./../../firmware/GD32VF103_standard_peripheral/Source/gd32vf103_pmu.c ****     clear_csr(0x811U, 0x1U);
 268              		.loc 1 149 5 discriminator 1
 269              	 #NO_APP
 270              	.LBE43:
 271              		.loc 1 150 1 is_stmt 0 discriminator 1
 272 001e 8280     		ret
 273              	.L9:
 142:./../../firmware/GD32VF103_standard_peripheral/Source/gd32vf103_pmu.c ****         set_csr(0x810U, 0x1U);
 274              		.loc 1 142 9 is_stmt 1 discriminator 1
 275              	.LBB44:
 142:./../../firmware/GD32VF103_standard_peripheral/Source/gd32vf103_pmu.c ****         set_csr(0x810U, 0x1U);
 276              		.loc 1 142 9 discriminator 1
 142:./../../firmware/GD32VF103_standard_peripheral/Source/gd32vf103_pmu.c ****         set_csr(0x810U, 0x1U);
 277              		.loc 1 142 9 discriminator 1
 142:./../../firmware/GD32VF103_standard_peripheral/Source/gd32vf103_pmu.c ****         set_csr(0x810U, 0x1U);
 278              		.loc 1 142 9 discriminator 1
 279              	 #APP
 280              	# 142 "./../../firmware/GD32VF103_standard_peripheral/Source/gd32vf103_pmu.c" 1
 281              		csrrc a5, mstatus, 8
 282              	# 0 "" 2
 283              	.LVL14:
 142:./../../firmware/GD32VF103_standard_peripheral/Source/gd32vf103_pmu.c ****         set_csr(0x810U, 0x1U);
 284              		.loc 1 142 9 discriminator 1
 285              	 #NO_APP
 286              	.LBE44:
 143:./../../firmware/GD32VF103_standard_peripheral/Source/gd32vf103_pmu.c ****         __WFI();
 287              		.loc 1 143 9 discriminator 1
 288              	.LBB45:
 143:./../../firmware/GD32VF103_standard_peripheral/Source/gd32vf103_pmu.c ****         __WFI();
 289              		.loc 1 143 9 discriminator 1
 143:./../../firmware/GD32VF103_standard_peripheral/Source/gd32vf103_pmu.c ****         __WFI();
 290              		.loc 1 143 9 discriminator 1
 143:./../../firmware/GD32VF103_standard_peripheral/Source/gd32vf103_pmu.c ****         __WFI();
 291              		.loc 1 143 9 discriminator 1
 292              	 #APP
 293              	# 143 "./../../firmware/GD32VF103_standard_peripheral/Source/gd32vf103_pmu.c" 1
 294              		csrrs a5, 0x810U, 1
 295              	# 0 "" 2
 296              	.LVL15:
 143:./../../firmware/GD32VF103_standard_peripheral/Source/gd32vf103_pmu.c ****         __WFI();
 297              		.loc 1 143 9 discriminator 1
 298              	 #NO_APP
 299              	.LBE45:
 144:./../../firmware/GD32VF103_standard_peripheral/Source/gd32vf103_pmu.c ****         clear_csr(0x810U, 0x1U);
 300              		.loc 1 144 9 discriminator 1
 301              	.LBB46:
 302              	.LBB47:
  90:./../../firmware/RISCV/drivers/n200_func.h **** }
 303              		.loc 2 90 5 discriminator 1
 304              	 #APP
 305              	# 90 "./../../firmware/RISCV/drivers/n200_func.h" 1
 306              		wfi
 307              	# 0 "" 2
 308              	 #NO_APP
 309              	.LBE47:
 310              	.LBE46:
 145:./../../firmware/GD32VF103_standard_peripheral/Source/gd32vf103_pmu.c ****         set_csr(mstatus, MSTATUS_MIE);
GAS LISTING C:\Users\Karzan\AppData\Local\Temp\cccP2hOc.s 			page 11


 311              		.loc 1 145 9 discriminator 1
 312              	.LBB48:
 145:./../../firmware/GD32VF103_standard_peripheral/Source/gd32vf103_pmu.c ****         set_csr(mstatus, MSTATUS_MIE);
 313              		.loc 1 145 9 discriminator 1
 145:./../../firmware/GD32VF103_standard_peripheral/Source/gd32vf103_pmu.c ****         set_csr(mstatus, MSTATUS_MIE);
 314              		.loc 1 145 9 discriminator 1
 145:./../../firmware/GD32VF103_standard_peripheral/Source/gd32vf103_pmu.c ****         set_csr(mstatus, MSTATUS_MIE);
 315              		.loc 1 145 9 discriminator 1
 316              	 #APP
 317              	# 145 "./../../firmware/GD32VF103_standard_peripheral/Source/gd32vf103_pmu.c" 1
 318              		csrrc a5, 0x810U, 1
 319              	# 0 "" 2
 320              	.LVL16:
 145:./../../firmware/GD32VF103_standard_peripheral/Source/gd32vf103_pmu.c ****         set_csr(mstatus, MSTATUS_MIE);
 321              		.loc 1 145 9 discriminator 1
 322              	 #NO_APP
 323              	.LBE48:
 146:./../../firmware/GD32VF103_standard_peripheral/Source/gd32vf103_pmu.c ****     }
 324              		.loc 1 146 9 discriminator 1
 325              	.LBB49:
 146:./../../firmware/GD32VF103_standard_peripheral/Source/gd32vf103_pmu.c ****     }
 326              		.loc 1 146 9 discriminator 1
 146:./../../firmware/GD32VF103_standard_peripheral/Source/gd32vf103_pmu.c ****     }
 327              		.loc 1 146 9 discriminator 1
 146:./../../firmware/GD32VF103_standard_peripheral/Source/gd32vf103_pmu.c ****     }
 328              		.loc 1 146 9 discriminator 1
 329              	 #APP
 330              	# 146 "./../../firmware/GD32VF103_standard_peripheral/Source/gd32vf103_pmu.c" 1
 331              		csrrs a5, mstatus, 8
 332              	# 0 "" 2
 333              	.LVL17:
 146:./../../firmware/GD32VF103_standard_peripheral/Source/gd32vf103_pmu.c ****     }
 334              		.loc 1 146 9 discriminator 1
 335              	 #NO_APP
 336 0034 DDB7     		j	.L10
 337              	.LBE49:
 338              		.cfi_endproc
 339              	.LFE6:
 341              		.section	.text.pmu_to_standbymode,"ax",@progbits
 342              		.align	1
 343              		.globl	pmu_to_standbymode
 345              	pmu_to_standbymode:
 346              	.LFB7:
 151:./../../firmware/GD32VF103_standard_peripheral/Source/gd32vf103_pmu.c **** 
 152:./../../firmware/GD32VF103_standard_peripheral/Source/gd32vf103_pmu.c **** /*!
 153:./../../firmware/GD32VF103_standard_peripheral/Source/gd32vf103_pmu.c ****     \brief      pmu work at standby mode
 154:./../../firmware/GD32VF103_standard_peripheral/Source/gd32vf103_pmu.c ****     \param[in]  standbymodecmd:
 155:./../../firmware/GD32VF103_standard_peripheral/Source/gd32vf103_pmu.c ****                 only one parameter can be selected which is shown as below:
 156:./../../firmware/GD32VF103_standard_peripheral/Source/gd32vf103_pmu.c ****       \arg        WFI_CMD: use WFI command
 157:./../../firmware/GD32VF103_standard_peripheral/Source/gd32vf103_pmu.c ****       \arg        WFE_CMD: use WFE command
 158:./../../firmware/GD32VF103_standard_peripheral/Source/gd32vf103_pmu.c ****     \param[out] none
 159:./../../firmware/GD32VF103_standard_peripheral/Source/gd32vf103_pmu.c ****     \retval     none
 160:./../../firmware/GD32VF103_standard_peripheral/Source/gd32vf103_pmu.c **** */
 161:./../../firmware/GD32VF103_standard_peripheral/Source/gd32vf103_pmu.c **** void pmu_to_standbymode(uint8_t standbymodecmd)
 162:./../../firmware/GD32VF103_standard_peripheral/Source/gd32vf103_pmu.c **** {
 347              		.loc 1 162 1
 348              		.cfi_startproc
GAS LISTING C:\Users\Karzan\AppData\Local\Temp\cccP2hOc.s 			page 12


 349              	.LVL18:
 163:./../../firmware/GD32VF103_standard_peripheral/Source/gd32vf103_pmu.c ****     /* set CSR_SLEEPVALUE bit of RISC-V system control register */
 164:./../../firmware/GD32VF103_standard_peripheral/Source/gd32vf103_pmu.c ****     set_csr(0x811U, 0x1U);
 350              		.loc 1 164 5
 351              	.LBB50:
 352              		.loc 1 164 5
 353              		.loc 1 164 5
 354              		.loc 1 164 5
 355              	 #APP
 356              	# 164 "./../../firmware/GD32VF103_standard_peripheral/Source/gd32vf103_pmu.c" 1
 165              	
 357              		csrrs a5, 0x811U, 1
 358              	# 0 "" 2
 359              	.LVL19:
 164:./../../firmware/GD32VF103_standard_peripheral/Source/gd32vf103_pmu.c ****     set_csr(0x811U, 0x1U);
 360              		.loc 1 164 5
 361              	 #NO_APP
 362              	.LBE50:
 166:./../../firmware/GD32VF103_standard_peripheral/Source/gd32vf103_pmu.c ****     /* set stbmod bit */
 167:./../../firmware/GD32VF103_standard_peripheral/Source/gd32vf103_pmu.c ****     PMU_CTL |= PMU_CTL_STBMOD;
 363              		.loc 1 167 5
 364              		.loc 1 167 13 is_stmt 0
 365 0004 B7770040 		li	a5,1073770496
 366 0008 9843     		lw	a4,0(a5)
 367 000a 13672700 		ori	a4,a4,2
 368 000e 98C3     		sw	a4,0(a5)
 168:./../../firmware/GD32VF103_standard_peripheral/Source/gd32vf103_pmu.c **** 
 169:./../../firmware/GD32VF103_standard_peripheral/Source/gd32vf103_pmu.c ****     /* reset wakeup flag */
 170:./../../firmware/GD32VF103_standard_peripheral/Source/gd32vf103_pmu.c ****     PMU_CTL |= PMU_CTL_WURST;
 369              		.loc 1 170 5 is_stmt 1
 370              		.loc 1 170 13 is_stmt 0
 371 0010 9843     		lw	a4,0(a5)
 372 0012 13674700 		ori	a4,a4,4
 373 0016 98C3     		sw	a4,0(a5)
 171:./../../firmware/GD32VF103_standard_peripheral/Source/gd32vf103_pmu.c **** 
 172:./../../firmware/GD32VF103_standard_peripheral/Source/gd32vf103_pmu.c ****     /* select WFI or WFE command to enter standby mode */
 173:./../../firmware/GD32VF103_standard_peripheral/Source/gd32vf103_pmu.c ****     if(WFI_CMD == standbymodecmd){
 374              		.loc 1 173 5 is_stmt 1
 375              		.loc 1 173 7 is_stmt 0
 376 0018 11E5     		bne	a0,zero,.L12
 174:./../../firmware/GD32VF103_standard_peripheral/Source/gd32vf103_pmu.c ****         __WFI();
 377              		.loc 1 174 9 is_stmt 1
 378              	.LBB51:
 379              	.LBB52:
  90:./../../firmware/RISCV/drivers/n200_func.h **** }
 380              		.loc 2 90 5
 381              	 #APP
 382              	# 90 "./../../firmware/RISCV/drivers/n200_func.h" 1
 383              		wfi
 384              	# 0 "" 2
 385              	 #NO_APP
 386              	.L13:
 387              	.LBE52:
 388              	.LBE51:
 175:./../../firmware/GD32VF103_standard_peripheral/Source/gd32vf103_pmu.c ****     }else{
 176:./../../firmware/GD32VF103_standard_peripheral/Source/gd32vf103_pmu.c ****         clear_csr(mstatus, MSTATUS_MIE);
 177:./../../firmware/GD32VF103_standard_peripheral/Source/gd32vf103_pmu.c ****         set_csr(0x810U, 0x1U);
GAS LISTING C:\Users\Karzan\AppData\Local\Temp\cccP2hOc.s 			page 13


 178:./../../firmware/GD32VF103_standard_peripheral/Source/gd32vf103_pmu.c ****         __WFI();
 179:./../../firmware/GD32VF103_standard_peripheral/Source/gd32vf103_pmu.c ****         clear_csr(0x810U, 0x1U);
 180:./../../firmware/GD32VF103_standard_peripheral/Source/gd32vf103_pmu.c ****         set_csr(mstatus, MSTATUS_MIE);
 181:./../../firmware/GD32VF103_standard_peripheral/Source/gd32vf103_pmu.c ****     }
 182:./../../firmware/GD32VF103_standard_peripheral/Source/gd32vf103_pmu.c ****     clear_csr(0x811U, 0x1U);
 389              		.loc 1 182 5 discriminator 1
 390              	.LBB53:
 391              		.loc 1 182 5 discriminator 1
 392              		.loc 1 182 5 discriminator 1
 393              		.loc 1 182 5 discriminator 1
 394              	 #APP
 395              	# 182 "./../../firmware/GD32VF103_standard_peripheral/Source/gd32vf103_pmu.c" 1
 183              	}
 396              		csrrc a5, 0x811U, 1
 397              	# 0 "" 2
 398              	.LVL20:
 182:./../../firmware/GD32VF103_standard_peripheral/Source/gd32vf103_pmu.c ****     clear_csr(0x811U, 0x1U);
 399              		.loc 1 182 5 discriminator 1
 400              	 #NO_APP
 401              	.LBE53:
 402              		.loc 1 183 1 is_stmt 0 discriminator 1
 403 0022 8280     		ret
 404              	.L12:
 176:./../../firmware/GD32VF103_standard_peripheral/Source/gd32vf103_pmu.c ****         set_csr(0x810U, 0x1U);
 405              		.loc 1 176 9 is_stmt 1 discriminator 1
 406              	.LBB54:
 176:./../../firmware/GD32VF103_standard_peripheral/Source/gd32vf103_pmu.c ****         set_csr(0x810U, 0x1U);
 407              		.loc 1 176 9 discriminator 1
 176:./../../firmware/GD32VF103_standard_peripheral/Source/gd32vf103_pmu.c ****         set_csr(0x810U, 0x1U);
 408              		.loc 1 176 9 discriminator 1
 176:./../../firmware/GD32VF103_standard_peripheral/Source/gd32vf103_pmu.c ****         set_csr(0x810U, 0x1U);
 409              		.loc 1 176 9 discriminator 1
 410              	 #APP
 411              	# 176 "./../../firmware/GD32VF103_standard_peripheral/Source/gd32vf103_pmu.c" 1
 412              		csrrc a5, mstatus, 8
 413              	# 0 "" 2
 414              	.LVL21:
 176:./../../firmware/GD32VF103_standard_peripheral/Source/gd32vf103_pmu.c ****         set_csr(0x810U, 0x1U);
 415              		.loc 1 176 9 discriminator 1
 416              	 #NO_APP
 417              	.LBE54:
 177:./../../firmware/GD32VF103_standard_peripheral/Source/gd32vf103_pmu.c ****         __WFI();
 418              		.loc 1 177 9 discriminator 1
 419              	.LBB55:
 177:./../../firmware/GD32VF103_standard_peripheral/Source/gd32vf103_pmu.c ****         __WFI();
 420              		.loc 1 177 9 discriminator 1
 177:./../../firmware/GD32VF103_standard_peripheral/Source/gd32vf103_pmu.c ****         __WFI();
 421              		.loc 1 177 9 discriminator 1
 177:./../../firmware/GD32VF103_standard_peripheral/Source/gd32vf103_pmu.c ****         __WFI();
 422              		.loc 1 177 9 discriminator 1
 423              	 #APP
 424              	# 177 "./../../firmware/GD32VF103_standard_peripheral/Source/gd32vf103_pmu.c" 1
 425              		csrrs a5, 0x810U, 1
 426              	# 0 "" 2
 427              	.LVL22:
 177:./../../firmware/GD32VF103_standard_peripheral/Source/gd32vf103_pmu.c ****         __WFI();
 428              		.loc 1 177 9 discriminator 1
GAS LISTING C:\Users\Karzan\AppData\Local\Temp\cccP2hOc.s 			page 14


 429              	 #NO_APP
 430              	.LBE55:
 178:./../../firmware/GD32VF103_standard_peripheral/Source/gd32vf103_pmu.c ****         clear_csr(0x810U, 0x1U);
 431              		.loc 1 178 9 discriminator 1
 432              	.LBB56:
 433              	.LBB57:
  90:./../../firmware/RISCV/drivers/n200_func.h **** }
 434              		.loc 2 90 5 discriminator 1
 435              	 #APP
 436              	# 90 "./../../firmware/RISCV/drivers/n200_func.h" 1
 437              		wfi
 438              	# 0 "" 2
 439              	 #NO_APP
 440              	.LBE57:
 441              	.LBE56:
 179:./../../firmware/GD32VF103_standard_peripheral/Source/gd32vf103_pmu.c ****         set_csr(mstatus, MSTATUS_MIE);
 442              		.loc 1 179 9 discriminator 1
 443              	.LBB58:
 179:./../../firmware/GD32VF103_standard_peripheral/Source/gd32vf103_pmu.c ****         set_csr(mstatus, MSTATUS_MIE);
 444              		.loc 1 179 9 discriminator 1
 179:./../../firmware/GD32VF103_standard_peripheral/Source/gd32vf103_pmu.c ****         set_csr(mstatus, MSTATUS_MIE);
 445              		.loc 1 179 9 discriminator 1
 179:./../../firmware/GD32VF103_standard_peripheral/Source/gd32vf103_pmu.c ****         set_csr(mstatus, MSTATUS_MIE);
 446              		.loc 1 179 9 discriminator 1
 447              	 #APP
 448              	# 179 "./../../firmware/GD32VF103_standard_peripheral/Source/gd32vf103_pmu.c" 1
 449              		csrrc a5, 0x810U, 1
 450              	# 0 "" 2
 451              	.LVL23:
 179:./../../firmware/GD32VF103_standard_peripheral/Source/gd32vf103_pmu.c ****         set_csr(mstatus, MSTATUS_MIE);
 452              		.loc 1 179 9 discriminator 1
 453              	 #NO_APP
 454              	.LBE58:
 180:./../../firmware/GD32VF103_standard_peripheral/Source/gd32vf103_pmu.c ****     }
 455              		.loc 1 180 9 discriminator 1
 456              	.LBB59:
 180:./../../firmware/GD32VF103_standard_peripheral/Source/gd32vf103_pmu.c ****     }
 457              		.loc 1 180 9 discriminator 1
 180:./../../firmware/GD32VF103_standard_peripheral/Source/gd32vf103_pmu.c ****     }
 458              		.loc 1 180 9 discriminator 1
 180:./../../firmware/GD32VF103_standard_peripheral/Source/gd32vf103_pmu.c ****     }
 459              		.loc 1 180 9 discriminator 1
 460              	 #APP
 461              	# 180 "./../../firmware/GD32VF103_standard_peripheral/Source/gd32vf103_pmu.c" 1
 462              		csrrs a5, mstatus, 8
 463              	# 0 "" 2
 464              	.LVL24:
 180:./../../firmware/GD32VF103_standard_peripheral/Source/gd32vf103_pmu.c ****     }
 465              		.loc 1 180 9 discriminator 1
 466              	 #NO_APP
 467 0038 DDB7     		j	.L13
 468              	.LBE59:
 469              		.cfi_endproc
 470              	.LFE7:
 472              		.section	.text.pmu_wakeup_pin_enable,"ax",@progbits
 473              		.align	1
 474              		.globl	pmu_wakeup_pin_enable
GAS LISTING C:\Users\Karzan\AppData\Local\Temp\cccP2hOc.s 			page 15


 476              	pmu_wakeup_pin_enable:
 477              	.LFB8:
 184:./../../firmware/GD32VF103_standard_peripheral/Source/gd32vf103_pmu.c **** 
 185:./../../firmware/GD32VF103_standard_peripheral/Source/gd32vf103_pmu.c **** /*!
 186:./../../firmware/GD32VF103_standard_peripheral/Source/gd32vf103_pmu.c ****     \brief      enable wakeup pin
 187:./../../firmware/GD32VF103_standard_peripheral/Source/gd32vf103_pmu.c ****     \param[in]  none
 188:./../../firmware/GD32VF103_standard_peripheral/Source/gd32vf103_pmu.c ****     \param[out] none
 189:./../../firmware/GD32VF103_standard_peripheral/Source/gd32vf103_pmu.c ****     \retval     none
 190:./../../firmware/GD32VF103_standard_peripheral/Source/gd32vf103_pmu.c **** */
 191:./../../firmware/GD32VF103_standard_peripheral/Source/gd32vf103_pmu.c **** void pmu_wakeup_pin_enable(void)
 192:./../../firmware/GD32VF103_standard_peripheral/Source/gd32vf103_pmu.c **** {
 478              		.loc 1 192 1
 479              		.cfi_startproc
 193:./../../firmware/GD32VF103_standard_peripheral/Source/gd32vf103_pmu.c ****     PMU_CS |= PMU_CS_WUPEN;
 480              		.loc 1 193 5
 481              		.loc 1 193 12 is_stmt 0
 482 0000 37770040 		li	a4,1073770496
 483 0004 5C43     		lw	a5,4(a4)
 484 0006 93E70710 		ori	a5,a5,256
 485 000a 5CC3     		sw	a5,4(a4)
 194:./../../firmware/GD32VF103_standard_peripheral/Source/gd32vf103_pmu.c **** }
 486              		.loc 1 194 1
 487 000c 8280     		ret
 488              		.cfi_endproc
 489              	.LFE8:
 491              		.section	.text.pmu_wakeup_pin_disable,"ax",@progbits
 492              		.align	1
 493              		.globl	pmu_wakeup_pin_disable
 495              	pmu_wakeup_pin_disable:
 496              	.LFB9:
 195:./../../firmware/GD32VF103_standard_peripheral/Source/gd32vf103_pmu.c **** 
 196:./../../firmware/GD32VF103_standard_peripheral/Source/gd32vf103_pmu.c **** /*!
 197:./../../firmware/GD32VF103_standard_peripheral/Source/gd32vf103_pmu.c ****     \brief      disable wakeup pin
 198:./../../firmware/GD32VF103_standard_peripheral/Source/gd32vf103_pmu.c ****     \param[in]  none
 199:./../../firmware/GD32VF103_standard_peripheral/Source/gd32vf103_pmu.c ****     \param[out] none
 200:./../../firmware/GD32VF103_standard_peripheral/Source/gd32vf103_pmu.c ****     \retval     none
 201:./../../firmware/GD32VF103_standard_peripheral/Source/gd32vf103_pmu.c **** */
 202:./../../firmware/GD32VF103_standard_peripheral/Source/gd32vf103_pmu.c **** void pmu_wakeup_pin_disable(void)
 203:./../../firmware/GD32VF103_standard_peripheral/Source/gd32vf103_pmu.c **** {
 497              		.loc 1 203 1 is_stmt 1
 498              		.cfi_startproc
 204:./../../firmware/GD32VF103_standard_peripheral/Source/gd32vf103_pmu.c ****     PMU_CS &= ~PMU_CS_WUPEN;
 499              		.loc 1 204 5
 500              		.loc 1 204 12 is_stmt 0
 501 0000 37770040 		li	a4,1073770496
 502 0004 5C43     		lw	a5,4(a4)
 503 0006 93F7F7EF 		andi	a5,a5,-257
 504 000a 5CC3     		sw	a5,4(a4)
 205:./../../firmware/GD32VF103_standard_peripheral/Source/gd32vf103_pmu.c **** }
 505              		.loc 1 205 1
 506 000c 8280     		ret
 507              		.cfi_endproc
 508              	.LFE9:
 510              		.section	.text.pmu_backup_write_enable,"ax",@progbits
 511              		.align	1
 512              		.globl	pmu_backup_write_enable
 514              	pmu_backup_write_enable:
GAS LISTING C:\Users\Karzan\AppData\Local\Temp\cccP2hOc.s 			page 16


 515              	.LFB10:
 206:./../../firmware/GD32VF103_standard_peripheral/Source/gd32vf103_pmu.c **** 
 207:./../../firmware/GD32VF103_standard_peripheral/Source/gd32vf103_pmu.c **** /*!
 208:./../../firmware/GD32VF103_standard_peripheral/Source/gd32vf103_pmu.c ****     \brief      enable write access to the registers in backup domain
 209:./../../firmware/GD32VF103_standard_peripheral/Source/gd32vf103_pmu.c ****     \param[in]  none
 210:./../../firmware/GD32VF103_standard_peripheral/Source/gd32vf103_pmu.c ****     \param[out] none
 211:./../../firmware/GD32VF103_standard_peripheral/Source/gd32vf103_pmu.c ****     \retval     none
 212:./../../firmware/GD32VF103_standard_peripheral/Source/gd32vf103_pmu.c **** */
 213:./../../firmware/GD32VF103_standard_peripheral/Source/gd32vf103_pmu.c **** void pmu_backup_write_enable(void)
 214:./../../firmware/GD32VF103_standard_peripheral/Source/gd32vf103_pmu.c **** {
 516              		.loc 1 214 1 is_stmt 1
 517              		.cfi_startproc
 215:./../../firmware/GD32VF103_standard_peripheral/Source/gd32vf103_pmu.c ****     PMU_CTL |= PMU_CTL_BKPWEN;
 518              		.loc 1 215 5
 519              		.loc 1 215 13 is_stmt 0
 520 0000 37770040 		li	a4,1073770496
 521 0004 1C43     		lw	a5,0(a4)
 522 0006 93E70710 		ori	a5,a5,256
 523 000a 1CC3     		sw	a5,0(a4)
 216:./../../firmware/GD32VF103_standard_peripheral/Source/gd32vf103_pmu.c **** }
 524              		.loc 1 216 1
 525 000c 8280     		ret
 526              		.cfi_endproc
 527              	.LFE10:
 529              		.section	.text.pmu_backup_write_disable,"ax",@progbits
 530              		.align	1
 531              		.globl	pmu_backup_write_disable
 533              	pmu_backup_write_disable:
 534              	.LFB11:
 217:./../../firmware/GD32VF103_standard_peripheral/Source/gd32vf103_pmu.c **** 
 218:./../../firmware/GD32VF103_standard_peripheral/Source/gd32vf103_pmu.c **** /*!
 219:./../../firmware/GD32VF103_standard_peripheral/Source/gd32vf103_pmu.c ****     \brief      disable write access to the registers in backup domain
 220:./../../firmware/GD32VF103_standard_peripheral/Source/gd32vf103_pmu.c ****     \param[in]  none
 221:./../../firmware/GD32VF103_standard_peripheral/Source/gd32vf103_pmu.c ****     \param[out] none
 222:./../../firmware/GD32VF103_standard_peripheral/Source/gd32vf103_pmu.c ****     \retval     none
 223:./../../firmware/GD32VF103_standard_peripheral/Source/gd32vf103_pmu.c **** */
 224:./../../firmware/GD32VF103_standard_peripheral/Source/gd32vf103_pmu.c **** void pmu_backup_write_disable(void)
 225:./../../firmware/GD32VF103_standard_peripheral/Source/gd32vf103_pmu.c **** {
 535              		.loc 1 225 1 is_stmt 1
 536              		.cfi_startproc
 226:./../../firmware/GD32VF103_standard_peripheral/Source/gd32vf103_pmu.c ****     PMU_CTL &= ~PMU_CTL_BKPWEN;
 537              		.loc 1 226 5
 538              		.loc 1 226 13 is_stmt 0
 539 0000 37770040 		li	a4,1073770496
 540 0004 1C43     		lw	a5,0(a4)
 541 0006 93F7F7EF 		andi	a5,a5,-257
 542 000a 1CC3     		sw	a5,0(a4)
 227:./../../firmware/GD32VF103_standard_peripheral/Source/gd32vf103_pmu.c **** }
 543              		.loc 1 227 1
 544 000c 8280     		ret
 545              		.cfi_endproc
 546              	.LFE11:
 548              		.section	.text.pmu_flag_get,"ax",@progbits
 549              		.align	1
 550              		.globl	pmu_flag_get
 552              	pmu_flag_get:
 553              	.LFB12:
GAS LISTING C:\Users\Karzan\AppData\Local\Temp\cccP2hOc.s 			page 17


 228:./../../firmware/GD32VF103_standard_peripheral/Source/gd32vf103_pmu.c **** 
 229:./../../firmware/GD32VF103_standard_peripheral/Source/gd32vf103_pmu.c **** /*!
 230:./../../firmware/GD32VF103_standard_peripheral/Source/gd32vf103_pmu.c ****     \brief      get flag state
 231:./../../firmware/GD32VF103_standard_peripheral/Source/gd32vf103_pmu.c ****     \param[in]  flag:
 232:./../../firmware/GD32VF103_standard_peripheral/Source/gd32vf103_pmu.c ****                 only one parameter can be selected which is shown as below:
 233:./../../firmware/GD32VF103_standard_peripheral/Source/gd32vf103_pmu.c ****       \arg        PMU_FLAG_WAKEUP: wakeup flag
 234:./../../firmware/GD32VF103_standard_peripheral/Source/gd32vf103_pmu.c ****       \arg        PMU_FLAG_STANDBY: standby flag
 235:./../../firmware/GD32VF103_standard_peripheral/Source/gd32vf103_pmu.c ****       \arg        PMU_FLAG_LVD: lvd flag
 236:./../../firmware/GD32VF103_standard_peripheral/Source/gd32vf103_pmu.c ****     \param[out] none
 237:./../../firmware/GD32VF103_standard_peripheral/Source/gd32vf103_pmu.c ****     \retval     FlagStatus SET or RESET
 238:./../../firmware/GD32VF103_standard_peripheral/Source/gd32vf103_pmu.c **** */
 239:./../../firmware/GD32VF103_standard_peripheral/Source/gd32vf103_pmu.c **** FlagStatus pmu_flag_get(uint32_t flag)
 240:./../../firmware/GD32VF103_standard_peripheral/Source/gd32vf103_pmu.c **** {
 554              		.loc 1 240 1 is_stmt 1
 555              		.cfi_startproc
 556              	.LVL25:
 241:./../../firmware/GD32VF103_standard_peripheral/Source/gd32vf103_pmu.c ****     if(PMU_CS & flag){
 557              		.loc 1 241 5
 558              		.loc 1 241 8 is_stmt 0
 559 0000 B7770040 		li	a5,1073770496
 560 0004 DC43     		lw	a5,4(a5)
 561              		.loc 1 241 15
 562 0006 7D8D     		and	a0,a5,a0
 563              	.LVL26:
 242:./../../firmware/GD32VF103_standard_peripheral/Source/gd32vf103_pmu.c ****         return  SET;
 243:./../../firmware/GD32VF103_standard_peripheral/Source/gd32vf103_pmu.c ****     }else{
 244:./../../firmware/GD32VF103_standard_peripheral/Source/gd32vf103_pmu.c ****         return  RESET;
 245:./../../firmware/GD32VF103_standard_peripheral/Source/gd32vf103_pmu.c ****     }
 246:./../../firmware/GD32VF103_standard_peripheral/Source/gd32vf103_pmu.c **** }
 564              		.loc 1 246 1
 565 0008 3335A000 		snez	a0,a0
 566 000c 8280     		ret
 567              		.cfi_endproc
 568              	.LFE12:
 570              		.section	.text.pmu_flag_clear,"ax",@progbits
 571              		.align	1
 572              		.globl	pmu_flag_clear
 574              	pmu_flag_clear:
 575              	.LFB13:
 247:./../../firmware/GD32VF103_standard_peripheral/Source/gd32vf103_pmu.c **** 
 248:./../../firmware/GD32VF103_standard_peripheral/Source/gd32vf103_pmu.c **** /*!
 249:./../../firmware/GD32VF103_standard_peripheral/Source/gd32vf103_pmu.c ****     \brief      clear flag bit
 250:./../../firmware/GD32VF103_standard_peripheral/Source/gd32vf103_pmu.c ****     \param[in]  flag_reset:
 251:./../../firmware/GD32VF103_standard_peripheral/Source/gd32vf103_pmu.c ****                 only one parameter can be selected which is shown as below:
 252:./../../firmware/GD32VF103_standard_peripheral/Source/gd32vf103_pmu.c ****       \arg        PMU_FLAG_RESET_WAKEUP: reset wakeup flag
 253:./../../firmware/GD32VF103_standard_peripheral/Source/gd32vf103_pmu.c ****       \arg        PMU_FLAG_RESET_STANDBY: reset standby flag
 254:./../../firmware/GD32VF103_standard_peripheral/Source/gd32vf103_pmu.c ****     \param[out] none
 255:./../../firmware/GD32VF103_standard_peripheral/Source/gd32vf103_pmu.c ****     \retval     none
 256:./../../firmware/GD32VF103_standard_peripheral/Source/gd32vf103_pmu.c **** */
 257:./../../firmware/GD32VF103_standard_peripheral/Source/gd32vf103_pmu.c **** void pmu_flag_clear(uint32_t flag_reset)
 258:./../../firmware/GD32VF103_standard_peripheral/Source/gd32vf103_pmu.c **** {
 576              		.loc 1 258 1 is_stmt 1
 577              		.cfi_startproc
 578              	.LVL27:
 259:./../../firmware/GD32VF103_standard_peripheral/Source/gd32vf103_pmu.c ****     switch(flag_reset){
 579              		.loc 1 259 5
 580 0000 09C5     		beq	a0,zero,.L20
GAS LISTING C:\Users\Karzan\AppData\Local\Temp\cccP2hOc.s 			page 18


 581 0002 8547     		li	a5,1
 582 0004 630AF500 		beq	a0,a5,.L21
 583 0008 8280     		ret
 584              	.L20:
 260:./../../firmware/GD32VF103_standard_peripheral/Source/gd32vf103_pmu.c ****     case PMU_FLAG_RESET_WAKEUP:
 261:./../../firmware/GD32VF103_standard_peripheral/Source/gd32vf103_pmu.c ****         /* reset wakeup flag */
 262:./../../firmware/GD32VF103_standard_peripheral/Source/gd32vf103_pmu.c ****         PMU_CTL |= PMU_CTL_WURST;
 585              		.loc 1 262 9
 586              		.loc 1 262 17 is_stmt 0
 587 000a 37770040 		li	a4,1073770496
 588 000e 1C43     		lw	a5,0(a4)
 589 0010 93E74700 		ori	a5,a5,4
 590              	.L23:
 263:./../../firmware/GD32VF103_standard_peripheral/Source/gd32vf103_pmu.c ****         break;
 264:./../../firmware/GD32VF103_standard_peripheral/Source/gd32vf103_pmu.c ****     case PMU_FLAG_RESET_STANDBY:
 265:./../../firmware/GD32VF103_standard_peripheral/Source/gd32vf103_pmu.c ****         /* reset standby flag */
 266:./../../firmware/GD32VF103_standard_peripheral/Source/gd32vf103_pmu.c ****         PMU_CTL |= PMU_CTL_STBRST;
 591              		.loc 1 266 17
 592 0014 1CC3     		sw	a5,0(a4)
 267:./../../firmware/GD32VF103_standard_peripheral/Source/gd32vf103_pmu.c ****         break;
 593              		.loc 1 267 9 is_stmt 1
 268:./../../firmware/GD32VF103_standard_peripheral/Source/gd32vf103_pmu.c ****     default :
 269:./../../firmware/GD32VF103_standard_peripheral/Source/gd32vf103_pmu.c ****         break;
 270:./../../firmware/GD32VF103_standard_peripheral/Source/gd32vf103_pmu.c ****     }
 271:./../../firmware/GD32VF103_standard_peripheral/Source/gd32vf103_pmu.c **** }
 594              		.loc 1 271 1 is_stmt 0
 595 0016 8280     		ret
 596              	.L21:
 266:./../../firmware/GD32VF103_standard_peripheral/Source/gd32vf103_pmu.c ****         break;
 597              		.loc 1 266 9 is_stmt 1
 266:./../../firmware/GD32VF103_standard_peripheral/Source/gd32vf103_pmu.c ****         break;
 598              		.loc 1 266 17 is_stmt 0
 599 0018 37770040 		li	a4,1073770496
 600 001c 1C43     		lw	a5,0(a4)
 601 001e 93E78700 		ori	a5,a5,8
 602 0022 CDBF     		j	.L23
 603              		.cfi_endproc
 604              	.LFE13:
 606              		.text
 607              	.Letext0:
 608              		.file 3 "c:\\users\\karzan\\downloads\\toolchain-gd32v-v202-win\\toolchain-gd32v-v202-win\\compile
 609              		.file 4 "c:\\users\\karzan\\downloads\\toolchain-gd32v-v202-win\\toolchain-gd32v-v202-win\\compile
 610              		.file 5 "./../../firmware/GD32VF103_standard_peripheral/gd32vf103.h"
 611              		.file 6 "./../../firmware/GD32VF103_standard_peripheral/Include/gd32vf103_rcu.h"
 612              		.file 7 "./../../firmware/GD32VF103_standard_peripheral/system_gd32vf103.h"
GAS LISTING C:\Users\Karzan\AppData\Local\Temp\cccP2hOc.s 			page 19


DEFINED SYMBOLS
                            *ABS*:0000000000000000 gd32vf103_pmu.c
C:\Users\Karzan\AppData\Local\Temp\cccP2hOc.s:13     .text.pmu_deinit:0000000000000000 pmu_deinit
C:\Users\Karzan\AppData\Local\Temp\cccP2hOc.s:17     .text.pmu_deinit:0000000000000000 .L0 
C:\Users\Karzan\AppData\Local\Temp\cccP2hOc.s:18     .text.pmu_deinit:0000000000000000 .L0 
C:\Users\Karzan\AppData\Local\Temp\cccP2hOc.s:19     .text.pmu_deinit:0000000000000000 .L0 
C:\Users\Karzan\AppData\Local\Temp\cccP2hOc.s:20     .text.pmu_deinit:0000000000000000 .L0 
C:\Users\Karzan\AppData\Local\Temp\cccP2hOc.s:22     .text.pmu_deinit:0000000000000002 .L0 
C:\Users\Karzan\AppData\Local\Temp\cccP2hOc.s:24     .text.pmu_deinit:0000000000000002 .L0 
C:\Users\Karzan\AppData\Local\Temp\cccP2hOc.s:26     .text.pmu_deinit:0000000000000006 .L0 
C:\Users\Karzan\AppData\Local\Temp\cccP2hOc.s:27     .text.pmu_deinit:0000000000000008 .L0 
C:\Users\Karzan\AppData\Local\Temp\cccP2hOc.s:29     .text.pmu_deinit:0000000000000008 .L0 
C:\Users\Karzan\AppData\Local\Temp\cccP2hOc.s:32     .text.pmu_deinit:0000000000000010 .L0 
C:\Users\Karzan\AppData\Local\Temp\cccP2hOc.s:33     .text.pmu_deinit:0000000000000010 .L0 
C:\Users\Karzan\AppData\Local\Temp\cccP2hOc.s:34     .text.pmu_deinit:0000000000000012 .L0 
C:\Users\Karzan\AppData\Local\Temp\cccP2hOc.s:36     .text.pmu_deinit:0000000000000012 .L0 
C:\Users\Karzan\AppData\Local\Temp\cccP2hOc.s:38     .text.pmu_deinit:0000000000000016 .L0 
C:\Users\Karzan\AppData\Local\Temp\cccP2hOc.s:40     .text.pmu_deinit:0000000000000018 .L0 
C:\Users\Karzan\AppData\Local\Temp\cccP2hOc.s:42     .text.pmu_deinit:0000000000000018 .L0 
C:\Users\Karzan\AppData\Local\Temp\cccP2hOc.s:44     .text.pmu_deinit:0000000000000020 .L0 
C:\Users\Karzan\AppData\Local\Temp\cccP2hOc.s:51     .text.pmu_lvd_select:0000000000000000 pmu_lvd_select
C:\Users\Karzan\AppData\Local\Temp\cccP2hOc.s:54     .text.pmu_lvd_select:0000000000000000 .L0 
C:\Users\Karzan\AppData\Local\Temp\cccP2hOc.s:56     .text.pmu_lvd_select:0000000000000000 .L0 
C:\Users\Karzan\AppData\Local\Temp\cccP2hOc.s:57     .text.pmu_lvd_select:0000000000000000 .L0 
C:\Users\Karzan\AppData\Local\Temp\cccP2hOc.s:58     .text.pmu_lvd_select:0000000000000000 .L0 
C:\Users\Karzan\AppData\Local\Temp\cccP2hOc.s:63     .text.pmu_lvd_select:000000000000000a .L0 
C:\Users\Karzan\AppData\Local\Temp\cccP2hOc.s:64     .text.pmu_lvd_select:000000000000000a .L0 
C:\Users\Karzan\AppData\Local\Temp\cccP2hOc.s:68     .text.pmu_lvd_select:0000000000000012 .L0 
C:\Users\Karzan\AppData\Local\Temp\cccP2hOc.s:69     .text.pmu_lvd_select:0000000000000012 .L0 
C:\Users\Karzan\AppData\Local\Temp\cccP2hOc.s:74     .text.pmu_lvd_select:0000000000000018 .L0 
C:\Users\Karzan\AppData\Local\Temp\cccP2hOc.s:75     .text.pmu_lvd_select:0000000000000018 .L0 
C:\Users\Karzan\AppData\Local\Temp\cccP2hOc.s:79     .text.pmu_lvd_select:0000000000000020 .L0 
C:\Users\Karzan\AppData\Local\Temp\cccP2hOc.s:80     .text.pmu_lvd_select:0000000000000022 .L0 
C:\Users\Karzan\AppData\Local\Temp\cccP2hOc.s:87     .text.pmu_lvd_disable:0000000000000000 pmu_lvd_disable
C:\Users\Karzan\AppData\Local\Temp\cccP2hOc.s:90     .text.pmu_lvd_disable:0000000000000000 .L0 
C:\Users\Karzan\AppData\Local\Temp\cccP2hOc.s:91     .text.pmu_lvd_disable:0000000000000000 .L0 
C:\Users\Karzan\AppData\Local\Temp\cccP2hOc.s:92     .text.pmu_lvd_disable:0000000000000000 .L0 
C:\Users\Karzan\AppData\Local\Temp\cccP2hOc.s:93     .text.pmu_lvd_disable:0000000000000000 .L0 
C:\Users\Karzan\AppData\Local\Temp\cccP2hOc.s:98     .text.pmu_lvd_disable:000000000000000a .L0 
C:\Users\Karzan\AppData\Local\Temp\cccP2hOc.s:99     .text.pmu_lvd_disable:000000000000000c .L0 
C:\Users\Karzan\AppData\Local\Temp\cccP2hOc.s:106    .text.pmu_to_sleepmode:0000000000000000 pmu_to_sleepmode
C:\Users\Karzan\AppData\Local\Temp\cccP2hOc.s:109    .text.pmu_to_sleepmode:0000000000000000 .L0 
C:\Users\Karzan\AppData\Local\Temp\cccP2hOc.s:111    .text.pmu_to_sleepmode:0000000000000000 .L0 
C:\Users\Karzan\AppData\Local\Temp\cccP2hOc.s:113    .text.pmu_to_sleepmode:0000000000000000 .L0 
C:\Users\Karzan\AppData\Local\Temp\cccP2hOc.s:114    .text.pmu_to_sleepmode:0000000000000000 .L0 
C:\Users\Karzan\AppData\Local\Temp\cccP2hOc.s:115    .text.pmu_to_sleepmode:0000000000000000 .L0 
./../../firmware/GD32VF103_standard_peripheral/Source/gd32vf103_pmu.c:103    .text.pmu_to_sleepmode:0000000000000000 .L0 
C:\Users\Karzan\AppData\Local\Temp\cccP2hOc.s:124    .text.pmu_to_sleepmode:0000000000000004 .L0 
C:\Users\Karzan\AppData\Local\Temp\cccP2hOc.s:125    .text.pmu_to_sleepmode:0000000000000004 .L0 
C:\Users\Karzan\AppData\Local\Temp\cccP2hOc.s:126    .text.pmu_to_sleepmode:0000000000000004 .L0 
C:\Users\Karzan\AppData\Local\Temp\cccP2hOc.s:131    .text.pmu_to_sleepmode:0000000000000006 .L0 
./../../firmware/RISCV/drivers/n200_func.h:90     .text.pmu_to_sleepmode:0000000000000006 .L0 
C:\Users\Karzan\AppData\Local\Temp\cccP2hOc.s:143    .text.pmu_to_sleepmode:000000000000000c .L0 
C:\Users\Karzan\AppData\Local\Temp\cccP2hOc.s:144    .text.pmu_to_sleepmode:000000000000000c .L0 
C:\Users\Karzan\AppData\Local\Temp\cccP2hOc.s:145    .text.pmu_to_sleepmode:000000000000000c .L0 
./../../firmware/GD32VF103_standard_peripheral/Source/gd32vf103_pmu.c:109    .text.pmu_to_sleepmode:000000000000000c .L0 
C:\Users\Karzan\AppData\Local\Temp\cccP2hOc.s:154    .text.pmu_to_sleepmode:0000000000000010 .L0 
GAS LISTING C:\Users\Karzan\AppData\Local\Temp\cccP2hOc.s 			page 20


C:\Users\Karzan\AppData\Local\Temp\cccP2hOc.s:156    .text.pmu_to_sleepmode:0000000000000010 .L0 
C:\Users\Karzan\AppData\Local\Temp\cccP2hOc.s:157    .text.pmu_to_sleepmode:0000000000000010 .L0 
C:\Users\Karzan\AppData\Local\Temp\cccP2hOc.s:158    .text.pmu_to_sleepmode:0000000000000010 .L0 
./../../firmware/GD32VF103_standard_peripheral/Source/gd32vf103_pmu.c:110    .text.pmu_to_sleepmode:0000000000000010 .L0 
C:\Users\Karzan\AppData\Local\Temp\cccP2hOc.s:167    .text.pmu_to_sleepmode:0000000000000014 .L0 
C:\Users\Karzan\AppData\Local\Temp\cccP2hOc.s:170    .text.pmu_to_sleepmode:0000000000000014 .L0 
./../../firmware/RISCV/drivers/n200_func.h:90     .text.pmu_to_sleepmode:0000000000000014 .L0 
C:\Users\Karzan\AppData\Local\Temp\cccP2hOc.s:180    .text.pmu_to_sleepmode:0000000000000018 .L0 
C:\Users\Karzan\AppData\Local\Temp\cccP2hOc.s:181    .text.pmu_to_sleepmode:0000000000000018 .L0 
C:\Users\Karzan\AppData\Local\Temp\cccP2hOc.s:182    .text.pmu_to_sleepmode:0000000000000018 .L0 
./../../firmware/GD32VF103_standard_peripheral/Source/gd32vf103_pmu.c:112    .text.pmu_to_sleepmode:0000000000000018 .L0 
C:\Users\Karzan\AppData\Local\Temp\cccP2hOc.s:191    .text.pmu_to_sleepmode:000000000000001c .L0 
C:\Users\Karzan\AppData\Local\Temp\cccP2hOc.s:193    .text.pmu_to_sleepmode:000000000000001c .L0 
C:\Users\Karzan\AppData\Local\Temp\cccP2hOc.s:194    .text.pmu_to_sleepmode:000000000000001c .L0 
C:\Users\Karzan\AppData\Local\Temp\cccP2hOc.s:195    .text.pmu_to_sleepmode:000000000000001c .L0 
./../../firmware/GD32VF103_standard_peripheral/Source/gd32vf103_pmu.c:113    .text.pmu_to_sleepmode:000000000000001c .L0 
C:\Users\Karzan\AppData\Local\Temp\cccP2hOc.s:204    .text.pmu_to_sleepmode:0000000000000020 .L0 
C:\Users\Karzan\AppData\Local\Temp\cccP2hOc.s:205    .text.pmu_to_sleepmode:0000000000000020 .L0 
C:\Users\Karzan\AppData\Local\Temp\cccP2hOc.s:206    .text.pmu_to_sleepmode:0000000000000022 .L0 
C:\Users\Karzan\AppData\Local\Temp\cccP2hOc.s:213    .text.pmu_to_deepsleepmode:0000000000000000 pmu_to_deepsleepmode
C:\Users\Karzan\AppData\Local\Temp\cccP2hOc.s:216    .text.pmu_to_deepsleepmode:0000000000000000 .L0 
C:\Users\Karzan\AppData\Local\Temp\cccP2hOc.s:218    .text.pmu_to_deepsleepmode:0000000000000000 .L0 
C:\Users\Karzan\AppData\Local\Temp\cccP2hOc.s:219    .text.pmu_to_deepsleepmode:0000000000000000 .L0 
C:\Users\Karzan\AppData\Local\Temp\cccP2hOc.s:220    .text.pmu_to_deepsleepmode:0000000000000000 .L0 
C:\Users\Karzan\AppData\Local\Temp\cccP2hOc.s:225    .text.pmu_to_deepsleepmode:000000000000000a .L0 
C:\Users\Karzan\AppData\Local\Temp\cccP2hOc.s:226    .text.pmu_to_deepsleepmode:000000000000000a .L0 
C:\Users\Karzan\AppData\Local\Temp\cccP2hOc.s:232    .text.pmu_to_deepsleepmode:0000000000000010 .L0 
C:\Users\Karzan\AppData\Local\Temp\cccP2hOc.s:233    .text.pmu_to_deepsleepmode:0000000000000010 .L0 
C:\Users\Karzan\AppData\Local\Temp\cccP2hOc.s:234    .text.pmu_to_deepsleepmode:0000000000000010 .L0 
./../../firmware/GD32VF103_standard_peripheral/Source/gd32vf103_pmu.c:137    .text.pmu_to_deepsleepmode:0000000000000010 .L0 
C:\Users\Karzan\AppData\Local\Temp\cccP2hOc.s:243    .text.pmu_to_deepsleepmode:0000000000000014 .L0 
C:\Users\Karzan\AppData\Local\Temp\cccP2hOc.s:244    .text.pmu_to_deepsleepmode:0000000000000014 .L0 
C:\Users\Karzan\AppData\Local\Temp\cccP2hOc.s:245    .text.pmu_to_deepsleepmode:0000000000000014 .L0 
C:\Users\Karzan\AppData\Local\Temp\cccP2hOc.s:249    .text.pmu_to_deepsleepmode:0000000000000016 .L0 
./../../firmware/RISCV/drivers/n200_func.h:90     .text.pmu_to_deepsleepmode:0000000000000016 .L0 
C:\Users\Karzan\AppData\Local\Temp\cccP2hOc.s:260    .text.pmu_to_deepsleepmode:000000000000001a .L0 
C:\Users\Karzan\AppData\Local\Temp\cccP2hOc.s:261    .text.pmu_to_deepsleepmode:000000000000001a .L0 
C:\Users\Karzan\AppData\Local\Temp\cccP2hOc.s:262    .text.pmu_to_deepsleepmode:000000000000001a .L0 
./../../firmware/GD32VF103_standard_peripheral/Source/gd32vf103_pmu.c:149    .text.pmu_to_deepsleepmode:000000000000001a .L0 
C:\Users\Karzan\AppData\Local\Temp\cccP2hOc.s:271    .text.pmu_to_deepsleepmode:000000000000001e .L0 
C:\Users\Karzan\AppData\Local\Temp\cccP2hOc.s:272    .text.pmu_to_deepsleepmode:000000000000001e .L0 
C:\Users\Karzan\AppData\Local\Temp\cccP2hOc.s:276    .text.pmu_to_deepsleepmode:0000000000000020 .L0 
C:\Users\Karzan\AppData\Local\Temp\cccP2hOc.s:277    .text.pmu_to_deepsleepmode:0000000000000020 .L0 
C:\Users\Karzan\AppData\Local\Temp\cccP2hOc.s:278    .text.pmu_to_deepsleepmode:0000000000000020 .L0 
./../../firmware/GD32VF103_standard_peripheral/Source/gd32vf103_pmu.c:142    .text.pmu_to_deepsleepmode:0000000000000020 .L0 
C:\Users\Karzan\AppData\Local\Temp\cccP2hOc.s:287    .text.pmu_to_deepsleepmode:0000000000000024 .L0 
C:\Users\Karzan\AppData\Local\Temp\cccP2hOc.s:289    .text.pmu_to_deepsleepmode:0000000000000024 .L0 
C:\Users\Karzan\AppData\Local\Temp\cccP2hOc.s:290    .text.pmu_to_deepsleepmode:0000000000000024 .L0 
C:\Users\Karzan\AppData\Local\Temp\cccP2hOc.s:291    .text.pmu_to_deepsleepmode:0000000000000024 .L0 
./../../firmware/GD32VF103_standard_peripheral/Source/gd32vf103_pmu.c:143    .text.pmu_to_deepsleepmode:0000000000000024 .L0 
C:\Users\Karzan\AppData\Local\Temp\cccP2hOc.s:300    .text.pmu_to_deepsleepmode:0000000000000028 .L0 
C:\Users\Karzan\AppData\Local\Temp\cccP2hOc.s:303    .text.pmu_to_deepsleepmode:0000000000000028 .L0 
./../../firmware/RISCV/drivers/n200_func.h:90     .text.pmu_to_deepsleepmode:0000000000000028 .L0 
C:\Users\Karzan\AppData\Local\Temp\cccP2hOc.s:313    .text.pmu_to_deepsleepmode:000000000000002c .L0 
C:\Users\Karzan\AppData\Local\Temp\cccP2hOc.s:314    .text.pmu_to_deepsleepmode:000000000000002c .L0 
C:\Users\Karzan\AppData\Local\Temp\cccP2hOc.s:315    .text.pmu_to_deepsleepmode:000000000000002c .L0 
./../../firmware/GD32VF103_standard_peripheral/Source/gd32vf103_pmu.c:145    .text.pmu_to_deepsleepmode:000000000000002c .L0 
GAS LISTING C:\Users\Karzan\AppData\Local\Temp\cccP2hOc.s 			page 21


C:\Users\Karzan\AppData\Local\Temp\cccP2hOc.s:324    .text.pmu_to_deepsleepmode:0000000000000030 .L0 
C:\Users\Karzan\AppData\Local\Temp\cccP2hOc.s:326    .text.pmu_to_deepsleepmode:0000000000000030 .L0 
C:\Users\Karzan\AppData\Local\Temp\cccP2hOc.s:327    .text.pmu_to_deepsleepmode:0000000000000030 .L0 
C:\Users\Karzan\AppData\Local\Temp\cccP2hOc.s:328    .text.pmu_to_deepsleepmode:0000000000000030 .L0 
./../../firmware/GD32VF103_standard_peripheral/Source/gd32vf103_pmu.c:146    .text.pmu_to_deepsleepmode:0000000000000030 .L0 
C:\Users\Karzan\AppData\Local\Temp\cccP2hOc.s:336    .text.pmu_to_deepsleepmode:0000000000000034 .L0 
C:\Users\Karzan\AppData\Local\Temp\cccP2hOc.s:338    .text.pmu_to_deepsleepmode:0000000000000036 .L0 
C:\Users\Karzan\AppData\Local\Temp\cccP2hOc.s:345    .text.pmu_to_standbymode:0000000000000000 pmu_to_standbymode
C:\Users\Karzan\AppData\Local\Temp\cccP2hOc.s:348    .text.pmu_to_standbymode:0000000000000000 .L0 
C:\Users\Karzan\AppData\Local\Temp\cccP2hOc.s:350    .text.pmu_to_standbymode:0000000000000000 .L0 
C:\Users\Karzan\AppData\Local\Temp\cccP2hOc.s:352    .text.pmu_to_standbymode:0000000000000000 .L0 
C:\Users\Karzan\AppData\Local\Temp\cccP2hOc.s:353    .text.pmu_to_standbymode:0000000000000000 .L0 
C:\Users\Karzan\AppData\Local\Temp\cccP2hOc.s:354    .text.pmu_to_standbymode:0000000000000000 .L0 
./../../firmware/GD32VF103_standard_peripheral/Source/gd32vf103_pmu.c:164    .text.pmu_to_standbymode:0000000000000000 .L0 
C:\Users\Karzan\AppData\Local\Temp\cccP2hOc.s:363    .text.pmu_to_standbymode:0000000000000004 .L0 
C:\Users\Karzan\AppData\Local\Temp\cccP2hOc.s:364    .text.pmu_to_standbymode:0000000000000004 .L0 
C:\Users\Karzan\AppData\Local\Temp\cccP2hOc.s:365    .text.pmu_to_standbymode:0000000000000004 .L0 
C:\Users\Karzan\AppData\Local\Temp\cccP2hOc.s:370    .text.pmu_to_standbymode:0000000000000010 .L0 
C:\Users\Karzan\AppData\Local\Temp\cccP2hOc.s:371    .text.pmu_to_standbymode:0000000000000010 .L0 
C:\Users\Karzan\AppData\Local\Temp\cccP2hOc.s:375    .text.pmu_to_standbymode:0000000000000018 .L0 
C:\Users\Karzan\AppData\Local\Temp\cccP2hOc.s:376    .text.pmu_to_standbymode:0000000000000018 .L0 
C:\Users\Karzan\AppData\Local\Temp\cccP2hOc.s:380    .text.pmu_to_standbymode:000000000000001a .L0 
./../../firmware/RISCV/drivers/n200_func.h:90     .text.pmu_to_standbymode:000000000000001a .L0 
C:\Users\Karzan\AppData\Local\Temp\cccP2hOc.s:391    .text.pmu_to_standbymode:000000000000001e .L0 
C:\Users\Karzan\AppData\Local\Temp\cccP2hOc.s:392    .text.pmu_to_standbymode:000000000000001e .L0 
C:\Users\Karzan\AppData\Local\Temp\cccP2hOc.s:393    .text.pmu_to_standbymode:000000000000001e .L0 
./../../firmware/GD32VF103_standard_peripheral/Source/gd32vf103_pmu.c:182    .text.pmu_to_standbymode:000000000000001e .L0 
C:\Users\Karzan\AppData\Local\Temp\cccP2hOc.s:402    .text.pmu_to_standbymode:0000000000000022 .L0 
C:\Users\Karzan\AppData\Local\Temp\cccP2hOc.s:403    .text.pmu_to_standbymode:0000000000000022 .L0 
C:\Users\Karzan\AppData\Local\Temp\cccP2hOc.s:407    .text.pmu_to_standbymode:0000000000000024 .L0 
C:\Users\Karzan\AppData\Local\Temp\cccP2hOc.s:408    .text.pmu_to_standbymode:0000000000000024 .L0 
C:\Users\Karzan\AppData\Local\Temp\cccP2hOc.s:409    .text.pmu_to_standbymode:0000000000000024 .L0 
./../../firmware/GD32VF103_standard_peripheral/Source/gd32vf103_pmu.c:176    .text.pmu_to_standbymode:0000000000000024 .L0 
C:\Users\Karzan\AppData\Local\Temp\cccP2hOc.s:418    .text.pmu_to_standbymode:0000000000000028 .L0 
C:\Users\Karzan\AppData\Local\Temp\cccP2hOc.s:420    .text.pmu_to_standbymode:0000000000000028 .L0 
C:\Users\Karzan\AppData\Local\Temp\cccP2hOc.s:421    .text.pmu_to_standbymode:0000000000000028 .L0 
C:\Users\Karzan\AppData\Local\Temp\cccP2hOc.s:422    .text.pmu_to_standbymode:0000000000000028 .L0 
./../../firmware/GD32VF103_standard_peripheral/Source/gd32vf103_pmu.c:177    .text.pmu_to_standbymode:0000000000000028 .L0 
C:\Users\Karzan\AppData\Local\Temp\cccP2hOc.s:431    .text.pmu_to_standbymode:000000000000002c .L0 
C:\Users\Karzan\AppData\Local\Temp\cccP2hOc.s:434    .text.pmu_to_standbymode:000000000000002c .L0 
./../../firmware/RISCV/drivers/n200_func.h:90     .text.pmu_to_standbymode:000000000000002c .L0 
C:\Users\Karzan\AppData\Local\Temp\cccP2hOc.s:444    .text.pmu_to_standbymode:0000000000000030 .L0 
C:\Users\Karzan\AppData\Local\Temp\cccP2hOc.s:445    .text.pmu_to_standbymode:0000000000000030 .L0 
C:\Users\Karzan\AppData\Local\Temp\cccP2hOc.s:446    .text.pmu_to_standbymode:0000000000000030 .L0 
./../../firmware/GD32VF103_standard_peripheral/Source/gd32vf103_pmu.c:179    .text.pmu_to_standbymode:0000000000000030 .L0 
C:\Users\Karzan\AppData\Local\Temp\cccP2hOc.s:455    .text.pmu_to_standbymode:0000000000000034 .L0 
C:\Users\Karzan\AppData\Local\Temp\cccP2hOc.s:457    .text.pmu_to_standbymode:0000000000000034 .L0 
C:\Users\Karzan\AppData\Local\Temp\cccP2hOc.s:458    .text.pmu_to_standbymode:0000000000000034 .L0 
C:\Users\Karzan\AppData\Local\Temp\cccP2hOc.s:459    .text.pmu_to_standbymode:0000000000000034 .L0 
./../../firmware/GD32VF103_standard_peripheral/Source/gd32vf103_pmu.c:180    .text.pmu_to_standbymode:0000000000000034 .L0 
C:\Users\Karzan\AppData\Local\Temp\cccP2hOc.s:467    .text.pmu_to_standbymode:0000000000000038 .L0 
C:\Users\Karzan\AppData\Local\Temp\cccP2hOc.s:469    .text.pmu_to_standbymode:000000000000003a .L0 
C:\Users\Karzan\AppData\Local\Temp\cccP2hOc.s:476    .text.pmu_wakeup_pin_enable:0000000000000000 pmu_wakeup_pin_enable
C:\Users\Karzan\AppData\Local\Temp\cccP2hOc.s:479    .text.pmu_wakeup_pin_enable:0000000000000000 .L0 
C:\Users\Karzan\AppData\Local\Temp\cccP2hOc.s:480    .text.pmu_wakeup_pin_enable:0000000000000000 .L0 
C:\Users\Karzan\AppData\Local\Temp\cccP2hOc.s:481    .text.pmu_wakeup_pin_enable:0000000000000000 .L0 
C:\Users\Karzan\AppData\Local\Temp\cccP2hOc.s:482    .text.pmu_wakeup_pin_enable:0000000000000000 .L0 
GAS LISTING C:\Users\Karzan\AppData\Local\Temp\cccP2hOc.s 			page 22


C:\Users\Karzan\AppData\Local\Temp\cccP2hOc.s:487    .text.pmu_wakeup_pin_enable:000000000000000c .L0 
C:\Users\Karzan\AppData\Local\Temp\cccP2hOc.s:488    .text.pmu_wakeup_pin_enable:000000000000000e .L0 
C:\Users\Karzan\AppData\Local\Temp\cccP2hOc.s:495    .text.pmu_wakeup_pin_disable:0000000000000000 pmu_wakeup_pin_disable
C:\Users\Karzan\AppData\Local\Temp\cccP2hOc.s:498    .text.pmu_wakeup_pin_disable:0000000000000000 .L0 
C:\Users\Karzan\AppData\Local\Temp\cccP2hOc.s:499    .text.pmu_wakeup_pin_disable:0000000000000000 .L0 
C:\Users\Karzan\AppData\Local\Temp\cccP2hOc.s:500    .text.pmu_wakeup_pin_disable:0000000000000000 .L0 
C:\Users\Karzan\AppData\Local\Temp\cccP2hOc.s:501    .text.pmu_wakeup_pin_disable:0000000000000000 .L0 
C:\Users\Karzan\AppData\Local\Temp\cccP2hOc.s:506    .text.pmu_wakeup_pin_disable:000000000000000c .L0 
C:\Users\Karzan\AppData\Local\Temp\cccP2hOc.s:507    .text.pmu_wakeup_pin_disable:000000000000000e .L0 
C:\Users\Karzan\AppData\Local\Temp\cccP2hOc.s:514    .text.pmu_backup_write_enable:0000000000000000 pmu_backup_write_enable
C:\Users\Karzan\AppData\Local\Temp\cccP2hOc.s:517    .text.pmu_backup_write_enable:0000000000000000 .L0 
C:\Users\Karzan\AppData\Local\Temp\cccP2hOc.s:518    .text.pmu_backup_write_enable:0000000000000000 .L0 
C:\Users\Karzan\AppData\Local\Temp\cccP2hOc.s:519    .text.pmu_backup_write_enable:0000000000000000 .L0 
C:\Users\Karzan\AppData\Local\Temp\cccP2hOc.s:520    .text.pmu_backup_write_enable:0000000000000000 .L0 
C:\Users\Karzan\AppData\Local\Temp\cccP2hOc.s:525    .text.pmu_backup_write_enable:000000000000000c .L0 
C:\Users\Karzan\AppData\Local\Temp\cccP2hOc.s:526    .text.pmu_backup_write_enable:000000000000000e .L0 
C:\Users\Karzan\AppData\Local\Temp\cccP2hOc.s:533    .text.pmu_backup_write_disable:0000000000000000 pmu_backup_write_disable
C:\Users\Karzan\AppData\Local\Temp\cccP2hOc.s:536    .text.pmu_backup_write_disable:0000000000000000 .L0 
C:\Users\Karzan\AppData\Local\Temp\cccP2hOc.s:537    .text.pmu_backup_write_disable:0000000000000000 .L0 
C:\Users\Karzan\AppData\Local\Temp\cccP2hOc.s:538    .text.pmu_backup_write_disable:0000000000000000 .L0 
C:\Users\Karzan\AppData\Local\Temp\cccP2hOc.s:539    .text.pmu_backup_write_disable:0000000000000000 .L0 
C:\Users\Karzan\AppData\Local\Temp\cccP2hOc.s:544    .text.pmu_backup_write_disable:000000000000000c .L0 
C:\Users\Karzan\AppData\Local\Temp\cccP2hOc.s:545    .text.pmu_backup_write_disable:000000000000000e .L0 
C:\Users\Karzan\AppData\Local\Temp\cccP2hOc.s:552    .text.pmu_flag_get:0000000000000000 pmu_flag_get
C:\Users\Karzan\AppData\Local\Temp\cccP2hOc.s:555    .text.pmu_flag_get:0000000000000000 .L0 
C:\Users\Karzan\AppData\Local\Temp\cccP2hOc.s:557    .text.pmu_flag_get:0000000000000000 .L0 
C:\Users\Karzan\AppData\Local\Temp\cccP2hOc.s:558    .text.pmu_flag_get:0000000000000000 .L0 
C:\Users\Karzan\AppData\Local\Temp\cccP2hOc.s:559    .text.pmu_flag_get:0000000000000000 .L0 
C:\Users\Karzan\AppData\Local\Temp\cccP2hOc.s:562    .text.pmu_flag_get:0000000000000006 .L0 
C:\Users\Karzan\AppData\Local\Temp\cccP2hOc.s:565    .text.pmu_flag_get:0000000000000008 .L0 
C:\Users\Karzan\AppData\Local\Temp\cccP2hOc.s:567    .text.pmu_flag_get:000000000000000e .L0 
C:\Users\Karzan\AppData\Local\Temp\cccP2hOc.s:574    .text.pmu_flag_clear:0000000000000000 pmu_flag_clear
C:\Users\Karzan\AppData\Local\Temp\cccP2hOc.s:577    .text.pmu_flag_clear:0000000000000000 .L0 
C:\Users\Karzan\AppData\Local\Temp\cccP2hOc.s:579    .text.pmu_flag_clear:0000000000000000 .L0 
C:\Users\Karzan\AppData\Local\Temp\cccP2hOc.s:580    .text.pmu_flag_clear:0000000000000000 .L0 
C:\Users\Karzan\AppData\Local\Temp\cccP2hOc.s:586    .text.pmu_flag_clear:000000000000000a .L0 
C:\Users\Karzan\AppData\Local\Temp\cccP2hOc.s:587    .text.pmu_flag_clear:000000000000000a .L0 
C:\Users\Karzan\AppData\Local\Temp\cccP2hOc.s:592    .text.pmu_flag_clear:0000000000000014 .L0 
C:\Users\Karzan\AppData\Local\Temp\cccP2hOc.s:594    .text.pmu_flag_clear:0000000000000016 .L0 
C:\Users\Karzan\AppData\Local\Temp\cccP2hOc.s:595    .text.pmu_flag_clear:0000000000000016 .L0 
C:\Users\Karzan\AppData\Local\Temp\cccP2hOc.s:598    .text.pmu_flag_clear:0000000000000018 .L0 
C:\Users\Karzan\AppData\Local\Temp\cccP2hOc.s:599    .text.pmu_flag_clear:0000000000000018 .L0 
C:\Users\Karzan\AppData\Local\Temp\cccP2hOc.s:603    .text.pmu_flag_clear:0000000000000024 .L0 
C:\Users\Karzan\AppData\Local\Temp\cccP2hOc.s:47     .text.pmu_deinit:0000000000000020 .L0 
C:\Users\Karzan\AppData\Local\Temp\cccP2hOc.s:83     .text.pmu_lvd_select:0000000000000022 .L0 
C:\Users\Karzan\AppData\Local\Temp\cccP2hOc.s:102    .text.pmu_lvd_disable:000000000000000c .L0 
C:\Users\Karzan\AppData\Local\Temp\cccP2hOc.s:209    .text.pmu_to_sleepmode:0000000000000022 .L0 
C:\Users\Karzan\AppData\Local\Temp\cccP2hOc.s:341    .text.pmu_to_deepsleepmode:0000000000000036 .L0 
C:\Users\Karzan\AppData\Local\Temp\cccP2hOc.s:472    .text.pmu_to_standbymode:000000000000003a .L0 
C:\Users\Karzan\AppData\Local\Temp\cccP2hOc.s:491    .text.pmu_wakeup_pin_enable:000000000000000e .L0 
C:\Users\Karzan\AppData\Local\Temp\cccP2hOc.s:510    .text.pmu_wakeup_pin_disable:000000000000000e .L0 
C:\Users\Karzan\AppData\Local\Temp\cccP2hOc.s:529    .text.pmu_backup_write_enable:000000000000000e .L0 
C:\Users\Karzan\AppData\Local\Temp\cccP2hOc.s:548    .text.pmu_backup_write_disable:000000000000000e .L0 
C:\Users\Karzan\AppData\Local\Temp\cccP2hOc.s:570    .text.pmu_flag_get:000000000000000e .L0 
C:\Users\Karzan\AppData\Local\Temp\cccP2hOc.s:606    .text.pmu_flag_clear:0000000000000024 .L0 
                     .debug_frame:0000000000000000 .L0 
C:\Users\Karzan\AppData\Local\Temp\cccP2hOc.s:138    .text.pmu_to_sleepmode:000000000000000c .L6
GAS LISTING C:\Users\Karzan\AppData\Local\Temp\cccP2hOc.s 			page 23


C:\Users\Karzan\AppData\Local\Temp\cccP2hOc.s:273    .text.pmu_to_deepsleepmode:0000000000000020 .L9
C:\Users\Karzan\AppData\Local\Temp\cccP2hOc.s:255    .text.pmu_to_deepsleepmode:000000000000001a .L10
C:\Users\Karzan\AppData\Local\Temp\cccP2hOc.s:404    .text.pmu_to_standbymode:0000000000000024 .L12
C:\Users\Karzan\AppData\Local\Temp\cccP2hOc.s:386    .text.pmu_to_standbymode:000000000000001e .L13
C:\Users\Karzan\AppData\Local\Temp\cccP2hOc.s:584    .text.pmu_flag_clear:000000000000000a .L20
C:\Users\Karzan\AppData\Local\Temp\cccP2hOc.s:596    .text.pmu_flag_clear:0000000000000018 .L21
C:\Users\Karzan\AppData\Local\Temp\cccP2hOc.s:590    .text.pmu_flag_clear:0000000000000014 .L23
C:\Users\Karzan\AppData\Local\Temp\cccP2hOc.s:1328   .debug_abbrev:0000000000000000 .Ldebug_abbrev0
C:\Users\Karzan\AppData\Local\Temp\cccP2hOc.s:1916   .debug_str:0000000000000027 .LASF68
C:\Users\Karzan\AppData\Local\Temp\cccP2hOc.s:1924   .debug_str:00000000000000d8 .LASF69
C:\Users\Karzan\AppData\Local\Temp\cccP2hOc.s:1998   .debug_str:00000000000002fe .LASF70
C:\Users\Karzan\AppData\Local\Temp\cccP2hOc.s:1882   .debug_ranges:0000000000000000 .Ldebug_ranges0
C:\Users\Karzan\AppData\Local\Temp\cccP2hOc.s:1910   .debug_line:0000000000000000 .Ldebug_line0
C:\Users\Karzan\AppData\Local\Temp\cccP2hOc.s:1994   .debug_str:00000000000002e4 .LASF0
C:\Users\Karzan\AppData\Local\Temp\cccP2hOc.s:1984   .debug_str:00000000000002a0 .LASF1
C:\Users\Karzan\AppData\Local\Temp\cccP2hOc.s:1968   .debug_str:0000000000000238 .LASF6
C:\Users\Karzan\AppData\Local\Temp\cccP2hOc.s:1978   .debug_str:0000000000000275 .LASF2
C:\Users\Karzan\AppData\Local\Temp\cccP2hOc.s:1944   .debug_str:0000000000000192 .LASF3
C:\Users\Karzan\AppData\Local\Temp\cccP2hOc.s:2002   .debug_str:0000000000000370 .LASF4
C:\Users\Karzan\AppData\Local\Temp\cccP2hOc.s:1962   .debug_str:0000000000000211 .LASF5
C:\Users\Karzan\AppData\Local\Temp\cccP2hOc.s:1940   .debug_str:0000000000000179 .LASF7
C:\Users\Karzan\AppData\Local\Temp\cccP2hOc.s:1964   .debug_str:000000000000021a .LASF8
C:\Users\Karzan\AppData\Local\Temp\cccP2hOc.s:1960   .debug_str:0000000000000203 .LASF9
C:\Users\Karzan\AppData\Local\Temp\cccP2hOc.s:1988   .debug_str:00000000000002b7 .LASF10
C:\Users\Karzan\AppData\Local\Temp\cccP2hOc.s:1950   .debug_str:00000000000001be .LASF11
C:\Users\Karzan\AppData\Local\Temp\cccP2hOc.s:1992   .debug_str:00000000000002db .LASF12
C:\Users\Karzan\AppData\Local\Temp\cccP2hOc.s:2010   .debug_str:00000000000003ac .LASF71
C:\Users\Karzan\AppData\Local\Temp\cccP2hOc.s:2030   .debug_str:000000000000043a .LASF13
C:\Users\Karzan\AppData\Local\Temp\cccP2hOc.s:2050   .debug_str:00000000000004c1 .LASF14
C:\Users\Karzan\AppData\Local\Temp\cccP2hOc.s:1920   .debug_str:00000000000000be .LASF15
C:\Users\Karzan\AppData\Local\Temp\cccP2hOc.s:2006   .debug_str:0000000000000390 .LASF16
C:\Users\Karzan\AppData\Local\Temp\cccP2hOc.s:1954   .debug_str:00000000000001dc .LASF17
C:\Users\Karzan\AppData\Local\Temp\cccP2hOc.s:1942   .debug_str:0000000000000184 .LASF18
C:\Users\Karzan\AppData\Local\Temp\cccP2hOc.s:1972   .debug_str:000000000000024d .LASF19
C:\Users\Karzan\AppData\Local\Temp\cccP2hOc.s:2008   .debug_str:000000000000039e .LASF20
C:\Users\Karzan\AppData\Local\Temp\cccP2hOc.s:2048   .debug_str:00000000000004b3 .LASF21
C:\Users\Karzan\AppData\Local\Temp\cccP2hOc.s:2058   .debug_str:00000000000004f5 .LASF22
C:\Users\Karzan\AppData\Local\Temp\cccP2hOc.s:1936   .debug_str:0000000000000154 .LASF23
C:\Users\Karzan\AppData\Local\Temp\cccP2hOc.s:1966   .debug_str:000000000000022c .LASF24
C:\Users\Karzan\AppData\Local\Temp\cccP2hOc.s:2016   .debug_str:00000000000003e3 .LASF25
C:\Users\Karzan\AppData\Local\Temp\cccP2hOc.s:2056   .debug_str:00000000000004e7 .LASF26
C:\Users\Karzan\AppData\Local\Temp\cccP2hOc.s:2020   .debug_str:00000000000003f8 .LASF27
C:\Users\Karzan\AppData\Local\Temp\cccP2hOc.s:1922   .debug_str:00000000000000cb .LASF28
C:\Users\Karzan\AppData\Local\Temp\cccP2hOc.s:2054   .debug_str:00000000000004db .LASF29
C:\Users\Karzan\AppData\Local\Temp\cccP2hOc.s:2024   .debug_str:0000000000000412 .LASF30
C:\Users\Karzan\AppData\Local\Temp\cccP2hOc.s:1928   .debug_str:000000000000012b .LASF31
C:\Users\Karzan\AppData\Local\Temp\cccP2hOc.s:1958   .debug_str:00000000000001f7 .LASF32
C:\Users\Karzan\AppData\Local\Temp\cccP2hOc.s:1934   .debug_str:0000000000000148 .LASF33
C:\Users\Karzan\AppData\Local\Temp\cccP2hOc.s:2026   .debug_str:000000000000041e .LASF34
C:\Users\Karzan\AppData\Local\Temp\cccP2hOc.s:1986   .debug_str:00000000000002ac .LASF35
C:\Users\Karzan\AppData\Local\Temp\cccP2hOc.s:1980   .debug_str:0000000000000283 .LASF36
C:\Users\Karzan\AppData\Local\Temp\cccP2hOc.s:1990   .debug_str:00000000000002ce .LASF37
C:\Users\Karzan\AppData\Local\Temp\cccP2hOc.s:2022   .debug_str:0000000000000405 .LASF38
C:\Users\Karzan\AppData\Local\Temp\cccP2hOc.s:1926   .debug_str:000000000000011e .LASF39
C:\Users\Karzan\AppData\Local\Temp\cccP2hOc.s:1956   .debug_str:00000000000001ea .LASF40
C:\Users\Karzan\AppData\Local\Temp\cccP2hOc.s:1996   .debug_str:00000000000002f1 .LASF41
C:\Users\Karzan\AppData\Local\Temp\cccP2hOc.s:2000   .debug_str:0000000000000364 .LASF42
GAS LISTING C:\Users\Karzan\AppData\Local\Temp\cccP2hOc.s 			page 24


C:\Users\Karzan\AppData\Local\Temp\cccP2hOc.s:2032   .debug_str:0000000000000440 .LASF43
C:\Users\Karzan\AppData\Local\Temp\cccP2hOc.s:1914   .debug_str:0000000000000019 .LASF44
C:\Users\Karzan\AppData\Local\Temp\cccP2hOc.s:2036   .debug_str:0000000000000464 .LASF45
C:\Users\Karzan\AppData\Local\Temp\cccP2hOc.s:1974   .debug_str:000000000000025b .LASF46
C:\Users\Karzan\AppData\Local\Temp\cccP2hOc.s:1976   .debug_str:0000000000000269 .LASF47
C:\Users\Karzan\AppData\Local\Temp\cccP2hOc.s:2052   .debug_str:00000000000004cc .LASF54
C:\Users\Karzan\AppData\Local\Temp\cccP2hOc.s:575    .text.pmu_flag_clear:0000000000000000 .LFB13
C:\Users\Karzan\AppData\Local\Temp\cccP2hOc.s:604    .text.pmu_flag_clear:0000000000000024 .LFE13
C:\Users\Karzan\AppData\Local\Temp\cccP2hOc.s:1970   .debug_str:0000000000000242 .LASF48
C:\Users\Karzan\AppData\Local\Temp\cccP2hOc.s:1946   .debug_str:000000000000019c .LASF72
C:\Users\Karzan\AppData\Local\Temp\cccP2hOc.s:553    .text.pmu_flag_get:0000000000000000 .LFB12
C:\Users\Karzan\AppData\Local\Temp\cccP2hOc.s:568    .text.pmu_flag_get:000000000000000e .LFE12
C:\Users\Karzan\AppData\Local\Temp\cccP2hOc.s:2042   .debug_str:0000000000000487 .LASF49
C:\Users\Karzan\AppData\Local\Temp\cccP2hOc.s:1787   .debug_loc:0000000000000000 .LLST3
C:\Users\Karzan\AppData\Local\Temp\cccP2hOc.s:1912   .debug_str:0000000000000000 .LASF50
C:\Users\Karzan\AppData\Local\Temp\cccP2hOc.s:534    .text.pmu_backup_write_disable:0000000000000000 .LFB11
C:\Users\Karzan\AppData\Local\Temp\cccP2hOc.s:546    .text.pmu_backup_write_disable:000000000000000e .LFE11
C:\Users\Karzan\AppData\Local\Temp\cccP2hOc.s:2034   .debug_str:000000000000044c .LASF51
C:\Users\Karzan\AppData\Local\Temp\cccP2hOc.s:515    .text.pmu_backup_write_enable:0000000000000000 .LFB10
C:\Users\Karzan\AppData\Local\Temp\cccP2hOc.s:527    .text.pmu_backup_write_enable:000000000000000e .LFE10
C:\Users\Karzan\AppData\Local\Temp\cccP2hOc.s:2012   .debug_str:00000000000003bc .LASF52
C:\Users\Karzan\AppData\Local\Temp\cccP2hOc.s:496    .text.pmu_wakeup_pin_disable:0000000000000000 .LFB9
C:\Users\Karzan\AppData\Local\Temp\cccP2hOc.s:508    .text.pmu_wakeup_pin_disable:000000000000000e .LFE9
C:\Users\Karzan\AppData\Local\Temp\cccP2hOc.s:1952   .debug_str:00000000000001c6 .LASF53
C:\Users\Karzan\AppData\Local\Temp\cccP2hOc.s:477    .text.pmu_wakeup_pin_enable:0000000000000000 .LFB8
C:\Users\Karzan\AppData\Local\Temp\cccP2hOc.s:489    .text.pmu_wakeup_pin_enable:000000000000000e .LFE8
C:\Users\Karzan\AppData\Local\Temp\cccP2hOc.s:1982   .debug_str:000000000000028d .LASF55
C:\Users\Karzan\AppData\Local\Temp\cccP2hOc.s:346    .text.pmu_to_standbymode:0000000000000000 .LFB7
C:\Users\Karzan\AppData\Local\Temp\cccP2hOc.s:470    .text.pmu_to_standbymode:000000000000003a .LFE7
C:\Users\Karzan\AppData\Local\Temp\cccP2hOc.s:2044   .debug_str:000000000000048c .LASF56
C:\Users\Karzan\AppData\Local\Temp\cccP2hOc.s:351    .text.pmu_to_standbymode:0000000000000000 .LBB50
C:\Users\Karzan\AppData\Local\Temp\cccP2hOc.s:362    .text.pmu_to_standbymode:0000000000000004 .LBE50
C:\Users\Karzan\AppData\Local\Temp\cccP2hOc.s:1932   .debug_str:0000000000000142 .LASF57
C:\Users\Karzan\AppData\Local\Temp\cccP2hOc.s:406    .text.pmu_to_standbymode:0000000000000024 .LBB54
C:\Users\Karzan\AppData\Local\Temp\cccP2hOc.s:417    .text.pmu_to_standbymode:0000000000000028 .LBE54
C:\Users\Karzan\AppData\Local\Temp\cccP2hOc.s:419    .text.pmu_to_standbymode:0000000000000028 .LBB55
C:\Users\Karzan\AppData\Local\Temp\cccP2hOc.s:430    .text.pmu_to_standbymode:000000000000002c .LBE55
C:\Users\Karzan\AppData\Local\Temp\cccP2hOc.s:443    .text.pmu_to_standbymode:0000000000000030 .LBB58
C:\Users\Karzan\AppData\Local\Temp\cccP2hOc.s:454    .text.pmu_to_standbymode:0000000000000034 .LBE58
C:\Users\Karzan\AppData\Local\Temp\cccP2hOc.s:456    .text.pmu_to_standbymode:0000000000000034 .LBB59
C:\Users\Karzan\AppData\Local\Temp\cccP2hOc.s:468    .text.pmu_to_standbymode:000000000000003a .LBE59
C:\Users\Karzan\AppData\Local\Temp\cccP2hOc.s:390    .text.pmu_to_standbymode:000000000000001e .LBB53
C:\Users\Karzan\AppData\Local\Temp\cccP2hOc.s:401    .text.pmu_to_standbymode:0000000000000022 .LBE53
C:\Users\Karzan\AppData\Local\Temp\cccP2hOc.s:378    .text.pmu_to_standbymode:000000000000001a .LBB51
C:\Users\Karzan\AppData\Local\Temp\cccP2hOc.s:388    .text.pmu_to_standbymode:000000000000001e .LBE51
C:\Users\Karzan\AppData\Local\Temp\cccP2hOc.s:432    .text.pmu_to_standbymode:000000000000002c .LBB56
C:\Users\Karzan\AppData\Local\Temp\cccP2hOc.s:441    .text.pmu_to_standbymode:0000000000000030 .LBE56
C:\Users\Karzan\AppData\Local\Temp\cccP2hOc.s:1948   .debug_str:00000000000001a9 .LASF58
C:\Users\Karzan\AppData\Local\Temp\cccP2hOc.s:214    .text.pmu_to_deepsleepmode:0000000000000000 .LFB6
C:\Users\Karzan\AppData\Local\Temp\cccP2hOc.s:339    .text.pmu_to_deepsleepmode:0000000000000036 .LFE6
C:\Users\Karzan\AppData\Local\Temp\cccP2hOc.s:1801   .debug_loc:0000000000000021 .LLST2
C:\Users\Karzan\AppData\Local\Temp\cccP2hOc.s:2038   .debug_str:0000000000000470 .LASF59
C:\Users\Karzan\AppData\Local\Temp\cccP2hOc.s:231    .text.pmu_to_deepsleepmode:0000000000000010 .LBB40
C:\Users\Karzan\AppData\Local\Temp\cccP2hOc.s:242    .text.pmu_to_deepsleepmode:0000000000000014 .LBE40
C:\Users\Karzan\AppData\Local\Temp\cccP2hOc.s:275    .text.pmu_to_deepsleepmode:0000000000000020 .LBB44
C:\Users\Karzan\AppData\Local\Temp\cccP2hOc.s:286    .text.pmu_to_deepsleepmode:0000000000000024 .LBE44
C:\Users\Karzan\AppData\Local\Temp\cccP2hOc.s:288    .text.pmu_to_deepsleepmode:0000000000000024 .LBB45
GAS LISTING C:\Users\Karzan\AppData\Local\Temp\cccP2hOc.s 			page 25


C:\Users\Karzan\AppData\Local\Temp\cccP2hOc.s:299    .text.pmu_to_deepsleepmode:0000000000000028 .LBE45
C:\Users\Karzan\AppData\Local\Temp\cccP2hOc.s:312    .text.pmu_to_deepsleepmode:000000000000002c .LBB48
C:\Users\Karzan\AppData\Local\Temp\cccP2hOc.s:323    .text.pmu_to_deepsleepmode:0000000000000030 .LBE48
C:\Users\Karzan\AppData\Local\Temp\cccP2hOc.s:325    .text.pmu_to_deepsleepmode:0000000000000030 .LBB49
C:\Users\Karzan\AppData\Local\Temp\cccP2hOc.s:337    .text.pmu_to_deepsleepmode:0000000000000036 .LBE49
C:\Users\Karzan\AppData\Local\Temp\cccP2hOc.s:259    .text.pmu_to_deepsleepmode:000000000000001a .LBB43
C:\Users\Karzan\AppData\Local\Temp\cccP2hOc.s:270    .text.pmu_to_deepsleepmode:000000000000001e .LBE43
C:\Users\Karzan\AppData\Local\Temp\cccP2hOc.s:247    .text.pmu_to_deepsleepmode:0000000000000016 .LBB41
C:\Users\Karzan\AppData\Local\Temp\cccP2hOc.s:257    .text.pmu_to_deepsleepmode:000000000000001a .LBE41
C:\Users\Karzan\AppData\Local\Temp\cccP2hOc.s:301    .text.pmu_to_deepsleepmode:0000000000000028 .LBB46
C:\Users\Karzan\AppData\Local\Temp\cccP2hOc.s:310    .text.pmu_to_deepsleepmode:000000000000002c .LBE46
C:\Users\Karzan\AppData\Local\Temp\cccP2hOc.s:2028   .debug_str:0000000000000429 .LASF60
C:\Users\Karzan\AppData\Local\Temp\cccP2hOc.s:107    .text.pmu_to_sleepmode:0000000000000000 .LFB5
C:\Users\Karzan\AppData\Local\Temp\cccP2hOc.s:207    .text.pmu_to_sleepmode:0000000000000022 .LFE5
C:\Users\Karzan\AppData\Local\Temp\cccP2hOc.s:2004   .debug_str:0000000000000383 .LASF61
C:\Users\Karzan\AppData\Local\Temp\cccP2hOc.s:112    .text.pmu_to_sleepmode:0000000000000000 .LBB31
C:\Users\Karzan\AppData\Local\Temp\cccP2hOc.s:123    .text.pmu_to_sleepmode:0000000000000004 .LBE31
C:\Users\Karzan\AppData\Local\Temp\cccP2hOc.s:142    .text.pmu_to_sleepmode:000000000000000c .LBB34
C:\Users\Karzan\AppData\Local\Temp\cccP2hOc.s:153    .text.pmu_to_sleepmode:0000000000000010 .LBE34
C:\Users\Karzan\AppData\Local\Temp\cccP2hOc.s:155    .text.pmu_to_sleepmode:0000000000000010 .LBB35
C:\Users\Karzan\AppData\Local\Temp\cccP2hOc.s:166    .text.pmu_to_sleepmode:0000000000000014 .LBE35
C:\Users\Karzan\AppData\Local\Temp\cccP2hOc.s:179    .text.pmu_to_sleepmode:0000000000000018 .LBB38
C:\Users\Karzan\AppData\Local\Temp\cccP2hOc.s:190    .text.pmu_to_sleepmode:000000000000001c .LBE38
C:\Users\Karzan\AppData\Local\Temp\cccP2hOc.s:192    .text.pmu_to_sleepmode:000000000000001c .LBB39
C:\Users\Karzan\AppData\Local\Temp\cccP2hOc.s:203    .text.pmu_to_sleepmode:0000000000000020 .LBE39
C:\Users\Karzan\AppData\Local\Temp\cccP2hOc.s:128    .text.pmu_to_sleepmode:0000000000000006 .LBB32
C:\Users\Karzan\AppData\Local\Temp\cccP2hOc.s:140    .text.pmu_to_sleepmode:000000000000000c .LBE32
C:\Users\Karzan\AppData\Local\Temp\cccP2hOc.s:168    .text.pmu_to_sleepmode:0000000000000014 .LBB36
C:\Users\Karzan\AppData\Local\Temp\cccP2hOc.s:177    .text.pmu_to_sleepmode:0000000000000018 .LBE36
C:\Users\Karzan\AppData\Local\Temp\cccP2hOc.s:2014   .debug_str:00000000000003d3 .LASF62
C:\Users\Karzan\AppData\Local\Temp\cccP2hOc.s:88     .text.pmu_lvd_disable:0000000000000000 .LFB4
C:\Users\Karzan\AppData\Local\Temp\cccP2hOc.s:100    .text.pmu_lvd_disable:000000000000000c .LFE4
C:\Users\Karzan\AppData\Local\Temp\cccP2hOc.s:1918   .debug_str:00000000000000af .LASF63
C:\Users\Karzan\AppData\Local\Temp\cccP2hOc.s:52     .text.pmu_lvd_select:0000000000000000 .LFB3
C:\Users\Karzan\AppData\Local\Temp\cccP2hOc.s:81     .text.pmu_lvd_select:0000000000000022 .LFE3
C:\Users\Karzan\AppData\Local\Temp\cccP2hOc.s:2018   .debug_str:00000000000003f1 .LASF64
C:\Users\Karzan\AppData\Local\Temp\cccP2hOc.s:1815   .debug_loc:0000000000000042 .LLST1
C:\Users\Karzan\AppData\Local\Temp\cccP2hOc.s:1930   .debug_str:0000000000000137 .LASF65
C:\Users\Karzan\AppData\Local\Temp\cccP2hOc.s:14     .text.pmu_deinit:0000000000000000 .LFB2
C:\Users\Karzan\AppData\Local\Temp\cccP2hOc.s:45     .text.pmu_deinit:0000000000000020 .LFE2
C:\Users\Karzan\AppData\Local\Temp\cccP2hOc.s:1829   .debug_loc:0000000000000063 .LLST0
C:\Users\Karzan\AppData\Local\Temp\cccP2hOc.s:30     .text.pmu_deinit:0000000000000010 .LVL0
C:\Users\Karzan\AppData\Local\Temp\cccP2hOc.s:43     .text.pmu_deinit:0000000000000020 .LVL1
C:\Users\Karzan\AppData\Local\Temp\cccP2hOc.s:2040   .debug_str:0000000000000481 .LASF73
C:\Users\Karzan\AppData\Local\Temp\cccP2hOc.s:2046   .debug_str:000000000000049b .LASF66
C:\Users\Karzan\AppData\Local\Temp\cccP2hOc.s:1938   .debug_str:0000000000000160 .LASF67
C:\Users\Karzan\AppData\Local\Temp\cccP2hOc.s:556    .text.pmu_flag_get:0000000000000000 .LVL25
C:\Users\Karzan\AppData\Local\Temp\cccP2hOc.s:563    .text.pmu_flag_get:0000000000000008 .LVL26
C:\Users\Karzan\AppData\Local\Temp\cccP2hOc.s:217    .text.pmu_to_deepsleepmode:0000000000000000 .LVL10
C:\Users\Karzan\AppData\Local\Temp\cccP2hOc.s:228    .text.pmu_to_deepsleepmode:000000000000000e .LVL11
C:\Users\Karzan\AppData\Local\Temp\cccP2hOc.s:55     .text.pmu_lvd_select:0000000000000000 .LVL2
C:\Users\Karzan\AppData\Local\Temp\cccP2hOc.s:71     .text.pmu_lvd_select:0000000000000016 .LVL3
C:\Users\Karzan\AppData\Local\Temp\cccP2hOc.s:21     .text.pmu_deinit:0000000000000002 .LCFI0
C:\Users\Karzan\AppData\Local\Temp\cccP2hOc.s:39     .text.pmu_deinit:0000000000000018 .LCFI1
C:\Users\Karzan\AppData\Local\Temp\cccP2hOc.s:614    .debug_info:0000000000000000 .Ldebug_info0

UNDEFINED SYMBOLS
GAS LISTING C:\Users\Karzan\AppData\Local\Temp\cccP2hOc.s 			page 26


rcu_periph_reset_enable
rcu_periph_reset_disable
