GAS LISTING C:\Users\Karzan\AppData\Local\Temp\ccBvNvkC.s 			page 1


   1              		.file	"gd32vf103_adc.c"
   2              		.option nopic
   3              		.attribute arch, "rv32i2p0_m2p0_a2p0_c2p0"
   4              		.attribute unaligned_access, 0
   5              		.attribute stack_align, 16
   6              		.text
   7              	.Ltext0:
   8              		.cfi_sections	.debug_frame
   9              		.section	.text.adc_deinit,"ax",@progbits
  10              		.align	1
  11              		.globl	adc_deinit
  13              	adc_deinit:
  14              	.LFB2:
  15              		.file 1 "./../../firmware/GD32VF103_standard_peripheral/Source/gd32vf103_adc.c"
   1:./../../firmware/GD32VF103_standard_peripheral/Source/gd32vf103_adc.c **** /*!
   2:./../../firmware/GD32VF103_standard_peripheral/Source/gd32vf103_adc.c ****     \file    gd32vf103_adc.c
   3:./../../firmware/GD32VF103_standard_peripheral/Source/gd32vf103_adc.c ****     \brief   ADC driver
   4:./../../firmware/GD32VF103_standard_peripheral/Source/gd32vf103_adc.c **** 
   5:./../../firmware/GD32VF103_standard_peripheral/Source/gd32vf103_adc.c ****     \version 2020-06-05, V1.0.0, firmware for GD32VF103
   6:./../../firmware/GD32VF103_standard_peripheral/Source/gd32vf103_adc.c ****     \version 2020-08-04, V1.1.0, firmware for GD32VF103
   7:./../../firmware/GD32VF103_standard_peripheral/Source/gd32vf103_adc.c **** */
   8:./../../firmware/GD32VF103_standard_peripheral/Source/gd32vf103_adc.c **** 
   9:./../../firmware/GD32VF103_standard_peripheral/Source/gd32vf103_adc.c **** /*
  10:./../../firmware/GD32VF103_standard_peripheral/Source/gd32vf103_adc.c ****     Copyright (c) 2020, GigaDevice Semiconductor Inc.
  11:./../../firmware/GD32VF103_standard_peripheral/Source/gd32vf103_adc.c **** 
  12:./../../firmware/GD32VF103_standard_peripheral/Source/gd32vf103_adc.c ****     Redistribution and use in source and binary forms, with or without modification, 
  13:./../../firmware/GD32VF103_standard_peripheral/Source/gd32vf103_adc.c **** are permitted provided that the following conditions are met:
  14:./../../firmware/GD32VF103_standard_peripheral/Source/gd32vf103_adc.c **** 
  15:./../../firmware/GD32VF103_standard_peripheral/Source/gd32vf103_adc.c ****     1. Redistributions of source code must retain the above copyright notice, this 
  16:./../../firmware/GD32VF103_standard_peripheral/Source/gd32vf103_adc.c ****        list of conditions and the following disclaimer.
  17:./../../firmware/GD32VF103_standard_peripheral/Source/gd32vf103_adc.c ****     2. Redistributions in binary form must reproduce the above copyright notice, 
  18:./../../firmware/GD32VF103_standard_peripheral/Source/gd32vf103_adc.c ****        this list of conditions and the following disclaimer in the documentation 
  19:./../../firmware/GD32VF103_standard_peripheral/Source/gd32vf103_adc.c ****        and/or other materials provided with the distribution.
  20:./../../firmware/GD32VF103_standard_peripheral/Source/gd32vf103_adc.c ****     3. Neither the name of the copyright holder nor the names of its contributors 
  21:./../../firmware/GD32VF103_standard_peripheral/Source/gd32vf103_adc.c ****        may be used to endorse or promote products derived from this software without 
  22:./../../firmware/GD32VF103_standard_peripheral/Source/gd32vf103_adc.c ****        specific prior written permission.
  23:./../../firmware/GD32VF103_standard_peripheral/Source/gd32vf103_adc.c **** 
  24:./../../firmware/GD32VF103_standard_peripheral/Source/gd32vf103_adc.c ****     THIS SOFTWARE IS PROVIDED BY THE COPYRIGHT HOLDERS AND CONTRIBUTORS "AS IS" 
  25:./../../firmware/GD32VF103_standard_peripheral/Source/gd32vf103_adc.c **** AND ANY EXPRESS OR IMPLIED WARRANTIES, INCLUDING, BUT NOT LIMITED TO, THE IMPLIED 
  26:./../../firmware/GD32VF103_standard_peripheral/Source/gd32vf103_adc.c **** WARRANTIES OF MERCHANTABILITY AND FITNESS FOR A PARTICULAR PURPOSE ARE DISCLAIMED. 
  27:./../../firmware/GD32VF103_standard_peripheral/Source/gd32vf103_adc.c **** IN NO EVENT SHALL THE COPYRIGHT HOLDER OR CONTRIBUTORS BE LIABLE FOR ANY DIRECT, 
  28:./../../firmware/GD32VF103_standard_peripheral/Source/gd32vf103_adc.c **** INDIRECT, INCIDENTAL, SPECIAL, EXEMPLARY, OR CONSEQUENTIAL DAMAGES (INCLUDING, BUT 
  29:./../../firmware/GD32VF103_standard_peripheral/Source/gd32vf103_adc.c **** NOT LIMITED TO, PROCUREMENT OF SUBSTITUTE GOODS OR SERVICES; LOSS OF USE, DATA, OR 
  30:./../../firmware/GD32VF103_standard_peripheral/Source/gd32vf103_adc.c **** PROFITS; OR BUSINESS INTERRUPTION) HOWEVER CAUSED AND ON ANY THEORY OF LIABILITY, 
  31:./../../firmware/GD32VF103_standard_peripheral/Source/gd32vf103_adc.c **** WHETHER IN CONTRACT, STRICT LIABILITY, OR TORT (INCLUDING NEGLIGENCE OR OTHERWISE) 
  32:./../../firmware/GD32VF103_standard_peripheral/Source/gd32vf103_adc.c **** ARISING IN ANY WAY OUT OF THE USE OF THIS SOFTWARE, EVEN IF ADVISED OF THE POSSIBILITY 
  33:./../../firmware/GD32VF103_standard_peripheral/Source/gd32vf103_adc.c **** OF SUCH DAMAGE.
  34:./../../firmware/GD32VF103_standard_peripheral/Source/gd32vf103_adc.c **** */
  35:./../../firmware/GD32VF103_standard_peripheral/Source/gd32vf103_adc.c **** 
  36:./../../firmware/GD32VF103_standard_peripheral/Source/gd32vf103_adc.c **** #include "gd32vf103_adc.h"
  37:./../../firmware/GD32VF103_standard_peripheral/Source/gd32vf103_adc.c **** 
  38:./../../firmware/GD32VF103_standard_peripheral/Source/gd32vf103_adc.c **** /* discontinuous mode macro*/
  39:./../../firmware/GD32VF103_standard_peripheral/Source/gd32vf103_adc.c **** #define  ADC_CHANNEL_LENGTH_SUBTRACT_ONE            ((uint8_t)1U)
  40:./../../firmware/GD32VF103_standard_peripheral/Source/gd32vf103_adc.c **** 
  41:./../../firmware/GD32VF103_standard_peripheral/Source/gd32vf103_adc.c **** /* ADC regular channel macro */
  42:./../../firmware/GD32VF103_standard_peripheral/Source/gd32vf103_adc.c **** #define  ADC_REGULAR_CHANNEL_RANK_SIX               ((uint8_t)6U)
  43:./../../firmware/GD32VF103_standard_peripheral/Source/gd32vf103_adc.c **** #define  ADC_REGULAR_CHANNEL_RANK_TWELVE            ((uint8_t)12U)
GAS LISTING C:\Users\Karzan\AppData\Local\Temp\ccBvNvkC.s 			page 2


  44:./../../firmware/GD32VF103_standard_peripheral/Source/gd32vf103_adc.c **** #define  ADC_REGULAR_CHANNEL_RANK_SIXTEEN           ((uint8_t)16U)
  45:./../../firmware/GD32VF103_standard_peripheral/Source/gd32vf103_adc.c **** #define  ADC_REGULAR_CHANNEL_RANK_LENGTH            ((uint8_t)5U)
  46:./../../firmware/GD32VF103_standard_peripheral/Source/gd32vf103_adc.c **** 
  47:./../../firmware/GD32VF103_standard_peripheral/Source/gd32vf103_adc.c **** /* ADC sampling time macro */
  48:./../../firmware/GD32VF103_standard_peripheral/Source/gd32vf103_adc.c **** #define  ADC_CHANNEL_SAMPLE_TEN                     ((uint8_t)10U)
  49:./../../firmware/GD32VF103_standard_peripheral/Source/gd32vf103_adc.c **** #define  ADC_CHANNEL_SAMPLE_EIGHTEEN                ((uint8_t)18U)
  50:./../../firmware/GD32VF103_standard_peripheral/Source/gd32vf103_adc.c **** #define  ADC_CHANNEL_SAMPLE_LENGTH                  ((uint8_t)3U)
  51:./../../firmware/GD32VF103_standard_peripheral/Source/gd32vf103_adc.c **** 
  52:./../../firmware/GD32VF103_standard_peripheral/Source/gd32vf103_adc.c **** /* ADC inserted channel macro */
  53:./../../firmware/GD32VF103_standard_peripheral/Source/gd32vf103_adc.c **** #define  ADC_INSERTED_CHANNEL_RANK_LENGTH           ((uint8_t)5U)
  54:./../../firmware/GD32VF103_standard_peripheral/Source/gd32vf103_adc.c **** #define  ADC_INSERTED_CHANNEL_SHIFT_LENGTH          ((uint8_t)15U)
  55:./../../firmware/GD32VF103_standard_peripheral/Source/gd32vf103_adc.c **** 
  56:./../../firmware/GD32VF103_standard_peripheral/Source/gd32vf103_adc.c **** /* ADC inserted channel offset macro */
  57:./../../firmware/GD32VF103_standard_peripheral/Source/gd32vf103_adc.c **** #define  ADC_OFFSET_LENGTH                          ((uint8_t)3U)
  58:./../../firmware/GD32VF103_standard_peripheral/Source/gd32vf103_adc.c **** #define  ADC_OFFSET_SHIFT_LENGTH                    ((uint8_t)4U)
  59:./../../firmware/GD32VF103_standard_peripheral/Source/gd32vf103_adc.c **** 
  60:./../../firmware/GD32VF103_standard_peripheral/Source/gd32vf103_adc.c **** /*!
  61:./../../firmware/GD32VF103_standard_peripheral/Source/gd32vf103_adc.c ****     \brief      reset ADC 
  62:./../../firmware/GD32VF103_standard_peripheral/Source/gd32vf103_adc.c ****     \param[in]  adc_periph: ADCx, x=0,1
  63:./../../firmware/GD32VF103_standard_peripheral/Source/gd32vf103_adc.c ****     \param[out] none
  64:./../../firmware/GD32VF103_standard_peripheral/Source/gd32vf103_adc.c ****     \retval     none
  65:./../../firmware/GD32VF103_standard_peripheral/Source/gd32vf103_adc.c **** */
  66:./../../firmware/GD32VF103_standard_peripheral/Source/gd32vf103_adc.c **** void adc_deinit(uint32_t adc_periph)
  67:./../../firmware/GD32VF103_standard_peripheral/Source/gd32vf103_adc.c **** {
  16              		.loc 1 67 1
  17              		.cfi_startproc
  18              	.LVL0:
  68:./../../firmware/GD32VF103_standard_peripheral/Source/gd32vf103_adc.c ****     switch(adc_periph){
  19              		.loc 1 68 5
  67:./../../firmware/GD32VF103_standard_peripheral/Source/gd32vf103_adc.c ****     switch(adc_periph){
  20              		.loc 1 67 1 is_stmt 0
  21 0000 4111     		addi	sp,sp,-16
  22              	.LCFI0:
  23              		.cfi_def_cfa_offset 16
  24              		.loc 1 68 5
  25 0002 B7270140 		li	a5,1073815552
  67:./../../firmware/GD32VF103_standard_peripheral/Source/gd32vf103_adc.c ****     switch(adc_periph){
  26              		.loc 1 67 1
  27 0006 06C6     		sw	ra,12(sp)
  28              		.cfi_offset 1, -4
  29              		.loc 1 68 5
  30 0008 93870740 		addi	a5,a5,1024
  31 000c 630BF500 		beq	a0,a5,.L2
  32 0010 B7370140 		li	a5,1073819648
  33 0014 93870780 		addi	a5,a5,-2048
  34 0018 6303F502 		beq	a0,a5,.L3
  69:./../../firmware/GD32VF103_standard_peripheral/Source/gd32vf103_adc.c ****     case ADC0:
  70:./../../firmware/GD32VF103_standard_peripheral/Source/gd32vf103_adc.c ****         /* reset ADC0 */
  71:./../../firmware/GD32VF103_standard_peripheral/Source/gd32vf103_adc.c ****         rcu_periph_reset_enable(RCU_ADC0RST);
  72:./../../firmware/GD32VF103_standard_peripheral/Source/gd32vf103_adc.c ****         rcu_periph_reset_disable(RCU_ADC0RST);
  73:./../../firmware/GD32VF103_standard_peripheral/Source/gd32vf103_adc.c ****         break;
  74:./../../firmware/GD32VF103_standard_peripheral/Source/gd32vf103_adc.c ****     case ADC1:
  75:./../../firmware/GD32VF103_standard_peripheral/Source/gd32vf103_adc.c ****         /* reset ADC1 */
  76:./../../firmware/GD32VF103_standard_peripheral/Source/gd32vf103_adc.c ****         rcu_periph_reset_enable(RCU_ADC1RST);
  77:./../../firmware/GD32VF103_standard_peripheral/Source/gd32vf103_adc.c ****         rcu_periph_reset_disable(RCU_ADC1RST);
  78:./../../firmware/GD32VF103_standard_peripheral/Source/gd32vf103_adc.c ****         break;
  79:./../../firmware/GD32VF103_standard_peripheral/Source/gd32vf103_adc.c ****     default:
GAS LISTING C:\Users\Karzan\AppData\Local\Temp\ccBvNvkC.s 			page 3


  80:./../../firmware/GD32VF103_standard_peripheral/Source/gd32vf103_adc.c ****         break;
  81:./../../firmware/GD32VF103_standard_peripheral/Source/gd32vf103_adc.c ****     }
  82:./../../firmware/GD32VF103_standard_peripheral/Source/gd32vf103_adc.c **** }
  35              		.loc 1 82 1
  36 001c B240     		lw	ra,12(sp)
  37              		.cfi_remember_state
  38              		.cfi_restore 1
  39 001e 4101     		addi	sp,sp,16
  40              	.LCFI1:
  41              		.cfi_def_cfa_offset 0
  42 0020 8280     		jr	ra
  43              	.L2:
  44              	.LCFI2:
  45              		.cfi_restore_state
  71:./../../firmware/GD32VF103_standard_peripheral/Source/gd32vf103_adc.c ****         rcu_periph_reset_disable(RCU_ADC0RST);
  46              		.loc 1 71 9 is_stmt 1
  47 0022 13059030 		li	a0,777
  48              	.LVL1:
  49 0026 97000000 		call	rcu_periph_reset_enable
  49      E7800000 
  50              	.LVL2:
  72:./../../firmware/GD32VF103_standard_peripheral/Source/gd32vf103_adc.c ****         break;
  51              		.loc 1 72 9
  52 002e 13059030 		li	a0,777
  53              	.L7:
  54              		.loc 1 82 1 is_stmt 0
  55 0032 B240     		lw	ra,12(sp)
  56              		.cfi_remember_state
  57              		.cfi_restore 1
  58 0034 4101     		addi	sp,sp,16
  59              	.LCFI3:
  60              		.cfi_def_cfa_offset 0
  77:./../../firmware/GD32VF103_standard_peripheral/Source/gd32vf103_adc.c ****         break;
  61              		.loc 1 77 9
  62 0036 17030000 		tail	rcu_periph_reset_disable
  62      67000300 
  63              	.LVL3:
  64              	.L3:
  65              	.LCFI4:
  66              		.cfi_restore_state
  76:./../../firmware/GD32VF103_standard_peripheral/Source/gd32vf103_adc.c ****         rcu_periph_reset_disable(RCU_ADC1RST);
  67              		.loc 1 76 9 is_stmt 1
  68 003e 1305A030 		li	a0,778
  69              	.LVL4:
  70 0042 97000000 		call	rcu_periph_reset_enable
  70      E7800000 
  71              	.LVL5:
  77:./../../firmware/GD32VF103_standard_peripheral/Source/gd32vf103_adc.c ****         break;
  72              		.loc 1 77 9
  73 004a 1305A030 		li	a0,778
  74 004e D5B7     		j	.L7
  75              		.cfi_endproc
  76              	.LFE2:
  78              		.section	.text.adc_mode_config,"ax",@progbits
  79              		.align	1
  80              		.globl	adc_mode_config
  82              	adc_mode_config:
GAS LISTING C:\Users\Karzan\AppData\Local\Temp\ccBvNvkC.s 			page 4


  83              	.LFB3:
  83:./../../firmware/GD32VF103_standard_peripheral/Source/gd32vf103_adc.c **** 
  84:./../../firmware/GD32VF103_standard_peripheral/Source/gd32vf103_adc.c **** /*!
  85:./../../firmware/GD32VF103_standard_peripheral/Source/gd32vf103_adc.c ****     \brief      configure the ADC sync mode
  86:./../../firmware/GD32VF103_standard_peripheral/Source/gd32vf103_adc.c ****     \param[in]  mode: ADC mode
  87:./../../firmware/GD32VF103_standard_peripheral/Source/gd32vf103_adc.c ****                 only one parameter can be selected which is shown as below:
  88:./../../firmware/GD32VF103_standard_peripheral/Source/gd32vf103_adc.c ****       \arg        ADC_MODE_FREE: all the ADCs work independently
  89:./../../firmware/GD32VF103_standard_peripheral/Source/gd32vf103_adc.c ****       \arg        ADC_DAUL_REGULAL_PARALLEL_INSERTED_PARALLEL: ADC0 and ADC1 work in combined regul
  90:./../../firmware/GD32VF103_standard_peripheral/Source/gd32vf103_adc.c ****       \arg        ADC_DAUL_REGULAL_PARALLEL_INSERTED_ROTATION: ADC0 and ADC1 work in combined regul
  91:./../../firmware/GD32VF103_standard_peripheral/Source/gd32vf103_adc.c ****       \arg        ADC_DAUL_INSERTED_PARALLEL_REGULAL_FOLLOWUP_FAST: ADC0 and ADC1 work in combined 
  92:./../../firmware/GD32VF103_standard_peripheral/Source/gd32vf103_adc.c ****       \arg        ADC_DAUL_INSERTED_PARALLEL_REGULAL_FOLLOWUP_SLOW: ADC0 and ADC1 work in combined 
  93:./../../firmware/GD32VF103_standard_peripheral/Source/gd32vf103_adc.c ****       \arg        ADC_DAUL_INSERTED_PARALLEL: ADC0 and ADC1 work in inserted parallel mode only
  94:./../../firmware/GD32VF103_standard_peripheral/Source/gd32vf103_adc.c ****       \arg        ADC_DAUL_REGULAL_PARALLEL: ADC0 and ADC1 work in regular parallel mode only
  95:./../../firmware/GD32VF103_standard_peripheral/Source/gd32vf103_adc.c ****       \arg        ADC_DAUL_REGULAL_FOLLOWUP_FAST: ADC0 and ADC1 work in follow-up fast mode only
  96:./../../firmware/GD32VF103_standard_peripheral/Source/gd32vf103_adc.c ****       \arg        ADC_DAUL_REGULAL_FOLLOWUP_SLOW: ADC0 and ADC1 work in follow-up slow mode only
  97:./../../firmware/GD32VF103_standard_peripheral/Source/gd32vf103_adc.c ****       \arg        ADC_DAUL_INSERTED_TRIGGER_ROTATION: ADC0 and ADC1 work in trigger rotation mode o
  98:./../../firmware/GD32VF103_standard_peripheral/Source/gd32vf103_adc.c ****     \param[out] none
  99:./../../firmware/GD32VF103_standard_peripheral/Source/gd32vf103_adc.c ****     \retval     none
 100:./../../firmware/GD32VF103_standard_peripheral/Source/gd32vf103_adc.c **** */
 101:./../../firmware/GD32VF103_standard_peripheral/Source/gd32vf103_adc.c **** void adc_mode_config(uint32_t mode)
 102:./../../firmware/GD32VF103_standard_peripheral/Source/gd32vf103_adc.c **** {
  84              		.loc 1 102 1
  85              		.cfi_startproc
  86              	.LVL6:
 103:./../../firmware/GD32VF103_standard_peripheral/Source/gd32vf103_adc.c ****     ADC_CTL0(ADC0) &= ~(ADC_CTL0_SYNCM);
  87              		.loc 1 103 5
  88              		.loc 1 103 20 is_stmt 0
  89 0000 B7270140 		li	a5,1073815552
  90 0004 03A74740 		lw	a4,1028(a5)
  91 0008 B706F1FF 		li	a3,-983040
  92 000c FD16     		addi	a3,a3,-1
  93 000e 758F     		and	a4,a4,a3
  94 0010 23A2E740 		sw	a4,1028(a5)
 104:./../../firmware/GD32VF103_standard_peripheral/Source/gd32vf103_adc.c ****     ADC_CTL0(ADC0) |= mode;
  95              		.loc 1 104 5 is_stmt 1
  96              		.loc 1 104 20 is_stmt 0
  97 0014 03A74740 		lw	a4,1028(a5)
  98 0018 598D     		or	a0,a4,a0
  99              	.LVL7:
 100 001a 23A2A740 		sw	a0,1028(a5)
 105:./../../firmware/GD32VF103_standard_peripheral/Source/gd32vf103_adc.c **** }
 101              		.loc 1 105 1
 102 001e 8280     		ret
 103              		.cfi_endproc
 104              	.LFE3:
 106              		.section	.text.adc_special_function_config,"ax",@progbits
 107              		.align	1
 108              		.globl	adc_special_function_config
 110              	adc_special_function_config:
 111              	.LFB4:
 106:./../../firmware/GD32VF103_standard_peripheral/Source/gd32vf103_adc.c **** 
 107:./../../firmware/GD32VF103_standard_peripheral/Source/gd32vf103_adc.c **** /*!
 108:./../../firmware/GD32VF103_standard_peripheral/Source/gd32vf103_adc.c ****     \brief      enable or disable ADC special function
 109:./../../firmware/GD32VF103_standard_peripheral/Source/gd32vf103_adc.c ****     \param[in]  adc_periph: ADCx, x=0,1
 110:./../../firmware/GD32VF103_standard_peripheral/Source/gd32vf103_adc.c ****     \param[in]  function: the function to config
 111:./../../firmware/GD32VF103_standard_peripheral/Source/gd32vf103_adc.c ****                 only one parameter can be selected which is shown as below:
 112:./../../firmware/GD32VF103_standard_peripheral/Source/gd32vf103_adc.c ****       \arg        ADC_SCAN_MODE: scan mode select
GAS LISTING C:\Users\Karzan\AppData\Local\Temp\ccBvNvkC.s 			page 5


 113:./../../firmware/GD32VF103_standard_peripheral/Source/gd32vf103_adc.c ****       \arg        ADC_INSERTED_CHANNEL_AUTO: inserted channel group convert automatically
 114:./../../firmware/GD32VF103_standard_peripheral/Source/gd32vf103_adc.c ****       \arg        ADC_CONTINUOUS_MODE: continuous mode select
 115:./../../firmware/GD32VF103_standard_peripheral/Source/gd32vf103_adc.c ****     \param[in]  newvalue: ENABLE or DISABLE
 116:./../../firmware/GD32VF103_standard_peripheral/Source/gd32vf103_adc.c ****     \param[out] none
 117:./../../firmware/GD32VF103_standard_peripheral/Source/gd32vf103_adc.c ****     \retval     none
 118:./../../firmware/GD32VF103_standard_peripheral/Source/gd32vf103_adc.c **** */
 119:./../../firmware/GD32VF103_standard_peripheral/Source/gd32vf103_adc.c **** void adc_special_function_config(uint32_t adc_periph, uint32_t function, ControlStatus newvalue)
 120:./../../firmware/GD32VF103_standard_peripheral/Source/gd32vf103_adc.c **** {
 112              		.loc 1 120 1 is_stmt 1
 113              		.cfi_startproc
 114              	.LVL8:
 121:./../../firmware/GD32VF103_standard_peripheral/Source/gd32vf103_adc.c ****     if(newvalue){
 115              		.loc 1 121 5
 116 0000 93F70510 		andi	a5,a1,256
 117 0004 13F70540 		andi	a4,a1,1024
 118 0008 8989     		andi	a1,a1,2
 119              	.LVL9:
 120              		.loc 1 121 7 is_stmt 0
 121 000a 0DC2     		beq	a2,zero,.L10
 122:./../../firmware/GD32VF103_standard_peripheral/Source/gd32vf103_adc.c ****         if(0U != (function & ADC_SCAN_MODE)){
 122              		.loc 1 122 9 is_stmt 1
 123              		.loc 1 122 11 is_stmt 0
 124 000c 89C7     		beq	a5,zero,.L11
 123:./../../firmware/GD32VF103_standard_peripheral/Source/gd32vf103_adc.c ****             /* enable scan mode */
 124:./../../firmware/GD32VF103_standard_peripheral/Source/gd32vf103_adc.c ****             ADC_CTL0(adc_periph) |= ADC_SCAN_MODE;
 125              		.loc 1 124 13 is_stmt 1
 126              		.loc 1 124 34 is_stmt 0
 127 000e 5C41     		lw	a5,4(a0)
 128 0010 93E70710 		ori	a5,a5,256
 129 0014 5CC1     		sw	a5,4(a0)
 130              	.L11:
 125:./../../firmware/GD32VF103_standard_peripheral/Source/gd32vf103_adc.c ****         }
 126:./../../firmware/GD32VF103_standard_peripheral/Source/gd32vf103_adc.c ****         if(0U != (function & ADC_INSERTED_CHANNEL_AUTO)){
 131              		.loc 1 126 9 is_stmt 1
 132              		.loc 1 126 11 is_stmt 0
 133 0016 09C7     		beq	a4,zero,.L12
 127:./../../firmware/GD32VF103_standard_peripheral/Source/gd32vf103_adc.c ****             /* enable inserted channel group convert automatically */
 128:./../../firmware/GD32VF103_standard_peripheral/Source/gd32vf103_adc.c ****             ADC_CTL0(adc_periph) |= ADC_INSERTED_CHANNEL_AUTO;
 134              		.loc 1 128 13 is_stmt 1
 135              		.loc 1 128 34 is_stmt 0
 136 0018 5C41     		lw	a5,4(a0)
 137 001a 93E70740 		ori	a5,a5,1024
 138 001e 5CC1     		sw	a5,4(a0)
 139              	.L12:
 129:./../../firmware/GD32VF103_standard_peripheral/Source/gd32vf103_adc.c ****         } 
 130:./../../firmware/GD32VF103_standard_peripheral/Source/gd32vf103_adc.c ****         if(0U != (function & ADC_CONTINUOUS_MODE)){
 140              		.loc 1 130 9 is_stmt 1
 141              		.loc 1 130 11 is_stmt 0
 142 0020 89C5     		beq	a1,zero,.L9
 131:./../../firmware/GD32VF103_standard_peripheral/Source/gd32vf103_adc.c ****             /* enable continuous mode */
 132:./../../firmware/GD32VF103_standard_peripheral/Source/gd32vf103_adc.c ****             ADC_CTL1(adc_periph) |= ADC_CONTINUOUS_MODE;
 143              		.loc 1 132 13 is_stmt 1
 144              		.loc 1 132 34 is_stmt 0
 145 0022 1C45     		lw	a5,8(a0)
 146 0024 93E72700 		ori	a5,a5,2
 147              	.L33:
 133:./../../firmware/GD32VF103_standard_peripheral/Source/gd32vf103_adc.c ****         }        
GAS LISTING C:\Users\Karzan\AppData\Local\Temp\ccBvNvkC.s 			page 6


 134:./../../firmware/GD32VF103_standard_peripheral/Source/gd32vf103_adc.c ****     }else{
 135:./../../firmware/GD32VF103_standard_peripheral/Source/gd32vf103_adc.c ****         if(0U != (function & ADC_SCAN_MODE)){
 136:./../../firmware/GD32VF103_standard_peripheral/Source/gd32vf103_adc.c ****             /* disable scan mode */
 137:./../../firmware/GD32VF103_standard_peripheral/Source/gd32vf103_adc.c ****             ADC_CTL0(adc_periph) &= ~ADC_SCAN_MODE;
 138:./../../firmware/GD32VF103_standard_peripheral/Source/gd32vf103_adc.c ****         }
 139:./../../firmware/GD32VF103_standard_peripheral/Source/gd32vf103_adc.c ****         if(0U != (function & ADC_INSERTED_CHANNEL_AUTO)){
 140:./../../firmware/GD32VF103_standard_peripheral/Source/gd32vf103_adc.c ****             /* disable inserted channel group convert automatically */
 141:./../../firmware/GD32VF103_standard_peripheral/Source/gd32vf103_adc.c ****             ADC_CTL0(adc_periph) &= ~ADC_INSERTED_CHANNEL_AUTO;
 142:./../../firmware/GD32VF103_standard_peripheral/Source/gd32vf103_adc.c ****         } 
 143:./../../firmware/GD32VF103_standard_peripheral/Source/gd32vf103_adc.c ****         if(0U != (function & ADC_CONTINUOUS_MODE)){
 144:./../../firmware/GD32VF103_standard_peripheral/Source/gd32vf103_adc.c ****             /* disable continuous mode */
 145:./../../firmware/GD32VF103_standard_peripheral/Source/gd32vf103_adc.c ****             ADC_CTL1(adc_periph) &= ~ADC_CONTINUOUS_MODE;
 148              		.loc 1 145 34
 149 0028 1CC5     		sw	a5,8(a0)
 150              	.L9:
 146:./../../firmware/GD32VF103_standard_peripheral/Source/gd32vf103_adc.c ****         }       
 147:./../../firmware/GD32VF103_standard_peripheral/Source/gd32vf103_adc.c ****     }
 148:./../../firmware/GD32VF103_standard_peripheral/Source/gd32vf103_adc.c **** }
 151              		.loc 1 148 1
 152 002a 8280     		ret
 153              	.L10:
 135:./../../firmware/GD32VF103_standard_peripheral/Source/gd32vf103_adc.c ****             /* disable scan mode */
 154              		.loc 1 135 9 is_stmt 1
 135:./../../firmware/GD32VF103_standard_peripheral/Source/gd32vf103_adc.c ****             /* disable scan mode */
 155              		.loc 1 135 11 is_stmt 0
 156 002c 89C7     		beq	a5,zero,.L15
 137:./../../firmware/GD32VF103_standard_peripheral/Source/gd32vf103_adc.c ****         }
 157              		.loc 1 137 13 is_stmt 1
 137:./../../firmware/GD32VF103_standard_peripheral/Source/gd32vf103_adc.c ****         }
 158              		.loc 1 137 34 is_stmt 0
 159 002e 5C41     		lw	a5,4(a0)
 160 0030 93F7F7EF 		andi	a5,a5,-257
 161 0034 5CC1     		sw	a5,4(a0)
 162              	.L15:
 139:./../../firmware/GD32VF103_standard_peripheral/Source/gd32vf103_adc.c ****             /* disable inserted channel group convert automatically */
 163              		.loc 1 139 9 is_stmt 1
 139:./../../firmware/GD32VF103_standard_peripheral/Source/gd32vf103_adc.c ****             /* disable inserted channel group convert automatically */
 164              		.loc 1 139 11 is_stmt 0
 165 0036 09C7     		beq	a4,zero,.L16
 141:./../../firmware/GD32VF103_standard_peripheral/Source/gd32vf103_adc.c ****         } 
 166              		.loc 1 141 13 is_stmt 1
 141:./../../firmware/GD32VF103_standard_peripheral/Source/gd32vf103_adc.c ****         } 
 167              		.loc 1 141 34 is_stmt 0
 168 0038 5C41     		lw	a5,4(a0)
 169 003a 93F7F7BF 		andi	a5,a5,-1025
 170 003e 5CC1     		sw	a5,4(a0)
 171              	.L16:
 143:./../../firmware/GD32VF103_standard_peripheral/Source/gd32vf103_adc.c ****             /* disable continuous mode */
 172              		.loc 1 143 9 is_stmt 1
 143:./../../firmware/GD32VF103_standard_peripheral/Source/gd32vf103_adc.c ****             /* disable continuous mode */
 173              		.loc 1 143 11 is_stmt 0
 174 0040 EDD5     		beq	a1,zero,.L9
 145:./../../firmware/GD32VF103_standard_peripheral/Source/gd32vf103_adc.c ****         }       
 175              		.loc 1 145 13 is_stmt 1
 145:./../../firmware/GD32VF103_standard_peripheral/Source/gd32vf103_adc.c ****         }       
 176              		.loc 1 145 34 is_stmt 0
 177 0042 1C45     		lw	a5,8(a0)
GAS LISTING C:\Users\Karzan\AppData\Local\Temp\ccBvNvkC.s 			page 7


 178 0044 F59B     		andi	a5,a5,-3
 179 0046 CDB7     		j	.L33
 180              		.cfi_endproc
 181              	.LFE4:
 183              		.section	.text.adc_data_alignment_config,"ax",@progbits
 184              		.align	1
 185              		.globl	adc_data_alignment_config
 187              	adc_data_alignment_config:
 188              	.LFB5:
 149:./../../firmware/GD32VF103_standard_peripheral/Source/gd32vf103_adc.c **** 
 150:./../../firmware/GD32VF103_standard_peripheral/Source/gd32vf103_adc.c **** /*!
 151:./../../firmware/GD32VF103_standard_peripheral/Source/gd32vf103_adc.c ****     \brief      configure ADC data alignment 
 152:./../../firmware/GD32VF103_standard_peripheral/Source/gd32vf103_adc.c ****     \param[in]  adc_periph: ADCx, x=0,1
 153:./../../firmware/GD32VF103_standard_peripheral/Source/gd32vf103_adc.c ****     \param[in]  data_alignment: data alignment select
 154:./../../firmware/GD32VF103_standard_peripheral/Source/gd32vf103_adc.c ****                 only one parameter can be selected which is shown as below:
 155:./../../firmware/GD32VF103_standard_peripheral/Source/gd32vf103_adc.c ****       \arg        ADC_DATAALIGN_RIGHT: LSB alignment
 156:./../../firmware/GD32VF103_standard_peripheral/Source/gd32vf103_adc.c ****       \arg        ADC_DATAALIGN_LEFT: MSB alignment
 157:./../../firmware/GD32VF103_standard_peripheral/Source/gd32vf103_adc.c ****     \param[out] none
 158:./../../firmware/GD32VF103_standard_peripheral/Source/gd32vf103_adc.c ****     \retval     none
 159:./../../firmware/GD32VF103_standard_peripheral/Source/gd32vf103_adc.c **** */
 160:./../../firmware/GD32VF103_standard_peripheral/Source/gd32vf103_adc.c **** void adc_data_alignment_config(uint32_t adc_periph, uint32_t data_alignment)
 161:./../../firmware/GD32VF103_standard_peripheral/Source/gd32vf103_adc.c **** {
 189              		.loc 1 161 1 is_stmt 1
 190              		.cfi_startproc
 191              	.LVL10:
 162:./../../firmware/GD32VF103_standard_peripheral/Source/gd32vf103_adc.c ****     if(ADC_DATAALIGN_RIGHT != data_alignment){
 192              		.loc 1 162 5
 163:./../../firmware/GD32VF103_standard_peripheral/Source/gd32vf103_adc.c ****         /* MSB alignment */
 164:./../../firmware/GD32VF103_standard_peripheral/Source/gd32vf103_adc.c ****         ADC_CTL1(adc_periph) |= ADC_CTL1_DAL;
 193              		.loc 1 164 30 is_stmt 0
 194 0000 1C45     		lw	a5,8(a0)
 162:./../../firmware/GD32VF103_standard_peripheral/Source/gd32vf103_adc.c ****     if(ADC_DATAALIGN_RIGHT != data_alignment){
 195              		.loc 1 162 7
 196 0002 99C5     		beq	a1,zero,.L35
 197              		.loc 1 164 9 is_stmt 1
 198              		.loc 1 164 30 is_stmt 0
 199 0004 0567     		li	a4,4096
 200 0006 13070780 		addi	a4,a4,-2048
 201 000a D98F     		or	a5,a5,a4
 202              	.L37:
 165:./../../firmware/GD32VF103_standard_peripheral/Source/gd32vf103_adc.c ****     }else{
 166:./../../firmware/GD32VF103_standard_peripheral/Source/gd32vf103_adc.c ****         /* LSB alignment */
 167:./../../firmware/GD32VF103_standard_peripheral/Source/gd32vf103_adc.c ****         ADC_CTL1(adc_periph) &= ~((uint32_t)ADC_CTL1_DAL);
 203              		.loc 1 167 30
 204 000c 1CC5     		sw	a5,8(a0)
 168:./../../firmware/GD32VF103_standard_peripheral/Source/gd32vf103_adc.c ****     }
 169:./../../firmware/GD32VF103_standard_peripheral/Source/gd32vf103_adc.c **** }
 205              		.loc 1 169 1
 206 000e 8280     		ret
 207              	.L35:
 167:./../../firmware/GD32VF103_standard_peripheral/Source/gd32vf103_adc.c ****     }
 208              		.loc 1 167 9 is_stmt 1
 167:./../../firmware/GD32VF103_standard_peripheral/Source/gd32vf103_adc.c ****     }
 209              		.loc 1 167 30 is_stmt 0
 210 0010 7D77     		li	a4,-4096
 211 0012 1307F77F 		addi	a4,a4,2047
 212 0016 F98F     		and	a5,a5,a4
GAS LISTING C:\Users\Karzan\AppData\Local\Temp\ccBvNvkC.s 			page 8


 213 0018 D5BF     		j	.L37
 214              		.cfi_endproc
 215              	.LFE5:
 217              		.section	.text.adc_enable,"ax",@progbits
 218              		.align	1
 219              		.globl	adc_enable
 221              	adc_enable:
 222              	.LFB6:
 170:./../../firmware/GD32VF103_standard_peripheral/Source/gd32vf103_adc.c **** 
 171:./../../firmware/GD32VF103_standard_peripheral/Source/gd32vf103_adc.c **** /*!
 172:./../../firmware/GD32VF103_standard_peripheral/Source/gd32vf103_adc.c ****     \brief      enable ADC interface
 173:./../../firmware/GD32VF103_standard_peripheral/Source/gd32vf103_adc.c ****     \param[in]  adc_periph: ADCx, x=0,1
 174:./../../firmware/GD32VF103_standard_peripheral/Source/gd32vf103_adc.c ****     \param[out] none
 175:./../../firmware/GD32VF103_standard_peripheral/Source/gd32vf103_adc.c ****     \retval     none
 176:./../../firmware/GD32VF103_standard_peripheral/Source/gd32vf103_adc.c **** */
 177:./../../firmware/GD32VF103_standard_peripheral/Source/gd32vf103_adc.c **** void adc_enable(uint32_t adc_periph)
 178:./../../firmware/GD32VF103_standard_peripheral/Source/gd32vf103_adc.c **** {
 223              		.loc 1 178 1 is_stmt 1
 224              		.cfi_startproc
 225              	.LVL11:
 179:./../../firmware/GD32VF103_standard_peripheral/Source/gd32vf103_adc.c ****     if((uint32_t)RESET == (ADC_CTL1(adc_periph) & ADC_CTL1_ADCON)){
 226              		.loc 1 179 5
 227              		.loc 1 179 28 is_stmt 0
 228 0000 1C45     		lw	a5,8(a0)
 229              		.loc 1 179 49
 230 0002 858B     		andi	a5,a5,1
 231              		.loc 1 179 7
 232 0004 89E7     		bne	a5,zero,.L38
 180:./../../firmware/GD32VF103_standard_peripheral/Source/gd32vf103_adc.c ****         /* enable ADC */
 181:./../../firmware/GD32VF103_standard_peripheral/Source/gd32vf103_adc.c ****         ADC_CTL1(adc_periph) |= (uint32_t)ADC_CTL1_ADCON;
 233              		.loc 1 181 9 is_stmt 1
 234              		.loc 1 181 30 is_stmt 0
 235 0006 1C45     		lw	a5,8(a0)
 236 0008 93E71700 		ori	a5,a5,1
 237 000c 1CC5     		sw	a5,8(a0)
 238              	.L38:
 182:./../../firmware/GD32VF103_standard_peripheral/Source/gd32vf103_adc.c ****     }       
 183:./../../firmware/GD32VF103_standard_peripheral/Source/gd32vf103_adc.c **** }
 239              		.loc 1 183 1
 240 000e 8280     		ret
 241              		.cfi_endproc
 242              	.LFE6:
 244              		.section	.text.adc_disable,"ax",@progbits
 245              		.align	1
 246              		.globl	adc_disable
 248              	adc_disable:
 249              	.LFB7:
 184:./../../firmware/GD32VF103_standard_peripheral/Source/gd32vf103_adc.c **** 
 185:./../../firmware/GD32VF103_standard_peripheral/Source/gd32vf103_adc.c **** /*!
 186:./../../firmware/GD32VF103_standard_peripheral/Source/gd32vf103_adc.c ****     \brief      disable ADC interface
 187:./../../firmware/GD32VF103_standard_peripheral/Source/gd32vf103_adc.c ****     \param[in]  adc_periph: ADCx, x=0,1
 188:./../../firmware/GD32VF103_standard_peripheral/Source/gd32vf103_adc.c ****     \param[out] none
 189:./../../firmware/GD32VF103_standard_peripheral/Source/gd32vf103_adc.c ****     \retval     none
 190:./../../firmware/GD32VF103_standard_peripheral/Source/gd32vf103_adc.c **** */
 191:./../../firmware/GD32VF103_standard_peripheral/Source/gd32vf103_adc.c **** void adc_disable(uint32_t adc_periph)
 192:./../../firmware/GD32VF103_standard_peripheral/Source/gd32vf103_adc.c **** {
 250              		.loc 1 192 1 is_stmt 1
GAS LISTING C:\Users\Karzan\AppData\Local\Temp\ccBvNvkC.s 			page 9


 251              		.cfi_startproc
 252              	.LVL12:
 193:./../../firmware/GD32VF103_standard_peripheral/Source/gd32vf103_adc.c ****     /* disable ADC */
 194:./../../firmware/GD32VF103_standard_peripheral/Source/gd32vf103_adc.c ****     ADC_CTL1(adc_periph) &= ~((uint32_t)ADC_CTL1_ADCON);
 253              		.loc 1 194 5
 254              		.loc 1 194 26 is_stmt 0
 255 0000 1C45     		lw	a5,8(a0)
 256 0002 F99B     		andi	a5,a5,-2
 257 0004 1CC5     		sw	a5,8(a0)
 195:./../../firmware/GD32VF103_standard_peripheral/Source/gd32vf103_adc.c **** }
 258              		.loc 1 195 1
 259 0006 8280     		ret
 260              		.cfi_endproc
 261              	.LFE7:
 263              		.section	.text.adc_calibration_enable,"ax",@progbits
 264              		.align	1
 265              		.globl	adc_calibration_enable
 267              	adc_calibration_enable:
 268              	.LFB8:
 196:./../../firmware/GD32VF103_standard_peripheral/Source/gd32vf103_adc.c **** 
 197:./../../firmware/GD32VF103_standard_peripheral/Source/gd32vf103_adc.c **** /*!
 198:./../../firmware/GD32VF103_standard_peripheral/Source/gd32vf103_adc.c ****     \brief      ADC calibration and reset calibration
 199:./../../firmware/GD32VF103_standard_peripheral/Source/gd32vf103_adc.c ****     \param[in]  adc_periph: ADCx, x=0,1
 200:./../../firmware/GD32VF103_standard_peripheral/Source/gd32vf103_adc.c ****     \param[out] none
 201:./../../firmware/GD32VF103_standard_peripheral/Source/gd32vf103_adc.c ****     \retval     none
 202:./../../firmware/GD32VF103_standard_peripheral/Source/gd32vf103_adc.c **** */
 203:./../../firmware/GD32VF103_standard_peripheral/Source/gd32vf103_adc.c **** void adc_calibration_enable(uint32_t adc_periph)
 204:./../../firmware/GD32VF103_standard_peripheral/Source/gd32vf103_adc.c **** {
 269              		.loc 1 204 1 is_stmt 1
 270              		.cfi_startproc
 271              	.LVL13:
 205:./../../firmware/GD32VF103_standard_peripheral/Source/gd32vf103_adc.c ****     /* reset the selected ADC1 calibration registers */
 206:./../../firmware/GD32VF103_standard_peripheral/Source/gd32vf103_adc.c ****     ADC_CTL1(adc_periph) |= (uint32_t) ADC_CTL1_RSTCLB;
 272              		.loc 1 206 5
 273              		.loc 1 206 26 is_stmt 0
 274 0000 1C45     		lw	a5,8(a0)
 275 0002 13078500 		addi	a4,a0,8
 276 0006 93E78700 		ori	a5,a5,8
 277 000a 1CC5     		sw	a5,8(a0)
 207:./../../firmware/GD32VF103_standard_peripheral/Source/gd32vf103_adc.c ****     /* check the RSTCLB bit state */
 208:./../../firmware/GD32VF103_standard_peripheral/Source/gd32vf103_adc.c ****     while((uint32_t)RESET != (ADC_CTL1(adc_periph) & ADC_CTL1_RSTCLB)){
 278              		.loc 1 208 5 is_stmt 1
 279              	.L42:
 209:./../../firmware/GD32VF103_standard_peripheral/Source/gd32vf103_adc.c ****     }
 280              		.loc 1 209 5 discriminator 1
 208:./../../firmware/GD32VF103_standard_peripheral/Source/gd32vf103_adc.c ****     }
 281              		.loc 1 208 31 is_stmt 0 discriminator 1
 282 000c 1C43     		lw	a5,0(a4)
 208:./../../firmware/GD32VF103_standard_peripheral/Source/gd32vf103_adc.c ****     }
 283              		.loc 1 208 52 discriminator 1
 284 000e A18B     		andi	a5,a5,8
 208:./../../firmware/GD32VF103_standard_peripheral/Source/gd32vf103_adc.c ****     }
 285              		.loc 1 208 10 discriminator 1
 286 0010 F5FF     		bne	a5,zero,.L42
 210:./../../firmware/GD32VF103_standard_peripheral/Source/gd32vf103_adc.c ****     /* enable ADC calibration process */
 211:./../../firmware/GD32VF103_standard_peripheral/Source/gd32vf103_adc.c ****     ADC_CTL1(adc_periph) |= ADC_CTL1_CLB;
 287              		.loc 1 211 5 is_stmt 1
GAS LISTING C:\Users\Karzan\AppData\Local\Temp\ccBvNvkC.s 			page 10


 288              		.loc 1 211 26 is_stmt 0
 289 0012 1C45     		lw	a5,8(a0)
 290 0014 93E74700 		ori	a5,a5,4
 291 0018 1CC5     		sw	a5,8(a0)
 212:./../../firmware/GD32VF103_standard_peripheral/Source/gd32vf103_adc.c ****     /* check the CLB bit state */
 213:./../../firmware/GD32VF103_standard_peripheral/Source/gd32vf103_adc.c ****     while((uint32_t)RESET != (ADC_CTL1(adc_periph) & ADC_CTL1_CLB)){
 292              		.loc 1 213 5 is_stmt 1
 293              	.L43:
 214:./../../firmware/GD32VF103_standard_peripheral/Source/gd32vf103_adc.c ****     }
 294              		.loc 1 214 5 discriminator 1
 213:./../../firmware/GD32VF103_standard_peripheral/Source/gd32vf103_adc.c ****     }
 295              		.loc 1 213 31 is_stmt 0 discriminator 1
 296 001a 1C43     		lw	a5,0(a4)
 213:./../../firmware/GD32VF103_standard_peripheral/Source/gd32vf103_adc.c ****     }
 297              		.loc 1 213 52 discriminator 1
 298 001c 918B     		andi	a5,a5,4
 213:./../../firmware/GD32VF103_standard_peripheral/Source/gd32vf103_adc.c ****     }
 299              		.loc 1 213 10 discriminator 1
 300 001e F5FF     		bne	a5,zero,.L43
 215:./../../firmware/GD32VF103_standard_peripheral/Source/gd32vf103_adc.c **** }
 301              		.loc 1 215 1
 302 0020 8280     		ret
 303              		.cfi_endproc
 304              	.LFE8:
 306              		.section	.text.adc_tempsensor_vrefint_enable,"ax",@progbits
 307              		.align	1
 308              		.globl	adc_tempsensor_vrefint_enable
 310              	adc_tempsensor_vrefint_enable:
 311              	.LFB9:
 216:./../../firmware/GD32VF103_standard_peripheral/Source/gd32vf103_adc.c **** 
 217:./../../firmware/GD32VF103_standard_peripheral/Source/gd32vf103_adc.c **** /*!
 218:./../../firmware/GD32VF103_standard_peripheral/Source/gd32vf103_adc.c ****     \brief      enable the temperature sensor and Vrefint channel
 219:./../../firmware/GD32VF103_standard_peripheral/Source/gd32vf103_adc.c ****     \param[in]  none
 220:./../../firmware/GD32VF103_standard_peripheral/Source/gd32vf103_adc.c ****     \param[out] none
 221:./../../firmware/GD32VF103_standard_peripheral/Source/gd32vf103_adc.c ****     \retval     none
 222:./../../firmware/GD32VF103_standard_peripheral/Source/gd32vf103_adc.c **** */
 223:./../../firmware/GD32VF103_standard_peripheral/Source/gd32vf103_adc.c **** void adc_tempsensor_vrefint_enable(void)
 224:./../../firmware/GD32VF103_standard_peripheral/Source/gd32vf103_adc.c **** {
 312              		.loc 1 224 1 is_stmt 1
 313              		.cfi_startproc
 225:./../../firmware/GD32VF103_standard_peripheral/Source/gd32vf103_adc.c ****     /* enable the temperature sensor and Vrefint channel */
 226:./../../firmware/GD32VF103_standard_peripheral/Source/gd32vf103_adc.c ****     ADC_CTL1(ADC0) |= ADC_CTL1_TSVREN;
 314              		.loc 1 226 5
 315              		.loc 1 226 20 is_stmt 0
 316 0000 37270140 		li	a4,1073815552
 317 0004 83278740 		lw	a5,1032(a4)
 318 0008 B7068000 		li	a3,8388608
 319 000c D58F     		or	a5,a5,a3
 320 000e 2324F740 		sw	a5,1032(a4)
 227:./../../firmware/GD32VF103_standard_peripheral/Source/gd32vf103_adc.c **** }
 321              		.loc 1 227 1
 322 0012 8280     		ret
 323              		.cfi_endproc
 324              	.LFE9:
 326              		.section	.text.adc_tempsensor_vrefint_disable,"ax",@progbits
 327              		.align	1
 328              		.globl	adc_tempsensor_vrefint_disable
GAS LISTING C:\Users\Karzan\AppData\Local\Temp\ccBvNvkC.s 			page 11


 330              	adc_tempsensor_vrefint_disable:
 331              	.LFB10:
 228:./../../firmware/GD32VF103_standard_peripheral/Source/gd32vf103_adc.c **** 
 229:./../../firmware/GD32VF103_standard_peripheral/Source/gd32vf103_adc.c **** /*!
 230:./../../firmware/GD32VF103_standard_peripheral/Source/gd32vf103_adc.c ****     \brief      disable the temperature sensor and Vrefint channel
 231:./../../firmware/GD32VF103_standard_peripheral/Source/gd32vf103_adc.c ****     \param[in]  none
 232:./../../firmware/GD32VF103_standard_peripheral/Source/gd32vf103_adc.c ****     \param[out] none
 233:./../../firmware/GD32VF103_standard_peripheral/Source/gd32vf103_adc.c ****     \retval     none
 234:./../../firmware/GD32VF103_standard_peripheral/Source/gd32vf103_adc.c **** */
 235:./../../firmware/GD32VF103_standard_peripheral/Source/gd32vf103_adc.c **** void adc_tempsensor_vrefint_disable(void)
 236:./../../firmware/GD32VF103_standard_peripheral/Source/gd32vf103_adc.c **** {
 332              		.loc 1 236 1 is_stmt 1
 333              		.cfi_startproc
 237:./../../firmware/GD32VF103_standard_peripheral/Source/gd32vf103_adc.c ****     /* disable the temperature sensor and Vrefint channel */
 238:./../../firmware/GD32VF103_standard_peripheral/Source/gd32vf103_adc.c ****     ADC_CTL1(ADC0) &= ~ADC_CTL1_TSVREN;
 334              		.loc 1 238 5
 335              		.loc 1 238 20 is_stmt 0
 336 0000 B7260140 		li	a3,1073815552
 337 0004 83A78640 		lw	a5,1032(a3)
 338 0008 370780FF 		li	a4,-8388608
 339 000c 7D17     		addi	a4,a4,-1
 340 000e F98F     		and	a5,a5,a4
 341 0010 23A4F640 		sw	a5,1032(a3)
 239:./../../firmware/GD32VF103_standard_peripheral/Source/gd32vf103_adc.c **** }
 342              		.loc 1 239 1
 343 0014 8280     		ret
 344              		.cfi_endproc
 345              	.LFE10:
 347              		.section	.text.adc_dma_mode_enable,"ax",@progbits
 348              		.align	1
 349              		.globl	adc_dma_mode_enable
 351              	adc_dma_mode_enable:
 352              	.LFB11:
 240:./../../firmware/GD32VF103_standard_peripheral/Source/gd32vf103_adc.c **** 
 241:./../../firmware/GD32VF103_standard_peripheral/Source/gd32vf103_adc.c **** /*!
 242:./../../firmware/GD32VF103_standard_peripheral/Source/gd32vf103_adc.c ****     \brief      enable DMA request 
 243:./../../firmware/GD32VF103_standard_peripheral/Source/gd32vf103_adc.c ****     \param[in]  adc_periph: ADCx, x=0,1
 244:./../../firmware/GD32VF103_standard_peripheral/Source/gd32vf103_adc.c ****     \param[out] none
 245:./../../firmware/GD32VF103_standard_peripheral/Source/gd32vf103_adc.c ****     \retval     none
 246:./../../firmware/GD32VF103_standard_peripheral/Source/gd32vf103_adc.c **** */
 247:./../../firmware/GD32VF103_standard_peripheral/Source/gd32vf103_adc.c **** void adc_dma_mode_enable(uint32_t adc_periph)
 248:./../../firmware/GD32VF103_standard_peripheral/Source/gd32vf103_adc.c **** {
 353              		.loc 1 248 1 is_stmt 1
 354              		.cfi_startproc
 355              	.LVL14:
 249:./../../firmware/GD32VF103_standard_peripheral/Source/gd32vf103_adc.c ****     /* enable DMA request */
 250:./../../firmware/GD32VF103_standard_peripheral/Source/gd32vf103_adc.c ****     ADC_CTL1(adc_periph) |= (uint32_t)(ADC_CTL1_DMA);
 356              		.loc 1 250 5
 357              		.loc 1 250 26 is_stmt 0
 358 0000 1C45     		lw	a5,8(a0)
 359 0002 93E70710 		ori	a5,a5,256
 360 0006 1CC5     		sw	a5,8(a0)
 251:./../../firmware/GD32VF103_standard_peripheral/Source/gd32vf103_adc.c **** }
 361              		.loc 1 251 1
 362 0008 8280     		ret
 363              		.cfi_endproc
 364              	.LFE11:
GAS LISTING C:\Users\Karzan\AppData\Local\Temp\ccBvNvkC.s 			page 12


 366              		.section	.text.adc_dma_mode_disable,"ax",@progbits
 367              		.align	1
 368              		.globl	adc_dma_mode_disable
 370              	adc_dma_mode_disable:
 371              	.LFB12:
 252:./../../firmware/GD32VF103_standard_peripheral/Source/gd32vf103_adc.c **** 
 253:./../../firmware/GD32VF103_standard_peripheral/Source/gd32vf103_adc.c **** /*!
 254:./../../firmware/GD32VF103_standard_peripheral/Source/gd32vf103_adc.c ****     \brief      disable DMA request 
 255:./../../firmware/GD32VF103_standard_peripheral/Source/gd32vf103_adc.c ****     \param[in]  adc_periph: ADCx, x=0,1
 256:./../../firmware/GD32VF103_standard_peripheral/Source/gd32vf103_adc.c ****     \param[out] none
 257:./../../firmware/GD32VF103_standard_peripheral/Source/gd32vf103_adc.c ****     \retval     none
 258:./../../firmware/GD32VF103_standard_peripheral/Source/gd32vf103_adc.c **** */
 259:./../../firmware/GD32VF103_standard_peripheral/Source/gd32vf103_adc.c **** void adc_dma_mode_disable(uint32_t adc_periph)
 260:./../../firmware/GD32VF103_standard_peripheral/Source/gd32vf103_adc.c **** {
 372              		.loc 1 260 1 is_stmt 1
 373              		.cfi_startproc
 374              	.LVL15:
 261:./../../firmware/GD32VF103_standard_peripheral/Source/gd32vf103_adc.c ****     /* disable DMA request */
 262:./../../firmware/GD32VF103_standard_peripheral/Source/gd32vf103_adc.c ****     ADC_CTL1(adc_periph) &= ~((uint32_t)ADC_CTL1_DMA);
 375              		.loc 1 262 5
 376              		.loc 1 262 26 is_stmt 0
 377 0000 1C45     		lw	a5,8(a0)
 378 0002 93F7F7EF 		andi	a5,a5,-257
 379 0006 1CC5     		sw	a5,8(a0)
 263:./../../firmware/GD32VF103_standard_peripheral/Source/gd32vf103_adc.c **** }
 380              		.loc 1 263 1
 381 0008 8280     		ret
 382              		.cfi_endproc
 383              	.LFE12:
 385              		.section	.text.adc_discontinuous_mode_config,"ax",@progbits
 386              		.align	1
 387              		.globl	adc_discontinuous_mode_config
 389              	adc_discontinuous_mode_config:
 390              	.LFB13:
 264:./../../firmware/GD32VF103_standard_peripheral/Source/gd32vf103_adc.c **** 
 265:./../../firmware/GD32VF103_standard_peripheral/Source/gd32vf103_adc.c **** /*!
 266:./../../firmware/GD32VF103_standard_peripheral/Source/gd32vf103_adc.c ****     \brief      configure ADC discontinuous mode 
 267:./../../firmware/GD32VF103_standard_peripheral/Source/gd32vf103_adc.c ****     \param[in]  adc_periph: ADCx, x=0,1
 268:./../../firmware/GD32VF103_standard_peripheral/Source/gd32vf103_adc.c ****     \param[in]  adc_channel_group: select the channel group
 269:./../../firmware/GD32VF103_standard_peripheral/Source/gd32vf103_adc.c ****                 only one parameter can be selected which is shown as below:
 270:./../../firmware/GD32VF103_standard_peripheral/Source/gd32vf103_adc.c ****       \arg        ADC_REGULAR_CHANNEL: regular channel group
 271:./../../firmware/GD32VF103_standard_peripheral/Source/gd32vf103_adc.c ****       \arg        ADC_INSERTED_CHANNEL: inserted channel group
 272:./../../firmware/GD32VF103_standard_peripheral/Source/gd32vf103_adc.c ****       \arg        ADC_CHANNEL_DISCON_DISABLE: disable discontinuous mode of regular & inserted chan
 273:./../../firmware/GD32VF103_standard_peripheral/Source/gd32vf103_adc.c ****     \param[in]  length: number of conversions in discontinuous mode,the number can be 1..8
 274:./../../firmware/GD32VF103_standard_peripheral/Source/gd32vf103_adc.c ****                         for regular channel, the number has no effect for inserted channel
 275:./../../firmware/GD32VF103_standard_peripheral/Source/gd32vf103_adc.c ****     \param[out] none
 276:./../../firmware/GD32VF103_standard_peripheral/Source/gd32vf103_adc.c ****     \retval     none
 277:./../../firmware/GD32VF103_standard_peripheral/Source/gd32vf103_adc.c **** */
 278:./../../firmware/GD32VF103_standard_peripheral/Source/gd32vf103_adc.c **** void adc_discontinuous_mode_config(uint32_t adc_periph, uint8_t adc_channel_group, uint8_t length)
 279:./../../firmware/GD32VF103_standard_peripheral/Source/gd32vf103_adc.c **** {
 391              		.loc 1 279 1 is_stmt 1
 392              		.cfi_startproc
 393              	.LVL16:
 280:./../../firmware/GD32VF103_standard_peripheral/Source/gd32vf103_adc.c ****     /* disable discontinuous mode of regular & inserted channel */
 281:./../../firmware/GD32VF103_standard_peripheral/Source/gd32vf103_adc.c ****     ADC_CTL0(adc_periph) &= ~((uint32_t)(ADC_CTL0_DISRC | ADC_CTL0_DISIC));
 394              		.loc 1 281 5
 395              		.loc 1 281 26 is_stmt 0
GAS LISTING C:\Users\Karzan\AppData\Local\Temp\ccBvNvkC.s 			page 13


 396 0000 5C41     		lw	a5,4(a0)
 397 0002 7977     		li	a4,-8192
 398 0004 1307F77F 		addi	a4,a4,2047
 399 0008 F98F     		and	a5,a5,a4
 400 000a 5CC1     		sw	a5,4(a0)
 282:./../../firmware/GD32VF103_standard_peripheral/Source/gd32vf103_adc.c ****     switch(adc_channel_group){
 401              		.loc 1 282 5 is_stmt 1
 402 000c 8547     		li	a5,1
 403 000e 6386F500 		beq	a1,a5,.L51
 404 0012 8947     		li	a5,2
 405 0014 6386F502 		beq	a1,a5,.L52
 406 0018 8280     		ret
 407              	.L51:
 283:./../../firmware/GD32VF103_standard_peripheral/Source/gd32vf103_adc.c ****     case ADC_REGULAR_CHANNEL:
 284:./../../firmware/GD32VF103_standard_peripheral/Source/gd32vf103_adc.c ****         /* config the number of conversions in discontinuous mode */
 285:./../../firmware/GD32VF103_standard_peripheral/Source/gd32vf103_adc.c ****         ADC_CTL0(adc_periph) &= ~((uint32_t)ADC_CTL0_DISNUM);
 408              		.loc 1 285 9
 409              		.loc 1 285 30 is_stmt 0
 410 001a 5C41     		lw	a5,4(a0)
 411 001c 4977     		li	a4,-57344
 412 001e 7D17     		addi	a4,a4,-1
 413 0020 F98F     		and	a5,a5,a4
 414 0022 5CC1     		sw	a5,4(a0)
 286:./../../firmware/GD32VF103_standard_peripheral/Source/gd32vf103_adc.c ****         ADC_CTL0(adc_periph) |= CTL0_DISNUM(((uint32_t)length - ADC_CHANNEL_LENGTH_SUBTRACT_ONE));
 415              		.loc 1 286 9 is_stmt 1
 416              		.loc 1 286 30 is_stmt 0
 417 0024 5C41     		lw	a5,4(a0)
 418              		.loc 1 286 33
 419 0026 7D16     		addi	a2,a2,-1
 420              	.LVL17:
 421 0028 3967     		li	a4,57344
 422 002a 3606     		slli	a2,a2,13
 423 002c 798E     		and	a2,a2,a4
 424              		.loc 1 286 30
 425 002e 5D8E     		or	a2,a2,a5
 426 0030 50C1     		sw	a2,4(a0)
 287:./../../firmware/GD32VF103_standard_peripheral/Source/gd32vf103_adc.c ****         /* enable regular channel group discontinuous mode */
 288:./../../firmware/GD32VF103_standard_peripheral/Source/gd32vf103_adc.c ****         ADC_CTL0(adc_periph) |= (uint32_t)ADC_CTL0_DISRC;
 427              		.loc 1 288 9 is_stmt 1
 428              		.loc 1 288 30 is_stmt 0
 429 0032 5C41     		lw	a5,4(a0)
 430 0034 0567     		li	a4,4096
 431 0036 13070780 		addi	a4,a4,-2048
 432              	.L54:
 289:./../../firmware/GD32VF103_standard_peripheral/Source/gd32vf103_adc.c ****         break;
 290:./../../firmware/GD32VF103_standard_peripheral/Source/gd32vf103_adc.c ****     case ADC_INSERTED_CHANNEL:
 291:./../../firmware/GD32VF103_standard_peripheral/Source/gd32vf103_adc.c ****         /* enable inserted channel group discontinuous mode */
 292:./../../firmware/GD32VF103_standard_peripheral/Source/gd32vf103_adc.c ****         ADC_CTL0(adc_periph) |= (uint32_t)ADC_CTL0_DISIC;
 433              		.loc 1 292 30
 434 003a D98F     		or	a5,a5,a4
 435 003c 5CC1     		sw	a5,4(a0)
 293:./../../firmware/GD32VF103_standard_peripheral/Source/gd32vf103_adc.c ****         break;
 436              		.loc 1 293 9 is_stmt 1
 294:./../../firmware/GD32VF103_standard_peripheral/Source/gd32vf103_adc.c ****     case ADC_CHANNEL_DISCON_DISABLE:
 295:./../../firmware/GD32VF103_standard_peripheral/Source/gd32vf103_adc.c ****         /* disable discontinuous mode of regular & inserted channel */
 296:./../../firmware/GD32VF103_standard_peripheral/Source/gd32vf103_adc.c ****     default:
 297:./../../firmware/GD32VF103_standard_peripheral/Source/gd32vf103_adc.c ****         break;
GAS LISTING C:\Users\Karzan\AppData\Local\Temp\ccBvNvkC.s 			page 14


 298:./../../firmware/GD32VF103_standard_peripheral/Source/gd32vf103_adc.c ****     }
 299:./../../firmware/GD32VF103_standard_peripheral/Source/gd32vf103_adc.c **** }
 437              		.loc 1 299 1 is_stmt 0
 438 003e 8280     		ret
 439              	.LVL18:
 440              	.L52:
 292:./../../firmware/GD32VF103_standard_peripheral/Source/gd32vf103_adc.c ****         break;
 441              		.loc 1 292 9 is_stmt 1
 292:./../../firmware/GD32VF103_standard_peripheral/Source/gd32vf103_adc.c ****         break;
 442              		.loc 1 292 30 is_stmt 0
 443 0040 5C41     		lw	a5,4(a0)
 444 0042 0567     		li	a4,4096
 445 0044 DDBF     		j	.L54
 446              		.cfi_endproc
 447              	.LFE13:
 449              		.section	.text.adc_channel_length_config,"ax",@progbits
 450              		.align	1
 451              		.globl	adc_channel_length_config
 453              	adc_channel_length_config:
 454              	.LFB14:
 300:./../../firmware/GD32VF103_standard_peripheral/Source/gd32vf103_adc.c **** 
 301:./../../firmware/GD32VF103_standard_peripheral/Source/gd32vf103_adc.c **** /*!
 302:./../../firmware/GD32VF103_standard_peripheral/Source/gd32vf103_adc.c ****     \brief      configure the length of regular channel group or inserted channel group
 303:./../../firmware/GD32VF103_standard_peripheral/Source/gd32vf103_adc.c ****     \param[in]  adc_periph: ADCx, x=0,1
 304:./../../firmware/GD32VF103_standard_peripheral/Source/gd32vf103_adc.c ****     \param[in]  adc_channel_group: select the channel group
 305:./../../firmware/GD32VF103_standard_peripheral/Source/gd32vf103_adc.c ****                 only one parameter can be selected which is shown as below:
 306:./../../firmware/GD32VF103_standard_peripheral/Source/gd32vf103_adc.c ****       \arg        ADC_REGULAR_CHANNEL: regular channel group
 307:./../../firmware/GD32VF103_standard_peripheral/Source/gd32vf103_adc.c ****       \arg        ADC_INSERTED_CHANNEL: inserted channel group
 308:./../../firmware/GD32VF103_standard_peripheral/Source/gd32vf103_adc.c ****     \param[in]  length: the length of the channel
 309:./../../firmware/GD32VF103_standard_peripheral/Source/gd32vf103_adc.c ****                         regular channel 1-16
 310:./../../firmware/GD32VF103_standard_peripheral/Source/gd32vf103_adc.c ****                         inserted channel 1-4
 311:./../../firmware/GD32VF103_standard_peripheral/Source/gd32vf103_adc.c ****     \param[out] none
 312:./../../firmware/GD32VF103_standard_peripheral/Source/gd32vf103_adc.c ****     \retval     none
 313:./../../firmware/GD32VF103_standard_peripheral/Source/gd32vf103_adc.c **** */
 314:./../../firmware/GD32VF103_standard_peripheral/Source/gd32vf103_adc.c **** void adc_channel_length_config(uint32_t adc_periph, uint8_t adc_channel_group, uint32_t length)
 315:./../../firmware/GD32VF103_standard_peripheral/Source/gd32vf103_adc.c **** {
 455              		.loc 1 315 1 is_stmt 1
 456              		.cfi_startproc
 457              	.LVL19:
 316:./../../firmware/GD32VF103_standard_peripheral/Source/gd32vf103_adc.c ****     switch(adc_channel_group){
 458              		.loc 1 316 5
 459 0000 8547     		li	a5,1
 460 0002 6386F500 		beq	a1,a5,.L56
 461 0006 8947     		li	a5,2
 462 0008 6382F502 		beq	a1,a5,.L57
 463 000c 8280     		ret
 464              	.L56:
 317:./../../firmware/GD32VF103_standard_peripheral/Source/gd32vf103_adc.c ****     case ADC_REGULAR_CHANNEL:
 318:./../../firmware/GD32VF103_standard_peripheral/Source/gd32vf103_adc.c ****         /* configure the length of regular channel group */
 319:./../../firmware/GD32VF103_standard_peripheral/Source/gd32vf103_adc.c ****         ADC_RSQ0(adc_periph) &= ~((uint32_t)ADC_RSQ0_RL);
 465              		.loc 1 319 9
 466              		.loc 1 319 30 is_stmt 0
 467 000e 5C55     		lw	a5,44(a0)
 468 0010 370710FF 		li	a4,-15728640
 469 0014 7D17     		addi	a4,a4,-1
 470 0016 F98F     		and	a5,a5,a4
 471 0018 5CD5     		sw	a5,44(a0)
GAS LISTING C:\Users\Karzan\AppData\Local\Temp\ccBvNvkC.s 			page 15


 320:./../../firmware/GD32VF103_standard_peripheral/Source/gd32vf103_adc.c ****         ADC_RSQ0(adc_periph) |= RSQ0_RL((uint32_t)(length-ADC_CHANNEL_LENGTH_SUBTRACT_ONE));
 472              		.loc 1 320 9 is_stmt 1
 473              		.loc 1 320 30 is_stmt 0
 474 001a 5C55     		lw	a5,44(a0)
 475              		.loc 1 320 33
 476 001c 7D16     		addi	a2,a2,-1
 477              	.LVL20:
 478 001e 5206     		slli	a2,a2,20
 479              	.LVL21:
 480 0020 3707F000 		li	a4,15728640
 481 0024 798E     		and	a2,a2,a4
 482              		.loc 1 320 30
 483 0026 5D8E     		or	a2,a2,a5
 484 0028 50D5     		sw	a2,44(a0)
 321:./../../firmware/GD32VF103_standard_peripheral/Source/gd32vf103_adc.c ****         break;
 485              		.loc 1 321 9 is_stmt 1
 486 002a 8280     		ret
 487              	.LVL22:
 488              	.L57:
 322:./../../firmware/GD32VF103_standard_peripheral/Source/gd32vf103_adc.c ****     case ADC_INSERTED_CHANNEL:
 323:./../../firmware/GD32VF103_standard_peripheral/Source/gd32vf103_adc.c ****         /* configure the length of inserted channel group */
 324:./../../firmware/GD32VF103_standard_peripheral/Source/gd32vf103_adc.c ****         ADC_ISQ(adc_periph) &= ~((uint32_t)ADC_ISQ_IL);
 489              		.loc 1 324 9
 490              		.loc 1 324 29 is_stmt 0
 491 002c 1C5D     		lw	a5,56(a0)
 492 002e 3707D0FF 		li	a4,-3145728
 493 0032 7D17     		addi	a4,a4,-1
 494 0034 F98F     		and	a5,a5,a4
 495 0036 1CDD     		sw	a5,56(a0)
 325:./../../firmware/GD32VF103_standard_peripheral/Source/gd32vf103_adc.c ****         ADC_ISQ(adc_periph) |= ISQ_IL((uint32_t)(length-ADC_CHANNEL_LENGTH_SUBTRACT_ONE));
 496              		.loc 1 325 9 is_stmt 1
 497              		.loc 1 325 29 is_stmt 0
 498 0038 1C5D     		lw	a5,56(a0)
 499              		.loc 1 325 32
 500 003a 7D16     		addi	a2,a2,-1
 501              	.LVL23:
 502 003c 5206     		slli	a2,a2,20
 503              	.LVL24:
 504 003e 37073000 		li	a4,3145728
 505 0042 798E     		and	a2,a2,a4
 506              		.loc 1 325 29
 507 0044 5D8E     		or	a2,a2,a5
 508 0046 10DD     		sw	a2,56(a0)
 326:./../../firmware/GD32VF103_standard_peripheral/Source/gd32vf103_adc.c ****         break;
 509              		.loc 1 326 9 is_stmt 1
 327:./../../firmware/GD32VF103_standard_peripheral/Source/gd32vf103_adc.c ****     default:
 328:./../../firmware/GD32VF103_standard_peripheral/Source/gd32vf103_adc.c ****         break;
 329:./../../firmware/GD32VF103_standard_peripheral/Source/gd32vf103_adc.c ****     }
 330:./../../firmware/GD32VF103_standard_peripheral/Source/gd32vf103_adc.c **** }
 510              		.loc 1 330 1 is_stmt 0
 511 0048 8280     		ret
 512              		.cfi_endproc
 513              	.LFE14:
 515              		.section	.text.adc_regular_channel_config,"ax",@progbits
 516              		.align	1
 517              		.globl	adc_regular_channel_config
 519              	adc_regular_channel_config:
GAS LISTING C:\Users\Karzan\AppData\Local\Temp\ccBvNvkC.s 			page 16


 520              	.LFB15:
 331:./../../firmware/GD32VF103_standard_peripheral/Source/gd32vf103_adc.c **** 
 332:./../../firmware/GD32VF103_standard_peripheral/Source/gd32vf103_adc.c **** /*!
 333:./../../firmware/GD32VF103_standard_peripheral/Source/gd32vf103_adc.c ****     \brief      configure ADC regular channel 
 334:./../../firmware/GD32VF103_standard_peripheral/Source/gd32vf103_adc.c ****     \param[in]  adc_periph: ADCx, x=0,1
 335:./../../firmware/GD32VF103_standard_peripheral/Source/gd32vf103_adc.c ****     \param[in]  rank: the regular group sequence rank,this parameter must be between 0 to 15
 336:./../../firmware/GD32VF103_standard_peripheral/Source/gd32vf103_adc.c ****     \param[in]  adc_channel: the selected ADC channel
 337:./../../firmware/GD32VF103_standard_peripheral/Source/gd32vf103_adc.c ****                 only one parameter can be selected which is shown as below:
 338:./../../firmware/GD32VF103_standard_peripheral/Source/gd32vf103_adc.c ****       \arg        ADC_CHANNEL_x(x=0..17)(x=16 and x=17 are only for ADC0): ADC Channelx 
 339:./../../firmware/GD32VF103_standard_peripheral/Source/gd32vf103_adc.c ****     \param[in]  sample_time: the sample time value
 340:./../../firmware/GD32VF103_standard_peripheral/Source/gd32vf103_adc.c ****                 only one parameter can be selected which is shown as below:
 341:./../../firmware/GD32VF103_standard_peripheral/Source/gd32vf103_adc.c ****       \arg        ADC_SAMPLETIME_1POINT5: 1.5 cycles
 342:./../../firmware/GD32VF103_standard_peripheral/Source/gd32vf103_adc.c ****       \arg        ADC_SAMPLETIME_7POINT5: 7.5 cycles
 343:./../../firmware/GD32VF103_standard_peripheral/Source/gd32vf103_adc.c ****       \arg        ADC_SAMPLETIME_13POINT5: 13.5 cycles
 344:./../../firmware/GD32VF103_standard_peripheral/Source/gd32vf103_adc.c ****       \arg        ADC_SAMPLETIME_28POINT5: 28.5 cycles
 345:./../../firmware/GD32VF103_standard_peripheral/Source/gd32vf103_adc.c ****       \arg        ADC_SAMPLETIME_41POINT5: 41.5 cycles
 346:./../../firmware/GD32VF103_standard_peripheral/Source/gd32vf103_adc.c ****       \arg        ADC_SAMPLETIME_55POINT5: 55.5 cycles
 347:./../../firmware/GD32VF103_standard_peripheral/Source/gd32vf103_adc.c ****       \arg        ADC_SAMPLETIME_71POINT5: 71.5 cycles
 348:./../../firmware/GD32VF103_standard_peripheral/Source/gd32vf103_adc.c ****       \arg        ADC_SAMPLETIME_239POINT5: 239.5 cycles
 349:./../../firmware/GD32VF103_standard_peripheral/Source/gd32vf103_adc.c ****     \param[out] none
 350:./../../firmware/GD32VF103_standard_peripheral/Source/gd32vf103_adc.c ****     \retval     none
 351:./../../firmware/GD32VF103_standard_peripheral/Source/gd32vf103_adc.c **** */
 352:./../../firmware/GD32VF103_standard_peripheral/Source/gd32vf103_adc.c **** void adc_regular_channel_config(uint32_t adc_periph, uint8_t rank, uint8_t adc_channel, uint32_t sa
 353:./../../firmware/GD32VF103_standard_peripheral/Source/gd32vf103_adc.c **** {
 521              		.loc 1 353 1 is_stmt 1
 522              		.cfi_startproc
 523              	.LVL25:
 354:./../../firmware/GD32VF103_standard_peripheral/Source/gd32vf103_adc.c ****     uint32_t rsq,sampt;
 524              		.loc 1 354 5
 355:./../../firmware/GD32VF103_standard_peripheral/Source/gd32vf103_adc.c ****     
 356:./../../firmware/GD32VF103_standard_peripheral/Source/gd32vf103_adc.c ****     /* ADC regular sequence config */
 357:./../../firmware/GD32VF103_standard_peripheral/Source/gd32vf103_adc.c ****     if(rank < ADC_REGULAR_CHANNEL_RANK_SIX){
 525              		.loc 1 357 5
 526              		.loc 1 357 7 is_stmt 0
 527 0000 1547     		li	a4,5
 528 0002 6363B704 		bgtu	a1,a4,.L60
 358:./../../firmware/GD32VF103_standard_peripheral/Source/gd32vf103_adc.c ****         /* the regular group sequence rank is smaller than six */
 359:./../../firmware/GD32VF103_standard_peripheral/Source/gd32vf103_adc.c ****         rsq = ADC_RSQ2(adc_periph);
 529              		.loc 1 359 9 is_stmt 1
 360:./../../firmware/GD32VF103_standard_peripheral/Source/gd32vf103_adc.c ****         rsq &=  ~((uint32_t)(ADC_RSQX_RSQN << (ADC_REGULAR_CHANNEL_RANK_LENGTH*rank)));
 530              		.loc 1 360 79 is_stmt 0
 531 0006 B385E502 		mul	a1,a1,a4
 532              	.LVL26:
 359:./../../firmware/GD32VF103_standard_peripheral/Source/gd32vf103_adc.c ****         rsq &=  ~((uint32_t)(ADC_RSQX_RSQN << (ADC_REGULAR_CHANNEL_RANK_LENGTH*rank)));
 533              		.loc 1 359 13
 534 000a 03284503 		lw	a6,52(a0)
 535              	.LVL27:
 536              		.loc 1 360 9 is_stmt 1
 537              		.loc 1 360 19 is_stmt 0
 538 000e FD47     		li	a5,31
 539 0010 B397B700 		sll	a5,a5,a1
 540              		.loc 1 360 17
 541 0014 93C7F7FF 		not	a5,a5
 542              		.loc 1 360 13
 543 0018 B3F70701 		and	a5,a5,a6
 544              	.LVL28:
 361:./../../firmware/GD32VF103_standard_peripheral/Source/gd32vf103_adc.c ****         /* the channel number is written to these bits to select a channel as the nth conversion in
GAS LISTING C:\Users\Karzan\AppData\Local\Temp\ccBvNvkC.s 			page 17


 362:./../../firmware/GD32VF103_standard_peripheral/Source/gd32vf103_adc.c ****         rsq |= ((uint32_t)adc_channel << (ADC_REGULAR_CHANNEL_RANK_LENGTH*rank));
 545              		.loc 1 362 9 is_stmt 1
 546              		.loc 1 362 39 is_stmt 0
 547 001c B315B600 		sll	a1,a2,a1
 548              		.loc 1 362 13
 549 0020 DD8D     		or	a1,a1,a5
 550              	.LVL29:
 363:./../../firmware/GD32VF103_standard_peripheral/Source/gd32vf103_adc.c ****         ADC_RSQ2(adc_periph) = rsq;
 551              		.loc 1 363 9 is_stmt 1
 552              		.loc 1 363 30 is_stmt 0
 553 0022 4CD9     		sw	a1,52(a0)
 554              	.LVL30:
 555              	.L61:
 364:./../../firmware/GD32VF103_standard_peripheral/Source/gd32vf103_adc.c ****     }else if(rank < ADC_REGULAR_CHANNEL_RANK_TWELVE){
 365:./../../firmware/GD32VF103_standard_peripheral/Source/gd32vf103_adc.c ****         /* the regular group sequence rank is smaller than twelve */
 366:./../../firmware/GD32VF103_standard_peripheral/Source/gd32vf103_adc.c ****         rsq = ADC_RSQ1(adc_periph);
 367:./../../firmware/GD32VF103_standard_peripheral/Source/gd32vf103_adc.c ****         rsq &= ~((uint32_t)(ADC_RSQX_RSQN << (ADC_REGULAR_CHANNEL_RANK_LENGTH*(rank-ADC_REGULAR_CHA
 368:./../../firmware/GD32VF103_standard_peripheral/Source/gd32vf103_adc.c ****         /* the channel number is written to these bits to select a channel as the nth conversion in
 369:./../../firmware/GD32VF103_standard_peripheral/Source/gd32vf103_adc.c ****         rsq |= ((uint32_t)adc_channel << (ADC_REGULAR_CHANNEL_RANK_LENGTH*(rank-ADC_REGULAR_CHANNEL
 370:./../../firmware/GD32VF103_standard_peripheral/Source/gd32vf103_adc.c ****         ADC_RSQ1(adc_periph) = rsq;
 371:./../../firmware/GD32VF103_standard_peripheral/Source/gd32vf103_adc.c ****     }else if(rank < ADC_REGULAR_CHANNEL_RANK_SIXTEEN){
 372:./../../firmware/GD32VF103_standard_peripheral/Source/gd32vf103_adc.c ****         /* the regular group sequence rank is smaller than sixteen */
 373:./../../firmware/GD32VF103_standard_peripheral/Source/gd32vf103_adc.c ****         rsq = ADC_RSQ0(adc_periph);
 374:./../../firmware/GD32VF103_standard_peripheral/Source/gd32vf103_adc.c ****         rsq &= ~((uint32_t)(ADC_RSQX_RSQN << (ADC_REGULAR_CHANNEL_RANK_LENGTH*(rank-ADC_REGULAR_CHA
 375:./../../firmware/GD32VF103_standard_peripheral/Source/gd32vf103_adc.c ****         /* the channel number is written to these bits to select a channel as the nth conversion in
 376:./../../firmware/GD32VF103_standard_peripheral/Source/gd32vf103_adc.c ****         rsq |= ((uint32_t)adc_channel << (ADC_REGULAR_CHANNEL_RANK_LENGTH*(rank-ADC_REGULAR_CHANNEL
 377:./../../firmware/GD32VF103_standard_peripheral/Source/gd32vf103_adc.c ****         ADC_RSQ0(adc_periph) = rsq;
 378:./../../firmware/GD32VF103_standard_peripheral/Source/gd32vf103_adc.c ****     }else{
 379:./../../firmware/GD32VF103_standard_peripheral/Source/gd32vf103_adc.c ****     }
 556              		.loc 1 379 5 is_stmt 1
 380:./../../firmware/GD32VF103_standard_peripheral/Source/gd32vf103_adc.c ****     
 381:./../../firmware/GD32VF103_standard_peripheral/Source/gd32vf103_adc.c ****     /* ADC sampling time config */
 382:./../../firmware/GD32VF103_standard_peripheral/Source/gd32vf103_adc.c ****     if(adc_channel < ADC_CHANNEL_SAMPLE_TEN){
 557              		.loc 1 382 5
 558              		.loc 1 382 7 is_stmt 0
 559 0024 A547     		li	a5,9
 560 0026 63E9C706 		bgtu	a2,a5,.L63
 383:./../../firmware/GD32VF103_standard_peripheral/Source/gd32vf103_adc.c ****         /* the regular group sequence rank is smaller than ten */
 384:./../../firmware/GD32VF103_standard_peripheral/Source/gd32vf103_adc.c ****         sampt = ADC_SAMPT1(adc_periph);
 561              		.loc 1 384 9 is_stmt 1
 385:./../../firmware/GD32VF103_standard_peripheral/Source/gd32vf103_adc.c ****         sampt &= ~((uint32_t)(ADC_SAMPTX_SPTN << (ADC_CHANNEL_SAMPLE_LENGTH*adc_channel)));
 562              		.loc 1 385 76 is_stmt 0
 563 002a 8D47     		li	a5,3
 564 002c 3306F602 		mul	a2,a2,a5
 565              	.LVL31:
 384:./../../firmware/GD32VF103_standard_peripheral/Source/gd32vf103_adc.c ****         sampt &= ~((uint32_t)(ADC_SAMPTX_SPTN << (ADC_CHANNEL_SAMPLE_LENGTH*adc_channel)));
 566              		.loc 1 384 15
 567 0030 0C49     		lw	a1,16(a0)
 568              	.LVL32:
 569              		.loc 1 385 9 is_stmt 1
 570              		.loc 1 385 20 is_stmt 0
 571 0032 1D47     		li	a4,7
 572 0034 3317C700 		sll	a4,a4,a2
 573              		.loc 1 385 18
 574 0038 1347F7FF 		not	a4,a4
 575              		.loc 1 385 15
 576 003c 6D8F     		and	a4,a4,a1
GAS LISTING C:\Users\Karzan\AppData\Local\Temp\ccBvNvkC.s 			page 18


 577              	.LVL33:
 386:./../../firmware/GD32VF103_standard_peripheral/Source/gd32vf103_adc.c ****         /* channel sample time set*/
 387:./../../firmware/GD32VF103_standard_peripheral/Source/gd32vf103_adc.c ****         sampt |= (uint32_t)(sample_time << (ADC_CHANNEL_SAMPLE_LENGTH*adc_channel));
 578              		.loc 1 387 9 is_stmt 1
 579              		.loc 1 387 41 is_stmt 0
 580 003e 3396C600 		sll	a2,a3,a2
 581              		.loc 1 387 15
 582 0042 598E     		or	a2,a2,a4
 583              	.LVL34:
 388:./../../firmware/GD32VF103_standard_peripheral/Source/gd32vf103_adc.c ****         ADC_SAMPT1(adc_periph) = sampt;
 584              		.loc 1 388 9 is_stmt 1
 585              		.loc 1 388 32 is_stmt 0
 586 0044 10C9     		sw	a2,16(a0)
 587 0046 8280     		ret
 588              	.LVL35:
 589              	.L60:
 364:./../../firmware/GD32VF103_standard_peripheral/Source/gd32vf103_adc.c ****         /* the regular group sequence rank is smaller than twelve */
 590              		.loc 1 364 11 is_stmt 1
 364:./../../firmware/GD32VF103_standard_peripheral/Source/gd32vf103_adc.c ****         /* the regular group sequence rank is smaller than twelve */
 591              		.loc 1 364 13 is_stmt 0
 592 0048 AD47     		li	a5,11
 593 004a 63E3B702 		bgtu	a1,a5,.L62
 366:./../../firmware/GD32VF103_standard_peripheral/Source/gd32vf103_adc.c ****         rsq &= ~((uint32_t)(ADC_RSQX_RSQN << (ADC_REGULAR_CHANNEL_RANK_LENGTH*(rank-ADC_REGULAR_CHA
 594              		.loc 1 366 9 is_stmt 1
 367:./../../firmware/GD32VF103_standard_peripheral/Source/gd32vf103_adc.c ****         /* the channel number is written to these bits to select a channel as the nth conversion in
 595              		.loc 1 367 84 is_stmt 0
 596 004e E915     		addi	a1,a1,-6
 597              	.LVL36:
 367:./../../firmware/GD32VF103_standard_peripheral/Source/gd32vf103_adc.c ****         /* the channel number is written to these bits to select a channel as the nth conversion in
 598              		.loc 1 367 78
 599 0050 B385E502 		mul	a1,a1,a4
 366:./../../firmware/GD32VF103_standard_peripheral/Source/gd32vf103_adc.c ****         rsq &= ~((uint32_t)(ADC_RSQX_RSQN << (ADC_REGULAR_CHANNEL_RANK_LENGTH*(rank-ADC_REGULAR_CHA
 600              		.loc 1 366 13
 601 0054 03280503 		lw	a6,48(a0)
 602              	.LVL37:
 367:./../../firmware/GD32VF103_standard_peripheral/Source/gd32vf103_adc.c ****         /* the channel number is written to these bits to select a channel as the nth conversion in
 603              		.loc 1 367 9 is_stmt 1
 367:./../../firmware/GD32VF103_standard_peripheral/Source/gd32vf103_adc.c ****         /* the channel number is written to these bits to select a channel as the nth conversion in
 604              		.loc 1 367 18 is_stmt 0
 605 0058 FD47     		li	a5,31
 606 005a B397B700 		sll	a5,a5,a1
 367:./../../firmware/GD32VF103_standard_peripheral/Source/gd32vf103_adc.c ****         /* the channel number is written to these bits to select a channel as the nth conversion in
 607              		.loc 1 367 16
 608 005e 93C7F7FF 		not	a5,a5
 367:./../../firmware/GD32VF103_standard_peripheral/Source/gd32vf103_adc.c ****         /* the channel number is written to these bits to select a channel as the nth conversion in
 609              		.loc 1 367 13
 610 0062 B3F70701 		and	a5,a5,a6
 611              	.LVL38:
 369:./../../firmware/GD32VF103_standard_peripheral/Source/gd32vf103_adc.c ****         ADC_RSQ1(adc_periph) = rsq;
 612              		.loc 1 369 9 is_stmt 1
 369:./../../firmware/GD32VF103_standard_peripheral/Source/gd32vf103_adc.c ****         ADC_RSQ1(adc_periph) = rsq;
 613              		.loc 1 369 39 is_stmt 0
 614 0066 B315B600 		sll	a1,a2,a1
 369:./../../firmware/GD32VF103_standard_peripheral/Source/gd32vf103_adc.c ****         ADC_RSQ1(adc_periph) = rsq;
 615              		.loc 1 369 13
 616 006a DD8D     		or	a1,a1,a5
 617              	.LVL39:
GAS LISTING C:\Users\Karzan\AppData\Local\Temp\ccBvNvkC.s 			page 19


 370:./../../firmware/GD32VF103_standard_peripheral/Source/gd32vf103_adc.c ****     }else if(rank < ADC_REGULAR_CHANNEL_RANK_SIXTEEN){
 618              		.loc 1 370 9 is_stmt 1
 370:./../../firmware/GD32VF103_standard_peripheral/Source/gd32vf103_adc.c ****     }else if(rank < ADC_REGULAR_CHANNEL_RANK_SIXTEEN){
 619              		.loc 1 370 30 is_stmt 0
 620 006c 0CD9     		sw	a1,48(a0)
 621 006e 5DBF     		j	.L61
 622              	.LVL40:
 623              	.L62:
 371:./../../firmware/GD32VF103_standard_peripheral/Source/gd32vf103_adc.c ****         /* the regular group sequence rank is smaller than sixteen */
 624              		.loc 1 371 11 is_stmt 1
 371:./../../firmware/GD32VF103_standard_peripheral/Source/gd32vf103_adc.c ****         /* the regular group sequence rank is smaller than sixteen */
 625              		.loc 1 371 13 is_stmt 0
 626 0070 BD47     		li	a5,15
 627 0072 E3E9B7FA 		bgtu	a1,a5,.L61
 373:./../../firmware/GD32VF103_standard_peripheral/Source/gd32vf103_adc.c ****         rsq &= ~((uint32_t)(ADC_RSQX_RSQN << (ADC_REGULAR_CHANNEL_RANK_LENGTH*(rank-ADC_REGULAR_CHA
 628              		.loc 1 373 9 is_stmt 1
 374:./../../firmware/GD32VF103_standard_peripheral/Source/gd32vf103_adc.c ****         /* the channel number is written to these bits to select a channel as the nth conversion in
 629              		.loc 1 374 84 is_stmt 0
 630 0076 D115     		addi	a1,a1,-12
 631              	.LVL41:
 374:./../../firmware/GD32VF103_standard_peripheral/Source/gd32vf103_adc.c ****         /* the channel number is written to these bits to select a channel as the nth conversion in
 632              		.loc 1 374 78
 633 0078 B385E502 		mul	a1,a1,a4
 373:./../../firmware/GD32VF103_standard_peripheral/Source/gd32vf103_adc.c ****         rsq &= ~((uint32_t)(ADC_RSQX_RSQN << (ADC_REGULAR_CHANNEL_RANK_LENGTH*(rank-ADC_REGULAR_CHA
 634              		.loc 1 373 13
 635 007c 0328C502 		lw	a6,44(a0)
 636              	.LVL42:
 374:./../../firmware/GD32VF103_standard_peripheral/Source/gd32vf103_adc.c ****         /* the channel number is written to these bits to select a channel as the nth conversion in
 637              		.loc 1 374 9 is_stmt 1
 374:./../../firmware/GD32VF103_standard_peripheral/Source/gd32vf103_adc.c ****         /* the channel number is written to these bits to select a channel as the nth conversion in
 638              		.loc 1 374 18 is_stmt 0
 639 0080 FD47     		li	a5,31
 640 0082 B397B700 		sll	a5,a5,a1
 374:./../../firmware/GD32VF103_standard_peripheral/Source/gd32vf103_adc.c ****         /* the channel number is written to these bits to select a channel as the nth conversion in
 641              		.loc 1 374 16
 642 0086 93C7F7FF 		not	a5,a5
 374:./../../firmware/GD32VF103_standard_peripheral/Source/gd32vf103_adc.c ****         /* the channel number is written to these bits to select a channel as the nth conversion in
 643              		.loc 1 374 13
 644 008a B3F70701 		and	a5,a5,a6
 645              	.LVL43:
 376:./../../firmware/GD32VF103_standard_peripheral/Source/gd32vf103_adc.c ****         ADC_RSQ0(adc_periph) = rsq;
 646              		.loc 1 376 9 is_stmt 1
 376:./../../firmware/GD32VF103_standard_peripheral/Source/gd32vf103_adc.c ****         ADC_RSQ0(adc_periph) = rsq;
 647              		.loc 1 376 39 is_stmt 0
 648 008e B315B600 		sll	a1,a2,a1
 376:./../../firmware/GD32VF103_standard_peripheral/Source/gd32vf103_adc.c ****         ADC_RSQ0(adc_periph) = rsq;
 649              		.loc 1 376 13
 650 0092 DD8D     		or	a1,a1,a5
 651              	.LVL44:
 377:./../../firmware/GD32VF103_standard_peripheral/Source/gd32vf103_adc.c ****     }else{
 652              		.loc 1 377 9 is_stmt 1
 377:./../../firmware/GD32VF103_standard_peripheral/Source/gd32vf103_adc.c ****     }else{
 653              		.loc 1 377 30 is_stmt 0
 654 0094 4CD5     		sw	a1,44(a0)
 655 0096 79B7     		j	.L61
 656              	.LVL45:
 657              	.L63:
GAS LISTING C:\Users\Karzan\AppData\Local\Temp\ccBvNvkC.s 			page 20


 389:./../../firmware/GD32VF103_standard_peripheral/Source/gd32vf103_adc.c ****     }else if(adc_channel < ADC_CHANNEL_SAMPLE_EIGHTEEN){
 658              		.loc 1 389 11 is_stmt 1
 659              		.loc 1 389 13 is_stmt 0
 660 0098 C547     		li	a5,17
 661 009a 63E1C702 		bgtu	a2,a5,.L59
 390:./../../firmware/GD32VF103_standard_peripheral/Source/gd32vf103_adc.c ****         /* the regular group sequence rank is smaller than eighteen */
 391:./../../firmware/GD32VF103_standard_peripheral/Source/gd32vf103_adc.c ****         sampt = ADC_SAMPT0(adc_periph);
 662              		.loc 1 391 9 is_stmt 1
 392:./../../firmware/GD32VF103_standard_peripheral/Source/gd32vf103_adc.c ****         sampt &= ~((uint32_t)(ADC_SAMPTX_SPTN << (ADC_CHANNEL_SAMPLE_LENGTH*(adc_channel-ADC_CHANNE
 663              		.loc 1 392 76 is_stmt 0
 664 009e 8D47     		li	a5,3
 665              		.loc 1 392 89
 666 00a0 5916     		addi	a2,a2,-10
 667              	.LVL46:
 668              		.loc 1 392 76
 669 00a2 3306F602 		mul	a2,a2,a5
 391:./../../firmware/GD32VF103_standard_peripheral/Source/gd32vf103_adc.c ****         sampt &= ~((uint32_t)(ADC_SAMPTX_SPTN << (ADC_CHANNEL_SAMPLE_LENGTH*(adc_channel-ADC_CHANNE
 670              		.loc 1 391 15
 671 00a6 5845     		lw	a4,12(a0)
 672              	.LVL47:
 673              		.loc 1 392 9 is_stmt 1
 674              		.loc 1 392 20 is_stmt 0
 675 00a8 9D47     		li	a5,7
 676 00aa B397C700 		sll	a5,a5,a2
 677              		.loc 1 392 18
 678 00ae 93C7F7FF 		not	a5,a5
 679              		.loc 1 392 15
 680 00b2 F98F     		and	a5,a5,a4
 681              	.LVL48:
 393:./../../firmware/GD32VF103_standard_peripheral/Source/gd32vf103_adc.c ****         /* channel sample time set*/
 394:./../../firmware/GD32VF103_standard_peripheral/Source/gd32vf103_adc.c ****         sampt |= (uint32_t)(sample_time << (ADC_CHANNEL_SAMPLE_LENGTH*(adc_channel-ADC_CHANNEL_SAMP
 682              		.loc 1 394 9 is_stmt 1
 683              		.loc 1 394 41 is_stmt 0
 684 00b4 3396C600 		sll	a2,a3,a2
 685              		.loc 1 394 15
 686 00b8 D18F     		or	a5,a2,a5
 687              	.LVL49:
 395:./../../firmware/GD32VF103_standard_peripheral/Source/gd32vf103_adc.c ****         ADC_SAMPT0(adc_periph) = sampt;
 688              		.loc 1 395 9 is_stmt 1
 689              		.loc 1 395 32 is_stmt 0
 690 00ba 5CC5     		sw	a5,12(a0)
 396:./../../firmware/GD32VF103_standard_peripheral/Source/gd32vf103_adc.c ****     }else{
 397:./../../firmware/GD32VF103_standard_peripheral/Source/gd32vf103_adc.c ****     }
 691              		.loc 1 397 5 is_stmt 1
 692              	.LVL50:
 693              	.L59:
 398:./../../firmware/GD32VF103_standard_peripheral/Source/gd32vf103_adc.c **** }
 694              		.loc 1 398 1 is_stmt 0
 695 00bc 8280     		ret
 696              		.cfi_endproc
 697              	.LFE15:
 699              		.section	.text.adc_inserted_channel_config,"ax",@progbits
 700              		.align	1
 701              		.globl	adc_inserted_channel_config
 703              	adc_inserted_channel_config:
 704              	.LFB16:
 399:./../../firmware/GD32VF103_standard_peripheral/Source/gd32vf103_adc.c **** 
GAS LISTING C:\Users\Karzan\AppData\Local\Temp\ccBvNvkC.s 			page 21


 400:./../../firmware/GD32VF103_standard_peripheral/Source/gd32vf103_adc.c **** /*!
 401:./../../firmware/GD32VF103_standard_peripheral/Source/gd32vf103_adc.c ****     \brief      configure ADC inserted channel 
 402:./../../firmware/GD32VF103_standard_peripheral/Source/gd32vf103_adc.c ****     \param[in]  adc_periph: ADCx, x=0,1
 403:./../../firmware/GD32VF103_standard_peripheral/Source/gd32vf103_adc.c ****     \param[in]  rank: the inserted group sequencer rank,this parameter must be between 0 to 3
 404:./../../firmware/GD32VF103_standard_peripheral/Source/gd32vf103_adc.c ****     \param[in]  adc_channel: the selected ADC channel
 405:./../../firmware/GD32VF103_standard_peripheral/Source/gd32vf103_adc.c ****                 only one parameter can be selected which is shown as below:
 406:./../../firmware/GD32VF103_standard_peripheral/Source/gd32vf103_adc.c ****       \arg        ADC_CHANNEL_x(x=0..17)(x=16 and x=17 are only for ADC0): ADC Channelx
 407:./../../firmware/GD32VF103_standard_peripheral/Source/gd32vf103_adc.c ****     \param[in]  sample_time: The sample time value
 408:./../../firmware/GD32VF103_standard_peripheral/Source/gd32vf103_adc.c ****                 only one parameter can be selected which is shown as below:
 409:./../../firmware/GD32VF103_standard_peripheral/Source/gd32vf103_adc.c ****       \arg        ADC_SAMPLETIME_1POINT5: 1.5 cycles
 410:./../../firmware/GD32VF103_standard_peripheral/Source/gd32vf103_adc.c ****       \arg        ADC_SAMPLETIME_7POINT5: 7.5 cycles
 411:./../../firmware/GD32VF103_standard_peripheral/Source/gd32vf103_adc.c ****       \arg        ADC_SAMPLETIME_13POINT5: 13.5 cycles
 412:./../../firmware/GD32VF103_standard_peripheral/Source/gd32vf103_adc.c ****       \arg        ADC_SAMPLETIME_28POINT5: 28.5 cycles
 413:./../../firmware/GD32VF103_standard_peripheral/Source/gd32vf103_adc.c ****       \arg        ADC_SAMPLETIME_41POINT5: 41.5 cycles
 414:./../../firmware/GD32VF103_standard_peripheral/Source/gd32vf103_adc.c ****       \arg        ADC_SAMPLETIME_55POINT5: 55.5 cycles
 415:./../../firmware/GD32VF103_standard_peripheral/Source/gd32vf103_adc.c ****       \arg        ADC_SAMPLETIME_71POINT5: 71.5 cycles
 416:./../../firmware/GD32VF103_standard_peripheral/Source/gd32vf103_adc.c ****       \arg        ADC_SAMPLETIME_239POINT5: 239.5 cycles
 417:./../../firmware/GD32VF103_standard_peripheral/Source/gd32vf103_adc.c ****     \param[out] none
 418:./../../firmware/GD32VF103_standard_peripheral/Source/gd32vf103_adc.c ****     \retval     none
 419:./../../firmware/GD32VF103_standard_peripheral/Source/gd32vf103_adc.c **** */
 420:./../../firmware/GD32VF103_standard_peripheral/Source/gd32vf103_adc.c **** void adc_inserted_channel_config(uint32_t adc_periph, uint8_t rank, uint8_t adc_channel, uint32_t s
 421:./../../firmware/GD32VF103_standard_peripheral/Source/gd32vf103_adc.c **** {
 705              		.loc 1 421 1 is_stmt 1
 706              		.cfi_startproc
 707              	.LVL51:
 422:./../../firmware/GD32VF103_standard_peripheral/Source/gd32vf103_adc.c ****     uint8_t inserted_length;
 708              		.loc 1 422 5
 423:./../../firmware/GD32VF103_standard_peripheral/Source/gd32vf103_adc.c ****     uint32_t isq,sampt;
 709              		.loc 1 423 5
 424:./../../firmware/GD32VF103_standard_peripheral/Source/gd32vf103_adc.c ****     /* get inserted channel group length */
 425:./../../firmware/GD32VF103_standard_peripheral/Source/gd32vf103_adc.c ****     inserted_length = (uint8_t)GET_BITS(ADC_ISQ(adc_periph) , 20U , 21U);
 710              		.loc 1 425 5
 711              		.loc 1 425 32 is_stmt 0
 712 0000 1C5D     		lw	a5,56(a0)
 713              	.LVL52:
 426:./../../firmware/GD32VF103_standard_peripheral/Source/gd32vf103_adc.c ****     /* the channel number is written to these bits to select a channel as the nth conversion in the
 427:./../../firmware/GD32VF103_standard_peripheral/Source/gd32vf103_adc.c ****     isq = ADC_ISQ(adc_periph);
 714              		.loc 1 427 5 is_stmt 1
 428:./../../firmware/GD32VF103_standard_peripheral/Source/gd32vf103_adc.c ****     isq &= ~((uint32_t)(ADC_ISQ_ISQN << (ADC_INSERTED_CHANNEL_SHIFT_LENGTH-(inserted_length-rank)*A
 715              		.loc 1 428 14 is_stmt 0
 716 0002 7D47     		li	a4,31
 427:./../../firmware/GD32VF103_standard_peripheral/Source/gd32vf103_adc.c ****     isq &= ~((uint32_t)(ADC_ISQ_ISQN << (ADC_INSERTED_CHANNEL_SHIFT_LENGTH-(inserted_length-rank)*A
 717              		.loc 1 427 9
 718 0004 03288503 		lw	a6,56(a0)
 719              	.LVL53:
 720              		.loc 1 428 5 is_stmt 1
 425:./../../firmware/GD32VF103_standard_peripheral/Source/gd32vf103_adc.c ****     /* the channel number is written to these bits to select a channel as the nth conversion in the
 721              		.loc 1 425 32 is_stmt 0
 722 0008 D183     		srli	a5,a5,20
 723              	.LVL54:
 724              		.loc 1 428 92
 725 000a 8D8B     		andi	a5,a5,3
 726 000c B385B740 		sub	a1,a5,a1
 727              	.LVL55:
 728              		.loc 1 428 98
 729 0010 ED57     		li	a5,-5
 730 0012 B385F502 		mul	a1,a1,a5
GAS LISTING C:\Users\Karzan\AppData\Local\Temp\ccBvNvkC.s 			page 22


 429:./../../firmware/GD32VF103_standard_peripheral/Source/gd32vf103_adc.c ****     isq |= ((uint32_t)adc_channel << (ADC_INSERTED_CHANNEL_SHIFT_LENGTH-(inserted_length-rank)*ADC_
 430:./../../firmware/GD32VF103_standard_peripheral/Source/gd32vf103_adc.c ****     ADC_ISQ(adc_periph) = isq;
 431:./../../firmware/GD32VF103_standard_peripheral/Source/gd32vf103_adc.c **** 
 432:./../../firmware/GD32VF103_standard_peripheral/Source/gd32vf103_adc.c ****     /* ADC sampling time config */  
 433:./../../firmware/GD32VF103_standard_peripheral/Source/gd32vf103_adc.c ****     if(adc_channel < ADC_CHANNEL_SAMPLE_TEN){
 731              		.loc 1 433 7
 732 0016 A547     		li	a5,9
 428:./../../firmware/GD32VF103_standard_peripheral/Source/gd32vf103_adc.c ****     isq |= ((uint32_t)adc_channel << (ADC_INSERTED_CHANNEL_SHIFT_LENGTH-(inserted_length-rank)*ADC_
 733              		.loc 1 428 75
 734 0018 BD05     		addi	a1,a1,15
 428:./../../firmware/GD32VF103_standard_peripheral/Source/gd32vf103_adc.c ****     isq |= ((uint32_t)adc_channel << (ADC_INSERTED_CHANNEL_SHIFT_LENGTH-(inserted_length-rank)*ADC_
 735              		.loc 1 428 14
 736 001a 3317B700 		sll	a4,a4,a1
 428:./../../firmware/GD32VF103_standard_peripheral/Source/gd32vf103_adc.c ****     isq |= ((uint32_t)adc_channel << (ADC_INSERTED_CHANNEL_SHIFT_LENGTH-(inserted_length-rank)*ADC_
 737              		.loc 1 428 12
 738 001e 1347F7FF 		not	a4,a4
 428:./../../firmware/GD32VF103_standard_peripheral/Source/gd32vf103_adc.c ****     isq |= ((uint32_t)adc_channel << (ADC_INSERTED_CHANNEL_SHIFT_LENGTH-(inserted_length-rank)*ADC_
 739              		.loc 1 428 9
 740 0022 33770701 		and	a4,a4,a6
 741              	.LVL56:
 429:./../../firmware/GD32VF103_standard_peripheral/Source/gd32vf103_adc.c ****     isq |= ((uint32_t)adc_channel << (ADC_INSERTED_CHANNEL_SHIFT_LENGTH-(inserted_length-rank)*ADC_
 742              		.loc 1 429 5 is_stmt 1
 429:./../../firmware/GD32VF103_standard_peripheral/Source/gd32vf103_adc.c ****     isq |= ((uint32_t)adc_channel << (ADC_INSERTED_CHANNEL_SHIFT_LENGTH-(inserted_length-rank)*ADC_
 743              		.loc 1 429 35 is_stmt 0
 744 0026 B315B600 		sll	a1,a2,a1
 429:./../../firmware/GD32VF103_standard_peripheral/Source/gd32vf103_adc.c ****     isq |= ((uint32_t)adc_channel << (ADC_INSERTED_CHANNEL_SHIFT_LENGTH-(inserted_length-rank)*ADC_
 745              		.loc 1 429 9
 746 002a D98D     		or	a1,a1,a4
 747              	.LVL57:
 430:./../../firmware/GD32VF103_standard_peripheral/Source/gd32vf103_adc.c **** 
 748              		.loc 1 430 5 is_stmt 1
 430:./../../firmware/GD32VF103_standard_peripheral/Source/gd32vf103_adc.c **** 
 749              		.loc 1 430 25 is_stmt 0
 750 002c 0CDD     		sw	a1,56(a0)
 751              		.loc 1 433 5 is_stmt 1
 752              		.loc 1 433 7 is_stmt 0
 753 002e 63E1C702 		bgtu	a2,a5,.L66
 434:./../../firmware/GD32VF103_standard_peripheral/Source/gd32vf103_adc.c ****         /* the inserted group sequence rank is smaller than ten */
 435:./../../firmware/GD32VF103_standard_peripheral/Source/gd32vf103_adc.c ****         sampt = ADC_SAMPT1(adc_periph);
 754              		.loc 1 435 9 is_stmt 1
 436:./../../firmware/GD32VF103_standard_peripheral/Source/gd32vf103_adc.c ****         sampt &= ~((uint32_t)(ADC_SAMPTX_SPTN << (ADC_CHANNEL_SAMPLE_LENGTH*adc_channel)));
 755              		.loc 1 436 76 is_stmt 0
 756 0032 0D47     		li	a4,3
 757 0034 3306E602 		mul	a2,a2,a4
 758              	.LVL58:
 435:./../../firmware/GD32VF103_standard_peripheral/Source/gd32vf103_adc.c ****         sampt &= ~((uint32_t)(ADC_SAMPTX_SPTN << (ADC_CHANNEL_SAMPLE_LENGTH*adc_channel)));
 759              		.loc 1 435 15
 760 0038 1C49     		lw	a5,16(a0)
 761              	.LVL59:
 762              		.loc 1 436 9 is_stmt 1
 763              		.loc 1 436 20 is_stmt 0
 764 003a 1D47     		li	a4,7
 765 003c 3317C700 		sll	a4,a4,a2
 766              		.loc 1 436 18
 767 0040 1347F7FF 		not	a4,a4
 768              		.loc 1 436 15
 769 0044 7D8F     		and	a4,a4,a5
GAS LISTING C:\Users\Karzan\AppData\Local\Temp\ccBvNvkC.s 			page 23


 770              	.LVL60:
 437:./../../firmware/GD32VF103_standard_peripheral/Source/gd32vf103_adc.c ****         /* channel sample time set*/
 438:./../../firmware/GD32VF103_standard_peripheral/Source/gd32vf103_adc.c ****         sampt |= (uint32_t) sample_time << (ADC_CHANNEL_SAMPLE_LENGTH*adc_channel);
 771              		.loc 1 438 9 is_stmt 1
 772              		.loc 1 438 41 is_stmt 0
 773 0046 3396C600 		sll	a2,a3,a2
 774              		.loc 1 438 15
 775 004a 598E     		or	a2,a2,a4
 776              	.LVL61:
 439:./../../firmware/GD32VF103_standard_peripheral/Source/gd32vf103_adc.c ****         ADC_SAMPT1(adc_periph) = sampt;
 777              		.loc 1 439 9 is_stmt 1
 778              		.loc 1 439 32 is_stmt 0
 779 004c 10C9     		sw	a2,16(a0)
 780 004e 8280     		ret
 781              	.LVL62:
 782              	.L66:
 440:./../../firmware/GD32VF103_standard_peripheral/Source/gd32vf103_adc.c ****     }else if(adc_channel < ADC_CHANNEL_SAMPLE_EIGHTEEN){
 783              		.loc 1 440 11 is_stmt 1
 784              		.loc 1 440 13 is_stmt 0
 785 0050 C547     		li	a5,17
 786 0052 63E1C702 		bgtu	a2,a5,.L65
 441:./../../firmware/GD32VF103_standard_peripheral/Source/gd32vf103_adc.c ****         /* the inserted group sequence rank is smaller than eighteen */
 442:./../../firmware/GD32VF103_standard_peripheral/Source/gd32vf103_adc.c ****         sampt = ADC_SAMPT0(adc_periph);
 787              		.loc 1 442 9 is_stmt 1
 443:./../../firmware/GD32VF103_standard_peripheral/Source/gd32vf103_adc.c ****         sampt &= ~((uint32_t)(ADC_SAMPTX_SPTN << (ADC_CHANNEL_SAMPLE_LENGTH*(adc_channel-ADC_CHANNE
 788              		.loc 1 443 76 is_stmt 0
 789 0056 8D47     		li	a5,3
 790              		.loc 1 443 89
 791 0058 5916     		addi	a2,a2,-10
 792              	.LVL63:
 793              		.loc 1 443 76
 794 005a 3306F602 		mul	a2,a2,a5
 442:./../../firmware/GD32VF103_standard_peripheral/Source/gd32vf103_adc.c ****         sampt &= ~((uint32_t)(ADC_SAMPTX_SPTN << (ADC_CHANNEL_SAMPLE_LENGTH*(adc_channel-ADC_CHANNE
 795              		.loc 1 442 15
 796 005e 5845     		lw	a4,12(a0)
 797              	.LVL64:
 798              		.loc 1 443 9 is_stmt 1
 799              		.loc 1 443 20 is_stmt 0
 800 0060 9D47     		li	a5,7
 801 0062 B397C700 		sll	a5,a5,a2
 802              		.loc 1 443 18
 803 0066 93C7F7FF 		not	a5,a5
 804              		.loc 1 443 15
 805 006a F98F     		and	a5,a5,a4
 806              	.LVL65:
 444:./../../firmware/GD32VF103_standard_peripheral/Source/gd32vf103_adc.c ****         /* channel sample time set*/
 445:./../../firmware/GD32VF103_standard_peripheral/Source/gd32vf103_adc.c ****         sampt |= ((uint32_t)sample_time << (ADC_CHANNEL_SAMPLE_LENGTH*(adc_channel-ADC_CHANNEL_SAMP
 807              		.loc 1 445 9 is_stmt 1
 808              		.loc 1 445 41 is_stmt 0
 809 006c 3396C600 		sll	a2,a3,a2
 810              		.loc 1 445 15
 811 0070 D18F     		or	a5,a2,a5
 812              	.LVL66:
 446:./../../firmware/GD32VF103_standard_peripheral/Source/gd32vf103_adc.c ****         ADC_SAMPT0(adc_periph) = sampt;
 813              		.loc 1 446 9 is_stmt 1
 814              		.loc 1 446 32 is_stmt 0
 815 0072 5CC5     		sw	a5,12(a0)
GAS LISTING C:\Users\Karzan\AppData\Local\Temp\ccBvNvkC.s 			page 24


 447:./../../firmware/GD32VF103_standard_peripheral/Source/gd32vf103_adc.c ****     }else{
 448:./../../firmware/GD32VF103_standard_peripheral/Source/gd32vf103_adc.c ****     }
 816              		.loc 1 448 5 is_stmt 1
 817              	.LVL67:
 818              	.L65:
 449:./../../firmware/GD32VF103_standard_peripheral/Source/gd32vf103_adc.c **** }
 819              		.loc 1 449 1 is_stmt 0
 820 0074 8280     		ret
 821              		.cfi_endproc
 822              	.LFE16:
 824              		.section	.text.adc_inserted_channel_offset_config,"ax",@progbits
 825              		.align	1
 826              		.globl	adc_inserted_channel_offset_config
 828              	adc_inserted_channel_offset_config:
 829              	.LFB17:
 450:./../../firmware/GD32VF103_standard_peripheral/Source/gd32vf103_adc.c **** 
 451:./../../firmware/GD32VF103_standard_peripheral/Source/gd32vf103_adc.c **** /*!
 452:./../../firmware/GD32VF103_standard_peripheral/Source/gd32vf103_adc.c ****     \brief      configure ADC inserted channel offset 
 453:./../../firmware/GD32VF103_standard_peripheral/Source/gd32vf103_adc.c ****     \param[in]  adc_periph: ADCx, x=0,1
 454:./../../firmware/GD32VF103_standard_peripheral/Source/gd32vf103_adc.c ****     \param[in]  inserted_channel: insert channel select
 455:./../../firmware/GD32VF103_standard_peripheral/Source/gd32vf103_adc.c ****                 only one parameter can be selected
 456:./../../firmware/GD32VF103_standard_peripheral/Source/gd32vf103_adc.c ****       \arg        ADC_INSERTED_CHANNEL_0: inserted channel0
 457:./../../firmware/GD32VF103_standard_peripheral/Source/gd32vf103_adc.c ****       \arg        ADC_INSERTED_CHANNEL_1: inserted channel1
 458:./../../firmware/GD32VF103_standard_peripheral/Source/gd32vf103_adc.c ****       \arg        ADC_INSERTED_CHANNEL_2: inserted channel2
 459:./../../firmware/GD32VF103_standard_peripheral/Source/gd32vf103_adc.c ****       \arg        ADC_INSERTED_CHANNEL_3: inserted channel3
 460:./../../firmware/GD32VF103_standard_peripheral/Source/gd32vf103_adc.c ****     \param[in]  offset: the offset data
 461:./../../firmware/GD32VF103_standard_peripheral/Source/gd32vf103_adc.c ****     \param[out] none
 462:./../../firmware/GD32VF103_standard_peripheral/Source/gd32vf103_adc.c ****     \retval     none
 463:./../../firmware/GD32VF103_standard_peripheral/Source/gd32vf103_adc.c **** */
 464:./../../firmware/GD32VF103_standard_peripheral/Source/gd32vf103_adc.c **** void adc_inserted_channel_offset_config(uint32_t adc_periph, uint8_t inserted_channel, uint16_t off
 465:./../../firmware/GD32VF103_standard_peripheral/Source/gd32vf103_adc.c **** {
 830              		.loc 1 465 1 is_stmt 1
 831              		.cfi_startproc
 832              	.LVL68:
 466:./../../firmware/GD32VF103_standard_peripheral/Source/gd32vf103_adc.c ****     uint8_t inserted_length;
 833              		.loc 1 466 5
 467:./../../firmware/GD32VF103_standard_peripheral/Source/gd32vf103_adc.c ****     uint32_t num = 0U;
 834              		.loc 1 467 5
 468:./../../firmware/GD32VF103_standard_peripheral/Source/gd32vf103_adc.c **** 
 469:./../../firmware/GD32VF103_standard_peripheral/Source/gd32vf103_adc.c ****     inserted_length = (uint8_t)GET_BITS(ADC_ISQ(adc_periph) , 20U , 21U);
 835              		.loc 1 469 5
 836              		.loc 1 469 32 is_stmt 0
 837 0000 1C5D     		lw	a5,56(a0)
 838              	.LVL69:
 470:./../../firmware/GD32VF103_standard_peripheral/Source/gd32vf103_adc.c ****     num = ((uint32_t)ADC_OFFSET_LENGTH - ((uint32_t)inserted_length - (uint32_t)inserted_channel));
 839              		.loc 1 470 5 is_stmt 1
 840              		.loc 1 470 9 is_stmt 0
 841 0002 8D05     		addi	a1,a1,3
 842              	.LVL70:
 469:./../../firmware/GD32VF103_standard_peripheral/Source/gd32vf103_adc.c ****     num = ((uint32_t)ADC_OFFSET_LENGTH - ((uint32_t)inserted_length - (uint32_t)inserted_channel));
 843              		.loc 1 469 32
 844 0004 D183     		srli	a5,a5,20
 845              	.LVL71:
 846              		.loc 1 470 43
 847 0006 8D8B     		andi	a5,a5,3
 848              		.loc 1 470 9
 849 0008 9D8D     		sub	a1,a1,a5
GAS LISTING C:\Users\Karzan\AppData\Local\Temp\ccBvNvkC.s 			page 25


 850              	.LVL72:
 471:./../../firmware/GD32VF103_standard_peripheral/Source/gd32vf103_adc.c ****     
 472:./../../firmware/GD32VF103_standard_peripheral/Source/gd32vf103_adc.c ****     if(num <= ADC_OFFSET_LENGTH){
 851              		.loc 1 472 5 is_stmt 1
 852              		.loc 1 472 7 is_stmt 0
 853 000a 8D47     		li	a5,3
 854 000c 63E8B700 		bgtu	a1,a5,.L68
 473:./../../firmware/GD32VF103_standard_peripheral/Source/gd32vf103_adc.c ****         /* calculate the offset of the register */
 474:./../../firmware/GD32VF103_standard_peripheral/Source/gd32vf103_adc.c ****         num = num * ADC_OFFSET_SHIFT_LENGTH;
 855              		.loc 1 474 9 is_stmt 1
 856              	.LVL73:
 475:./../../firmware/GD32VF103_standard_peripheral/Source/gd32vf103_adc.c ****         /* config the offset of the selected channels */
 476:./../../firmware/GD32VF103_standard_peripheral/Source/gd32vf103_adc.c ****         REG32((adc_periph) + 0x14U + num) = IOFFX_IOFF((uint32_t)offset);
 857              		.loc 1 476 9
 474:./../../firmware/GD32VF103_standard_peripheral/Source/gd32vf103_adc.c ****         /* config the offset of the selected channels */
 858              		.loc 1 474 13 is_stmt 0
 859 0010 8A05     		slli	a1,a1,2
 860              	.LVL74:
 861              		.loc 1 476 9
 862 0012 5105     		addi	a0,a0,20
 863              	.LVL75:
 864              		.loc 1 476 45
 865 0014 5206     		slli	a2,a2,20
 866              	.LVL76:
 867              		.loc 1 476 9
 868 0016 AA95     		add	a1,a1,a0
 869              	.LVL77:
 870              		.loc 1 476 45
 871 0018 5182     		srli	a2,a2,20
 872              		.loc 1 476 43
 873 001a 90C1     		sw	a2,0(a1)
 874              	.LVL78:
 875              	.L68:
 477:./../../firmware/GD32VF103_standard_peripheral/Source/gd32vf103_adc.c ****     }  
 478:./../../firmware/GD32VF103_standard_peripheral/Source/gd32vf103_adc.c **** }
 876              		.loc 1 478 1
 877 001c 8280     		ret
 878              		.cfi_endproc
 879              	.LFE17:
 881              		.section	.text.adc_external_trigger_source_config,"ax",@progbits
 882              		.align	1
 883              		.globl	adc_external_trigger_source_config
 885              	adc_external_trigger_source_config:
 886              	.LFB18:
 479:./../../firmware/GD32VF103_standard_peripheral/Source/gd32vf103_adc.c **** 
 480:./../../firmware/GD32VF103_standard_peripheral/Source/gd32vf103_adc.c **** /*!
 481:./../../firmware/GD32VF103_standard_peripheral/Source/gd32vf103_adc.c ****     \brief      configure ADC external trigger source 
 482:./../../firmware/GD32VF103_standard_peripheral/Source/gd32vf103_adc.c ****     \param[in]  adc_periph: ADCx, x=0,1
 483:./../../firmware/GD32VF103_standard_peripheral/Source/gd32vf103_adc.c ****     \param[in]  adc_channel_group: select the channel group
 484:./../../firmware/GD32VF103_standard_peripheral/Source/gd32vf103_adc.c ****                 only one parameter can be selected which is shown as below:
 485:./../../firmware/GD32VF103_standard_peripheral/Source/gd32vf103_adc.c ****       \arg        ADC_REGULAR_CHANNEL: regular channel group
 486:./../../firmware/GD32VF103_standard_peripheral/Source/gd32vf103_adc.c ****       \arg        ADC_INSERTED_CHANNEL: inserted channel group
 487:./../../firmware/GD32VF103_standard_peripheral/Source/gd32vf103_adc.c ****     \param[in]  external_trigger_source: regular or inserted group trigger source
 488:./../../firmware/GD32VF103_standard_peripheral/Source/gd32vf103_adc.c ****                 only one parameter can be selected
 489:./../../firmware/GD32VF103_standard_peripheral/Source/gd32vf103_adc.c ****                 for regular channel:
 490:./../../firmware/GD32VF103_standard_peripheral/Source/gd32vf103_adc.c ****       \arg        ADC0_1_EXTTRIG_REGULAR_T0_CH0: TIMER0 CH0 event select 
 491:./../../firmware/GD32VF103_standard_peripheral/Source/gd32vf103_adc.c ****       \arg        ADC0_1_EXTTRIG_REGULAR_T0_CH1: TIMER0 CH1 event select 
GAS LISTING C:\Users\Karzan\AppData\Local\Temp\ccBvNvkC.s 			page 26


 492:./../../firmware/GD32VF103_standard_peripheral/Source/gd32vf103_adc.c ****       \arg        ADC0_1_EXTTRIG_REGULAR_T0_CH2: TIMER0 CH2 event select 
 493:./../../firmware/GD32VF103_standard_peripheral/Source/gd32vf103_adc.c ****       \arg        ADC0_1_EXTTRIG_REGULAR_T1_CH1: TIMER1 CH1 event select 
 494:./../../firmware/GD32VF103_standard_peripheral/Source/gd32vf103_adc.c ****       \arg        ADC0_1_EXTTRIG_REGULAR_T2_TRGO: TIMER2 TRGO event select 
 495:./../../firmware/GD32VF103_standard_peripheral/Source/gd32vf103_adc.c ****       \arg        ADC0_1_EXTTRIG_REGULAR_T3_CH3: TIMER3 CH3 event select 
 496:./../../firmware/GD32VF103_standard_peripheral/Source/gd32vf103_adc.c ****       \arg        ADC0_1_EXTTRIG_REGULAR_EXTI_11: external interrupt line 11 
 497:./../../firmware/GD32VF103_standard_peripheral/Source/gd32vf103_adc.c ****       \arg        ADC0_1_EXTTRIG_REGULAR_NONE: software trigger
 498:./../../firmware/GD32VF103_standard_peripheral/Source/gd32vf103_adc.c ****                 for inserted channel:
 499:./../../firmware/GD32VF103_standard_peripheral/Source/gd32vf103_adc.c ****       \arg        ADC0_1_EXTTRIG_INSERTED_T0_TRGO: TIMER0 TRGO event select 
 500:./../../firmware/GD32VF103_standard_peripheral/Source/gd32vf103_adc.c ****       \arg        ADC0_1_EXTTRIG_INSERTED_T0_CH3: TIMER0 CH3 event select 
 501:./../../firmware/GD32VF103_standard_peripheral/Source/gd32vf103_adc.c ****       \arg        ADC0_1_EXTTRIG_INSERTED_T1_TRGO: TIMER1 TRGO event select 
 502:./../../firmware/GD32VF103_standard_peripheral/Source/gd32vf103_adc.c ****       \arg        ADC0_1_EXTTRIG_INSERTED_T1_CH0: TIMER1 CH0 event select 
 503:./../../firmware/GD32VF103_standard_peripheral/Source/gd32vf103_adc.c ****       \arg        ADC0_1_EXTTRIG_INSERTED_T2_CH3: TIMER2 CH3 event select 
 504:./../../firmware/GD32VF103_standard_peripheral/Source/gd32vf103_adc.c ****       \arg        ADC0_1_EXTTRIG_INSERTED_T3_TRGO: TIMER3 TRGO event select 
 505:./../../firmware/GD32VF103_standard_peripheral/Source/gd32vf103_adc.c ****       \arg        ADC0_1_EXTTRIG_INSERTED_EXTI_15: external interrupt line 15 
 506:./../../firmware/GD32VF103_standard_peripheral/Source/gd32vf103_adc.c ****       \arg        ADC0_1_EXTTRIG_INSERTED_NONE: software trigger
 507:./../../firmware/GD32VF103_standard_peripheral/Source/gd32vf103_adc.c ****     \param[out] none
 508:./../../firmware/GD32VF103_standard_peripheral/Source/gd32vf103_adc.c ****     \retval     none
 509:./../../firmware/GD32VF103_standard_peripheral/Source/gd32vf103_adc.c **** */
 510:./../../firmware/GD32VF103_standard_peripheral/Source/gd32vf103_adc.c **** void adc_external_trigger_source_config(uint32_t adc_periph, uint8_t adc_channel_group, uint32_t ex
 511:./../../firmware/GD32VF103_standard_peripheral/Source/gd32vf103_adc.c **** {   
 887              		.loc 1 511 1 is_stmt 1
 888              		.cfi_startproc
 889              	.LVL79:
 512:./../../firmware/GD32VF103_standard_peripheral/Source/gd32vf103_adc.c ****     switch(adc_channel_group){
 890              		.loc 1 512 5
 891 0000 8547     		li	a5,1
 892 0002 6386F500 		beq	a1,a5,.L71
 893 0006 8947     		li	a5,2
 894 0008 638DF500 		beq	a1,a5,.L72
 895 000c 8280     		ret
 896              	.L71:
 513:./../../firmware/GD32VF103_standard_peripheral/Source/gd32vf103_adc.c ****     case ADC_REGULAR_CHANNEL:
 514:./../../firmware/GD32VF103_standard_peripheral/Source/gd32vf103_adc.c ****         /* configure ADC regular group external trigger source */
 515:./../../firmware/GD32VF103_standard_peripheral/Source/gd32vf103_adc.c ****         ADC_CTL1(adc_periph) &= ~((uint32_t)ADC_CTL1_ETSRC);
 897              		.loc 1 515 9
 898              		.loc 1 515 30 is_stmt 0
 899 000e 1445     		lw	a3,8(a0)
 900 0010 B705F2FF 		li	a1,-917504
 901              	.LVL80:
 902 0014 FD15     		addi	a1,a1,-1
 903 0016 ED8E     		and	a3,a3,a1
 904 0018 14C5     		sw	a3,8(a0)
 516:./../../firmware/GD32VF103_standard_peripheral/Source/gd32vf103_adc.c ****         ADC_CTL1(adc_periph) |= (uint32_t)external_trigger_source;
 905              		.loc 1 516 9 is_stmt 1
 906              		.loc 1 516 30 is_stmt 0
 907 001a 1845     		lw	a4,8(a0)
 908 001c 518F     		or	a4,a4,a2
 909 001e 18C5     		sw	a4,8(a0)
 517:./../../firmware/GD32VF103_standard_peripheral/Source/gd32vf103_adc.c ****         break;
 910              		.loc 1 517 9 is_stmt 1
 911 0020 8280     		ret
 912              	.LVL81:
 913              	.L72:
 518:./../../firmware/GD32VF103_standard_peripheral/Source/gd32vf103_adc.c ****     case ADC_INSERTED_CHANNEL:
 519:./../../firmware/GD32VF103_standard_peripheral/Source/gd32vf103_adc.c ****         /* configure ADC inserted group external trigger source */
 520:./../../firmware/GD32VF103_standard_peripheral/Source/gd32vf103_adc.c ****         ADC_CTL1(adc_periph) &= ~((uint32_t)ADC_CTL1_ETSIC);
 914              		.loc 1 520 9
GAS LISTING C:\Users\Karzan\AppData\Local\Temp\ccBvNvkC.s 			page 27


 915              		.loc 1 520 30 is_stmt 0
 916 0022 1845     		lw	a4,8(a0)
 917 0024 E576     		li	a3,-28672
 918 0026 FD16     		addi	a3,a3,-1
 919 0028 758F     		and	a4,a4,a3
 920 002a 18C5     		sw	a4,8(a0)
 521:./../../firmware/GD32VF103_standard_peripheral/Source/gd32vf103_adc.c ****         ADC_CTL1(adc_periph) |= (uint32_t)external_trigger_source;
 921              		.loc 1 521 9 is_stmt 1
 922              		.loc 1 521 30 is_stmt 0
 923 002c 1C45     		lw	a5,8(a0)
 924 002e D18F     		or	a5,a5,a2
 925 0030 1CC5     		sw	a5,8(a0)
 522:./../../firmware/GD32VF103_standard_peripheral/Source/gd32vf103_adc.c ****         break;
 926              		.loc 1 522 9 is_stmt 1
 523:./../../firmware/GD32VF103_standard_peripheral/Source/gd32vf103_adc.c ****     default:
 524:./../../firmware/GD32VF103_standard_peripheral/Source/gd32vf103_adc.c ****         break;
 525:./../../firmware/GD32VF103_standard_peripheral/Source/gd32vf103_adc.c ****     }
 526:./../../firmware/GD32VF103_standard_peripheral/Source/gd32vf103_adc.c **** }
 927              		.loc 1 526 1 is_stmt 0
 928 0032 8280     		ret
 929              		.cfi_endproc
 930              	.LFE18:
 932              		.section	.text.adc_external_trigger_config,"ax",@progbits
 933              		.align	1
 934              		.globl	adc_external_trigger_config
 936              	adc_external_trigger_config:
 937              	.LFB19:
 527:./../../firmware/GD32VF103_standard_peripheral/Source/gd32vf103_adc.c **** 
 528:./../../firmware/GD32VF103_standard_peripheral/Source/gd32vf103_adc.c **** /*!
 529:./../../firmware/GD32VF103_standard_peripheral/Source/gd32vf103_adc.c ****     \brief      configure ADC external trigger 
 530:./../../firmware/GD32VF103_standard_peripheral/Source/gd32vf103_adc.c ****     \param[in]  adc_periph: ADCx, x=0,1
 531:./../../firmware/GD32VF103_standard_peripheral/Source/gd32vf103_adc.c ****     \param[in]  adc_channel_group: select the channel group
 532:./../../firmware/GD32VF103_standard_peripheral/Source/gd32vf103_adc.c ****                 one or more parameters can be selected which are shown as below:
 533:./../../firmware/GD32VF103_standard_peripheral/Source/gd32vf103_adc.c ****       \arg        ADC_REGULAR_CHANNEL: regular channel group
 534:./../../firmware/GD32VF103_standard_peripheral/Source/gd32vf103_adc.c ****       \arg        ADC_INSERTED_CHANNEL: inserted channel group
 535:./../../firmware/GD32VF103_standard_peripheral/Source/gd32vf103_adc.c ****     \param[in]  newvalue: ENABLE or DISABLE
 536:./../../firmware/GD32VF103_standard_peripheral/Source/gd32vf103_adc.c ****     \param[out] none
 537:./../../firmware/GD32VF103_standard_peripheral/Source/gd32vf103_adc.c ****     \retval     none
 538:./../../firmware/GD32VF103_standard_peripheral/Source/gd32vf103_adc.c **** */
 539:./../../firmware/GD32VF103_standard_peripheral/Source/gd32vf103_adc.c **** void adc_external_trigger_config(uint32_t adc_periph, uint8_t adc_channel_group, ControlStatus newv
 540:./../../firmware/GD32VF103_standard_peripheral/Source/gd32vf103_adc.c **** {
 938              		.loc 1 540 1 is_stmt 1
 939              		.cfi_startproc
 940              	.LVL82:
 541:./../../firmware/GD32VF103_standard_peripheral/Source/gd32vf103_adc.c ****     if(newvalue){
 941              		.loc 1 541 5
 942 0000 93F71500 		andi	a5,a1,1
 943 0004 8989     		andi	a1,a1,2
 944              	.LVL83:
 945              		.loc 1 541 7 is_stmt 0
 946 0006 09CE     		beq	a2,zero,.L75
 542:./../../firmware/GD32VF103_standard_peripheral/Source/gd32vf103_adc.c ****         if(0U != (adc_channel_group & ADC_REGULAR_CHANNEL)){
 947              		.loc 1 542 9 is_stmt 1
 948              		.loc 1 542 11 is_stmt 0
 949 0008 91C7     		beq	a5,zero,.L76
 543:./../../firmware/GD32VF103_standard_peripheral/Source/gd32vf103_adc.c ****             /* enable ADC regular channel group external trigger */
 544:./../../firmware/GD32VF103_standard_peripheral/Source/gd32vf103_adc.c ****             ADC_CTL1(adc_periph) |= ADC_CTL1_ETERC;
GAS LISTING C:\Users\Karzan\AppData\Local\Temp\ccBvNvkC.s 			page 28


 950              		.loc 1 544 13 is_stmt 1
 951              		.loc 1 544 34 is_stmt 0
 952 000a 1C45     		lw	a5,8(a0)
 953 000c 37071000 		li	a4,1048576
 954 0010 D98F     		or	a5,a5,a4
 955 0012 1CC5     		sw	a5,8(a0)
 956              	.L76:
 545:./../../firmware/GD32VF103_standard_peripheral/Source/gd32vf103_adc.c ****         }
 546:./../../firmware/GD32VF103_standard_peripheral/Source/gd32vf103_adc.c ****         if(0U != (adc_channel_group & ADC_INSERTED_CHANNEL)){
 957              		.loc 1 546 9 is_stmt 1
 958              		.loc 1 546 11 is_stmt 0
 959 0014 89C5     		beq	a1,zero,.L74
 547:./../../firmware/GD32VF103_standard_peripheral/Source/gd32vf103_adc.c ****             /* enable ADC inserted channel group external trigger */
 548:./../../firmware/GD32VF103_standard_peripheral/Source/gd32vf103_adc.c ****             ADC_CTL1(adc_periph) |= ADC_CTL1_ETEIC;
 960              		.loc 1 548 13 is_stmt 1
 961              		.loc 1 548 34 is_stmt 0
 962 0016 1C45     		lw	a5,8(a0)
 963 0018 2167     		li	a4,32768
 964 001a D98F     		or	a5,a5,a4
 965              	.L90:
 549:./../../firmware/GD32VF103_standard_peripheral/Source/gd32vf103_adc.c ****         }        
 550:./../../firmware/GD32VF103_standard_peripheral/Source/gd32vf103_adc.c ****     }else{
 551:./../../firmware/GD32VF103_standard_peripheral/Source/gd32vf103_adc.c ****         if(0U != (adc_channel_group & ADC_REGULAR_CHANNEL)){
 552:./../../firmware/GD32VF103_standard_peripheral/Source/gd32vf103_adc.c ****             /* disable ADC regular channel group external trigger */
 553:./../../firmware/GD32VF103_standard_peripheral/Source/gd32vf103_adc.c ****             ADC_CTL1(adc_periph) &= ~ADC_CTL1_ETERC;
 554:./../../firmware/GD32VF103_standard_peripheral/Source/gd32vf103_adc.c ****         }
 555:./../../firmware/GD32VF103_standard_peripheral/Source/gd32vf103_adc.c ****         if(0U != (adc_channel_group & ADC_INSERTED_CHANNEL)){
 556:./../../firmware/GD32VF103_standard_peripheral/Source/gd32vf103_adc.c ****             /* disable ADC regular channel group external trigger */
 557:./../../firmware/GD32VF103_standard_peripheral/Source/gd32vf103_adc.c ****             ADC_CTL1(adc_periph) &= ~ADC_CTL1_ETEIC;
 966              		.loc 1 557 34
 967 001c 1CC5     		sw	a5,8(a0)
 968              	.L74:
 558:./../../firmware/GD32VF103_standard_peripheral/Source/gd32vf103_adc.c ****         }      
 559:./../../firmware/GD32VF103_standard_peripheral/Source/gd32vf103_adc.c ****     }
 560:./../../firmware/GD32VF103_standard_peripheral/Source/gd32vf103_adc.c **** }
 969              		.loc 1 560 1
 970 001e 8280     		ret
 971              	.L75:
 551:./../../firmware/GD32VF103_standard_peripheral/Source/gd32vf103_adc.c ****             /* disable ADC regular channel group external trigger */
 972              		.loc 1 551 9 is_stmt 1
 551:./../../firmware/GD32VF103_standard_peripheral/Source/gd32vf103_adc.c ****             /* disable ADC regular channel group external trigger */
 973              		.loc 1 551 11 is_stmt 0
 974 0020 99C7     		beq	a5,zero,.L79
 553:./../../firmware/GD32VF103_standard_peripheral/Source/gd32vf103_adc.c ****         }
 975              		.loc 1 553 13 is_stmt 1
 553:./../../firmware/GD32VF103_standard_peripheral/Source/gd32vf103_adc.c ****         }
 976              		.loc 1 553 34 is_stmt 0
 977 0022 1C45     		lw	a5,8(a0)
 978 0024 3707F0FF 		li	a4,-1048576
 979 0028 7D17     		addi	a4,a4,-1
 980 002a F98F     		and	a5,a5,a4
 981 002c 1CC5     		sw	a5,8(a0)
 982              	.L79:
 555:./../../firmware/GD32VF103_standard_peripheral/Source/gd32vf103_adc.c ****             /* disable ADC regular channel group external trigger */
 983              		.loc 1 555 9 is_stmt 1
 555:./../../firmware/GD32VF103_standard_peripheral/Source/gd32vf103_adc.c ****             /* disable ADC regular channel group external trigger */
 984              		.loc 1 555 11 is_stmt 0
GAS LISTING C:\Users\Karzan\AppData\Local\Temp\ccBvNvkC.s 			page 29


 985 002e E5D9     		beq	a1,zero,.L74
 557:./../../firmware/GD32VF103_standard_peripheral/Source/gd32vf103_adc.c ****         }      
 986              		.loc 1 557 13 is_stmt 1
 557:./../../firmware/GD32VF103_standard_peripheral/Source/gd32vf103_adc.c ****         }      
 987              		.loc 1 557 34 is_stmt 0
 988 0030 1C45     		lw	a5,8(a0)
 989 0032 6177     		li	a4,-32768
 990 0034 7D17     		addi	a4,a4,-1
 991 0036 F98F     		and	a5,a5,a4
 992 0038 D5B7     		j	.L90
 993              		.cfi_endproc
 994              	.LFE19:
 996              		.section	.text.adc_software_trigger_enable,"ax",@progbits
 997              		.align	1
 998              		.globl	adc_software_trigger_enable
 1000              	adc_software_trigger_enable:
 1001              	.LFB20:
 561:./../../firmware/GD32VF103_standard_peripheral/Source/gd32vf103_adc.c **** 
 562:./../../firmware/GD32VF103_standard_peripheral/Source/gd32vf103_adc.c **** /*!
 563:./../../firmware/GD32VF103_standard_peripheral/Source/gd32vf103_adc.c ****     \brief      enable ADC software trigger 
 564:./../../firmware/GD32VF103_standard_peripheral/Source/gd32vf103_adc.c ****     \param[in]  adc_periph: ADCx, x=0,1
 565:./../../firmware/GD32VF103_standard_peripheral/Source/gd32vf103_adc.c ****     \param[in]  adc_channel_group: select the channel group
 566:./../../firmware/GD32VF103_standard_peripheral/Source/gd32vf103_adc.c ****                 one or more parameters can be selected which are shown as below:
 567:./../../firmware/GD32VF103_standard_peripheral/Source/gd32vf103_adc.c ****       \arg        ADC_REGULAR_CHANNEL: regular channel group
 568:./../../firmware/GD32VF103_standard_peripheral/Source/gd32vf103_adc.c ****       \arg        ADC_INSERTED_CHANNEL: inserted channel group
 569:./../../firmware/GD32VF103_standard_peripheral/Source/gd32vf103_adc.c ****     \param[out] none
 570:./../../firmware/GD32VF103_standard_peripheral/Source/gd32vf103_adc.c ****     \retval     none
 571:./../../firmware/GD32VF103_standard_peripheral/Source/gd32vf103_adc.c **** */
 572:./../../firmware/GD32VF103_standard_peripheral/Source/gd32vf103_adc.c **** void adc_software_trigger_enable(uint32_t adc_periph, uint8_t adc_channel_group)
 573:./../../firmware/GD32VF103_standard_peripheral/Source/gd32vf103_adc.c **** {
 1002              		.loc 1 573 1 is_stmt 1
 1003              		.cfi_startproc
 1004              	.LVL84:
 574:./../../firmware/GD32VF103_standard_peripheral/Source/gd32vf103_adc.c ****     if(0U != (adc_channel_group & ADC_REGULAR_CHANNEL)){
 1005              		.loc 1 574 5
 1006              		.loc 1 574 7 is_stmt 0
 1007 0000 93F71500 		andi	a5,a1,1
 1008 0004 91C7     		beq	a5,zero,.L92
 575:./../../firmware/GD32VF103_standard_peripheral/Source/gd32vf103_adc.c ****         /* enable ADC regular channel group software trigger */
 576:./../../firmware/GD32VF103_standard_peripheral/Source/gd32vf103_adc.c ****         ADC_CTL1(adc_periph) |= ADC_CTL1_SWRCST;
 1009              		.loc 1 576 9 is_stmt 1
 1010              		.loc 1 576 30 is_stmt 0
 1011 0006 1C45     		lw	a5,8(a0)
 1012 0008 37074000 		li	a4,4194304
 1013 000c D98F     		or	a5,a5,a4
 1014 000e 1CC5     		sw	a5,8(a0)
 1015              	.L92:
 577:./../../firmware/GD32VF103_standard_peripheral/Source/gd32vf103_adc.c ****     }
 578:./../../firmware/GD32VF103_standard_peripheral/Source/gd32vf103_adc.c ****     if(0U != (adc_channel_group & ADC_INSERTED_CHANNEL)){
 1016              		.loc 1 578 5 is_stmt 1
 1017              		.loc 1 578 7 is_stmt 0
 1018 0010 8989     		andi	a1,a1,2
 1019              	.LVL85:
 1020 0012 91C5     		beq	a1,zero,.L91
 579:./../../firmware/GD32VF103_standard_peripheral/Source/gd32vf103_adc.c ****         /* enable ADC inserted channel group software trigger */
 580:./../../firmware/GD32VF103_standard_peripheral/Source/gd32vf103_adc.c ****         ADC_CTL1(adc_periph) |= ADC_CTL1_SWICST;
 1021              		.loc 1 580 9 is_stmt 1
GAS LISTING C:\Users\Karzan\AppData\Local\Temp\ccBvNvkC.s 			page 30


 1022              		.loc 1 580 30 is_stmt 0
 1023 0014 1C45     		lw	a5,8(a0)
 1024 0016 37072000 		li	a4,2097152
 1025 001a D98F     		or	a5,a5,a4
 1026 001c 1CC5     		sw	a5,8(a0)
 1027              	.L91:
 581:./../../firmware/GD32VF103_standard_peripheral/Source/gd32vf103_adc.c ****     }
 582:./../../firmware/GD32VF103_standard_peripheral/Source/gd32vf103_adc.c **** }
 1028              		.loc 1 582 1
 1029 001e 8280     		ret
 1030              		.cfi_endproc
 1031              	.LFE20:
 1033              		.section	.text.adc_regular_data_read,"ax",@progbits
 1034              		.align	1
 1035              		.globl	adc_regular_data_read
 1037              	adc_regular_data_read:
 1038              	.LFB21:
 583:./../../firmware/GD32VF103_standard_peripheral/Source/gd32vf103_adc.c **** 
 584:./../../firmware/GD32VF103_standard_peripheral/Source/gd32vf103_adc.c **** /*!
 585:./../../firmware/GD32VF103_standard_peripheral/Source/gd32vf103_adc.c ****     \brief      read ADC regular group data register 
 586:./../../firmware/GD32VF103_standard_peripheral/Source/gd32vf103_adc.c ****     \param[in]  adc_periph: ADCx, x=0,1
 587:./../../firmware/GD32VF103_standard_peripheral/Source/gd32vf103_adc.c ****     \param[in]  none
 588:./../../firmware/GD32VF103_standard_peripheral/Source/gd32vf103_adc.c ****     \param[out] none
 589:./../../firmware/GD32VF103_standard_peripheral/Source/gd32vf103_adc.c ****     \retval     the conversion value
 590:./../../firmware/GD32VF103_standard_peripheral/Source/gd32vf103_adc.c **** */
 591:./../../firmware/GD32VF103_standard_peripheral/Source/gd32vf103_adc.c **** uint16_t adc_regular_data_read(uint32_t adc_periph)
 592:./../../firmware/GD32VF103_standard_peripheral/Source/gd32vf103_adc.c **** {
 1039              		.loc 1 592 1 is_stmt 1
 1040              		.cfi_startproc
 1041              	.LVL86:
 593:./../../firmware/GD32VF103_standard_peripheral/Source/gd32vf103_adc.c ****     return (uint16_t)(ADC_RDATA(adc_periph));
 1042              		.loc 1 593 5
 1043              		.loc 1 593 23 is_stmt 0
 1044 0000 6845     		lw	a0,76(a0)
 1045              	.LVL87:
 594:./../../firmware/GD32VF103_standard_peripheral/Source/gd32vf103_adc.c **** }
 1046              		.loc 1 594 1
 1047 0002 4205     		slli	a0,a0,16
 1048 0004 4181     		srli	a0,a0,16
 1049 0006 8280     		ret
 1050              		.cfi_endproc
 1051              	.LFE21:
 1053              		.section	.text.adc_inserted_data_read,"ax",@progbits
 1054              		.align	1
 1055              		.globl	adc_inserted_data_read
 1057              	adc_inserted_data_read:
 1058              	.LFB22:
 595:./../../firmware/GD32VF103_standard_peripheral/Source/gd32vf103_adc.c **** 
 596:./../../firmware/GD32VF103_standard_peripheral/Source/gd32vf103_adc.c **** /*!
 597:./../../firmware/GD32VF103_standard_peripheral/Source/gd32vf103_adc.c ****     \brief      read ADC inserted group data register 
 598:./../../firmware/GD32VF103_standard_peripheral/Source/gd32vf103_adc.c ****     \param[in]  adc_periph: ADCx, x=0,1
 599:./../../firmware/GD32VF103_standard_peripheral/Source/gd32vf103_adc.c ****     \param[in]  inserted_channel: insert channel select
 600:./../../firmware/GD32VF103_standard_peripheral/Source/gd32vf103_adc.c ****                 only one parameter can be selected
 601:./../../firmware/GD32VF103_standard_peripheral/Source/gd32vf103_adc.c ****       \arg        ADC_INSERTED_CHANNEL_0: inserted Channel0
 602:./../../firmware/GD32VF103_standard_peripheral/Source/gd32vf103_adc.c ****       \arg        ADC_INSERTED_CHANNEL_1: inserted channel1
 603:./../../firmware/GD32VF103_standard_peripheral/Source/gd32vf103_adc.c ****       \arg        ADC_INSERTED_CHANNEL_2: inserted Channel2
 604:./../../firmware/GD32VF103_standard_peripheral/Source/gd32vf103_adc.c ****       \arg        ADC_INSERTED_CHANNEL_3: inserted Channel3
GAS LISTING C:\Users\Karzan\AppData\Local\Temp\ccBvNvkC.s 			page 31


 605:./../../firmware/GD32VF103_standard_peripheral/Source/gd32vf103_adc.c ****     \param[out] none
 606:./../../firmware/GD32VF103_standard_peripheral/Source/gd32vf103_adc.c ****     \retval     the conversion value
 607:./../../firmware/GD32VF103_standard_peripheral/Source/gd32vf103_adc.c **** */
 608:./../../firmware/GD32VF103_standard_peripheral/Source/gd32vf103_adc.c **** uint16_t adc_inserted_data_read(uint32_t adc_periph, uint8_t inserted_channel)
 609:./../../firmware/GD32VF103_standard_peripheral/Source/gd32vf103_adc.c **** {
 1059              		.loc 1 609 1 is_stmt 1
 1060              		.cfi_startproc
 1061              	.LVL88:
 610:./../../firmware/GD32VF103_standard_peripheral/Source/gd32vf103_adc.c ****     uint32_t idata;
 1062              		.loc 1 610 5
 611:./../../firmware/GD32VF103_standard_peripheral/Source/gd32vf103_adc.c ****     /* read the data of the selected channel */
 612:./../../firmware/GD32VF103_standard_peripheral/Source/gd32vf103_adc.c ****     switch(inserted_channel){
 1063              		.loc 1 612 5
 1064 0000 8547     		li	a5,1
 1065 0002 638FF500 		beq	a1,a5,.L102
 1066 0006 99C9     		beq	a1,zero,.L103
 1067 0008 8947     		li	a5,2
 1068 000a 638DF500 		beq	a1,a5,.L104
 1069 000e 8D47     		li	a5,3
 1070 0010 638CF500 		beq	a1,a5,.L105
 613:./../../firmware/GD32VF103_standard_peripheral/Source/gd32vf103_adc.c ****     case ADC_INSERTED_CHANNEL_0:
 614:./../../firmware/GD32VF103_standard_peripheral/Source/gd32vf103_adc.c ****         /* read the data of channel 0 */
 615:./../../firmware/GD32VF103_standard_peripheral/Source/gd32vf103_adc.c ****         idata = ADC_IDATA0(adc_periph);
 616:./../../firmware/GD32VF103_standard_peripheral/Source/gd32vf103_adc.c ****         break;
 617:./../../firmware/GD32VF103_standard_peripheral/Source/gd32vf103_adc.c ****     case ADC_INSERTED_CHANNEL_1:
 618:./../../firmware/GD32VF103_standard_peripheral/Source/gd32vf103_adc.c ****         /* read the data of channel 1 */
 619:./../../firmware/GD32VF103_standard_peripheral/Source/gd32vf103_adc.c ****         idata = ADC_IDATA1(adc_periph);
 620:./../../firmware/GD32VF103_standard_peripheral/Source/gd32vf103_adc.c ****         break;
 621:./../../firmware/GD32VF103_standard_peripheral/Source/gd32vf103_adc.c ****     case ADC_INSERTED_CHANNEL_2:
 622:./../../firmware/GD32VF103_standard_peripheral/Source/gd32vf103_adc.c ****         /* read the data of channel 2 */
 623:./../../firmware/GD32VF103_standard_peripheral/Source/gd32vf103_adc.c ****         idata = ADC_IDATA2(adc_periph);
 624:./../../firmware/GD32VF103_standard_peripheral/Source/gd32vf103_adc.c ****         break;
 625:./../../firmware/GD32VF103_standard_peripheral/Source/gd32vf103_adc.c ****     case ADC_INSERTED_CHANNEL_3:
 626:./../../firmware/GD32VF103_standard_peripheral/Source/gd32vf103_adc.c ****         /* read the data of channel 3 */
 627:./../../firmware/GD32VF103_standard_peripheral/Source/gd32vf103_adc.c ****         idata = ADC_IDATA3(adc_periph);
 628:./../../firmware/GD32VF103_standard_peripheral/Source/gd32vf103_adc.c ****         break;
 629:./../../firmware/GD32VF103_standard_peripheral/Source/gd32vf103_adc.c ****     default:
 630:./../../firmware/GD32VF103_standard_peripheral/Source/gd32vf103_adc.c ****         idata = 0U;
 1071              		.loc 1 630 15 is_stmt 0
 1072 0014 0145     		li	a0,0
 1073              	.LVL89:
 1074              	.L106:
 631:./../../firmware/GD32VF103_standard_peripheral/Source/gd32vf103_adc.c ****         break;
 632:./../../firmware/GD32VF103_standard_peripheral/Source/gd32vf103_adc.c ****     }
 633:./../../firmware/GD32VF103_standard_peripheral/Source/gd32vf103_adc.c ****     return (uint16_t)idata;
 1075              		.loc 1 633 5 is_stmt 1
 634:./../../firmware/GD32VF103_standard_peripheral/Source/gd32vf103_adc.c **** }
 1076              		.loc 1 634 1 is_stmt 0
 1077 0016 4205     		slli	a0,a0,16
 1078              	.LVL90:
 1079 0018 4181     		srli	a0,a0,16
 1080 001a 8280     		ret
 1081              	.LVL91:
 1082              	.L103:
 615:./../../firmware/GD32VF103_standard_peripheral/Source/gd32vf103_adc.c ****         break;
 1083              		.loc 1 615 9 is_stmt 1
 615:./../../firmware/GD32VF103_standard_peripheral/Source/gd32vf103_adc.c ****         break;
GAS LISTING C:\Users\Karzan\AppData\Local\Temp\ccBvNvkC.s 			page 32


 1084              		.loc 1 615 15 is_stmt 0
 1085 001c 485D     		lw	a0,60(a0)
 1086              	.LVL92:
 616:./../../firmware/GD32VF103_standard_peripheral/Source/gd32vf103_adc.c ****     case ADC_INSERTED_CHANNEL_1:
 1087              		.loc 1 616 9 is_stmt 1
 1088 001e E5BF     		j	.L106
 1089              	.LVL93:
 1090              	.L102:
 619:./../../firmware/GD32VF103_standard_peripheral/Source/gd32vf103_adc.c ****         break;
 1091              		.loc 1 619 9
 619:./../../firmware/GD32VF103_standard_peripheral/Source/gd32vf103_adc.c ****         break;
 1092              		.loc 1 619 15 is_stmt 0
 1093 0020 2841     		lw	a0,64(a0)
 1094              	.LVL94:
 620:./../../firmware/GD32VF103_standard_peripheral/Source/gd32vf103_adc.c ****     case ADC_INSERTED_CHANNEL_2:
 1095              		.loc 1 620 9 is_stmt 1
 1096 0022 D5BF     		j	.L106
 1097              	.LVL95:
 1098              	.L104:
 623:./../../firmware/GD32VF103_standard_peripheral/Source/gd32vf103_adc.c ****         break;
 1099              		.loc 1 623 9
 623:./../../firmware/GD32VF103_standard_peripheral/Source/gd32vf103_adc.c ****         break;
 1100              		.loc 1 623 15 is_stmt 0
 1101 0024 6841     		lw	a0,68(a0)
 1102              	.LVL96:
 624:./../../firmware/GD32VF103_standard_peripheral/Source/gd32vf103_adc.c ****     case ADC_INSERTED_CHANNEL_3:
 1103              		.loc 1 624 9 is_stmt 1
 1104 0026 C5BF     		j	.L106
 1105              	.LVL97:
 1106              	.L105:
 627:./../../firmware/GD32VF103_standard_peripheral/Source/gd32vf103_adc.c ****         break;
 1107              		.loc 1 627 9
 627:./../../firmware/GD32VF103_standard_peripheral/Source/gd32vf103_adc.c ****         break;
 1108              		.loc 1 627 15 is_stmt 0
 1109 0028 2845     		lw	a0,72(a0)
 1110              	.LVL98:
 628:./../../firmware/GD32VF103_standard_peripheral/Source/gd32vf103_adc.c ****     default:
 1111              		.loc 1 628 9 is_stmt 1
 1112 002a F5B7     		j	.L106
 1113              		.cfi_endproc
 1114              	.LFE22:
 1116              		.section	.text.adc_sync_mode_convert_value_read,"ax",@progbits
 1117              		.align	1
 1118              		.globl	adc_sync_mode_convert_value_read
 1120              	adc_sync_mode_convert_value_read:
 1121              	.LFB23:
 635:./../../firmware/GD32VF103_standard_peripheral/Source/gd32vf103_adc.c **** 
 636:./../../firmware/GD32VF103_standard_peripheral/Source/gd32vf103_adc.c **** /*!
 637:./../../firmware/GD32VF103_standard_peripheral/Source/gd32vf103_adc.c ****     \brief      read the last ADC0 and ADC1 conversion result data in sync mode
 638:./../../firmware/GD32VF103_standard_peripheral/Source/gd32vf103_adc.c ****     \param[in]  none
 639:./../../firmware/GD32VF103_standard_peripheral/Source/gd32vf103_adc.c ****     \param[out] none
 640:./../../firmware/GD32VF103_standard_peripheral/Source/gd32vf103_adc.c ****     \retval     the conversion value
 641:./../../firmware/GD32VF103_standard_peripheral/Source/gd32vf103_adc.c **** */
 642:./../../firmware/GD32VF103_standard_peripheral/Source/gd32vf103_adc.c **** uint32_t adc_sync_mode_convert_value_read(void)
 643:./../../firmware/GD32VF103_standard_peripheral/Source/gd32vf103_adc.c **** {
 1122              		.loc 1 643 1
 1123              		.cfi_startproc
GAS LISTING C:\Users\Karzan\AppData\Local\Temp\ccBvNvkC.s 			page 33


 644:./../../firmware/GD32VF103_standard_peripheral/Source/gd32vf103_adc.c ****     /* return conversion value */
 645:./../../firmware/GD32VF103_standard_peripheral/Source/gd32vf103_adc.c ****     return ADC_RDATA(ADC0);
 1124              		.loc 1 645 5
 1125              		.loc 1 645 12 is_stmt 0
 1126 0000 B7270140 		li	a5,1073815552
 1127 0004 03A5C744 		lw	a0,1100(a5)
 646:./../../firmware/GD32VF103_standard_peripheral/Source/gd32vf103_adc.c **** }
 1128              		.loc 1 646 1
 1129 0008 8280     		ret
 1130              		.cfi_endproc
 1131              	.LFE23:
 1133              		.section	.text.adc_watchdog_single_channel_enable,"ax",@progbits
 1134              		.align	1
 1135              		.globl	adc_watchdog_single_channel_enable
 1137              	adc_watchdog_single_channel_enable:
 1138              	.LFB24:
 647:./../../firmware/GD32VF103_standard_peripheral/Source/gd32vf103_adc.c **** 
 648:./../../firmware/GD32VF103_standard_peripheral/Source/gd32vf103_adc.c **** 
 649:./../../firmware/GD32VF103_standard_peripheral/Source/gd32vf103_adc.c **** /*!
 650:./../../firmware/GD32VF103_standard_peripheral/Source/gd32vf103_adc.c ****     \brief      configure ADC analog watchdog single channel 
 651:./../../firmware/GD32VF103_standard_peripheral/Source/gd32vf103_adc.c ****     \param[in]  adc_periph: ADCx, x=0,1
 652:./../../firmware/GD32VF103_standard_peripheral/Source/gd32vf103_adc.c ****     \param[in]  adc_channel: the selected ADC channel
 653:./../../firmware/GD32VF103_standard_peripheral/Source/gd32vf103_adc.c ****                 only one parameter can be selected which is shown as below:
 654:./../../firmware/GD32VF103_standard_peripheral/Source/gd32vf103_adc.c ****       \arg        ADC_CHANNEL_x: ADC Channelx(x=0..17)(x=16 and x=17 are only for ADC0)
 655:./../../firmware/GD32VF103_standard_peripheral/Source/gd32vf103_adc.c ****     \param[out] none
 656:./../../firmware/GD32VF103_standard_peripheral/Source/gd32vf103_adc.c ****     \retval     none
 657:./../../firmware/GD32VF103_standard_peripheral/Source/gd32vf103_adc.c **** */
 658:./../../firmware/GD32VF103_standard_peripheral/Source/gd32vf103_adc.c **** void adc_watchdog_single_channel_enable(uint32_t adc_periph, uint8_t adc_channel)
 659:./../../firmware/GD32VF103_standard_peripheral/Source/gd32vf103_adc.c **** {
 1139              		.loc 1 659 1 is_stmt 1
 1140              		.cfi_startproc
 1141              	.LVL99:
 660:./../../firmware/GD32VF103_standard_peripheral/Source/gd32vf103_adc.c ****     ADC_CTL0(adc_periph) &= (uint32_t)~(ADC_CTL0_RWDEN | ADC_CTL0_IWDEN | ADC_CTL0_WDSC | ADC_CTL0_
 1142              		.loc 1 660 5
 1143              		.loc 1 660 26 is_stmt 0
 1144 0000 5C41     		lw	a5,4(a0)
 1145 0002 370740FF 		li	a4,-12582912
 1146 0006 130707DE 		addi	a4,a4,-544
 1147 000a F98F     		and	a5,a5,a4
 1148 000c 5CC1     		sw	a5,4(a0)
 661:./../../firmware/GD32VF103_standard_peripheral/Source/gd32vf103_adc.c ****     /* analog watchdog channel select */
 662:./../../firmware/GD32VF103_standard_peripheral/Source/gd32vf103_adc.c ****     ADC_CTL0(adc_periph) |= (uint32_t)adc_channel;
 1149              		.loc 1 662 5 is_stmt 1
 1150              		.loc 1 662 26 is_stmt 0
 1151 000e 5C41     		lw	a5,4(a0)
 663:./../../firmware/GD32VF103_standard_peripheral/Source/gd32vf103_adc.c ****     ADC_CTL0(adc_periph) |= (uint32_t)(ADC_CTL0_RWDEN | ADC_CTL0_IWDEN | ADC_CTL0_WDSC);
 1152              		.loc 1 663 26
 1153 0010 3707C000 		li	a4,12582912
 1154 0014 13070720 		addi	a4,a4,512
 662:./../../firmware/GD32VF103_standard_peripheral/Source/gd32vf103_adc.c ****     ADC_CTL0(adc_periph) |= (uint32_t)(ADC_CTL0_RWDEN | ADC_CTL0_IWDEN | ADC_CTL0_WDSC);
 1155              		.loc 1 662 26
 1156 0018 DD8D     		or	a1,a1,a5
 1157              	.LVL100:
 1158 001a 4CC1     		sw	a1,4(a0)
 1159              		.loc 1 663 5 is_stmt 1
 1160              		.loc 1 663 26 is_stmt 0
 1161 001c 5C41     		lw	a5,4(a0)
GAS LISTING C:\Users\Karzan\AppData\Local\Temp\ccBvNvkC.s 			page 34


 1162 001e D98F     		or	a5,a5,a4
 1163 0020 5CC1     		sw	a5,4(a0)
 664:./../../firmware/GD32VF103_standard_peripheral/Source/gd32vf103_adc.c **** }
 1164              		.loc 1 664 1
 1165 0022 8280     		ret
 1166              		.cfi_endproc
 1167              	.LFE24:
 1169              		.section	.text.adc_watchdog_group_channel_enable,"ax",@progbits
 1170              		.align	1
 1171              		.globl	adc_watchdog_group_channel_enable
 1173              	adc_watchdog_group_channel_enable:
 1174              	.LFB25:
 665:./../../firmware/GD32VF103_standard_peripheral/Source/gd32vf103_adc.c **** 
 666:./../../firmware/GD32VF103_standard_peripheral/Source/gd32vf103_adc.c **** /*!
 667:./../../firmware/GD32VF103_standard_peripheral/Source/gd32vf103_adc.c ****     \brief      configure ADC analog watchdog group channel 
 668:./../../firmware/GD32VF103_standard_peripheral/Source/gd32vf103_adc.c ****     \param[in]  adc_periph: ADCx, x=0,1
 669:./../../firmware/GD32VF103_standard_peripheral/Source/gd32vf103_adc.c ****     \param[in]  adc_channel_group: the channel group use analog watchdog
 670:./../../firmware/GD32VF103_standard_peripheral/Source/gd32vf103_adc.c ****                 only one parameter can be selected which is shown as below: 
 671:./../../firmware/GD32VF103_standard_peripheral/Source/gd32vf103_adc.c ****       \arg        ADC_REGULAR_CHANNEL: regular channel group
 672:./../../firmware/GD32VF103_standard_peripheral/Source/gd32vf103_adc.c ****       \arg        ADC_INSERTED_CHANNEL: inserted channel group
 673:./../../firmware/GD32VF103_standard_peripheral/Source/gd32vf103_adc.c ****       \arg        ADC_REGULAR_INSERTED_CHANNEL: both regular and inserted group
 674:./../../firmware/GD32VF103_standard_peripheral/Source/gd32vf103_adc.c ****     \param[out] none
 675:./../../firmware/GD32VF103_standard_peripheral/Source/gd32vf103_adc.c ****     \retval     none
 676:./../../firmware/GD32VF103_standard_peripheral/Source/gd32vf103_adc.c **** */
 677:./../../firmware/GD32VF103_standard_peripheral/Source/gd32vf103_adc.c **** void adc_watchdog_group_channel_enable(uint32_t adc_periph, uint8_t adc_channel_group)
 678:./../../firmware/GD32VF103_standard_peripheral/Source/gd32vf103_adc.c **** {
 1175              		.loc 1 678 1 is_stmt 1
 1176              		.cfi_startproc
 1177              	.LVL101:
 679:./../../firmware/GD32VF103_standard_peripheral/Source/gd32vf103_adc.c ****     ADC_CTL0(adc_periph) &= (uint32_t)~(ADC_CTL0_RWDEN | ADC_CTL0_IWDEN | ADC_CTL0_WDSC);
 1178              		.loc 1 679 5
 1179              		.loc 1 679 26 is_stmt 0
 1180 0000 5C41     		lw	a5,4(a0)
 1181 0002 370740FF 		li	a4,-12582912
 1182 0006 1307F7DF 		addi	a4,a4,-513
 1183 000a F98F     		and	a5,a5,a4
 1184 000c 5CC1     		sw	a5,4(a0)
 680:./../../firmware/GD32VF103_standard_peripheral/Source/gd32vf103_adc.c ****     /* select the group */
 681:./../../firmware/GD32VF103_standard_peripheral/Source/gd32vf103_adc.c ****     switch(adc_channel_group){
 1185              		.loc 1 681 5 is_stmt 1
 1186 000e 8947     		li	a5,2
 1187 0010 638EF500 		beq	a1,a5,.L110
 1188 0014 8D47     		li	a5,3
 1189 0016 638FF500 		beq	a1,a5,.L111
 1190 001a 8547     		li	a5,1
 1191 001c 6397F500 		bne	a1,a5,.L109
 682:./../../firmware/GD32VF103_standard_peripheral/Source/gd32vf103_adc.c ****     case ADC_REGULAR_CHANNEL:
 683:./../../firmware/GD32VF103_standard_peripheral/Source/gd32vf103_adc.c ****         /* regular channel analog watchdog enable */
 684:./../../firmware/GD32VF103_standard_peripheral/Source/gd32vf103_adc.c ****         ADC_CTL0(adc_periph) |= (uint32_t) ADC_CTL0_RWDEN;
 1192              		.loc 1 684 9
 1193              		.loc 1 684 30 is_stmt 0
 1194 0020 5C41     		lw	a5,4(a0)
 1195 0022 37078000 		li	a4,8388608
 1196              	.L113:
 685:./../../firmware/GD32VF103_standard_peripheral/Source/gd32vf103_adc.c ****         break;
 686:./../../firmware/GD32VF103_standard_peripheral/Source/gd32vf103_adc.c ****     case ADC_INSERTED_CHANNEL:
 687:./../../firmware/GD32VF103_standard_peripheral/Source/gd32vf103_adc.c ****         /* inserted channel analog watchdog enable */
GAS LISTING C:\Users\Karzan\AppData\Local\Temp\ccBvNvkC.s 			page 35


 688:./../../firmware/GD32VF103_standard_peripheral/Source/gd32vf103_adc.c ****         ADC_CTL0(adc_periph) |= (uint32_t) ADC_CTL0_IWDEN;
 689:./../../firmware/GD32VF103_standard_peripheral/Source/gd32vf103_adc.c ****         break;
 690:./../../firmware/GD32VF103_standard_peripheral/Source/gd32vf103_adc.c ****     case ADC_REGULAR_INSERTED_CHANNEL:
 691:./../../firmware/GD32VF103_standard_peripheral/Source/gd32vf103_adc.c ****         /* regular and inserted channel analog watchdog enable */
 692:./../../firmware/GD32VF103_standard_peripheral/Source/gd32vf103_adc.c ****         ADC_CTL0(adc_periph) |= (uint32_t)(ADC_CTL0_RWDEN | ADC_CTL0_IWDEN);
 1197              		.loc 1 692 30
 1198 0026 D98F     		or	a5,a5,a4
 1199 0028 5CC1     		sw	a5,4(a0)
 693:./../../firmware/GD32VF103_standard_peripheral/Source/gd32vf103_adc.c ****         break;
 1200              		.loc 1 693 9 is_stmt 1
 1201              	.L109:
 694:./../../firmware/GD32VF103_standard_peripheral/Source/gd32vf103_adc.c ****     default:
 695:./../../firmware/GD32VF103_standard_peripheral/Source/gd32vf103_adc.c ****         break;
 696:./../../firmware/GD32VF103_standard_peripheral/Source/gd32vf103_adc.c ****     }
 697:./../../firmware/GD32VF103_standard_peripheral/Source/gd32vf103_adc.c **** }
 1202              		.loc 1 697 1 is_stmt 0
 1203 002a 8280     		ret
 1204              	.L110:
 688:./../../firmware/GD32VF103_standard_peripheral/Source/gd32vf103_adc.c ****         break;
 1205              		.loc 1 688 9 is_stmt 1
 688:./../../firmware/GD32VF103_standard_peripheral/Source/gd32vf103_adc.c ****         break;
 1206              		.loc 1 688 30 is_stmt 0
 1207 002c 5C41     		lw	a5,4(a0)
 1208 002e 37074000 		li	a4,4194304
 1209 0032 D5BF     		j	.L113
 1210              	.L111:
 692:./../../firmware/GD32VF103_standard_peripheral/Source/gd32vf103_adc.c ****         break;
 1211              		.loc 1 692 9 is_stmt 1
 692:./../../firmware/GD32VF103_standard_peripheral/Source/gd32vf103_adc.c ****         break;
 1212              		.loc 1 692 30 is_stmt 0
 1213 0034 5C41     		lw	a5,4(a0)
 1214 0036 3707C000 		li	a4,12582912
 1215 003a F5B7     		j	.L113
 1216              		.cfi_endproc
 1217              	.LFE25:
 1219              		.section	.text.adc_watchdog_disable,"ax",@progbits
 1220              		.align	1
 1221              		.globl	adc_watchdog_disable
 1223              	adc_watchdog_disable:
 1224              	.LFB26:
 698:./../../firmware/GD32VF103_standard_peripheral/Source/gd32vf103_adc.c **** 
 699:./../../firmware/GD32VF103_standard_peripheral/Source/gd32vf103_adc.c **** /*!
 700:./../../firmware/GD32VF103_standard_peripheral/Source/gd32vf103_adc.c ****     \brief      disable ADC analog watchdog 
 701:./../../firmware/GD32VF103_standard_peripheral/Source/gd32vf103_adc.c ****     \param[in]  adc_periph: ADCx, x=0,1
 702:./../../firmware/GD32VF103_standard_peripheral/Source/gd32vf103_adc.c ****     \param[out] none
 703:./../../firmware/GD32VF103_standard_peripheral/Source/gd32vf103_adc.c ****     \retval     none
 704:./../../firmware/GD32VF103_standard_peripheral/Source/gd32vf103_adc.c **** */
 705:./../../firmware/GD32VF103_standard_peripheral/Source/gd32vf103_adc.c **** void adc_watchdog_disable(uint32_t adc_periph)
 706:./../../firmware/GD32VF103_standard_peripheral/Source/gd32vf103_adc.c **** {
 1225              		.loc 1 706 1 is_stmt 1
 1226              		.cfi_startproc
 1227              	.LVL102:
 707:./../../firmware/GD32VF103_standard_peripheral/Source/gd32vf103_adc.c ****     ADC_CTL0(adc_periph) &= (uint32_t)~(ADC_CTL0_RWDEN | ADC_CTL0_IWDEN | ADC_CTL0_WDSC | ADC_CTL0_
 1228              		.loc 1 707 5
 1229              		.loc 1 707 26 is_stmt 0
 1230 0000 5C41     		lw	a5,4(a0)
 1231 0002 370740FF 		li	a4,-12582912
GAS LISTING C:\Users\Karzan\AppData\Local\Temp\ccBvNvkC.s 			page 36


 1232 0006 130707DE 		addi	a4,a4,-544
 1233 000a F98F     		and	a5,a5,a4
 1234 000c 5CC1     		sw	a5,4(a0)
 708:./../../firmware/GD32VF103_standard_peripheral/Source/gd32vf103_adc.c **** }
 1235              		.loc 1 708 1
 1236 000e 8280     		ret
 1237              		.cfi_endproc
 1238              	.LFE26:
 1240              		.section	.text.adc_watchdog_threshold_config,"ax",@progbits
 1241              		.align	1
 1242              		.globl	adc_watchdog_threshold_config
 1244              	adc_watchdog_threshold_config:
 1245              	.LFB27:
 709:./../../firmware/GD32VF103_standard_peripheral/Source/gd32vf103_adc.c **** 
 710:./../../firmware/GD32VF103_standard_peripheral/Source/gd32vf103_adc.c **** /*!
 711:./../../firmware/GD32VF103_standard_peripheral/Source/gd32vf103_adc.c ****     \brief      configure ADC analog watchdog threshold 
 712:./../../firmware/GD32VF103_standard_peripheral/Source/gd32vf103_adc.c ****     \param[in]  adc_periph: ADCx, x=0,1
 713:./../../firmware/GD32VF103_standard_peripheral/Source/gd32vf103_adc.c ****     \param[in]  low_threshold: analog watchdog low threshold, 0..4095
 714:./../../firmware/GD32VF103_standard_peripheral/Source/gd32vf103_adc.c ****     \param[in]  high_threshold: analog watchdog high threshold, 0..4095
 715:./../../firmware/GD32VF103_standard_peripheral/Source/gd32vf103_adc.c ****     \param[out] none
 716:./../../firmware/GD32VF103_standard_peripheral/Source/gd32vf103_adc.c ****     \retval     none
 717:./../../firmware/GD32VF103_standard_peripheral/Source/gd32vf103_adc.c **** */
 718:./../../firmware/GD32VF103_standard_peripheral/Source/gd32vf103_adc.c **** void adc_watchdog_threshold_config(uint32_t adc_periph, uint16_t low_threshold, uint16_t high_thres
 719:./../../firmware/GD32VF103_standard_peripheral/Source/gd32vf103_adc.c **** {
 1246              		.loc 1 719 1 is_stmt 1
 1247              		.cfi_startproc
 1248              	.LVL103:
 720:./../../firmware/GD32VF103_standard_peripheral/Source/gd32vf103_adc.c ****     ADC_WDLT(adc_periph) = (uint32_t)WDLT_WDLT(low_threshold);
 1249              		.loc 1 720 5
 1250              		.loc 1 720 28 is_stmt 0
 1251 0000 8567     		li	a5,4096
 1252 0002 FD17     		addi	a5,a5,-1
 1253 0004 FD8D     		and	a1,a1,a5
 1254              	.LVL104:
 1255              		.loc 1 720 26
 1256 0006 0CD5     		sw	a1,40(a0)
 721:./../../firmware/GD32VF103_standard_peripheral/Source/gd32vf103_adc.c ****     ADC_WDHT(adc_periph) = (uint32_t)WDHT_WDHT(high_threshold);
 1257              		.loc 1 721 5 is_stmt 1
 1258              		.loc 1 721 28 is_stmt 0
 1259 0008 7D8E     		and	a2,a2,a5
 1260              	.LVL105:
 1261              		.loc 1 721 26
 1262 000a 50D1     		sw	a2,36(a0)
 722:./../../firmware/GD32VF103_standard_peripheral/Source/gd32vf103_adc.c **** }
 1263              		.loc 1 722 1
 1264 000c 8280     		ret
 1265              		.cfi_endproc
 1266              	.LFE27:
 1268              		.section	.text.adc_flag_get,"ax",@progbits
 1269              		.align	1
 1270              		.globl	adc_flag_get
 1272              	adc_flag_get:
 1273              	.LFB28:
 723:./../../firmware/GD32VF103_standard_peripheral/Source/gd32vf103_adc.c **** 
 724:./../../firmware/GD32VF103_standard_peripheral/Source/gd32vf103_adc.c **** /*!
 725:./../../firmware/GD32VF103_standard_peripheral/Source/gd32vf103_adc.c ****     \brief      get the ADC flag bits
 726:./../../firmware/GD32VF103_standard_peripheral/Source/gd32vf103_adc.c ****     \param[in]  adc_periph: ADCx, x=0,1
GAS LISTING C:\Users\Karzan\AppData\Local\Temp\ccBvNvkC.s 			page 37


 727:./../../firmware/GD32VF103_standard_peripheral/Source/gd32vf103_adc.c ****     \param[in]  adc_flag: the adc flag bits
 728:./../../firmware/GD32VF103_standard_peripheral/Source/gd32vf103_adc.c ****                 only one parameter can be selected which is shown as below:
 729:./../../firmware/GD32VF103_standard_peripheral/Source/gd32vf103_adc.c ****       \arg        ADC_FLAG_WDE: analog watchdog event flag
 730:./../../firmware/GD32VF103_standard_peripheral/Source/gd32vf103_adc.c ****       \arg        ADC_FLAG_EOC: end of group conversion flag
 731:./../../firmware/GD32VF103_standard_peripheral/Source/gd32vf103_adc.c ****       \arg        ADC_FLAG_EOIC: end of inserted group conversion flag
 732:./../../firmware/GD32VF103_standard_peripheral/Source/gd32vf103_adc.c ****       \arg        ADC_FLAG_STIC: start flag of inserted channel group
 733:./../../firmware/GD32VF103_standard_peripheral/Source/gd32vf103_adc.c ****       \arg        ADC_FLAG_STRC: start flag of regular channel group
 734:./../../firmware/GD32VF103_standard_peripheral/Source/gd32vf103_adc.c ****     \param[out] none
 735:./../../firmware/GD32VF103_standard_peripheral/Source/gd32vf103_adc.c ****     \retval     FlagStatus: SET or RESET
 736:./../../firmware/GD32VF103_standard_peripheral/Source/gd32vf103_adc.c **** */
 737:./../../firmware/GD32VF103_standard_peripheral/Source/gd32vf103_adc.c **** FlagStatus adc_flag_get(uint32_t adc_periph, uint32_t adc_flag)
 738:./../../firmware/GD32VF103_standard_peripheral/Source/gd32vf103_adc.c **** {
 1274              		.loc 1 738 1 is_stmt 1
 1275              		.cfi_startproc
 1276              	.LVL106:
 739:./../../firmware/GD32VF103_standard_peripheral/Source/gd32vf103_adc.c ****     FlagStatus reval = RESET;
 1277              		.loc 1 739 5
 740:./../../firmware/GD32VF103_standard_peripheral/Source/gd32vf103_adc.c ****     if(ADC_STAT(adc_periph) & adc_flag){
 1278              		.loc 1 740 5
 1279              		.loc 1 740 8 is_stmt 0
 1280 0000 0841     		lw	a0,0(a0)
 1281              	.LVL107:
 741:./../../firmware/GD32VF103_standard_peripheral/Source/gd32vf103_adc.c ****         reval = SET;
 742:./../../firmware/GD32VF103_standard_peripheral/Source/gd32vf103_adc.c ****     }
 743:./../../firmware/GD32VF103_standard_peripheral/Source/gd32vf103_adc.c ****     return reval;
 1282              		.loc 1 743 5 is_stmt 1
 740:./../../firmware/GD32VF103_standard_peripheral/Source/gd32vf103_adc.c ****     if(ADC_STAT(adc_periph) & adc_flag){
 1283              		.loc 1 740 29 is_stmt 0
 1284 0002 6D8D     		and	a0,a0,a1
 1285              	.LVL108:
 744:./../../firmware/GD32VF103_standard_peripheral/Source/gd32vf103_adc.c **** }
 1286              		.loc 1 744 1
 1287 0004 3335A000 		snez	a0,a0
 1288 0008 8280     		ret
 1289              		.cfi_endproc
 1290              	.LFE28:
 1292              		.section	.text.adc_flag_clear,"ax",@progbits
 1293              		.align	1
 1294              		.globl	adc_flag_clear
 1296              	adc_flag_clear:
 1297              	.LFB29:
 745:./../../firmware/GD32VF103_standard_peripheral/Source/gd32vf103_adc.c **** 
 746:./../../firmware/GD32VF103_standard_peripheral/Source/gd32vf103_adc.c **** /*!
 747:./../../firmware/GD32VF103_standard_peripheral/Source/gd32vf103_adc.c ****     \brief      clear the ADC flag bits
 748:./../../firmware/GD32VF103_standard_peripheral/Source/gd32vf103_adc.c ****     \param[in]  adc_periph: ADCx, x=0,1
 749:./../../firmware/GD32VF103_standard_peripheral/Source/gd32vf103_adc.c ****     \param[in]  adc_flag: the adc flag bits
 750:./../../firmware/GD32VF103_standard_peripheral/Source/gd32vf103_adc.c ****                 one or more parameters can be selected which are shown as below:
 751:./../../firmware/GD32VF103_standard_peripheral/Source/gd32vf103_adc.c ****       \arg        ADC_FLAG_WDE: analog watchdog event flag
 752:./../../firmware/GD32VF103_standard_peripheral/Source/gd32vf103_adc.c ****       \arg        ADC_FLAG_EOC: end of group conversion flag
 753:./../../firmware/GD32VF103_standard_peripheral/Source/gd32vf103_adc.c ****       \arg        ADC_FLAG_EOIC: end of inserted group conversion flag
 754:./../../firmware/GD32VF103_standard_peripheral/Source/gd32vf103_adc.c ****       \arg        ADC_FLAG_STIC: start flag of inserted channel group
 755:./../../firmware/GD32VF103_standard_peripheral/Source/gd32vf103_adc.c ****       \arg        ADC_FLAG_STRC: start flag of regular channel group
 756:./../../firmware/GD32VF103_standard_peripheral/Source/gd32vf103_adc.c ****     \param[out] none
 757:./../../firmware/GD32VF103_standard_peripheral/Source/gd32vf103_adc.c ****     \retval     none
 758:./../../firmware/GD32VF103_standard_peripheral/Source/gd32vf103_adc.c **** */
 759:./../../firmware/GD32VF103_standard_peripheral/Source/gd32vf103_adc.c **** void adc_flag_clear(uint32_t adc_periph, uint32_t adc_flag)
 760:./../../firmware/GD32VF103_standard_peripheral/Source/gd32vf103_adc.c **** {
GAS LISTING C:\Users\Karzan\AppData\Local\Temp\ccBvNvkC.s 			page 38


 1298              		.loc 1 760 1 is_stmt 1
 1299              		.cfi_startproc
 1300              	.LVL109:
 761:./../../firmware/GD32VF103_standard_peripheral/Source/gd32vf103_adc.c ****     ADC_STAT(adc_periph) &= ~((uint32_t)adc_flag);
 1301              		.loc 1 761 5
 1302              		.loc 1 761 26 is_stmt 0
 1303 0000 1C41     		lw	a5,0(a0)
 1304              		.loc 1 761 29
 1305 0002 93C5F5FF 		not	a1,a1
 1306              	.LVL110:
 1307              		.loc 1 761 26
 1308 0006 FD8D     		and	a1,a1,a5
 1309              	.LVL111:
 1310 0008 0CC1     		sw	a1,0(a0)
 762:./../../firmware/GD32VF103_standard_peripheral/Source/gd32vf103_adc.c **** }
 1311              		.loc 1 762 1
 1312 000a 8280     		ret
 1313              		.cfi_endproc
 1314              	.LFE29:
 1316              		.section	.text.adc_regular_software_startconv_flag_get,"ax",@progbits
 1317              		.align	1
 1318              		.globl	adc_regular_software_startconv_flag_get
 1320              	adc_regular_software_startconv_flag_get:
 1321              	.LFB30:
 763:./../../firmware/GD32VF103_standard_peripheral/Source/gd32vf103_adc.c **** 
 764:./../../firmware/GD32VF103_standard_peripheral/Source/gd32vf103_adc.c **** /*!
 765:./../../firmware/GD32VF103_standard_peripheral/Source/gd32vf103_adc.c ****     \brief      get the bit state of ADCx software start conversion
 766:./../../firmware/GD32VF103_standard_peripheral/Source/gd32vf103_adc.c ****     \param[in]  adc_periph: ADCx, x=0,1
 767:./../../firmware/GD32VF103_standard_peripheral/Source/gd32vf103_adc.c ****     \param[in]  none
 768:./../../firmware/GD32VF103_standard_peripheral/Source/gd32vf103_adc.c ****     \param[out] none
 769:./../../firmware/GD32VF103_standard_peripheral/Source/gd32vf103_adc.c ****     \retval     FlagStatus: SET or RESET
 770:./../../firmware/GD32VF103_standard_peripheral/Source/gd32vf103_adc.c **** */
 771:./../../firmware/GD32VF103_standard_peripheral/Source/gd32vf103_adc.c **** FlagStatus adc_regular_software_startconv_flag_get(uint32_t adc_periph)
 772:./../../firmware/GD32VF103_standard_peripheral/Source/gd32vf103_adc.c **** {
 1322              		.loc 1 772 1 is_stmt 1
 1323              		.cfi_startproc
 1324              	.LVL112:
 773:./../../firmware/GD32VF103_standard_peripheral/Source/gd32vf103_adc.c ****     FlagStatus reval = RESET;
 1325              		.loc 1 773 5
 774:./../../firmware/GD32VF103_standard_peripheral/Source/gd32vf103_adc.c ****     if((uint32_t)RESET != (ADC_CTL1(adc_periph) & ADC_CTL1_SWRCST)){
 1326              		.loc 1 774 5
 1327              		.loc 1 774 28 is_stmt 0
 1328 0000 0845     		lw	a0,8(a0)
 1329              	.LVL113:
 775:./../../firmware/GD32VF103_standard_peripheral/Source/gd32vf103_adc.c ****         reval = SET;
 776:./../../firmware/GD32VF103_standard_peripheral/Source/gd32vf103_adc.c ****     }
 777:./../../firmware/GD32VF103_standard_peripheral/Source/gd32vf103_adc.c ****     return reval;
 1330              		.loc 1 777 5 is_stmt 1
 774:./../../firmware/GD32VF103_standard_peripheral/Source/gd32vf103_adc.c ****     if((uint32_t)RESET != (ADC_CTL1(adc_periph) & ADC_CTL1_SWRCST)){
 1331              		.loc 1 774 7 is_stmt 0
 1332 0002 5981     		srli	a0,a0,22
 1333              	.LVL114:
 778:./../../firmware/GD32VF103_standard_peripheral/Source/gd32vf103_adc.c **** }
 1334              		.loc 1 778 1
 1335 0004 0589     		andi	a0,a0,1
 1336 0006 8280     		ret
 1337              		.cfi_endproc
GAS LISTING C:\Users\Karzan\AppData\Local\Temp\ccBvNvkC.s 			page 39


 1338              	.LFE30:
 1340              		.section	.text.adc_inserted_software_startconv_flag_get,"ax",@progbits
 1341              		.align	1
 1342              		.globl	adc_inserted_software_startconv_flag_get
 1344              	adc_inserted_software_startconv_flag_get:
 1345              	.LFB31:
 779:./../../firmware/GD32VF103_standard_peripheral/Source/gd32vf103_adc.c **** 
 780:./../../firmware/GD32VF103_standard_peripheral/Source/gd32vf103_adc.c **** /*!
 781:./../../firmware/GD32VF103_standard_peripheral/Source/gd32vf103_adc.c ****     \brief      get the bit state of ADCx software inserted channel start conversion
 782:./../../firmware/GD32VF103_standard_peripheral/Source/gd32vf103_adc.c ****     \param[in]  adc_periph: ADCx, x=0,1
 783:./../../firmware/GD32VF103_standard_peripheral/Source/gd32vf103_adc.c ****     \param[in]  none
 784:./../../firmware/GD32VF103_standard_peripheral/Source/gd32vf103_adc.c ****     \param[out] none
 785:./../../firmware/GD32VF103_standard_peripheral/Source/gd32vf103_adc.c ****     \retval     FlagStatus: SET or RESET
 786:./../../firmware/GD32VF103_standard_peripheral/Source/gd32vf103_adc.c **** */
 787:./../../firmware/GD32VF103_standard_peripheral/Source/gd32vf103_adc.c **** FlagStatus adc_inserted_software_startconv_flag_get(uint32_t adc_periph)
 788:./../../firmware/GD32VF103_standard_peripheral/Source/gd32vf103_adc.c **** {
 1346              		.loc 1 788 1 is_stmt 1
 1347              		.cfi_startproc
 1348              	.LVL115:
 789:./../../firmware/GD32VF103_standard_peripheral/Source/gd32vf103_adc.c ****     FlagStatus reval = RESET;
 1349              		.loc 1 789 5
 790:./../../firmware/GD32VF103_standard_peripheral/Source/gd32vf103_adc.c ****     if((uint32_t)RESET != (ADC_CTL1(adc_periph) & ADC_CTL1_SWICST)){
 1350              		.loc 1 790 5
 1351              		.loc 1 790 28 is_stmt 0
 1352 0000 0845     		lw	a0,8(a0)
 1353              	.LVL116:
 791:./../../firmware/GD32VF103_standard_peripheral/Source/gd32vf103_adc.c ****         reval = SET;
 792:./../../firmware/GD32VF103_standard_peripheral/Source/gd32vf103_adc.c ****     }
 793:./../../firmware/GD32VF103_standard_peripheral/Source/gd32vf103_adc.c ****     return reval;
 1354              		.loc 1 793 5 is_stmt 1
 790:./../../firmware/GD32VF103_standard_peripheral/Source/gd32vf103_adc.c ****     if((uint32_t)RESET != (ADC_CTL1(adc_periph) & ADC_CTL1_SWICST)){
 1355              		.loc 1 790 7 is_stmt 0
 1356 0002 5581     		srli	a0,a0,21
 1357              	.LVL117:
 794:./../../firmware/GD32VF103_standard_peripheral/Source/gd32vf103_adc.c **** }
 1358              		.loc 1 794 1
 1359 0004 0589     		andi	a0,a0,1
 1360 0006 8280     		ret
 1361              		.cfi_endproc
 1362              	.LFE31:
 1364              		.section	.text.adc_interrupt_flag_get,"ax",@progbits
 1365              		.align	1
 1366              		.globl	adc_interrupt_flag_get
 1368              	adc_interrupt_flag_get:
 1369              	.LFB32:
 795:./../../firmware/GD32VF103_standard_peripheral/Source/gd32vf103_adc.c **** 
 796:./../../firmware/GD32VF103_standard_peripheral/Source/gd32vf103_adc.c **** /*!
 797:./../../firmware/GD32VF103_standard_peripheral/Source/gd32vf103_adc.c ****     \brief      get the ADC interrupt bits
 798:./../../firmware/GD32VF103_standard_peripheral/Source/gd32vf103_adc.c ****     \param[in]  adc_periph: ADCx, x=0,1
 799:./../../firmware/GD32VF103_standard_peripheral/Source/gd32vf103_adc.c ****     \param[in]  adc_interrupt: the adc interrupt bits
 800:./../../firmware/GD32VF103_standard_peripheral/Source/gd32vf103_adc.c ****                 only one parameter can be selected which is shown as below:
 801:./../../firmware/GD32VF103_standard_peripheral/Source/gd32vf103_adc.c ****       \arg        ADC_INT_FLAG_WDE: analog watchdog interrupt
 802:./../../firmware/GD32VF103_standard_peripheral/Source/gd32vf103_adc.c ****       \arg        ADC_INT_FLAG_EOC: end of group conversion interrupt
 803:./../../firmware/GD32VF103_standard_peripheral/Source/gd32vf103_adc.c ****       \arg        ADC_INT_FLAG_EOIC: end of inserted group conversion interrupt
 804:./../../firmware/GD32VF103_standard_peripheral/Source/gd32vf103_adc.c ****     \param[out] none
 805:./../../firmware/GD32VF103_standard_peripheral/Source/gd32vf103_adc.c ****     \retval     FlagStatus: SET or RESET
 806:./../../firmware/GD32VF103_standard_peripheral/Source/gd32vf103_adc.c **** */
GAS LISTING C:\Users\Karzan\AppData\Local\Temp\ccBvNvkC.s 			page 40


 807:./../../firmware/GD32VF103_standard_peripheral/Source/gd32vf103_adc.c **** FlagStatus adc_interrupt_flag_get(uint32_t adc_periph, uint32_t adc_interrupt)
 808:./../../firmware/GD32VF103_standard_peripheral/Source/gd32vf103_adc.c **** {
 1370              		.loc 1 808 1 is_stmt 1
 1371              		.cfi_startproc
 1372              	.LVL118:
 809:./../../firmware/GD32VF103_standard_peripheral/Source/gd32vf103_adc.c ****     FlagStatus interrupt_flag = RESET;
 1373              		.loc 1 809 5
 810:./../../firmware/GD32VF103_standard_peripheral/Source/gd32vf103_adc.c ****     uint32_t state;
 1374              		.loc 1 810 5
 811:./../../firmware/GD32VF103_standard_peripheral/Source/gd32vf103_adc.c ****     /* check the interrupt bits */
 812:./../../firmware/GD32VF103_standard_peripheral/Source/gd32vf103_adc.c ****     switch(adc_interrupt){
 1375              		.loc 1 812 5
 1376 0000 8947     		li	a5,2
 1377 0002 6382F502 		beq	a1,a5,.L121
 1378 0006 9147     		li	a5,4
 1379 0008 6388F502 		beq	a1,a5,.L122
 1380 000c 0547     		li	a4,1
 809:./../../firmware/GD32VF103_standard_peripheral/Source/gd32vf103_adc.c ****     uint32_t state;
 1381              		.loc 1 809 16 is_stmt 0
 1382 000e 8147     		li	a5,0
 1383              		.loc 1 812 5
 1384 0010 6399E500 		bne	a1,a4,.L120
 813:./../../firmware/GD32VF103_standard_peripheral/Source/gd32vf103_adc.c ****     case ADC_INT_FLAG_WDE:
 814:./../../firmware/GD32VF103_standard_peripheral/Source/gd32vf103_adc.c ****         /* get the ADC analog watchdog interrupt bits */
 815:./../../firmware/GD32VF103_standard_peripheral/Source/gd32vf103_adc.c ****         state = ADC_STAT(adc_periph) & ADC_STAT_WDE;
 1385              		.loc 1 815 9 is_stmt 1
 1386              		.loc 1 815 17 is_stmt 0
 1387 0014 1841     		lw	a4,0(a0)
 1388              	.LVL119:
 816:./../../firmware/GD32VF103_standard_peripheral/Source/gd32vf103_adc.c ****         if((ADC_CTL0(adc_periph) & ADC_CTL0_WDEIE) && state){
 1389              		.loc 1 816 9 is_stmt 1
 1390              		.loc 1 816 13 is_stmt 0
 1391 0016 5C41     		lw	a5,4(a0)
 1392              		.loc 1 816 34
 1393 0018 93F70704 		andi	a5,a5,64
 1394              		.loc 1 816 11
 1395 001c 99C3     		beq	a5,zero,.L120
 1396 001e 93771700 		andi	a5,a4,1
 1397              	.LVL120:
 1398              	.L120:
 817:./../../firmware/GD32VF103_standard_peripheral/Source/gd32vf103_adc.c ****           interrupt_flag = SET;
 818:./../../firmware/GD32VF103_standard_peripheral/Source/gd32vf103_adc.c ****         }
 819:./../../firmware/GD32VF103_standard_peripheral/Source/gd32vf103_adc.c ****         break;
 820:./../../firmware/GD32VF103_standard_peripheral/Source/gd32vf103_adc.c ****     case ADC_INT_FLAG_EOC:
 821:./../../firmware/GD32VF103_standard_peripheral/Source/gd32vf103_adc.c ****         /* get the ADC end of group conversion interrupt bits */
 822:./../../firmware/GD32VF103_standard_peripheral/Source/gd32vf103_adc.c ****         state = ADC_STAT(adc_periph) & ADC_STAT_EOC;
 823:./../../firmware/GD32VF103_standard_peripheral/Source/gd32vf103_adc.c ****           if((ADC_CTL0(adc_periph) & ADC_CTL0_EOCIE) && state){
 824:./../../firmware/GD32VF103_standard_peripheral/Source/gd32vf103_adc.c ****             interrupt_flag = SET;
 825:./../../firmware/GD32VF103_standard_peripheral/Source/gd32vf103_adc.c ****           }
 826:./../../firmware/GD32VF103_standard_peripheral/Source/gd32vf103_adc.c ****         break;
 827:./../../firmware/GD32VF103_standard_peripheral/Source/gd32vf103_adc.c ****     case ADC_INT_FLAG_EOIC:
 828:./../../firmware/GD32VF103_standard_peripheral/Source/gd32vf103_adc.c ****         /* get the ADC end of inserted group conversion interrupt bits */
 829:./../../firmware/GD32VF103_standard_peripheral/Source/gd32vf103_adc.c ****         state = ADC_STAT(adc_periph) & ADC_STAT_EOIC;
 830:./../../firmware/GD32VF103_standard_peripheral/Source/gd32vf103_adc.c ****         if((ADC_CTL0(adc_periph) & ADC_CTL0_EOICIE) && state){
 831:./../../firmware/GD32VF103_standard_peripheral/Source/gd32vf103_adc.c ****             interrupt_flag = SET;
 832:./../../firmware/GD32VF103_standard_peripheral/Source/gd32vf103_adc.c ****         }
 833:./../../firmware/GD32VF103_standard_peripheral/Source/gd32vf103_adc.c ****         break;
GAS LISTING C:\Users\Karzan\AppData\Local\Temp\ccBvNvkC.s 			page 41


 834:./../../firmware/GD32VF103_standard_peripheral/Source/gd32vf103_adc.c ****     default:
 835:./../../firmware/GD32VF103_standard_peripheral/Source/gd32vf103_adc.c ****         break;
 836:./../../firmware/GD32VF103_standard_peripheral/Source/gd32vf103_adc.c ****     }
 837:./../../firmware/GD32VF103_standard_peripheral/Source/gd32vf103_adc.c ****     return interrupt_flag;
 838:./../../firmware/GD32VF103_standard_peripheral/Source/gd32vf103_adc.c **** }
 1399              		.loc 1 838 1
 1400 0022 3E85     		mv	a0,a5
 1401              	.LVL121:
 1402 0024 8280     		ret
 1403              	.LVL122:
 1404              	.L121:
 822:./../../firmware/GD32VF103_standard_peripheral/Source/gd32vf103_adc.c ****           if((ADC_CTL0(adc_periph) & ADC_CTL0_EOCIE) && state){
 1405              		.loc 1 822 9 is_stmt 1
 822:./../../firmware/GD32VF103_standard_peripheral/Source/gd32vf103_adc.c ****           if((ADC_CTL0(adc_periph) & ADC_CTL0_EOCIE) && state){
 1406              		.loc 1 822 17 is_stmt 0
 1407 0026 1841     		lw	a4,0(a0)
 1408              	.LVL123:
 823:./../../firmware/GD32VF103_standard_peripheral/Source/gd32vf103_adc.c ****             interrupt_flag = SET;
 1409              		.loc 1 823 11 is_stmt 1
 823:./../../firmware/GD32VF103_standard_peripheral/Source/gd32vf103_adc.c ****             interrupt_flag = SET;
 1410              		.loc 1 823 15 is_stmt 0
 1411 0028 5C41     		lw	a5,4(a0)
 823:./../../firmware/GD32VF103_standard_peripheral/Source/gd32vf103_adc.c ****             interrupt_flag = SET;
 1412              		.loc 1 823 36
 1413 002a 93F70702 		andi	a5,a5,32
 823:./../../firmware/GD32VF103_standard_peripheral/Source/gd32vf103_adc.c ****             interrupt_flag = SET;
 1414              		.loc 1 823 13
 1415 002e F5DB     		beq	a5,zero,.L120
 823:./../../firmware/GD32VF103_standard_peripheral/Source/gd32vf103_adc.c ****             interrupt_flag = SET;
 1416              		.loc 1 823 54 discriminator 1
 1417 0030 93571700 		srli	a5,a4,1
 1418              	.LVL124:
 1419              	.L134:
 830:./../../firmware/GD32VF103_standard_peripheral/Source/gd32vf103_adc.c ****             interrupt_flag = SET;
 1420              		.loc 1 830 53 discriminator 1
 1421 0034 858B     		andi	a5,a5,1
 1422 0036 F5B7     		j	.L120
 1423              	.L122:
 829:./../../firmware/GD32VF103_standard_peripheral/Source/gd32vf103_adc.c ****         if((ADC_CTL0(adc_periph) & ADC_CTL0_EOICIE) && state){
 1424              		.loc 1 829 9 is_stmt 1
 829:./../../firmware/GD32VF103_standard_peripheral/Source/gd32vf103_adc.c ****         if((ADC_CTL0(adc_periph) & ADC_CTL0_EOICIE) && state){
 1425              		.loc 1 829 17 is_stmt 0
 1426 0038 1841     		lw	a4,0(a0)
 1427              	.LVL125:
 830:./../../firmware/GD32VF103_standard_peripheral/Source/gd32vf103_adc.c ****             interrupt_flag = SET;
 1428              		.loc 1 830 9 is_stmt 1
 830:./../../firmware/GD32VF103_standard_peripheral/Source/gd32vf103_adc.c ****             interrupt_flag = SET;
 1429              		.loc 1 830 13 is_stmt 0
 1430 003a 5C41     		lw	a5,4(a0)
 830:./../../firmware/GD32VF103_standard_peripheral/Source/gd32vf103_adc.c ****             interrupt_flag = SET;
 1431              		.loc 1 830 34
 1432 003c 93F70708 		andi	a5,a5,128
 830:./../../firmware/GD32VF103_standard_peripheral/Source/gd32vf103_adc.c ****             interrupt_flag = SET;
 1433              		.loc 1 830 11
 1434 0040 EDD3     		beq	a5,zero,.L120
 830:./../../firmware/GD32VF103_standard_peripheral/Source/gd32vf103_adc.c ****             interrupt_flag = SET;
 1435              		.loc 1 830 53 discriminator 1
GAS LISTING C:\Users\Karzan\AppData\Local\Temp\ccBvNvkC.s 			page 42


 1436 0042 93572700 		srli	a5,a4,2
 1437 0046 FDB7     		j	.L134
 1438              		.cfi_endproc
 1439              	.LFE32:
 1441              		.section	.text.adc_interrupt_flag_clear,"ax",@progbits
 1442              		.align	1
 1443              		.globl	adc_interrupt_flag_clear
 1445              	adc_interrupt_flag_clear:
 1446              	.LFB41:
 1447              		.cfi_startproc
 1448 0000 17030000 		tail	adc_flag_clear
 1448      67000300 
 1449              		.cfi_endproc
 1450              	.LFE41:
 1452              		.section	.text.adc_interrupt_enable,"ax",@progbits
 1453              		.align	1
 1454              		.globl	adc_interrupt_enable
 1456              	adc_interrupt_enable:
 1457              	.LFB34:
 839:./../../firmware/GD32VF103_standard_peripheral/Source/gd32vf103_adc.c **** 
 840:./../../firmware/GD32VF103_standard_peripheral/Source/gd32vf103_adc.c **** /*!
 841:./../../firmware/GD32VF103_standard_peripheral/Source/gd32vf103_adc.c ****     \brief      clear the ADC flag
 842:./../../firmware/GD32VF103_standard_peripheral/Source/gd32vf103_adc.c ****     \param[in]  adc_periph: ADCx, x=0,1
 843:./../../firmware/GD32VF103_standard_peripheral/Source/gd32vf103_adc.c ****     \param[in]  adc_interrupt: the adc status flag
 844:./../../firmware/GD32VF103_standard_peripheral/Source/gd32vf103_adc.c ****                 one or more parameters can be selected which are shown as below:
 845:./../../firmware/GD32VF103_standard_peripheral/Source/gd32vf103_adc.c ****       \arg        ADC_INT_FLAG_WDE: analog watchdog interrupt
 846:./../../firmware/GD32VF103_standard_peripheral/Source/gd32vf103_adc.c ****       \arg        ADC_INT_FLAG_EOC: end of group conversion interrupt
 847:./../../firmware/GD32VF103_standard_peripheral/Source/gd32vf103_adc.c ****       \arg        ADC_INT_FLAG_EOIC: end of inserted group conversion interrupt
 848:./../../firmware/GD32VF103_standard_peripheral/Source/gd32vf103_adc.c ****     \param[out] none
 849:./../../firmware/GD32VF103_standard_peripheral/Source/gd32vf103_adc.c ****     \retval     none
 850:./../../firmware/GD32VF103_standard_peripheral/Source/gd32vf103_adc.c **** */
 851:./../../firmware/GD32VF103_standard_peripheral/Source/gd32vf103_adc.c **** void adc_interrupt_flag_clear(uint32_t adc_periph, uint32_t adc_interrupt)
 852:./../../firmware/GD32VF103_standard_peripheral/Source/gd32vf103_adc.c **** {
 853:./../../firmware/GD32VF103_standard_peripheral/Source/gd32vf103_adc.c ****     ADC_STAT(adc_periph) &= ~((uint32_t)adc_interrupt);
 854:./../../firmware/GD32VF103_standard_peripheral/Source/gd32vf103_adc.c **** }
 855:./../../firmware/GD32VF103_standard_peripheral/Source/gd32vf103_adc.c **** 
 856:./../../firmware/GD32VF103_standard_peripheral/Source/gd32vf103_adc.c **** /*!
 857:./../../firmware/GD32VF103_standard_peripheral/Source/gd32vf103_adc.c ****     \brief      enable ADC interrupt 
 858:./../../firmware/GD32VF103_standard_peripheral/Source/gd32vf103_adc.c ****     \param[in]  adc_periph: ADCx, x=0,1
 859:./../../firmware/GD32VF103_standard_peripheral/Source/gd32vf103_adc.c ****     \param[in]  adc_interrupt: the adc interrupt
 860:./../../firmware/GD32VF103_standard_peripheral/Source/gd32vf103_adc.c ****                 one or more parameters can be selected which are shown as below:
 861:./../../firmware/GD32VF103_standard_peripheral/Source/gd32vf103_adc.c ****       \arg        ADC_INT_WDE: analog watchdog interrupt flag
 862:./../../firmware/GD32VF103_standard_peripheral/Source/gd32vf103_adc.c ****       \arg        ADC_INT_EOC: end of group conversion interrupt flag
 863:./../../firmware/GD32VF103_standard_peripheral/Source/gd32vf103_adc.c ****       \arg        ADC_INT_EOIC: end of inserted group conversion interrupt flag
 864:./../../firmware/GD32VF103_standard_peripheral/Source/gd32vf103_adc.c ****     \param[out] none
 865:./../../firmware/GD32VF103_standard_peripheral/Source/gd32vf103_adc.c ****     \retval     none
 866:./../../firmware/GD32VF103_standard_peripheral/Source/gd32vf103_adc.c **** */
 867:./../../firmware/GD32VF103_standard_peripheral/Source/gd32vf103_adc.c **** void adc_interrupt_enable(uint32_t adc_periph, uint32_t adc_interrupt)
 868:./../../firmware/GD32VF103_standard_peripheral/Source/gd32vf103_adc.c **** {
 1458              		.loc 1 868 1 is_stmt 1
 1459              		.cfi_startproc
 1460              	.LVL126:
 869:./../../firmware/GD32VF103_standard_peripheral/Source/gd32vf103_adc.c ****     /* enable ADC analog watchdog interrupt */
 870:./../../firmware/GD32VF103_standard_peripheral/Source/gd32vf103_adc.c ****     if(0U != (adc_interrupt & ADC_INT_WDE)){
 1461              		.loc 1 870 5
 1462              		.loc 1 870 29 is_stmt 0
 1463 0000 93F71500 		andi	a5,a1,1
GAS LISTING C:\Users\Karzan\AppData\Local\Temp\ccBvNvkC.s 			page 43


 1464              		.loc 1 870 7
 1465 0004 89C7     		beq	a5,zero,.L137
 871:./../../firmware/GD32VF103_standard_peripheral/Source/gd32vf103_adc.c ****         ADC_CTL0(adc_periph) |= (uint32_t) ADC_CTL0_WDEIE;
 1466              		.loc 1 871 9 is_stmt 1
 1467              		.loc 1 871 30 is_stmt 0
 1468 0006 5C41     		lw	a5,4(a0)
 1469 0008 93E70704 		ori	a5,a5,64
 1470 000c 5CC1     		sw	a5,4(a0)
 1471              	.L137:
 872:./../../firmware/GD32VF103_standard_peripheral/Source/gd32vf103_adc.c ****     }  
 873:./../../firmware/GD32VF103_standard_peripheral/Source/gd32vf103_adc.c ****     /* enable ADC end of group conversion interrupt */
 874:./../../firmware/GD32VF103_standard_peripheral/Source/gd32vf103_adc.c ****     if(0U != (adc_interrupt & ADC_INT_EOC)){      
 1472              		.loc 1 874 5 is_stmt 1
 1473              		.loc 1 874 29 is_stmt 0
 1474 000e 93F72500 		andi	a5,a1,2
 1475              		.loc 1 874 7
 1476 0012 89C7     		beq	a5,zero,.L138
 875:./../../firmware/GD32VF103_standard_peripheral/Source/gd32vf103_adc.c ****         ADC_CTL0(adc_periph) |= (uint32_t) ADC_CTL0_EOCIE;
 1477              		.loc 1 875 9 is_stmt 1
 1478              		.loc 1 875 30 is_stmt 0
 1479 0014 5C41     		lw	a5,4(a0)
 1480 0016 93E70702 		ori	a5,a5,32
 1481 001a 5CC1     		sw	a5,4(a0)
 1482              	.L138:
 876:./../../firmware/GD32VF103_standard_peripheral/Source/gd32vf103_adc.c ****     }  
 877:./../../firmware/GD32VF103_standard_peripheral/Source/gd32vf103_adc.c ****     /* enable ADC end of inserted group conversion interrupt */
 878:./../../firmware/GD32VF103_standard_peripheral/Source/gd32vf103_adc.c ****     if(0U != (adc_interrupt & ADC_INT_EOIC)){      
 1483              		.loc 1 878 5 is_stmt 1
 1484              		.loc 1 878 29 is_stmt 0
 1485 001c 9189     		andi	a1,a1,4
 1486              	.LVL127:
 1487              		.loc 1 878 7
 1488 001e 89C5     		beq	a1,zero,.L136
 879:./../../firmware/GD32VF103_standard_peripheral/Source/gd32vf103_adc.c ****         ADC_CTL0(adc_periph) |= (uint32_t) ADC_CTL0_EOICIE;
 1489              		.loc 1 879 9 is_stmt 1
 1490              		.loc 1 879 30 is_stmt 0
 1491 0020 5C41     		lw	a5,4(a0)
 1492 0022 93E70708 		ori	a5,a5,128
 1493 0026 5CC1     		sw	a5,4(a0)
 1494              	.L136:
 880:./../../firmware/GD32VF103_standard_peripheral/Source/gd32vf103_adc.c ****     }
 881:./../../firmware/GD32VF103_standard_peripheral/Source/gd32vf103_adc.c **** }
 1495              		.loc 1 881 1
 1496 0028 8280     		ret
 1497              		.cfi_endproc
 1498              	.LFE34:
 1500              		.section	.text.adc_interrupt_disable,"ax",@progbits
 1501              		.align	1
 1502              		.globl	adc_interrupt_disable
 1504              	adc_interrupt_disable:
 1505              	.LFB35:
 882:./../../firmware/GD32VF103_standard_peripheral/Source/gd32vf103_adc.c **** 
 883:./../../firmware/GD32VF103_standard_peripheral/Source/gd32vf103_adc.c **** /*!
 884:./../../firmware/GD32VF103_standard_peripheral/Source/gd32vf103_adc.c ****     \brief      disable ADC interrupt 
 885:./../../firmware/GD32VF103_standard_peripheral/Source/gd32vf103_adc.c ****     \param[in]  adc_periph: ADCx, x=0,1
 886:./../../firmware/GD32VF103_standard_peripheral/Source/gd32vf103_adc.c ****     \param[in]  adc_interrupt: the adc interrupt flag
 887:./../../firmware/GD32VF103_standard_peripheral/Source/gd32vf103_adc.c ****                 one or more parameters can be selected which are shown as below:
GAS LISTING C:\Users\Karzan\AppData\Local\Temp\ccBvNvkC.s 			page 44


 888:./../../firmware/GD32VF103_standard_peripheral/Source/gd32vf103_adc.c ****       \arg        ADC_INT_WDE: analog watchdog interrupt flag
 889:./../../firmware/GD32VF103_standard_peripheral/Source/gd32vf103_adc.c ****       \arg        ADC_INT_EOC: end of group conversion interrupt flag
 890:./../../firmware/GD32VF103_standard_peripheral/Source/gd32vf103_adc.c ****       \arg        ADC_INT_EOIC: end of inserted group conversion interrupt flag
 891:./../../firmware/GD32VF103_standard_peripheral/Source/gd32vf103_adc.c ****     \param[out] none
 892:./../../firmware/GD32VF103_standard_peripheral/Source/gd32vf103_adc.c ****     \retval     none
 893:./../../firmware/GD32VF103_standard_peripheral/Source/gd32vf103_adc.c **** */
 894:./../../firmware/GD32VF103_standard_peripheral/Source/gd32vf103_adc.c **** void adc_interrupt_disable(uint32_t adc_periph, uint32_t adc_interrupt)
 895:./../../firmware/GD32VF103_standard_peripheral/Source/gd32vf103_adc.c **** {  
 1506              		.loc 1 895 1 is_stmt 1
 1507              		.cfi_startproc
 1508              	.LVL128:
 896:./../../firmware/GD32VF103_standard_peripheral/Source/gd32vf103_adc.c ****     /* disable ADC analog watchdog interrupt */
 897:./../../firmware/GD32VF103_standard_peripheral/Source/gd32vf103_adc.c ****     if(0U != (adc_interrupt & ADC_INT_WDE)){  
 1509              		.loc 1 897 5
 1510              		.loc 1 897 29 is_stmt 0
 1511 0000 93F71500 		andi	a5,a1,1
 1512              		.loc 1 897 7
 1513 0004 89C7     		beq	a5,zero,.L150
 898:./../../firmware/GD32VF103_standard_peripheral/Source/gd32vf103_adc.c ****         ADC_CTL0(adc_periph) &= ~(uint32_t) ADC_CTL0_WDEIE;
 1514              		.loc 1 898 9 is_stmt 1
 1515              		.loc 1 898 30 is_stmt 0
 1516 0006 5C41     		lw	a5,4(a0)
 1517 0008 93F7F7FB 		andi	a5,a5,-65
 1518 000c 5CC1     		sw	a5,4(a0)
 1519              	.L150:
 899:./../../firmware/GD32VF103_standard_peripheral/Source/gd32vf103_adc.c ****     }  
 900:./../../firmware/GD32VF103_standard_peripheral/Source/gd32vf103_adc.c ****     /* disable ADC end of group conversion interrupt */
 901:./../../firmware/GD32VF103_standard_peripheral/Source/gd32vf103_adc.c ****     if(0U != (adc_interrupt & ADC_INT_EOC)){      
 1520              		.loc 1 901 5 is_stmt 1
 1521              		.loc 1 901 29 is_stmt 0
 1522 000e 93F72500 		andi	a5,a1,2
 1523              		.loc 1 901 7
 1524 0012 89C7     		beq	a5,zero,.L151
 902:./../../firmware/GD32VF103_standard_peripheral/Source/gd32vf103_adc.c ****         ADC_CTL0(adc_periph) &= ~(uint32_t) ADC_CTL0_EOCIE;
 1525              		.loc 1 902 9 is_stmt 1
 1526              		.loc 1 902 30 is_stmt 0
 1527 0014 5C41     		lw	a5,4(a0)
 1528 0016 93F7F7FD 		andi	a5,a5,-33
 1529 001a 5CC1     		sw	a5,4(a0)
 1530              	.L151:
 903:./../../firmware/GD32VF103_standard_peripheral/Source/gd32vf103_adc.c ****     }  
 904:./../../firmware/GD32VF103_standard_peripheral/Source/gd32vf103_adc.c ****     /* disable ADC end of inserted group conversion interrupt */
 905:./../../firmware/GD32VF103_standard_peripheral/Source/gd32vf103_adc.c ****     if(0U != (adc_interrupt & ADC_INT_EOIC)){      
 1531              		.loc 1 905 5 is_stmt 1
 1532              		.loc 1 905 29 is_stmt 0
 1533 001c 9189     		andi	a1,a1,4
 1534              	.LVL129:
 1535              		.loc 1 905 7
 1536 001e 89C5     		beq	a1,zero,.L149
 906:./../../firmware/GD32VF103_standard_peripheral/Source/gd32vf103_adc.c ****         ADC_CTL0(adc_periph) &= ~(uint32_t) ADC_CTL0_EOICIE;
 1537              		.loc 1 906 9 is_stmt 1
 1538              		.loc 1 906 30 is_stmt 0
 1539 0020 5C41     		lw	a5,4(a0)
 1540 0022 93F7F7F7 		andi	a5,a5,-129
 1541 0026 5CC1     		sw	a5,4(a0)
 1542              	.L149:
 907:./../../firmware/GD32VF103_standard_peripheral/Source/gd32vf103_adc.c ****     }
GAS LISTING C:\Users\Karzan\AppData\Local\Temp\ccBvNvkC.s 			page 45


 908:./../../firmware/GD32VF103_standard_peripheral/Source/gd32vf103_adc.c **** }
 1543              		.loc 1 908 1
 1544 0028 8280     		ret
 1545              		.cfi_endproc
 1546              	.LFE35:
 1548              		.section	.text.adc_resolution_config,"ax",@progbits
 1549              		.align	1
 1550              		.globl	adc_resolution_config
 1552              	adc_resolution_config:
 1553              	.LFB36:
 909:./../../firmware/GD32VF103_standard_peripheral/Source/gd32vf103_adc.c **** 
 910:./../../firmware/GD32VF103_standard_peripheral/Source/gd32vf103_adc.c **** /*!
 911:./../../firmware/GD32VF103_standard_peripheral/Source/gd32vf103_adc.c ****     \brief      adc resolution config
 912:./../../firmware/GD32VF103_standard_peripheral/Source/gd32vf103_adc.c ****     \param[in]  adc_periph: ADCx, x=0,1
 913:./../../firmware/GD32VF103_standard_peripheral/Source/gd32vf103_adc.c ****     \param[in]  resolution: ADC resolution
 914:./../../firmware/GD32VF103_standard_peripheral/Source/gd32vf103_adc.c ****                 only one parameter can be selected which is shown as below:
 915:./../../firmware/GD32VF103_standard_peripheral/Source/gd32vf103_adc.c ****       \arg        ADC_RESOLUTION_12B: 12-bit ADC resolution
 916:./../../firmware/GD32VF103_standard_peripheral/Source/gd32vf103_adc.c ****       \arg        ADC_RESOLUTION_10B: 10-bit ADC resolution
 917:./../../firmware/GD32VF103_standard_peripheral/Source/gd32vf103_adc.c ****       \arg        ADC_RESOLUTION_8B: 8-bit ADC resolution
 918:./../../firmware/GD32VF103_standard_peripheral/Source/gd32vf103_adc.c ****       \arg        ADC_RESOLUTION_6B: 6-bit ADC resolution
 919:./../../firmware/GD32VF103_standard_peripheral/Source/gd32vf103_adc.c ****     \param[out] none
 920:./../../firmware/GD32VF103_standard_peripheral/Source/gd32vf103_adc.c ****     \retval     none
 921:./../../firmware/GD32VF103_standard_peripheral/Source/gd32vf103_adc.c **** */
 922:./../../firmware/GD32VF103_standard_peripheral/Source/gd32vf103_adc.c **** void adc_resolution_config(uint32_t adc_periph, uint32_t resolution)
 923:./../../firmware/GD32VF103_standard_peripheral/Source/gd32vf103_adc.c **** {
 1554              		.loc 1 923 1 is_stmt 1
 1555              		.cfi_startproc
 1556              	.LVL130:
 924:./../../firmware/GD32VF103_standard_peripheral/Source/gd32vf103_adc.c ****     ADC_OVSCR(adc_periph) &= ~((uint32_t)ADC_OVSCR_DRES);
 1557              		.loc 1 924 5
 1558              		.loc 1 924 27 is_stmt 0
 1559 0000 83270508 		lw	a5,128(a0)
 1560 0004 7577     		li	a4,-12288
 1561 0006 7D17     		addi	a4,a4,-1
 1562 0008 F98F     		and	a5,a5,a4
 1563 000a 2320F508 		sw	a5,128(a0)
 925:./../../firmware/GD32VF103_standard_peripheral/Source/gd32vf103_adc.c ****     ADC_OVSCR(adc_periph) |= (uint32_t)resolution;
 1564              		.loc 1 925 5 is_stmt 1
 1565              		.loc 1 925 27 is_stmt 0
 1566 000e 83270508 		lw	a5,128(a0)
 1567 0012 DD8D     		or	a1,a5,a1
 1568              	.LVL131:
 1569 0014 2320B508 		sw	a1,128(a0)
 926:./../../firmware/GD32VF103_standard_peripheral/Source/gd32vf103_adc.c **** }
 1570              		.loc 1 926 1
 1571 0018 8280     		ret
 1572              		.cfi_endproc
 1573              	.LFE36:
 1575              		.section	.text.adc_oversample_mode_config,"ax",@progbits
 1576              		.align	1
 1577              		.globl	adc_oversample_mode_config
 1579              	adc_oversample_mode_config:
 1580              	.LFB37:
 927:./../../firmware/GD32VF103_standard_peripheral/Source/gd32vf103_adc.c **** 
 928:./../../firmware/GD32VF103_standard_peripheral/Source/gd32vf103_adc.c **** /*!
 929:./../../firmware/GD32VF103_standard_peripheral/Source/gd32vf103_adc.c ****     \brief      adc oversample mode config
 930:./../../firmware/GD32VF103_standard_peripheral/Source/gd32vf103_adc.c ****     \param[in]  adc_periph: ADCx, x=0,1
GAS LISTING C:\Users\Karzan\AppData\Local\Temp\ccBvNvkC.s 			page 46


 931:./../../firmware/GD32VF103_standard_peripheral/Source/gd32vf103_adc.c ****     \param[in]  mode: ADC oversampling mode
 932:./../../firmware/GD32VF103_standard_peripheral/Source/gd32vf103_adc.c ****                 only one parameter can be selected which is shown as below:
 933:./../../firmware/GD32VF103_standard_peripheral/Source/gd32vf103_adc.c ****       \arg        ADC_OVERSAMPLING_ALL_CONVERT: all oversampled conversions for a channel
 934:./../../firmware/GD32VF103_standard_peripheral/Source/gd32vf103_adc.c ****                 are done consecutively after a trigger
 935:./../../firmware/GD32VF103_standard_peripheral/Source/gd32vf103_adc.c ****       \arg        ADC_OVERSAMPLING_ONE_CONVERT: each oversampled conversion for a channel
 936:./../../firmware/GD32VF103_standard_peripheral/Source/gd32vf103_adc.c ****                 needs a trigger
 937:./../../firmware/GD32VF103_standard_peripheral/Source/gd32vf103_adc.c ****     \param[in]  shift: ADC oversampling shift
 938:./../../firmware/GD32VF103_standard_peripheral/Source/gd32vf103_adc.c ****                 only one parameter can be selected which is shown as below:
 939:./../../firmware/GD32VF103_standard_peripheral/Source/gd32vf103_adc.c ****       \arg        ADC_OVERSAMPLING_SHIFT_NONE: no oversampling shift
 940:./../../firmware/GD32VF103_standard_peripheral/Source/gd32vf103_adc.c ****       \arg        ADC_OVERSAMPLING_SHIFT_1B: 1-bit oversampling shift
 941:./../../firmware/GD32VF103_standard_peripheral/Source/gd32vf103_adc.c ****       \arg        ADC_OVERSAMPLING_SHIFT_2B: 2-bit oversampling shift
 942:./../../firmware/GD32VF103_standard_peripheral/Source/gd32vf103_adc.c ****       \arg        ADC_OVERSAMPLING_SHIFT_3B: 3-bit oversampling shift
 943:./../../firmware/GD32VF103_standard_peripheral/Source/gd32vf103_adc.c ****       \arg        ADC_OVERSAMPLING_SHIFT_4B: 3-bit oversampling shift
 944:./../../firmware/GD32VF103_standard_peripheral/Source/gd32vf103_adc.c ****       \arg        ADC_OVERSAMPLING_SHIFT_5B: 5-bit oversampling shift
 945:./../../firmware/GD32VF103_standard_peripheral/Source/gd32vf103_adc.c ****       \arg        ADC_OVERSAMPLING_SHIFT_6B: 6-bit oversampling shift
 946:./../../firmware/GD32VF103_standard_peripheral/Source/gd32vf103_adc.c ****       \arg        ADC_OVERSAMPLING_SHIFT_7B: 7-bit oversampling shift
 947:./../../firmware/GD32VF103_standard_peripheral/Source/gd32vf103_adc.c ****       \arg        ADC_OVERSAMPLING_SHIFT_8B: 8-bit oversampling shift
 948:./../../firmware/GD32VF103_standard_peripheral/Source/gd32vf103_adc.c ****     \param[in]  ratio: ADC oversampling ratio
 949:./../../firmware/GD32VF103_standard_peripheral/Source/gd32vf103_adc.c ****                 only one parameter can be selected which is shown as below:
 950:./../../firmware/GD32VF103_standard_peripheral/Source/gd32vf103_adc.c ****       \arg        ADC_OVERSAMPLING_RATIO_MUL2: oversampling ratio X2
 951:./../../firmware/GD32VF103_standard_peripheral/Source/gd32vf103_adc.c ****       \arg        ADC_OVERSAMPLING_RATIO_MUL4: oversampling ratio X4
 952:./../../firmware/GD32VF103_standard_peripheral/Source/gd32vf103_adc.c ****       \arg        ADC_OVERSAMPLING_RATIO_MUL8: oversampling ratio X8
 953:./../../firmware/GD32VF103_standard_peripheral/Source/gd32vf103_adc.c ****       \arg        ADC_OVERSAMPLING_RATIO_MUL16: oversampling ratio X16
 954:./../../firmware/GD32VF103_standard_peripheral/Source/gd32vf103_adc.c ****       \arg        ADC_OVERSAMPLING_RATIO_MUL32: oversampling ratio X32
 955:./../../firmware/GD32VF103_standard_peripheral/Source/gd32vf103_adc.c ****       \arg        ADC_OVERSAMPLING_RATIO_MUL64: oversampling ratio X64
 956:./../../firmware/GD32VF103_standard_peripheral/Source/gd32vf103_adc.c ****       \arg        ADC_OVERSAMPLING_RATIO_MUL128: oversampling ratio X128
 957:./../../firmware/GD32VF103_standard_peripheral/Source/gd32vf103_adc.c ****       \arg        ADC_OVERSAMPLING_RATIO_MUL256: oversampling ratio X256
 958:./../../firmware/GD32VF103_standard_peripheral/Source/gd32vf103_adc.c ****     \param[out] none
 959:./../../firmware/GD32VF103_standard_peripheral/Source/gd32vf103_adc.c ****     \retval     none
 960:./../../firmware/GD32VF103_standard_peripheral/Source/gd32vf103_adc.c **** */
 961:./../../firmware/GD32VF103_standard_peripheral/Source/gd32vf103_adc.c **** void adc_oversample_mode_config(uint32_t adc_periph, uint8_t mode, uint16_t shift,uint8_t ratio)
 962:./../../firmware/GD32VF103_standard_peripheral/Source/gd32vf103_adc.c **** {
 1581              		.loc 1 962 1 is_stmt 1
 1582              		.cfi_startproc
 1583              	.LVL132:
 963:./../../firmware/GD32VF103_standard_peripheral/Source/gd32vf103_adc.c ****     if(mode){
 1584              		.loc 1 963 5
 964:./../../firmware/GD32VF103_standard_peripheral/Source/gd32vf103_adc.c ****         ADC_OVSCR(adc_periph) |= (uint32_t)ADC_OVSCR_TOVS;
 1585              		.loc 1 964 31 is_stmt 0
 1586 0000 83270508 		lw	a5,128(a0)
 963:./../../firmware/GD32VF103_standard_peripheral/Source/gd32vf103_adc.c ****     if(mode){
 1587              		.loc 1 963 7
 1588 0004 95C1     		beq	a1,zero,.L164
 1589              		.loc 1 964 9 is_stmt 1
 1590              		.loc 1 964 31 is_stmt 0
 1591 0006 93E70720 		ori	a5,a5,512
 1592              	.L166:
 965:./../../firmware/GD32VF103_standard_peripheral/Source/gd32vf103_adc.c ****     }else{
 966:./../../firmware/GD32VF103_standard_peripheral/Source/gd32vf103_adc.c ****         ADC_OVSCR(adc_periph) &= ~((uint32_t)ADC_OVSCR_TOVS);
 1593              		.loc 1 966 31
 1594 000a 2320F508 		sw	a5,128(a0)
 967:./../../firmware/GD32VF103_standard_peripheral/Source/gd32vf103_adc.c ****     }
 968:./../../firmware/GD32VF103_standard_peripheral/Source/gd32vf103_adc.c ****     /* config the shift and ratio */
 969:./../../firmware/GD32VF103_standard_peripheral/Source/gd32vf103_adc.c ****     ADC_OVSCR(adc_periph) &= ~((uint32_t)(ADC_OVSCR_OVSR | ADC_OVSCR_OVSS));
 1595              		.loc 1 969 5 is_stmt 1
 1596              		.loc 1 969 27 is_stmt 0
 1597 000e 83270508 		lw	a5,128(a0)
GAS LISTING C:\Users\Karzan\AppData\Local\Temp\ccBvNvkC.s 			page 47


 970:./../../firmware/GD32VF103_standard_peripheral/Source/gd32vf103_adc.c ****     ADC_OVSCR(adc_periph) |= ((uint32_t)shift | (uint32_t)ratio);
 1598              		.loc 1 970 47
 1599 0012 558E     		or	a2,a2,a3
 1600              	.LVL133:
 969:./../../firmware/GD32VF103_standard_peripheral/Source/gd32vf103_adc.c ****     ADC_OVSCR(adc_periph) |= ((uint32_t)shift | (uint32_t)ratio);
 1601              		.loc 1 969 27
 1602 0014 93F737E0 		andi	a5,a5,-509
 1603 0018 2320F508 		sw	a5,128(a0)
 1604              		.loc 1 970 5 is_stmt 1
 1605              		.loc 1 970 27 is_stmt 0
 1606 001c 83270508 		lw	a5,128(a0)
 1607 0020 5D8E     		or	a2,a2,a5
 1608 0022 2320C508 		sw	a2,128(a0)
 971:./../../firmware/GD32VF103_standard_peripheral/Source/gd32vf103_adc.c **** }
 1609              		.loc 1 971 1
 1610 0026 8280     		ret
 1611              	.LVL134:
 1612              	.L164:
 966:./../../firmware/GD32VF103_standard_peripheral/Source/gd32vf103_adc.c ****     }
 1613              		.loc 1 966 9 is_stmt 1
 966:./../../firmware/GD32VF103_standard_peripheral/Source/gd32vf103_adc.c ****     }
 1614              		.loc 1 966 31 is_stmt 0
 1615 0028 93F7F7DF 		andi	a5,a5,-513
 1616 002c F9BF     		j	.L166
 1617              		.cfi_endproc
 1618              	.LFE37:
 1620              		.section	.text.adc_oversample_mode_enable,"ax",@progbits
 1621              		.align	1
 1622              		.globl	adc_oversample_mode_enable
 1624              	adc_oversample_mode_enable:
 1625              	.LFB38:
 972:./../../firmware/GD32VF103_standard_peripheral/Source/gd32vf103_adc.c **** 
 973:./../../firmware/GD32VF103_standard_peripheral/Source/gd32vf103_adc.c **** /*!
 974:./../../firmware/GD32VF103_standard_peripheral/Source/gd32vf103_adc.c ****     \brief      enable ADC oversample mode
 975:./../../firmware/GD32VF103_standard_peripheral/Source/gd32vf103_adc.c ****     \param[in]  adc_periph: ADCx, x=0,1
 976:./../../firmware/GD32VF103_standard_peripheral/Source/gd32vf103_adc.c ****     \param[out] none
 977:./../../firmware/GD32VF103_standard_peripheral/Source/gd32vf103_adc.c ****     \retval     none
 978:./../../firmware/GD32VF103_standard_peripheral/Source/gd32vf103_adc.c **** */
 979:./../../firmware/GD32VF103_standard_peripheral/Source/gd32vf103_adc.c **** void adc_oversample_mode_enable(uint32_t adc_periph)
 980:./../../firmware/GD32VF103_standard_peripheral/Source/gd32vf103_adc.c **** {
 1626              		.loc 1 980 1 is_stmt 1
 1627              		.cfi_startproc
 1628              	.LVL135:
 981:./../../firmware/GD32VF103_standard_peripheral/Source/gd32vf103_adc.c ****     ADC_OVSCR(adc_periph) |= ADC_OVSCR_OVSEN;
 1629              		.loc 1 981 5
 1630              		.loc 1 981 27 is_stmt 0
 1631 0000 83270508 		lw	a5,128(a0)
 1632 0004 93E71700 		ori	a5,a5,1
 1633 0008 2320F508 		sw	a5,128(a0)
 982:./../../firmware/GD32VF103_standard_peripheral/Source/gd32vf103_adc.c **** }
 1634              		.loc 1 982 1
 1635 000c 8280     		ret
 1636              		.cfi_endproc
 1637              	.LFE38:
 1639              		.section	.text.adc_oversample_mode_disable,"ax",@progbits
 1640              		.align	1
 1641              		.globl	adc_oversample_mode_disable
GAS LISTING C:\Users\Karzan\AppData\Local\Temp\ccBvNvkC.s 			page 48


 1643              	adc_oversample_mode_disable:
 1644              	.LFB39:
 983:./../../firmware/GD32VF103_standard_peripheral/Source/gd32vf103_adc.c **** 
 984:./../../firmware/GD32VF103_standard_peripheral/Source/gd32vf103_adc.c **** /*!
 985:./../../firmware/GD32VF103_standard_peripheral/Source/gd32vf103_adc.c ****     \brief      disable ADC oversample mode
 986:./../../firmware/GD32VF103_standard_peripheral/Source/gd32vf103_adc.c ****     \param[in]  adc_periph: ADCx, x=0,1
 987:./../../firmware/GD32VF103_standard_peripheral/Source/gd32vf103_adc.c ****     \param[out] none
 988:./../../firmware/GD32VF103_standard_peripheral/Source/gd32vf103_adc.c ****     \retval     none
 989:./../../firmware/GD32VF103_standard_peripheral/Source/gd32vf103_adc.c **** */
 990:./../../firmware/GD32VF103_standard_peripheral/Source/gd32vf103_adc.c **** void adc_oversample_mode_disable(uint32_t adc_periph)
 991:./../../firmware/GD32VF103_standard_peripheral/Source/gd32vf103_adc.c **** {
 1645              		.loc 1 991 1 is_stmt 1
 1646              		.cfi_startproc
 1647              	.LVL136:
 992:./../../firmware/GD32VF103_standard_peripheral/Source/gd32vf103_adc.c ****     ADC_OVSCR(adc_periph) &= ~((uint32_t)ADC_OVSCR_OVSEN);
 1648              		.loc 1 992 5
 1649              		.loc 1 992 27 is_stmt 0
 1650 0000 83270508 		lw	a5,128(a0)
 1651 0004 F99B     		andi	a5,a5,-2
 1652 0006 2320F508 		sw	a5,128(a0)
 993:./../../firmware/GD32VF103_standard_peripheral/Source/gd32vf103_adc.c **** }
 1653              		.loc 1 993 1
 1654 000a 8280     		ret
 1655              		.cfi_endproc
 1656              	.LFE39:
 1658              		.text
 1659              	.Letext0:
 1660              		.file 2 "c:\\users\\karzan\\downloads\\toolchain-gd32v-v202-win\\toolchain-gd32v-v202-win\\compile
 1661              		.file 3 "c:\\users\\karzan\\downloads\\toolchain-gd32v-v202-win\\toolchain-gd32v-v202-win\\compile
 1662              		.file 4 "./../../firmware/GD32VF103_standard_peripheral/gd32vf103.h"
 1663              		.file 5 "./../../firmware/GD32VF103_standard_peripheral/Include/gd32vf103_rcu.h"
 1664              		.file 6 "./../../firmware/GD32VF103_standard_peripheral/system_gd32vf103.h"
GAS LISTING C:\Users\Karzan\AppData\Local\Temp\ccBvNvkC.s 			page 49


DEFINED SYMBOLS
                            *ABS*:0000000000000000 gd32vf103_adc.c
C:\Users\Karzan\AppData\Local\Temp\ccBvNvkC.s:13     .text.adc_deinit:0000000000000000 adc_deinit
C:\Users\Karzan\AppData\Local\Temp\ccBvNvkC.s:17     .text.adc_deinit:0000000000000000 .L0 
C:\Users\Karzan\AppData\Local\Temp\ccBvNvkC.s:19     .text.adc_deinit:0000000000000000 .L0 
C:\Users\Karzan\AppData\Local\Temp\ccBvNvkC.s:20     .text.adc_deinit:0000000000000000 .L0 
C:\Users\Karzan\AppData\Local\Temp\ccBvNvkC.s:21     .text.adc_deinit:0000000000000000 .L0 
C:\Users\Karzan\AppData\Local\Temp\ccBvNvkC.s:23     .text.adc_deinit:0000000000000002 .L0 
C:\Users\Karzan\AppData\Local\Temp\ccBvNvkC.s:25     .text.adc_deinit:0000000000000002 .L0 
C:\Users\Karzan\AppData\Local\Temp\ccBvNvkC.s:27     .text.adc_deinit:0000000000000006 .L0 
C:\Users\Karzan\AppData\Local\Temp\ccBvNvkC.s:28     .text.adc_deinit:0000000000000008 .L0 
C:\Users\Karzan\AppData\Local\Temp\ccBvNvkC.s:30     .text.adc_deinit:0000000000000008 .L0 
C:\Users\Karzan\AppData\Local\Temp\ccBvNvkC.s:36     .text.adc_deinit:000000000000001c .L0 
C:\Users\Karzan\AppData\Local\Temp\ccBvNvkC.s:37     .text.adc_deinit:000000000000001e .L0 
C:\Users\Karzan\AppData\Local\Temp\ccBvNvkC.s:38     .text.adc_deinit:000000000000001e .L0 
C:\Users\Karzan\AppData\Local\Temp\ccBvNvkC.s:41     .text.adc_deinit:0000000000000020 .L0 
C:\Users\Karzan\AppData\Local\Temp\ccBvNvkC.s:45     .text.adc_deinit:0000000000000022 .L0 
C:\Users\Karzan\AppData\Local\Temp\ccBvNvkC.s:47     .text.adc_deinit:0000000000000022 .L0 
C:\Users\Karzan\AppData\Local\Temp\ccBvNvkC.s:52     .text.adc_deinit:000000000000002e .L0 
C:\Users\Karzan\AppData\Local\Temp\ccBvNvkC.s:55     .text.adc_deinit:0000000000000032 .L0 
C:\Users\Karzan\AppData\Local\Temp\ccBvNvkC.s:56     .text.adc_deinit:0000000000000034 .L0 
C:\Users\Karzan\AppData\Local\Temp\ccBvNvkC.s:57     .text.adc_deinit:0000000000000034 .L0 
C:\Users\Karzan\AppData\Local\Temp\ccBvNvkC.s:60     .text.adc_deinit:0000000000000036 .L0 
C:\Users\Karzan\AppData\Local\Temp\ccBvNvkC.s:62     .text.adc_deinit:0000000000000036 .L0 
C:\Users\Karzan\AppData\Local\Temp\ccBvNvkC.s:66     .text.adc_deinit:000000000000003e .L0 
C:\Users\Karzan\AppData\Local\Temp\ccBvNvkC.s:68     .text.adc_deinit:000000000000003e .L0 
C:\Users\Karzan\AppData\Local\Temp\ccBvNvkC.s:73     .text.adc_deinit:000000000000004a .L0 
C:\Users\Karzan\AppData\Local\Temp\ccBvNvkC.s:75     .text.adc_deinit:0000000000000050 .L0 
C:\Users\Karzan\AppData\Local\Temp\ccBvNvkC.s:82     .text.adc_mode_config:0000000000000000 adc_mode_config
C:\Users\Karzan\AppData\Local\Temp\ccBvNvkC.s:85     .text.adc_mode_config:0000000000000000 .L0 
C:\Users\Karzan\AppData\Local\Temp\ccBvNvkC.s:87     .text.adc_mode_config:0000000000000000 .L0 
C:\Users\Karzan\AppData\Local\Temp\ccBvNvkC.s:88     .text.adc_mode_config:0000000000000000 .L0 
C:\Users\Karzan\AppData\Local\Temp\ccBvNvkC.s:89     .text.adc_mode_config:0000000000000000 .L0 
C:\Users\Karzan\AppData\Local\Temp\ccBvNvkC.s:96     .text.adc_mode_config:0000000000000014 .L0 
C:\Users\Karzan\AppData\Local\Temp\ccBvNvkC.s:97     .text.adc_mode_config:0000000000000014 .L0 
C:\Users\Karzan\AppData\Local\Temp\ccBvNvkC.s:102    .text.adc_mode_config:000000000000001e .L0 
C:\Users\Karzan\AppData\Local\Temp\ccBvNvkC.s:103    .text.adc_mode_config:0000000000000020 .L0 
C:\Users\Karzan\AppData\Local\Temp\ccBvNvkC.s:110    .text.adc_special_function_config:0000000000000000 adc_special_function_config
C:\Users\Karzan\AppData\Local\Temp\ccBvNvkC.s:113    .text.adc_special_function_config:0000000000000000 .L0 
C:\Users\Karzan\AppData\Local\Temp\ccBvNvkC.s:115    .text.adc_special_function_config:0000000000000000 .L0 
C:\Users\Karzan\AppData\Local\Temp\ccBvNvkC.s:116    .text.adc_special_function_config:0000000000000000 .L0 
C:\Users\Karzan\AppData\Local\Temp\ccBvNvkC.s:121    .text.adc_special_function_config:000000000000000a .L0 
C:\Users\Karzan\AppData\Local\Temp\ccBvNvkC.s:123    .text.adc_special_function_config:000000000000000c .L0 
C:\Users\Karzan\AppData\Local\Temp\ccBvNvkC.s:124    .text.adc_special_function_config:000000000000000c .L0 
C:\Users\Karzan\AppData\Local\Temp\ccBvNvkC.s:126    .text.adc_special_function_config:000000000000000e .L0 
C:\Users\Karzan\AppData\Local\Temp\ccBvNvkC.s:127    .text.adc_special_function_config:000000000000000e .L0 
C:\Users\Karzan\AppData\Local\Temp\ccBvNvkC.s:132    .text.adc_special_function_config:0000000000000016 .L0 
C:\Users\Karzan\AppData\Local\Temp\ccBvNvkC.s:133    .text.adc_special_function_config:0000000000000016 .L0 
C:\Users\Karzan\AppData\Local\Temp\ccBvNvkC.s:135    .text.adc_special_function_config:0000000000000018 .L0 
C:\Users\Karzan\AppData\Local\Temp\ccBvNvkC.s:136    .text.adc_special_function_config:0000000000000018 .L0 
C:\Users\Karzan\AppData\Local\Temp\ccBvNvkC.s:141    .text.adc_special_function_config:0000000000000020 .L0 
C:\Users\Karzan\AppData\Local\Temp\ccBvNvkC.s:142    .text.adc_special_function_config:0000000000000020 .L0 
C:\Users\Karzan\AppData\Local\Temp\ccBvNvkC.s:144    .text.adc_special_function_config:0000000000000022 .L0 
C:\Users\Karzan\AppData\Local\Temp\ccBvNvkC.s:145    .text.adc_special_function_config:0000000000000022 .L0 
C:\Users\Karzan\AppData\Local\Temp\ccBvNvkC.s:149    .text.adc_special_function_config:0000000000000028 .L0 
C:\Users\Karzan\AppData\Local\Temp\ccBvNvkC.s:152    .text.adc_special_function_config:000000000000002a .L0 
C:\Users\Karzan\AppData\Local\Temp\ccBvNvkC.s:155    .text.adc_special_function_config:000000000000002c .L0 
GAS LISTING C:\Users\Karzan\AppData\Local\Temp\ccBvNvkC.s 			page 50


C:\Users\Karzan\AppData\Local\Temp\ccBvNvkC.s:156    .text.adc_special_function_config:000000000000002c .L0 
C:\Users\Karzan\AppData\Local\Temp\ccBvNvkC.s:158    .text.adc_special_function_config:000000000000002e .L0 
C:\Users\Karzan\AppData\Local\Temp\ccBvNvkC.s:159    .text.adc_special_function_config:000000000000002e .L0 
C:\Users\Karzan\AppData\Local\Temp\ccBvNvkC.s:164    .text.adc_special_function_config:0000000000000036 .L0 
C:\Users\Karzan\AppData\Local\Temp\ccBvNvkC.s:165    .text.adc_special_function_config:0000000000000036 .L0 
C:\Users\Karzan\AppData\Local\Temp\ccBvNvkC.s:167    .text.adc_special_function_config:0000000000000038 .L0 
C:\Users\Karzan\AppData\Local\Temp\ccBvNvkC.s:168    .text.adc_special_function_config:0000000000000038 .L0 
C:\Users\Karzan\AppData\Local\Temp\ccBvNvkC.s:173    .text.adc_special_function_config:0000000000000040 .L0 
C:\Users\Karzan\AppData\Local\Temp\ccBvNvkC.s:174    .text.adc_special_function_config:0000000000000040 .L0 
C:\Users\Karzan\AppData\Local\Temp\ccBvNvkC.s:176    .text.adc_special_function_config:0000000000000042 .L0 
C:\Users\Karzan\AppData\Local\Temp\ccBvNvkC.s:177    .text.adc_special_function_config:0000000000000042 .L0 
C:\Users\Karzan\AppData\Local\Temp\ccBvNvkC.s:180    .text.adc_special_function_config:0000000000000048 .L0 
C:\Users\Karzan\AppData\Local\Temp\ccBvNvkC.s:187    .text.adc_data_alignment_config:0000000000000000 adc_data_alignment_config
C:\Users\Karzan\AppData\Local\Temp\ccBvNvkC.s:190    .text.adc_data_alignment_config:0000000000000000 .L0 
C:\Users\Karzan\AppData\Local\Temp\ccBvNvkC.s:192    .text.adc_data_alignment_config:0000000000000000 .L0 
C:\Users\Karzan\AppData\Local\Temp\ccBvNvkC.s:193    .text.adc_data_alignment_config:0000000000000000 .L0 
C:\Users\Karzan\AppData\Local\Temp\ccBvNvkC.s:194    .text.adc_data_alignment_config:0000000000000000 .L0 
C:\Users\Karzan\AppData\Local\Temp\ccBvNvkC.s:196    .text.adc_data_alignment_config:0000000000000002 .L0 
C:\Users\Karzan\AppData\Local\Temp\ccBvNvkC.s:198    .text.adc_data_alignment_config:0000000000000004 .L0 
C:\Users\Karzan\AppData\Local\Temp\ccBvNvkC.s:199    .text.adc_data_alignment_config:0000000000000004 .L0 
C:\Users\Karzan\AppData\Local\Temp\ccBvNvkC.s:204    .text.adc_data_alignment_config:000000000000000c .L0 
C:\Users\Karzan\AppData\Local\Temp\ccBvNvkC.s:206    .text.adc_data_alignment_config:000000000000000e .L0 
C:\Users\Karzan\AppData\Local\Temp\ccBvNvkC.s:209    .text.adc_data_alignment_config:0000000000000010 .L0 
C:\Users\Karzan\AppData\Local\Temp\ccBvNvkC.s:210    .text.adc_data_alignment_config:0000000000000010 .L0 
C:\Users\Karzan\AppData\Local\Temp\ccBvNvkC.s:214    .text.adc_data_alignment_config:000000000000001a .L0 
C:\Users\Karzan\AppData\Local\Temp\ccBvNvkC.s:221    .text.adc_enable:0000000000000000 adc_enable
C:\Users\Karzan\AppData\Local\Temp\ccBvNvkC.s:224    .text.adc_enable:0000000000000000 .L0 
C:\Users\Karzan\AppData\Local\Temp\ccBvNvkC.s:226    .text.adc_enable:0000000000000000 .L0 
C:\Users\Karzan\AppData\Local\Temp\ccBvNvkC.s:227    .text.adc_enable:0000000000000000 .L0 
C:\Users\Karzan\AppData\Local\Temp\ccBvNvkC.s:228    .text.adc_enable:0000000000000000 .L0 
C:\Users\Karzan\AppData\Local\Temp\ccBvNvkC.s:230    .text.adc_enable:0000000000000002 .L0 
C:\Users\Karzan\AppData\Local\Temp\ccBvNvkC.s:232    .text.adc_enable:0000000000000004 .L0 
C:\Users\Karzan\AppData\Local\Temp\ccBvNvkC.s:234    .text.adc_enable:0000000000000006 .L0 
C:\Users\Karzan\AppData\Local\Temp\ccBvNvkC.s:235    .text.adc_enable:0000000000000006 .L0 
C:\Users\Karzan\AppData\Local\Temp\ccBvNvkC.s:240    .text.adc_enable:000000000000000e .L0 
C:\Users\Karzan\AppData\Local\Temp\ccBvNvkC.s:241    .text.adc_enable:0000000000000010 .L0 
C:\Users\Karzan\AppData\Local\Temp\ccBvNvkC.s:248    .text.adc_disable:0000000000000000 adc_disable
C:\Users\Karzan\AppData\Local\Temp\ccBvNvkC.s:251    .text.adc_disable:0000000000000000 .L0 
C:\Users\Karzan\AppData\Local\Temp\ccBvNvkC.s:253    .text.adc_disable:0000000000000000 .L0 
C:\Users\Karzan\AppData\Local\Temp\ccBvNvkC.s:254    .text.adc_disable:0000000000000000 .L0 
C:\Users\Karzan\AppData\Local\Temp\ccBvNvkC.s:255    .text.adc_disable:0000000000000000 .L0 
C:\Users\Karzan\AppData\Local\Temp\ccBvNvkC.s:259    .text.adc_disable:0000000000000006 .L0 
C:\Users\Karzan\AppData\Local\Temp\ccBvNvkC.s:260    .text.adc_disable:0000000000000008 .L0 
C:\Users\Karzan\AppData\Local\Temp\ccBvNvkC.s:267    .text.adc_calibration_enable:0000000000000000 adc_calibration_enable
C:\Users\Karzan\AppData\Local\Temp\ccBvNvkC.s:270    .text.adc_calibration_enable:0000000000000000 .L0 
C:\Users\Karzan\AppData\Local\Temp\ccBvNvkC.s:272    .text.adc_calibration_enable:0000000000000000 .L0 
C:\Users\Karzan\AppData\Local\Temp\ccBvNvkC.s:273    .text.adc_calibration_enable:0000000000000000 .L0 
C:\Users\Karzan\AppData\Local\Temp\ccBvNvkC.s:274    .text.adc_calibration_enable:0000000000000000 .L0 
C:\Users\Karzan\AppData\Local\Temp\ccBvNvkC.s:280    .text.adc_calibration_enable:000000000000000c .L0 
C:\Users\Karzan\AppData\Local\Temp\ccBvNvkC.s:281    .text.adc_calibration_enable:000000000000000c .L0 
C:\Users\Karzan\AppData\Local\Temp\ccBvNvkC.s:282    .text.adc_calibration_enable:000000000000000c .L0 
C:\Users\Karzan\AppData\Local\Temp\ccBvNvkC.s:284    .text.adc_calibration_enable:000000000000000e .L0 
C:\Users\Karzan\AppData\Local\Temp\ccBvNvkC.s:286    .text.adc_calibration_enable:0000000000000010 .L0 
C:\Users\Karzan\AppData\Local\Temp\ccBvNvkC.s:288    .text.adc_calibration_enable:0000000000000012 .L0 
C:\Users\Karzan\AppData\Local\Temp\ccBvNvkC.s:289    .text.adc_calibration_enable:0000000000000012 .L0 
C:\Users\Karzan\AppData\Local\Temp\ccBvNvkC.s:294    .text.adc_calibration_enable:000000000000001a .L0 
C:\Users\Karzan\AppData\Local\Temp\ccBvNvkC.s:295    .text.adc_calibration_enable:000000000000001a .L0 
GAS LISTING C:\Users\Karzan\AppData\Local\Temp\ccBvNvkC.s 			page 51


C:\Users\Karzan\AppData\Local\Temp\ccBvNvkC.s:296    .text.adc_calibration_enable:000000000000001a .L0 
C:\Users\Karzan\AppData\Local\Temp\ccBvNvkC.s:298    .text.adc_calibration_enable:000000000000001c .L0 
C:\Users\Karzan\AppData\Local\Temp\ccBvNvkC.s:300    .text.adc_calibration_enable:000000000000001e .L0 
C:\Users\Karzan\AppData\Local\Temp\ccBvNvkC.s:302    .text.adc_calibration_enable:0000000000000020 .L0 
C:\Users\Karzan\AppData\Local\Temp\ccBvNvkC.s:303    .text.adc_calibration_enable:0000000000000022 .L0 
C:\Users\Karzan\AppData\Local\Temp\ccBvNvkC.s:310    .text.adc_tempsensor_vrefint_enable:0000000000000000 adc_tempsensor_vrefint_enable
C:\Users\Karzan\AppData\Local\Temp\ccBvNvkC.s:313    .text.adc_tempsensor_vrefint_enable:0000000000000000 .L0 
C:\Users\Karzan\AppData\Local\Temp\ccBvNvkC.s:314    .text.adc_tempsensor_vrefint_enable:0000000000000000 .L0 
C:\Users\Karzan\AppData\Local\Temp\ccBvNvkC.s:315    .text.adc_tempsensor_vrefint_enable:0000000000000000 .L0 
C:\Users\Karzan\AppData\Local\Temp\ccBvNvkC.s:316    .text.adc_tempsensor_vrefint_enable:0000000000000000 .L0 
C:\Users\Karzan\AppData\Local\Temp\ccBvNvkC.s:322    .text.adc_tempsensor_vrefint_enable:0000000000000012 .L0 
C:\Users\Karzan\AppData\Local\Temp\ccBvNvkC.s:323    .text.adc_tempsensor_vrefint_enable:0000000000000014 .L0 
C:\Users\Karzan\AppData\Local\Temp\ccBvNvkC.s:330    .text.adc_tempsensor_vrefint_disable:0000000000000000 adc_tempsensor_vrefint_disable
C:\Users\Karzan\AppData\Local\Temp\ccBvNvkC.s:333    .text.adc_tempsensor_vrefint_disable:0000000000000000 .L0 
C:\Users\Karzan\AppData\Local\Temp\ccBvNvkC.s:334    .text.adc_tempsensor_vrefint_disable:0000000000000000 .L0 
C:\Users\Karzan\AppData\Local\Temp\ccBvNvkC.s:335    .text.adc_tempsensor_vrefint_disable:0000000000000000 .L0 
C:\Users\Karzan\AppData\Local\Temp\ccBvNvkC.s:336    .text.adc_tempsensor_vrefint_disable:0000000000000000 .L0 
C:\Users\Karzan\AppData\Local\Temp\ccBvNvkC.s:343    .text.adc_tempsensor_vrefint_disable:0000000000000014 .L0 
C:\Users\Karzan\AppData\Local\Temp\ccBvNvkC.s:344    .text.adc_tempsensor_vrefint_disable:0000000000000016 .L0 
C:\Users\Karzan\AppData\Local\Temp\ccBvNvkC.s:351    .text.adc_dma_mode_enable:0000000000000000 adc_dma_mode_enable
C:\Users\Karzan\AppData\Local\Temp\ccBvNvkC.s:354    .text.adc_dma_mode_enable:0000000000000000 .L0 
C:\Users\Karzan\AppData\Local\Temp\ccBvNvkC.s:356    .text.adc_dma_mode_enable:0000000000000000 .L0 
C:\Users\Karzan\AppData\Local\Temp\ccBvNvkC.s:357    .text.adc_dma_mode_enable:0000000000000000 .L0 
C:\Users\Karzan\AppData\Local\Temp\ccBvNvkC.s:358    .text.adc_dma_mode_enable:0000000000000000 .L0 
C:\Users\Karzan\AppData\Local\Temp\ccBvNvkC.s:362    .text.adc_dma_mode_enable:0000000000000008 .L0 
C:\Users\Karzan\AppData\Local\Temp\ccBvNvkC.s:363    .text.adc_dma_mode_enable:000000000000000a .L0 
C:\Users\Karzan\AppData\Local\Temp\ccBvNvkC.s:370    .text.adc_dma_mode_disable:0000000000000000 adc_dma_mode_disable
C:\Users\Karzan\AppData\Local\Temp\ccBvNvkC.s:373    .text.adc_dma_mode_disable:0000000000000000 .L0 
C:\Users\Karzan\AppData\Local\Temp\ccBvNvkC.s:375    .text.adc_dma_mode_disable:0000000000000000 .L0 
C:\Users\Karzan\AppData\Local\Temp\ccBvNvkC.s:376    .text.adc_dma_mode_disable:0000000000000000 .L0 
C:\Users\Karzan\AppData\Local\Temp\ccBvNvkC.s:377    .text.adc_dma_mode_disable:0000000000000000 .L0 
C:\Users\Karzan\AppData\Local\Temp\ccBvNvkC.s:381    .text.adc_dma_mode_disable:0000000000000008 .L0 
C:\Users\Karzan\AppData\Local\Temp\ccBvNvkC.s:382    .text.adc_dma_mode_disable:000000000000000a .L0 
C:\Users\Karzan\AppData\Local\Temp\ccBvNvkC.s:389    .text.adc_discontinuous_mode_config:0000000000000000 adc_discontinuous_mode_config
C:\Users\Karzan\AppData\Local\Temp\ccBvNvkC.s:392    .text.adc_discontinuous_mode_config:0000000000000000 .L0 
C:\Users\Karzan\AppData\Local\Temp\ccBvNvkC.s:394    .text.adc_discontinuous_mode_config:0000000000000000 .L0 
C:\Users\Karzan\AppData\Local\Temp\ccBvNvkC.s:395    .text.adc_discontinuous_mode_config:0000000000000000 .L0 
C:\Users\Karzan\AppData\Local\Temp\ccBvNvkC.s:396    .text.adc_discontinuous_mode_config:0000000000000000 .L0 
C:\Users\Karzan\AppData\Local\Temp\ccBvNvkC.s:402    .text.adc_discontinuous_mode_config:000000000000000c .L0 
C:\Users\Karzan\AppData\Local\Temp\ccBvNvkC.s:409    .text.adc_discontinuous_mode_config:000000000000001a .L0 
C:\Users\Karzan\AppData\Local\Temp\ccBvNvkC.s:410    .text.adc_discontinuous_mode_config:000000000000001a .L0 
C:\Users\Karzan\AppData\Local\Temp\ccBvNvkC.s:416    .text.adc_discontinuous_mode_config:0000000000000024 .L0 
C:\Users\Karzan\AppData\Local\Temp\ccBvNvkC.s:417    .text.adc_discontinuous_mode_config:0000000000000024 .L0 
C:\Users\Karzan\AppData\Local\Temp\ccBvNvkC.s:419    .text.adc_discontinuous_mode_config:0000000000000026 .L0 
C:\Users\Karzan\AppData\Local\Temp\ccBvNvkC.s:425    .text.adc_discontinuous_mode_config:000000000000002e .L0 
C:\Users\Karzan\AppData\Local\Temp\ccBvNvkC.s:428    .text.adc_discontinuous_mode_config:0000000000000032 .L0 
C:\Users\Karzan\AppData\Local\Temp\ccBvNvkC.s:429    .text.adc_discontinuous_mode_config:0000000000000032 .L0 
C:\Users\Karzan\AppData\Local\Temp\ccBvNvkC.s:434    .text.adc_discontinuous_mode_config:000000000000003a .L0 
C:\Users\Karzan\AppData\Local\Temp\ccBvNvkC.s:437    .text.adc_discontinuous_mode_config:000000000000003e .L0 
C:\Users\Karzan\AppData\Local\Temp\ccBvNvkC.s:438    .text.adc_discontinuous_mode_config:000000000000003e .L0 
C:\Users\Karzan\AppData\Local\Temp\ccBvNvkC.s:442    .text.adc_discontinuous_mode_config:0000000000000040 .L0 
C:\Users\Karzan\AppData\Local\Temp\ccBvNvkC.s:443    .text.adc_discontinuous_mode_config:0000000000000040 .L0 
C:\Users\Karzan\AppData\Local\Temp\ccBvNvkC.s:446    .text.adc_discontinuous_mode_config:0000000000000046 .L0 
C:\Users\Karzan\AppData\Local\Temp\ccBvNvkC.s:453    .text.adc_channel_length_config:0000000000000000 adc_channel_length_config
C:\Users\Karzan\AppData\Local\Temp\ccBvNvkC.s:456    .text.adc_channel_length_config:0000000000000000 .L0 
C:\Users\Karzan\AppData\Local\Temp\ccBvNvkC.s:458    .text.adc_channel_length_config:0000000000000000 .L0 
C:\Users\Karzan\AppData\Local\Temp\ccBvNvkC.s:459    .text.adc_channel_length_config:0000000000000000 .L0 
GAS LISTING C:\Users\Karzan\AppData\Local\Temp\ccBvNvkC.s 			page 52


C:\Users\Karzan\AppData\Local\Temp\ccBvNvkC.s:466    .text.adc_channel_length_config:000000000000000e .L0 
C:\Users\Karzan\AppData\Local\Temp\ccBvNvkC.s:467    .text.adc_channel_length_config:000000000000000e .L0 
C:\Users\Karzan\AppData\Local\Temp\ccBvNvkC.s:473    .text.adc_channel_length_config:000000000000001a .L0 
C:\Users\Karzan\AppData\Local\Temp\ccBvNvkC.s:474    .text.adc_channel_length_config:000000000000001a .L0 
C:\Users\Karzan\AppData\Local\Temp\ccBvNvkC.s:476    .text.adc_channel_length_config:000000000000001c .L0 
C:\Users\Karzan\AppData\Local\Temp\ccBvNvkC.s:483    .text.adc_channel_length_config:0000000000000026 .L0 
C:\Users\Karzan\AppData\Local\Temp\ccBvNvkC.s:486    .text.adc_channel_length_config:000000000000002a .L0 
C:\Users\Karzan\AppData\Local\Temp\ccBvNvkC.s:490    .text.adc_channel_length_config:000000000000002c .L0 
C:\Users\Karzan\AppData\Local\Temp\ccBvNvkC.s:491    .text.adc_channel_length_config:000000000000002c .L0 
C:\Users\Karzan\AppData\Local\Temp\ccBvNvkC.s:497    .text.adc_channel_length_config:0000000000000038 .L0 
C:\Users\Karzan\AppData\Local\Temp\ccBvNvkC.s:498    .text.adc_channel_length_config:0000000000000038 .L0 
C:\Users\Karzan\AppData\Local\Temp\ccBvNvkC.s:500    .text.adc_channel_length_config:000000000000003a .L0 
C:\Users\Karzan\AppData\Local\Temp\ccBvNvkC.s:507    .text.adc_channel_length_config:0000000000000044 .L0 
C:\Users\Karzan\AppData\Local\Temp\ccBvNvkC.s:510    .text.adc_channel_length_config:0000000000000048 .L0 
C:\Users\Karzan\AppData\Local\Temp\ccBvNvkC.s:511    .text.adc_channel_length_config:0000000000000048 .L0 
C:\Users\Karzan\AppData\Local\Temp\ccBvNvkC.s:512    .text.adc_channel_length_config:000000000000004a .L0 
C:\Users\Karzan\AppData\Local\Temp\ccBvNvkC.s:519    .text.adc_regular_channel_config:0000000000000000 adc_regular_channel_config
C:\Users\Karzan\AppData\Local\Temp\ccBvNvkC.s:522    .text.adc_regular_channel_config:0000000000000000 .L0 
C:\Users\Karzan\AppData\Local\Temp\ccBvNvkC.s:524    .text.adc_regular_channel_config:0000000000000000 .L0 
C:\Users\Karzan\AppData\Local\Temp\ccBvNvkC.s:525    .text.adc_regular_channel_config:0000000000000000 .L0 
C:\Users\Karzan\AppData\Local\Temp\ccBvNvkC.s:526    .text.adc_regular_channel_config:0000000000000000 .L0 
C:\Users\Karzan\AppData\Local\Temp\ccBvNvkC.s:527    .text.adc_regular_channel_config:0000000000000000 .L0 
C:\Users\Karzan\AppData\Local\Temp\ccBvNvkC.s:530    .text.adc_regular_channel_config:0000000000000006 .L0 
C:\Users\Karzan\AppData\Local\Temp\ccBvNvkC.s:531    .text.adc_regular_channel_config:0000000000000006 .L0 
C:\Users\Karzan\AppData\Local\Temp\ccBvNvkC.s:534    .text.adc_regular_channel_config:000000000000000a .L0 
C:\Users\Karzan\AppData\Local\Temp\ccBvNvkC.s:537    .text.adc_regular_channel_config:000000000000000e .L0 
C:\Users\Karzan\AppData\Local\Temp\ccBvNvkC.s:538    .text.adc_regular_channel_config:000000000000000e .L0 
C:\Users\Karzan\AppData\Local\Temp\ccBvNvkC.s:541    .text.adc_regular_channel_config:0000000000000014 .L0 
C:\Users\Karzan\AppData\Local\Temp\ccBvNvkC.s:543    .text.adc_regular_channel_config:0000000000000018 .L0 
C:\Users\Karzan\AppData\Local\Temp\ccBvNvkC.s:546    .text.adc_regular_channel_config:000000000000001c .L0 
C:\Users\Karzan\AppData\Local\Temp\ccBvNvkC.s:547    .text.adc_regular_channel_config:000000000000001c .L0 
C:\Users\Karzan\AppData\Local\Temp\ccBvNvkC.s:549    .text.adc_regular_channel_config:0000000000000020 .L0 
C:\Users\Karzan\AppData\Local\Temp\ccBvNvkC.s:552    .text.adc_regular_channel_config:0000000000000022 .L0 
C:\Users\Karzan\AppData\Local\Temp\ccBvNvkC.s:553    .text.adc_regular_channel_config:0000000000000022 .L0 
C:\Users\Karzan\AppData\Local\Temp\ccBvNvkC.s:557    .text.adc_regular_channel_config:0000000000000024 .L0 
C:\Users\Karzan\AppData\Local\Temp\ccBvNvkC.s:558    .text.adc_regular_channel_config:0000000000000024 .L0 
C:\Users\Karzan\AppData\Local\Temp\ccBvNvkC.s:559    .text.adc_regular_channel_config:0000000000000024 .L0 
C:\Users\Karzan\AppData\Local\Temp\ccBvNvkC.s:562    .text.adc_regular_channel_config:000000000000002a .L0 
C:\Users\Karzan\AppData\Local\Temp\ccBvNvkC.s:563    .text.adc_regular_channel_config:000000000000002a .L0 
C:\Users\Karzan\AppData\Local\Temp\ccBvNvkC.s:567    .text.adc_regular_channel_config:0000000000000030 .L0 
C:\Users\Karzan\AppData\Local\Temp\ccBvNvkC.s:570    .text.adc_regular_channel_config:0000000000000032 .L0 
C:\Users\Karzan\AppData\Local\Temp\ccBvNvkC.s:571    .text.adc_regular_channel_config:0000000000000032 .L0 
C:\Users\Karzan\AppData\Local\Temp\ccBvNvkC.s:574    .text.adc_regular_channel_config:0000000000000038 .L0 
C:\Users\Karzan\AppData\Local\Temp\ccBvNvkC.s:576    .text.adc_regular_channel_config:000000000000003c .L0 
C:\Users\Karzan\AppData\Local\Temp\ccBvNvkC.s:579    .text.adc_regular_channel_config:000000000000003e .L0 
C:\Users\Karzan\AppData\Local\Temp\ccBvNvkC.s:580    .text.adc_regular_channel_config:000000000000003e .L0 
C:\Users\Karzan\AppData\Local\Temp\ccBvNvkC.s:582    .text.adc_regular_channel_config:0000000000000042 .L0 
C:\Users\Karzan\AppData\Local\Temp\ccBvNvkC.s:585    .text.adc_regular_channel_config:0000000000000044 .L0 
C:\Users\Karzan\AppData\Local\Temp\ccBvNvkC.s:586    .text.adc_regular_channel_config:0000000000000044 .L0 
C:\Users\Karzan\AppData\Local\Temp\ccBvNvkC.s:591    .text.adc_regular_channel_config:0000000000000048 .L0 
C:\Users\Karzan\AppData\Local\Temp\ccBvNvkC.s:592    .text.adc_regular_channel_config:0000000000000048 .L0 
C:\Users\Karzan\AppData\Local\Temp\ccBvNvkC.s:595    .text.adc_regular_channel_config:000000000000004e .L0 
C:\Users\Karzan\AppData\Local\Temp\ccBvNvkC.s:596    .text.adc_regular_channel_config:000000000000004e .L0 
C:\Users\Karzan\AppData\Local\Temp\ccBvNvkC.s:599    .text.adc_regular_channel_config:0000000000000050 .L0 
C:\Users\Karzan\AppData\Local\Temp\ccBvNvkC.s:601    .text.adc_regular_channel_config:0000000000000054 .L0 
C:\Users\Karzan\AppData\Local\Temp\ccBvNvkC.s:604    .text.adc_regular_channel_config:0000000000000058 .L0 
C:\Users\Karzan\AppData\Local\Temp\ccBvNvkC.s:605    .text.adc_regular_channel_config:0000000000000058 .L0 
GAS LISTING C:\Users\Karzan\AppData\Local\Temp\ccBvNvkC.s 			page 53


C:\Users\Karzan\AppData\Local\Temp\ccBvNvkC.s:608    .text.adc_regular_channel_config:000000000000005e .L0 
C:\Users\Karzan\AppData\Local\Temp\ccBvNvkC.s:610    .text.adc_regular_channel_config:0000000000000062 .L0 
C:\Users\Karzan\AppData\Local\Temp\ccBvNvkC.s:613    .text.adc_regular_channel_config:0000000000000066 .L0 
C:\Users\Karzan\AppData\Local\Temp\ccBvNvkC.s:614    .text.adc_regular_channel_config:0000000000000066 .L0 
C:\Users\Karzan\AppData\Local\Temp\ccBvNvkC.s:616    .text.adc_regular_channel_config:000000000000006a .L0 
C:\Users\Karzan\AppData\Local\Temp\ccBvNvkC.s:619    .text.adc_regular_channel_config:000000000000006c .L0 
C:\Users\Karzan\AppData\Local\Temp\ccBvNvkC.s:620    .text.adc_regular_channel_config:000000000000006c .L0 
C:\Users\Karzan\AppData\Local\Temp\ccBvNvkC.s:625    .text.adc_regular_channel_config:0000000000000070 .L0 
C:\Users\Karzan\AppData\Local\Temp\ccBvNvkC.s:626    .text.adc_regular_channel_config:0000000000000070 .L0 
C:\Users\Karzan\AppData\Local\Temp\ccBvNvkC.s:629    .text.adc_regular_channel_config:0000000000000076 .L0 
C:\Users\Karzan\AppData\Local\Temp\ccBvNvkC.s:630    .text.adc_regular_channel_config:0000000000000076 .L0 
C:\Users\Karzan\AppData\Local\Temp\ccBvNvkC.s:633    .text.adc_regular_channel_config:0000000000000078 .L0 
C:\Users\Karzan\AppData\Local\Temp\ccBvNvkC.s:635    .text.adc_regular_channel_config:000000000000007c .L0 
C:\Users\Karzan\AppData\Local\Temp\ccBvNvkC.s:638    .text.adc_regular_channel_config:0000000000000080 .L0 
C:\Users\Karzan\AppData\Local\Temp\ccBvNvkC.s:639    .text.adc_regular_channel_config:0000000000000080 .L0 
C:\Users\Karzan\AppData\Local\Temp\ccBvNvkC.s:642    .text.adc_regular_channel_config:0000000000000086 .L0 
C:\Users\Karzan\AppData\Local\Temp\ccBvNvkC.s:644    .text.adc_regular_channel_config:000000000000008a .L0 
C:\Users\Karzan\AppData\Local\Temp\ccBvNvkC.s:647    .text.adc_regular_channel_config:000000000000008e .L0 
C:\Users\Karzan\AppData\Local\Temp\ccBvNvkC.s:648    .text.adc_regular_channel_config:000000000000008e .L0 
C:\Users\Karzan\AppData\Local\Temp\ccBvNvkC.s:650    .text.adc_regular_channel_config:0000000000000092 .L0 
C:\Users\Karzan\AppData\Local\Temp\ccBvNvkC.s:653    .text.adc_regular_channel_config:0000000000000094 .L0 
C:\Users\Karzan\AppData\Local\Temp\ccBvNvkC.s:654    .text.adc_regular_channel_config:0000000000000094 .L0 
C:\Users\Karzan\AppData\Local\Temp\ccBvNvkC.s:659    .text.adc_regular_channel_config:0000000000000098 .L0 
C:\Users\Karzan\AppData\Local\Temp\ccBvNvkC.s:660    .text.adc_regular_channel_config:0000000000000098 .L0 
C:\Users\Karzan\AppData\Local\Temp\ccBvNvkC.s:663    .text.adc_regular_channel_config:000000000000009e .L0 
C:\Users\Karzan\AppData\Local\Temp\ccBvNvkC.s:664    .text.adc_regular_channel_config:000000000000009e .L0 
C:\Users\Karzan\AppData\Local\Temp\ccBvNvkC.s:666    .text.adc_regular_channel_config:00000000000000a0 .L0 
C:\Users\Karzan\AppData\Local\Temp\ccBvNvkC.s:669    .text.adc_regular_channel_config:00000000000000a2 .L0 
C:\Users\Karzan\AppData\Local\Temp\ccBvNvkC.s:671    .text.adc_regular_channel_config:00000000000000a6 .L0 
C:\Users\Karzan\AppData\Local\Temp\ccBvNvkC.s:674    .text.adc_regular_channel_config:00000000000000a8 .L0 
C:\Users\Karzan\AppData\Local\Temp\ccBvNvkC.s:675    .text.adc_regular_channel_config:00000000000000a8 .L0 
C:\Users\Karzan\AppData\Local\Temp\ccBvNvkC.s:678    .text.adc_regular_channel_config:00000000000000ae .L0 
C:\Users\Karzan\AppData\Local\Temp\ccBvNvkC.s:680    .text.adc_regular_channel_config:00000000000000b2 .L0 
C:\Users\Karzan\AppData\Local\Temp\ccBvNvkC.s:683    .text.adc_regular_channel_config:00000000000000b4 .L0 
C:\Users\Karzan\AppData\Local\Temp\ccBvNvkC.s:684    .text.adc_regular_channel_config:00000000000000b4 .L0 
C:\Users\Karzan\AppData\Local\Temp\ccBvNvkC.s:686    .text.adc_regular_channel_config:00000000000000b8 .L0 
C:\Users\Karzan\AppData\Local\Temp\ccBvNvkC.s:689    .text.adc_regular_channel_config:00000000000000ba .L0 
C:\Users\Karzan\AppData\Local\Temp\ccBvNvkC.s:690    .text.adc_regular_channel_config:00000000000000ba .L0 
C:\Users\Karzan\AppData\Local\Temp\ccBvNvkC.s:694    .text.adc_regular_channel_config:00000000000000bc .L0 
C:\Users\Karzan\AppData\Local\Temp\ccBvNvkC.s:695    .text.adc_regular_channel_config:00000000000000bc .L0 
C:\Users\Karzan\AppData\Local\Temp\ccBvNvkC.s:696    .text.adc_regular_channel_config:00000000000000be .L0 
C:\Users\Karzan\AppData\Local\Temp\ccBvNvkC.s:703    .text.adc_inserted_channel_config:0000000000000000 adc_inserted_channel_config
C:\Users\Karzan\AppData\Local\Temp\ccBvNvkC.s:706    .text.adc_inserted_channel_config:0000000000000000 .L0 
C:\Users\Karzan\AppData\Local\Temp\ccBvNvkC.s:708    .text.adc_inserted_channel_config:0000000000000000 .L0 
C:\Users\Karzan\AppData\Local\Temp\ccBvNvkC.s:709    .text.adc_inserted_channel_config:0000000000000000 .L0 
C:\Users\Karzan\AppData\Local\Temp\ccBvNvkC.s:710    .text.adc_inserted_channel_config:0000000000000000 .L0 
C:\Users\Karzan\AppData\Local\Temp\ccBvNvkC.s:711    .text.adc_inserted_channel_config:0000000000000000 .L0 
C:\Users\Karzan\AppData\Local\Temp\ccBvNvkC.s:712    .text.adc_inserted_channel_config:0000000000000000 .L0 
C:\Users\Karzan\AppData\Local\Temp\ccBvNvkC.s:715    .text.adc_inserted_channel_config:0000000000000002 .L0 
C:\Users\Karzan\AppData\Local\Temp\ccBvNvkC.s:716    .text.adc_inserted_channel_config:0000000000000002 .L0 
C:\Users\Karzan\AppData\Local\Temp\ccBvNvkC.s:718    .text.adc_inserted_channel_config:0000000000000004 .L0 
C:\Users\Karzan\AppData\Local\Temp\ccBvNvkC.s:721    .text.adc_inserted_channel_config:0000000000000008 .L0 
C:\Users\Karzan\AppData\Local\Temp\ccBvNvkC.s:722    .text.adc_inserted_channel_config:0000000000000008 .L0 
C:\Users\Karzan\AppData\Local\Temp\ccBvNvkC.s:725    .text.adc_inserted_channel_config:000000000000000a .L0 
C:\Users\Karzan\AppData\Local\Temp\ccBvNvkC.s:729    .text.adc_inserted_channel_config:0000000000000010 .L0 
C:\Users\Karzan\AppData\Local\Temp\ccBvNvkC.s:732    .text.adc_inserted_channel_config:0000000000000016 .L0 
C:\Users\Karzan\AppData\Local\Temp\ccBvNvkC.s:734    .text.adc_inserted_channel_config:0000000000000018 .L0 
GAS LISTING C:\Users\Karzan\AppData\Local\Temp\ccBvNvkC.s 			page 54


C:\Users\Karzan\AppData\Local\Temp\ccBvNvkC.s:736    .text.adc_inserted_channel_config:000000000000001a .L0 
C:\Users\Karzan\AppData\Local\Temp\ccBvNvkC.s:738    .text.adc_inserted_channel_config:000000000000001e .L0 
C:\Users\Karzan\AppData\Local\Temp\ccBvNvkC.s:740    .text.adc_inserted_channel_config:0000000000000022 .L0 
C:\Users\Karzan\AppData\Local\Temp\ccBvNvkC.s:743    .text.adc_inserted_channel_config:0000000000000026 .L0 
C:\Users\Karzan\AppData\Local\Temp\ccBvNvkC.s:744    .text.adc_inserted_channel_config:0000000000000026 .L0 
C:\Users\Karzan\AppData\Local\Temp\ccBvNvkC.s:746    .text.adc_inserted_channel_config:000000000000002a .L0 
C:\Users\Karzan\AppData\Local\Temp\ccBvNvkC.s:749    .text.adc_inserted_channel_config:000000000000002c .L0 
C:\Users\Karzan\AppData\Local\Temp\ccBvNvkC.s:750    .text.adc_inserted_channel_config:000000000000002c .L0 
C:\Users\Karzan\AppData\Local\Temp\ccBvNvkC.s:752    .text.adc_inserted_channel_config:000000000000002e .L0 
C:\Users\Karzan\AppData\Local\Temp\ccBvNvkC.s:753    .text.adc_inserted_channel_config:000000000000002e .L0 
C:\Users\Karzan\AppData\Local\Temp\ccBvNvkC.s:755    .text.adc_inserted_channel_config:0000000000000032 .L0 
C:\Users\Karzan\AppData\Local\Temp\ccBvNvkC.s:756    .text.adc_inserted_channel_config:0000000000000032 .L0 
C:\Users\Karzan\AppData\Local\Temp\ccBvNvkC.s:760    .text.adc_inserted_channel_config:0000000000000038 .L0 
C:\Users\Karzan\AppData\Local\Temp\ccBvNvkC.s:763    .text.adc_inserted_channel_config:000000000000003a .L0 
C:\Users\Karzan\AppData\Local\Temp\ccBvNvkC.s:764    .text.adc_inserted_channel_config:000000000000003a .L0 
C:\Users\Karzan\AppData\Local\Temp\ccBvNvkC.s:767    .text.adc_inserted_channel_config:0000000000000040 .L0 
C:\Users\Karzan\AppData\Local\Temp\ccBvNvkC.s:769    .text.adc_inserted_channel_config:0000000000000044 .L0 
C:\Users\Karzan\AppData\Local\Temp\ccBvNvkC.s:772    .text.adc_inserted_channel_config:0000000000000046 .L0 
C:\Users\Karzan\AppData\Local\Temp\ccBvNvkC.s:773    .text.adc_inserted_channel_config:0000000000000046 .L0 
C:\Users\Karzan\AppData\Local\Temp\ccBvNvkC.s:775    .text.adc_inserted_channel_config:000000000000004a .L0 
C:\Users\Karzan\AppData\Local\Temp\ccBvNvkC.s:778    .text.adc_inserted_channel_config:000000000000004c .L0 
C:\Users\Karzan\AppData\Local\Temp\ccBvNvkC.s:779    .text.adc_inserted_channel_config:000000000000004c .L0 
C:\Users\Karzan\AppData\Local\Temp\ccBvNvkC.s:784    .text.adc_inserted_channel_config:0000000000000050 .L0 
C:\Users\Karzan\AppData\Local\Temp\ccBvNvkC.s:785    .text.adc_inserted_channel_config:0000000000000050 .L0 
C:\Users\Karzan\AppData\Local\Temp\ccBvNvkC.s:788    .text.adc_inserted_channel_config:0000000000000056 .L0 
C:\Users\Karzan\AppData\Local\Temp\ccBvNvkC.s:789    .text.adc_inserted_channel_config:0000000000000056 .L0 
C:\Users\Karzan\AppData\Local\Temp\ccBvNvkC.s:791    .text.adc_inserted_channel_config:0000000000000058 .L0 
C:\Users\Karzan\AppData\Local\Temp\ccBvNvkC.s:794    .text.adc_inserted_channel_config:000000000000005a .L0 
C:\Users\Karzan\AppData\Local\Temp\ccBvNvkC.s:796    .text.adc_inserted_channel_config:000000000000005e .L0 
C:\Users\Karzan\AppData\Local\Temp\ccBvNvkC.s:799    .text.adc_inserted_channel_config:0000000000000060 .L0 
C:\Users\Karzan\AppData\Local\Temp\ccBvNvkC.s:800    .text.adc_inserted_channel_config:0000000000000060 .L0 
C:\Users\Karzan\AppData\Local\Temp\ccBvNvkC.s:803    .text.adc_inserted_channel_config:0000000000000066 .L0 
C:\Users\Karzan\AppData\Local\Temp\ccBvNvkC.s:805    .text.adc_inserted_channel_config:000000000000006a .L0 
C:\Users\Karzan\AppData\Local\Temp\ccBvNvkC.s:808    .text.adc_inserted_channel_config:000000000000006c .L0 
C:\Users\Karzan\AppData\Local\Temp\ccBvNvkC.s:809    .text.adc_inserted_channel_config:000000000000006c .L0 
C:\Users\Karzan\AppData\Local\Temp\ccBvNvkC.s:811    .text.adc_inserted_channel_config:0000000000000070 .L0 
C:\Users\Karzan\AppData\Local\Temp\ccBvNvkC.s:814    .text.adc_inserted_channel_config:0000000000000072 .L0 
C:\Users\Karzan\AppData\Local\Temp\ccBvNvkC.s:815    .text.adc_inserted_channel_config:0000000000000072 .L0 
C:\Users\Karzan\AppData\Local\Temp\ccBvNvkC.s:819    .text.adc_inserted_channel_config:0000000000000074 .L0 
C:\Users\Karzan\AppData\Local\Temp\ccBvNvkC.s:820    .text.adc_inserted_channel_config:0000000000000074 .L0 
C:\Users\Karzan\AppData\Local\Temp\ccBvNvkC.s:821    .text.adc_inserted_channel_config:0000000000000076 .L0 
C:\Users\Karzan\AppData\Local\Temp\ccBvNvkC.s:828    .text.adc_inserted_channel_offset_config:0000000000000000 adc_inserted_channel_offset_config
C:\Users\Karzan\AppData\Local\Temp\ccBvNvkC.s:831    .text.adc_inserted_channel_offset_config:0000000000000000 .L0 
C:\Users\Karzan\AppData\Local\Temp\ccBvNvkC.s:833    .text.adc_inserted_channel_offset_config:0000000000000000 .L0 
C:\Users\Karzan\AppData\Local\Temp\ccBvNvkC.s:834    .text.adc_inserted_channel_offset_config:0000000000000000 .L0 
C:\Users\Karzan\AppData\Local\Temp\ccBvNvkC.s:835    .text.adc_inserted_channel_offset_config:0000000000000000 .L0 
C:\Users\Karzan\AppData\Local\Temp\ccBvNvkC.s:836    .text.adc_inserted_channel_offset_config:0000000000000000 .L0 
C:\Users\Karzan\AppData\Local\Temp\ccBvNvkC.s:837    .text.adc_inserted_channel_offset_config:0000000000000000 .L0 
C:\Users\Karzan\AppData\Local\Temp\ccBvNvkC.s:840    .text.adc_inserted_channel_offset_config:0000000000000002 .L0 
C:\Users\Karzan\AppData\Local\Temp\ccBvNvkC.s:841    .text.adc_inserted_channel_offset_config:0000000000000002 .L0 
C:\Users\Karzan\AppData\Local\Temp\ccBvNvkC.s:844    .text.adc_inserted_channel_offset_config:0000000000000004 .L0 
C:\Users\Karzan\AppData\Local\Temp\ccBvNvkC.s:847    .text.adc_inserted_channel_offset_config:0000000000000006 .L0 
C:\Users\Karzan\AppData\Local\Temp\ccBvNvkC.s:849    .text.adc_inserted_channel_offset_config:0000000000000008 .L0 
C:\Users\Karzan\AppData\Local\Temp\ccBvNvkC.s:852    .text.adc_inserted_channel_offset_config:000000000000000a .L0 
C:\Users\Karzan\AppData\Local\Temp\ccBvNvkC.s:853    .text.adc_inserted_channel_offset_config:000000000000000a .L0 
C:\Users\Karzan\AppData\Local\Temp\ccBvNvkC.s:857    .text.adc_inserted_channel_offset_config:0000000000000010 .L0 
C:\Users\Karzan\AppData\Local\Temp\ccBvNvkC.s:858    .text.adc_inserted_channel_offset_config:0000000000000010 .L0 
GAS LISTING C:\Users\Karzan\AppData\Local\Temp\ccBvNvkC.s 			page 55


C:\Users\Karzan\AppData\Local\Temp\ccBvNvkC.s:859    .text.adc_inserted_channel_offset_config:0000000000000010 .L0 
C:\Users\Karzan\AppData\Local\Temp\ccBvNvkC.s:862    .text.adc_inserted_channel_offset_config:0000000000000012 .L0 
C:\Users\Karzan\AppData\Local\Temp\ccBvNvkC.s:865    .text.adc_inserted_channel_offset_config:0000000000000014 .L0 
C:\Users\Karzan\AppData\Local\Temp\ccBvNvkC.s:868    .text.adc_inserted_channel_offset_config:0000000000000016 .L0 
C:\Users\Karzan\AppData\Local\Temp\ccBvNvkC.s:871    .text.adc_inserted_channel_offset_config:0000000000000018 .L0 
C:\Users\Karzan\AppData\Local\Temp\ccBvNvkC.s:873    .text.adc_inserted_channel_offset_config:000000000000001a .L0 
C:\Users\Karzan\AppData\Local\Temp\ccBvNvkC.s:877    .text.adc_inserted_channel_offset_config:000000000000001c .L0 
C:\Users\Karzan\AppData\Local\Temp\ccBvNvkC.s:878    .text.adc_inserted_channel_offset_config:000000000000001e .L0 
C:\Users\Karzan\AppData\Local\Temp\ccBvNvkC.s:885    .text.adc_external_trigger_source_config:0000000000000000 adc_external_trigger_source_config
C:\Users\Karzan\AppData\Local\Temp\ccBvNvkC.s:888    .text.adc_external_trigger_source_config:0000000000000000 .L0 
C:\Users\Karzan\AppData\Local\Temp\ccBvNvkC.s:890    .text.adc_external_trigger_source_config:0000000000000000 .L0 
C:\Users\Karzan\AppData\Local\Temp\ccBvNvkC.s:891    .text.adc_external_trigger_source_config:0000000000000000 .L0 
C:\Users\Karzan\AppData\Local\Temp\ccBvNvkC.s:898    .text.adc_external_trigger_source_config:000000000000000e .L0 
C:\Users\Karzan\AppData\Local\Temp\ccBvNvkC.s:899    .text.adc_external_trigger_source_config:000000000000000e .L0 
C:\Users\Karzan\AppData\Local\Temp\ccBvNvkC.s:906    .text.adc_external_trigger_source_config:000000000000001a .L0 
C:\Users\Karzan\AppData\Local\Temp\ccBvNvkC.s:907    .text.adc_external_trigger_source_config:000000000000001a .L0 
C:\Users\Karzan\AppData\Local\Temp\ccBvNvkC.s:911    .text.adc_external_trigger_source_config:0000000000000020 .L0 
C:\Users\Karzan\AppData\Local\Temp\ccBvNvkC.s:915    .text.adc_external_trigger_source_config:0000000000000022 .L0 
C:\Users\Karzan\AppData\Local\Temp\ccBvNvkC.s:916    .text.adc_external_trigger_source_config:0000000000000022 .L0 
C:\Users\Karzan\AppData\Local\Temp\ccBvNvkC.s:922    .text.adc_external_trigger_source_config:000000000000002c .L0 
C:\Users\Karzan\AppData\Local\Temp\ccBvNvkC.s:923    .text.adc_external_trigger_source_config:000000000000002c .L0 
C:\Users\Karzan\AppData\Local\Temp\ccBvNvkC.s:927    .text.adc_external_trigger_source_config:0000000000000032 .L0 
C:\Users\Karzan\AppData\Local\Temp\ccBvNvkC.s:928    .text.adc_external_trigger_source_config:0000000000000032 .L0 
C:\Users\Karzan\AppData\Local\Temp\ccBvNvkC.s:929    .text.adc_external_trigger_source_config:0000000000000034 .L0 
C:\Users\Karzan\AppData\Local\Temp\ccBvNvkC.s:936    .text.adc_external_trigger_config:0000000000000000 adc_external_trigger_config
C:\Users\Karzan\AppData\Local\Temp\ccBvNvkC.s:939    .text.adc_external_trigger_config:0000000000000000 .L0 
C:\Users\Karzan\AppData\Local\Temp\ccBvNvkC.s:941    .text.adc_external_trigger_config:0000000000000000 .L0 
C:\Users\Karzan\AppData\Local\Temp\ccBvNvkC.s:942    .text.adc_external_trigger_config:0000000000000000 .L0 
C:\Users\Karzan\AppData\Local\Temp\ccBvNvkC.s:946    .text.adc_external_trigger_config:0000000000000006 .L0 
C:\Users\Karzan\AppData\Local\Temp\ccBvNvkC.s:948    .text.adc_external_trigger_config:0000000000000008 .L0 
C:\Users\Karzan\AppData\Local\Temp\ccBvNvkC.s:949    .text.adc_external_trigger_config:0000000000000008 .L0 
C:\Users\Karzan\AppData\Local\Temp\ccBvNvkC.s:951    .text.adc_external_trigger_config:000000000000000a .L0 
C:\Users\Karzan\AppData\Local\Temp\ccBvNvkC.s:952    .text.adc_external_trigger_config:000000000000000a .L0 
C:\Users\Karzan\AppData\Local\Temp\ccBvNvkC.s:958    .text.adc_external_trigger_config:0000000000000014 .L0 
C:\Users\Karzan\AppData\Local\Temp\ccBvNvkC.s:959    .text.adc_external_trigger_config:0000000000000014 .L0 
C:\Users\Karzan\AppData\Local\Temp\ccBvNvkC.s:961    .text.adc_external_trigger_config:0000000000000016 .L0 
C:\Users\Karzan\AppData\Local\Temp\ccBvNvkC.s:962    .text.adc_external_trigger_config:0000000000000016 .L0 
C:\Users\Karzan\AppData\Local\Temp\ccBvNvkC.s:967    .text.adc_external_trigger_config:000000000000001c .L0 
C:\Users\Karzan\AppData\Local\Temp\ccBvNvkC.s:970    .text.adc_external_trigger_config:000000000000001e .L0 
C:\Users\Karzan\AppData\Local\Temp\ccBvNvkC.s:973    .text.adc_external_trigger_config:0000000000000020 .L0 
C:\Users\Karzan\AppData\Local\Temp\ccBvNvkC.s:974    .text.adc_external_trigger_config:0000000000000020 .L0 
C:\Users\Karzan\AppData\Local\Temp\ccBvNvkC.s:976    .text.adc_external_trigger_config:0000000000000022 .L0 
C:\Users\Karzan\AppData\Local\Temp\ccBvNvkC.s:977    .text.adc_external_trigger_config:0000000000000022 .L0 
C:\Users\Karzan\AppData\Local\Temp\ccBvNvkC.s:984    .text.adc_external_trigger_config:000000000000002e .L0 
C:\Users\Karzan\AppData\Local\Temp\ccBvNvkC.s:985    .text.adc_external_trigger_config:000000000000002e .L0 
C:\Users\Karzan\AppData\Local\Temp\ccBvNvkC.s:987    .text.adc_external_trigger_config:0000000000000030 .L0 
C:\Users\Karzan\AppData\Local\Temp\ccBvNvkC.s:988    .text.adc_external_trigger_config:0000000000000030 .L0 
C:\Users\Karzan\AppData\Local\Temp\ccBvNvkC.s:993    .text.adc_external_trigger_config:000000000000003a .L0 
C:\Users\Karzan\AppData\Local\Temp\ccBvNvkC.s:1000   .text.adc_software_trigger_enable:0000000000000000 adc_software_trigger_enable
C:\Users\Karzan\AppData\Local\Temp\ccBvNvkC.s:1003   .text.adc_software_trigger_enable:0000000000000000 .L0 
C:\Users\Karzan\AppData\Local\Temp\ccBvNvkC.s:1005   .text.adc_software_trigger_enable:0000000000000000 .L0 
C:\Users\Karzan\AppData\Local\Temp\ccBvNvkC.s:1006   .text.adc_software_trigger_enable:0000000000000000 .L0 
C:\Users\Karzan\AppData\Local\Temp\ccBvNvkC.s:1007   .text.adc_software_trigger_enable:0000000000000000 .L0 
C:\Users\Karzan\AppData\Local\Temp\ccBvNvkC.s:1010   .text.adc_software_trigger_enable:0000000000000006 .L0 
C:\Users\Karzan\AppData\Local\Temp\ccBvNvkC.s:1011   .text.adc_software_trigger_enable:0000000000000006 .L0 
C:\Users\Karzan\AppData\Local\Temp\ccBvNvkC.s:1017   .text.adc_software_trigger_enable:0000000000000010 .L0 
C:\Users\Karzan\AppData\Local\Temp\ccBvNvkC.s:1018   .text.adc_software_trigger_enable:0000000000000010 .L0 
GAS LISTING C:\Users\Karzan\AppData\Local\Temp\ccBvNvkC.s 			page 56


C:\Users\Karzan\AppData\Local\Temp\ccBvNvkC.s:1022   .text.adc_software_trigger_enable:0000000000000014 .L0 
C:\Users\Karzan\AppData\Local\Temp\ccBvNvkC.s:1023   .text.adc_software_trigger_enable:0000000000000014 .L0 
C:\Users\Karzan\AppData\Local\Temp\ccBvNvkC.s:1029   .text.adc_software_trigger_enable:000000000000001e .L0 
C:\Users\Karzan\AppData\Local\Temp\ccBvNvkC.s:1030   .text.adc_software_trigger_enable:0000000000000020 .L0 
C:\Users\Karzan\AppData\Local\Temp\ccBvNvkC.s:1037   .text.adc_regular_data_read:0000000000000000 adc_regular_data_read
C:\Users\Karzan\AppData\Local\Temp\ccBvNvkC.s:1040   .text.adc_regular_data_read:0000000000000000 .L0 
C:\Users\Karzan\AppData\Local\Temp\ccBvNvkC.s:1042   .text.adc_regular_data_read:0000000000000000 .L0 
C:\Users\Karzan\AppData\Local\Temp\ccBvNvkC.s:1043   .text.adc_regular_data_read:0000000000000000 .L0 
C:\Users\Karzan\AppData\Local\Temp\ccBvNvkC.s:1044   .text.adc_regular_data_read:0000000000000000 .L0 
C:\Users\Karzan\AppData\Local\Temp\ccBvNvkC.s:1047   .text.adc_regular_data_read:0000000000000002 .L0 
C:\Users\Karzan\AppData\Local\Temp\ccBvNvkC.s:1050   .text.adc_regular_data_read:0000000000000008 .L0 
C:\Users\Karzan\AppData\Local\Temp\ccBvNvkC.s:1057   .text.adc_inserted_data_read:0000000000000000 adc_inserted_data_read
C:\Users\Karzan\AppData\Local\Temp\ccBvNvkC.s:1060   .text.adc_inserted_data_read:0000000000000000 .L0 
C:\Users\Karzan\AppData\Local\Temp\ccBvNvkC.s:1062   .text.adc_inserted_data_read:0000000000000000 .L0 
C:\Users\Karzan\AppData\Local\Temp\ccBvNvkC.s:1063   .text.adc_inserted_data_read:0000000000000000 .L0 
C:\Users\Karzan\AppData\Local\Temp\ccBvNvkC.s:1064   .text.adc_inserted_data_read:0000000000000000 .L0 
C:\Users\Karzan\AppData\Local\Temp\ccBvNvkC.s:1072   .text.adc_inserted_data_read:0000000000000014 .L0 
C:\Users\Karzan\AppData\Local\Temp\ccBvNvkC.s:1076   .text.adc_inserted_data_read:0000000000000016 .L0 
C:\Users\Karzan\AppData\Local\Temp\ccBvNvkC.s:1077   .text.adc_inserted_data_read:0000000000000016 .L0 
C:\Users\Karzan\AppData\Local\Temp\ccBvNvkC.s:1084   .text.adc_inserted_data_read:000000000000001c .L0 
C:\Users\Karzan\AppData\Local\Temp\ccBvNvkC.s:1085   .text.adc_inserted_data_read:000000000000001c .L0 
C:\Users\Karzan\AppData\Local\Temp\ccBvNvkC.s:1088   .text.adc_inserted_data_read:000000000000001e .L0 
C:\Users\Karzan\AppData\Local\Temp\ccBvNvkC.s:1092   .text.adc_inserted_data_read:0000000000000020 .L0 
C:\Users\Karzan\AppData\Local\Temp\ccBvNvkC.s:1093   .text.adc_inserted_data_read:0000000000000020 .L0 
C:\Users\Karzan\AppData\Local\Temp\ccBvNvkC.s:1096   .text.adc_inserted_data_read:0000000000000022 .L0 
C:\Users\Karzan\AppData\Local\Temp\ccBvNvkC.s:1100   .text.adc_inserted_data_read:0000000000000024 .L0 
C:\Users\Karzan\AppData\Local\Temp\ccBvNvkC.s:1101   .text.adc_inserted_data_read:0000000000000024 .L0 
C:\Users\Karzan\AppData\Local\Temp\ccBvNvkC.s:1104   .text.adc_inserted_data_read:0000000000000026 .L0 
C:\Users\Karzan\AppData\Local\Temp\ccBvNvkC.s:1108   .text.adc_inserted_data_read:0000000000000028 .L0 
C:\Users\Karzan\AppData\Local\Temp\ccBvNvkC.s:1109   .text.adc_inserted_data_read:0000000000000028 .L0 
C:\Users\Karzan\AppData\Local\Temp\ccBvNvkC.s:1112   .text.adc_inserted_data_read:000000000000002a .L0 
C:\Users\Karzan\AppData\Local\Temp\ccBvNvkC.s:1113   .text.adc_inserted_data_read:000000000000002c .L0 
C:\Users\Karzan\AppData\Local\Temp\ccBvNvkC.s:1120   .text.adc_sync_mode_convert_value_read:0000000000000000 adc_sync_mode_convert_value_read
C:\Users\Karzan\AppData\Local\Temp\ccBvNvkC.s:1123   .text.adc_sync_mode_convert_value_read:0000000000000000 .L0 
C:\Users\Karzan\AppData\Local\Temp\ccBvNvkC.s:1124   .text.adc_sync_mode_convert_value_read:0000000000000000 .L0 
C:\Users\Karzan\AppData\Local\Temp\ccBvNvkC.s:1125   .text.adc_sync_mode_convert_value_read:0000000000000000 .L0 
C:\Users\Karzan\AppData\Local\Temp\ccBvNvkC.s:1126   .text.adc_sync_mode_convert_value_read:0000000000000000 .L0 
C:\Users\Karzan\AppData\Local\Temp\ccBvNvkC.s:1129   .text.adc_sync_mode_convert_value_read:0000000000000008 .L0 
C:\Users\Karzan\AppData\Local\Temp\ccBvNvkC.s:1130   .text.adc_sync_mode_convert_value_read:000000000000000a .L0 
C:\Users\Karzan\AppData\Local\Temp\ccBvNvkC.s:1137   .text.adc_watchdog_single_channel_enable:0000000000000000 adc_watchdog_single_channel_enable
C:\Users\Karzan\AppData\Local\Temp\ccBvNvkC.s:1140   .text.adc_watchdog_single_channel_enable:0000000000000000 .L0 
C:\Users\Karzan\AppData\Local\Temp\ccBvNvkC.s:1142   .text.adc_watchdog_single_channel_enable:0000000000000000 .L0 
C:\Users\Karzan\AppData\Local\Temp\ccBvNvkC.s:1143   .text.adc_watchdog_single_channel_enable:0000000000000000 .L0 
C:\Users\Karzan\AppData\Local\Temp\ccBvNvkC.s:1144   .text.adc_watchdog_single_channel_enable:0000000000000000 .L0 
C:\Users\Karzan\AppData\Local\Temp\ccBvNvkC.s:1150   .text.adc_watchdog_single_channel_enable:000000000000000e .L0 
C:\Users\Karzan\AppData\Local\Temp\ccBvNvkC.s:1151   .text.adc_watchdog_single_channel_enable:000000000000000e .L0 
C:\Users\Karzan\AppData\Local\Temp\ccBvNvkC.s:1153   .text.adc_watchdog_single_channel_enable:0000000000000010 .L0 
C:\Users\Karzan\AppData\Local\Temp\ccBvNvkC.s:1156   .text.adc_watchdog_single_channel_enable:0000000000000018 .L0 
C:\Users\Karzan\AppData\Local\Temp\ccBvNvkC.s:1160   .text.adc_watchdog_single_channel_enable:000000000000001c .L0 
C:\Users\Karzan\AppData\Local\Temp\ccBvNvkC.s:1161   .text.adc_watchdog_single_channel_enable:000000000000001c .L0 
C:\Users\Karzan\AppData\Local\Temp\ccBvNvkC.s:1165   .text.adc_watchdog_single_channel_enable:0000000000000022 .L0 
C:\Users\Karzan\AppData\Local\Temp\ccBvNvkC.s:1166   .text.adc_watchdog_single_channel_enable:0000000000000024 .L0 
C:\Users\Karzan\AppData\Local\Temp\ccBvNvkC.s:1173   .text.adc_watchdog_group_channel_enable:0000000000000000 adc_watchdog_group_channel_enable
C:\Users\Karzan\AppData\Local\Temp\ccBvNvkC.s:1176   .text.adc_watchdog_group_channel_enable:0000000000000000 .L0 
C:\Users\Karzan\AppData\Local\Temp\ccBvNvkC.s:1178   .text.adc_watchdog_group_channel_enable:0000000000000000 .L0 
C:\Users\Karzan\AppData\Local\Temp\ccBvNvkC.s:1179   .text.adc_watchdog_group_channel_enable:0000000000000000 .L0 
C:\Users\Karzan\AppData\Local\Temp\ccBvNvkC.s:1180   .text.adc_watchdog_group_channel_enable:0000000000000000 .L0 
GAS LISTING C:\Users\Karzan\AppData\Local\Temp\ccBvNvkC.s 			page 57


C:\Users\Karzan\AppData\Local\Temp\ccBvNvkC.s:1186   .text.adc_watchdog_group_channel_enable:000000000000000e .L0 
C:\Users\Karzan\AppData\Local\Temp\ccBvNvkC.s:1193   .text.adc_watchdog_group_channel_enable:0000000000000020 .L0 
C:\Users\Karzan\AppData\Local\Temp\ccBvNvkC.s:1194   .text.adc_watchdog_group_channel_enable:0000000000000020 .L0 
C:\Users\Karzan\AppData\Local\Temp\ccBvNvkC.s:1198   .text.adc_watchdog_group_channel_enable:0000000000000026 .L0 
C:\Users\Karzan\AppData\Local\Temp\ccBvNvkC.s:1202   .text.adc_watchdog_group_channel_enable:000000000000002a .L0 
C:\Users\Karzan\AppData\Local\Temp\ccBvNvkC.s:1203   .text.adc_watchdog_group_channel_enable:000000000000002a .L0 
C:\Users\Karzan\AppData\Local\Temp\ccBvNvkC.s:1206   .text.adc_watchdog_group_channel_enable:000000000000002c .L0 
C:\Users\Karzan\AppData\Local\Temp\ccBvNvkC.s:1207   .text.adc_watchdog_group_channel_enable:000000000000002c .L0 
C:\Users\Karzan\AppData\Local\Temp\ccBvNvkC.s:1212   .text.adc_watchdog_group_channel_enable:0000000000000034 .L0 
C:\Users\Karzan\AppData\Local\Temp\ccBvNvkC.s:1213   .text.adc_watchdog_group_channel_enable:0000000000000034 .L0 
C:\Users\Karzan\AppData\Local\Temp\ccBvNvkC.s:1216   .text.adc_watchdog_group_channel_enable:000000000000003c .L0 
C:\Users\Karzan\AppData\Local\Temp\ccBvNvkC.s:1223   .text.adc_watchdog_disable:0000000000000000 adc_watchdog_disable
C:\Users\Karzan\AppData\Local\Temp\ccBvNvkC.s:1226   .text.adc_watchdog_disable:0000000000000000 .L0 
C:\Users\Karzan\AppData\Local\Temp\ccBvNvkC.s:1228   .text.adc_watchdog_disable:0000000000000000 .L0 
C:\Users\Karzan\AppData\Local\Temp\ccBvNvkC.s:1229   .text.adc_watchdog_disable:0000000000000000 .L0 
C:\Users\Karzan\AppData\Local\Temp\ccBvNvkC.s:1230   .text.adc_watchdog_disable:0000000000000000 .L0 
C:\Users\Karzan\AppData\Local\Temp\ccBvNvkC.s:1236   .text.adc_watchdog_disable:000000000000000e .L0 
C:\Users\Karzan\AppData\Local\Temp\ccBvNvkC.s:1237   .text.adc_watchdog_disable:0000000000000010 .L0 
C:\Users\Karzan\AppData\Local\Temp\ccBvNvkC.s:1244   .text.adc_watchdog_threshold_config:0000000000000000 adc_watchdog_threshold_config
C:\Users\Karzan\AppData\Local\Temp\ccBvNvkC.s:1247   .text.adc_watchdog_threshold_config:0000000000000000 .L0 
C:\Users\Karzan\AppData\Local\Temp\ccBvNvkC.s:1249   .text.adc_watchdog_threshold_config:0000000000000000 .L0 
C:\Users\Karzan\AppData\Local\Temp\ccBvNvkC.s:1250   .text.adc_watchdog_threshold_config:0000000000000000 .L0 
C:\Users\Karzan\AppData\Local\Temp\ccBvNvkC.s:1251   .text.adc_watchdog_threshold_config:0000000000000000 .L0 
C:\Users\Karzan\AppData\Local\Temp\ccBvNvkC.s:1256   .text.adc_watchdog_threshold_config:0000000000000006 .L0 
C:\Users\Karzan\AppData\Local\Temp\ccBvNvkC.s:1258   .text.adc_watchdog_threshold_config:0000000000000008 .L0 
C:\Users\Karzan\AppData\Local\Temp\ccBvNvkC.s:1259   .text.adc_watchdog_threshold_config:0000000000000008 .L0 
C:\Users\Karzan\AppData\Local\Temp\ccBvNvkC.s:1262   .text.adc_watchdog_threshold_config:000000000000000a .L0 
C:\Users\Karzan\AppData\Local\Temp\ccBvNvkC.s:1264   .text.adc_watchdog_threshold_config:000000000000000c .L0 
C:\Users\Karzan\AppData\Local\Temp\ccBvNvkC.s:1265   .text.adc_watchdog_threshold_config:000000000000000e .L0 
C:\Users\Karzan\AppData\Local\Temp\ccBvNvkC.s:1272   .text.adc_flag_get:0000000000000000 adc_flag_get
C:\Users\Karzan\AppData\Local\Temp\ccBvNvkC.s:1275   .text.adc_flag_get:0000000000000000 .L0 
C:\Users\Karzan\AppData\Local\Temp\ccBvNvkC.s:1277   .text.adc_flag_get:0000000000000000 .L0 
C:\Users\Karzan\AppData\Local\Temp\ccBvNvkC.s:1278   .text.adc_flag_get:0000000000000000 .L0 
C:\Users\Karzan\AppData\Local\Temp\ccBvNvkC.s:1279   .text.adc_flag_get:0000000000000000 .L0 
C:\Users\Karzan\AppData\Local\Temp\ccBvNvkC.s:1280   .text.adc_flag_get:0000000000000000 .L0 
C:\Users\Karzan\AppData\Local\Temp\ccBvNvkC.s:1283   .text.adc_flag_get:0000000000000002 .L0 
C:\Users\Karzan\AppData\Local\Temp\ccBvNvkC.s:1284   .text.adc_flag_get:0000000000000002 .L0 
C:\Users\Karzan\AppData\Local\Temp\ccBvNvkC.s:1287   .text.adc_flag_get:0000000000000004 .L0 
C:\Users\Karzan\AppData\Local\Temp\ccBvNvkC.s:1289   .text.adc_flag_get:000000000000000a .L0 
C:\Users\Karzan\AppData\Local\Temp\ccBvNvkC.s:1296   .text.adc_flag_clear:0000000000000000 adc_flag_clear
C:\Users\Karzan\AppData\Local\Temp\ccBvNvkC.s:1299   .text.adc_flag_clear:0000000000000000 .L0 
C:\Users\Karzan\AppData\Local\Temp\ccBvNvkC.s:1301   .text.adc_flag_clear:0000000000000000 .L0 
C:\Users\Karzan\AppData\Local\Temp\ccBvNvkC.s:1302   .text.adc_flag_clear:0000000000000000 .L0 
C:\Users\Karzan\AppData\Local\Temp\ccBvNvkC.s:1303   .text.adc_flag_clear:0000000000000000 .L0 
C:\Users\Karzan\AppData\Local\Temp\ccBvNvkC.s:1305   .text.adc_flag_clear:0000000000000002 .L0 
C:\Users\Karzan\AppData\Local\Temp\ccBvNvkC.s:1308   .text.adc_flag_clear:0000000000000006 .L0 
C:\Users\Karzan\AppData\Local\Temp\ccBvNvkC.s:1312   .text.adc_flag_clear:000000000000000a .L0 
C:\Users\Karzan\AppData\Local\Temp\ccBvNvkC.s:1313   .text.adc_flag_clear:000000000000000c .L0 
C:\Users\Karzan\AppData\Local\Temp\ccBvNvkC.s:1320   .text.adc_regular_software_startconv_flag_get:0000000000000000 adc_regular_software_startconv_flag_get
C:\Users\Karzan\AppData\Local\Temp\ccBvNvkC.s:1323   .text.adc_regular_software_startconv_flag_get:0000000000000000 .L0 
C:\Users\Karzan\AppData\Local\Temp\ccBvNvkC.s:1325   .text.adc_regular_software_startconv_flag_get:0000000000000000 .L0 
C:\Users\Karzan\AppData\Local\Temp\ccBvNvkC.s:1326   .text.adc_regular_software_startconv_flag_get:0000000000000000 .L0 
C:\Users\Karzan\AppData\Local\Temp\ccBvNvkC.s:1327   .text.adc_regular_software_startconv_flag_get:0000000000000000 .L0 
C:\Users\Karzan\AppData\Local\Temp\ccBvNvkC.s:1328   .text.adc_regular_software_startconv_flag_get:0000000000000000 .L0 
C:\Users\Karzan\AppData\Local\Temp\ccBvNvkC.s:1331   .text.adc_regular_software_startconv_flag_get:0000000000000002 .L0 
C:\Users\Karzan\AppData\Local\Temp\ccBvNvkC.s:1332   .text.adc_regular_software_startconv_flag_get:0000000000000002 .L0 
C:\Users\Karzan\AppData\Local\Temp\ccBvNvkC.s:1335   .text.adc_regular_software_startconv_flag_get:0000000000000004 .L0 
GAS LISTING C:\Users\Karzan\AppData\Local\Temp\ccBvNvkC.s 			page 58


C:\Users\Karzan\AppData\Local\Temp\ccBvNvkC.s:1337   .text.adc_regular_software_startconv_flag_get:0000000000000008 .L0 
C:\Users\Karzan\AppData\Local\Temp\ccBvNvkC.s:1344   .text.adc_inserted_software_startconv_flag_get:0000000000000000 adc_inserted_software_startconv_flag_get
C:\Users\Karzan\AppData\Local\Temp\ccBvNvkC.s:1347   .text.adc_inserted_software_startconv_flag_get:0000000000000000 .L0 
C:\Users\Karzan\AppData\Local\Temp\ccBvNvkC.s:1349   .text.adc_inserted_software_startconv_flag_get:0000000000000000 .L0 
C:\Users\Karzan\AppData\Local\Temp\ccBvNvkC.s:1350   .text.adc_inserted_software_startconv_flag_get:0000000000000000 .L0 
C:\Users\Karzan\AppData\Local\Temp\ccBvNvkC.s:1351   .text.adc_inserted_software_startconv_flag_get:0000000000000000 .L0 
C:\Users\Karzan\AppData\Local\Temp\ccBvNvkC.s:1352   .text.adc_inserted_software_startconv_flag_get:0000000000000000 .L0 
C:\Users\Karzan\AppData\Local\Temp\ccBvNvkC.s:1355   .text.adc_inserted_software_startconv_flag_get:0000000000000002 .L0 
C:\Users\Karzan\AppData\Local\Temp\ccBvNvkC.s:1356   .text.adc_inserted_software_startconv_flag_get:0000000000000002 .L0 
C:\Users\Karzan\AppData\Local\Temp\ccBvNvkC.s:1359   .text.adc_inserted_software_startconv_flag_get:0000000000000004 .L0 
C:\Users\Karzan\AppData\Local\Temp\ccBvNvkC.s:1361   .text.adc_inserted_software_startconv_flag_get:0000000000000008 .L0 
C:\Users\Karzan\AppData\Local\Temp\ccBvNvkC.s:1368   .text.adc_interrupt_flag_get:0000000000000000 adc_interrupt_flag_get
C:\Users\Karzan\AppData\Local\Temp\ccBvNvkC.s:1371   .text.adc_interrupt_flag_get:0000000000000000 .L0 
C:\Users\Karzan\AppData\Local\Temp\ccBvNvkC.s:1373   .text.adc_interrupt_flag_get:0000000000000000 .L0 
C:\Users\Karzan\AppData\Local\Temp\ccBvNvkC.s:1374   .text.adc_interrupt_flag_get:0000000000000000 .L0 
C:\Users\Karzan\AppData\Local\Temp\ccBvNvkC.s:1375   .text.adc_interrupt_flag_get:0000000000000000 .L0 
C:\Users\Karzan\AppData\Local\Temp\ccBvNvkC.s:1376   .text.adc_interrupt_flag_get:0000000000000000 .L0 
C:\Users\Karzan\AppData\Local\Temp\ccBvNvkC.s:1382   .text.adc_interrupt_flag_get:000000000000000e .L0 
C:\Users\Karzan\AppData\Local\Temp\ccBvNvkC.s:1384   .text.adc_interrupt_flag_get:0000000000000010 .L0 
C:\Users\Karzan\AppData\Local\Temp\ccBvNvkC.s:1386   .text.adc_interrupt_flag_get:0000000000000014 .L0 
C:\Users\Karzan\AppData\Local\Temp\ccBvNvkC.s:1387   .text.adc_interrupt_flag_get:0000000000000014 .L0 
C:\Users\Karzan\AppData\Local\Temp\ccBvNvkC.s:1390   .text.adc_interrupt_flag_get:0000000000000016 .L0 
C:\Users\Karzan\AppData\Local\Temp\ccBvNvkC.s:1391   .text.adc_interrupt_flag_get:0000000000000016 .L0 
C:\Users\Karzan\AppData\Local\Temp\ccBvNvkC.s:1393   .text.adc_interrupt_flag_get:0000000000000018 .L0 
C:\Users\Karzan\AppData\Local\Temp\ccBvNvkC.s:1395   .text.adc_interrupt_flag_get:000000000000001c .L0 
C:\Users\Karzan\AppData\Local\Temp\ccBvNvkC.s:1400   .text.adc_interrupt_flag_get:0000000000000022 .L0 
C:\Users\Karzan\AppData\Local\Temp\ccBvNvkC.s:1406   .text.adc_interrupt_flag_get:0000000000000026 .L0 
C:\Users\Karzan\AppData\Local\Temp\ccBvNvkC.s:1407   .text.adc_interrupt_flag_get:0000000000000026 .L0 
C:\Users\Karzan\AppData\Local\Temp\ccBvNvkC.s:1410   .text.adc_interrupt_flag_get:0000000000000028 .L0 
C:\Users\Karzan\AppData\Local\Temp\ccBvNvkC.s:1411   .text.adc_interrupt_flag_get:0000000000000028 .L0 
C:\Users\Karzan\AppData\Local\Temp\ccBvNvkC.s:1413   .text.adc_interrupt_flag_get:000000000000002a .L0 
C:\Users\Karzan\AppData\Local\Temp\ccBvNvkC.s:1415   .text.adc_interrupt_flag_get:000000000000002e .L0 
C:\Users\Karzan\AppData\Local\Temp\ccBvNvkC.s:1417   .text.adc_interrupt_flag_get:0000000000000030 .L0 
C:\Users\Karzan\AppData\Local\Temp\ccBvNvkC.s:1421   .text.adc_interrupt_flag_get:0000000000000034 .L0 
C:\Users\Karzan\AppData\Local\Temp\ccBvNvkC.s:1425   .text.adc_interrupt_flag_get:0000000000000038 .L0 
C:\Users\Karzan\AppData\Local\Temp\ccBvNvkC.s:1426   .text.adc_interrupt_flag_get:0000000000000038 .L0 
C:\Users\Karzan\AppData\Local\Temp\ccBvNvkC.s:1429   .text.adc_interrupt_flag_get:000000000000003a .L0 
C:\Users\Karzan\AppData\Local\Temp\ccBvNvkC.s:1430   .text.adc_interrupt_flag_get:000000000000003a .L0 
C:\Users\Karzan\AppData\Local\Temp\ccBvNvkC.s:1432   .text.adc_interrupt_flag_get:000000000000003c .L0 
C:\Users\Karzan\AppData\Local\Temp\ccBvNvkC.s:1434   .text.adc_interrupt_flag_get:0000000000000040 .L0 
C:\Users\Karzan\AppData\Local\Temp\ccBvNvkC.s:1436   .text.adc_interrupt_flag_get:0000000000000042 .L0 
C:\Users\Karzan\AppData\Local\Temp\ccBvNvkC.s:1438   .text.adc_interrupt_flag_get:0000000000000048 .L0 
C:\Users\Karzan\AppData\Local\Temp\ccBvNvkC.s:1445   .text.adc_interrupt_flag_clear:0000000000000000 adc_interrupt_flag_clear
C:\Users\Karzan\AppData\Local\Temp\ccBvNvkC.s:1447   .text.adc_interrupt_flag_clear:0000000000000000 .L0 
C:\Users\Karzan\AppData\Local\Temp\ccBvNvkC.s:1449   .text.adc_interrupt_flag_clear:0000000000000008 .L0 
C:\Users\Karzan\AppData\Local\Temp\ccBvNvkC.s:1456   .text.adc_interrupt_enable:0000000000000000 adc_interrupt_enable
C:\Users\Karzan\AppData\Local\Temp\ccBvNvkC.s:1459   .text.adc_interrupt_enable:0000000000000000 .L0 
C:\Users\Karzan\AppData\Local\Temp\ccBvNvkC.s:1461   .text.adc_interrupt_enable:0000000000000000 .L0 
C:\Users\Karzan\AppData\Local\Temp\ccBvNvkC.s:1462   .text.adc_interrupt_enable:0000000000000000 .L0 
C:\Users\Karzan\AppData\Local\Temp\ccBvNvkC.s:1463   .text.adc_interrupt_enable:0000000000000000 .L0 
C:\Users\Karzan\AppData\Local\Temp\ccBvNvkC.s:1465   .text.adc_interrupt_enable:0000000000000004 .L0 
C:\Users\Karzan\AppData\Local\Temp\ccBvNvkC.s:1467   .text.adc_interrupt_enable:0000000000000006 .L0 
C:\Users\Karzan\AppData\Local\Temp\ccBvNvkC.s:1468   .text.adc_interrupt_enable:0000000000000006 .L0 
C:\Users\Karzan\AppData\Local\Temp\ccBvNvkC.s:1473   .text.adc_interrupt_enable:000000000000000e .L0 
C:\Users\Karzan\AppData\Local\Temp\ccBvNvkC.s:1474   .text.adc_interrupt_enable:000000000000000e .L0 
C:\Users\Karzan\AppData\Local\Temp\ccBvNvkC.s:1476   .text.adc_interrupt_enable:0000000000000012 .L0 
C:\Users\Karzan\AppData\Local\Temp\ccBvNvkC.s:1478   .text.adc_interrupt_enable:0000000000000014 .L0 
GAS LISTING C:\Users\Karzan\AppData\Local\Temp\ccBvNvkC.s 			page 59


C:\Users\Karzan\AppData\Local\Temp\ccBvNvkC.s:1479   .text.adc_interrupt_enable:0000000000000014 .L0 
C:\Users\Karzan\AppData\Local\Temp\ccBvNvkC.s:1484   .text.adc_interrupt_enable:000000000000001c .L0 
C:\Users\Karzan\AppData\Local\Temp\ccBvNvkC.s:1485   .text.adc_interrupt_enable:000000000000001c .L0 
C:\Users\Karzan\AppData\Local\Temp\ccBvNvkC.s:1488   .text.adc_interrupt_enable:000000000000001e .L0 
C:\Users\Karzan\AppData\Local\Temp\ccBvNvkC.s:1490   .text.adc_interrupt_enable:0000000000000020 .L0 
C:\Users\Karzan\AppData\Local\Temp\ccBvNvkC.s:1491   .text.adc_interrupt_enable:0000000000000020 .L0 
C:\Users\Karzan\AppData\Local\Temp\ccBvNvkC.s:1496   .text.adc_interrupt_enable:0000000000000028 .L0 
C:\Users\Karzan\AppData\Local\Temp\ccBvNvkC.s:1497   .text.adc_interrupt_enable:000000000000002a .L0 
C:\Users\Karzan\AppData\Local\Temp\ccBvNvkC.s:1504   .text.adc_interrupt_disable:0000000000000000 adc_interrupt_disable
C:\Users\Karzan\AppData\Local\Temp\ccBvNvkC.s:1507   .text.adc_interrupt_disable:0000000000000000 .L0 
C:\Users\Karzan\AppData\Local\Temp\ccBvNvkC.s:1509   .text.adc_interrupt_disable:0000000000000000 .L0 
C:\Users\Karzan\AppData\Local\Temp\ccBvNvkC.s:1510   .text.adc_interrupt_disable:0000000000000000 .L0 
C:\Users\Karzan\AppData\Local\Temp\ccBvNvkC.s:1511   .text.adc_interrupt_disable:0000000000000000 .L0 
C:\Users\Karzan\AppData\Local\Temp\ccBvNvkC.s:1513   .text.adc_interrupt_disable:0000000000000004 .L0 
C:\Users\Karzan\AppData\Local\Temp\ccBvNvkC.s:1515   .text.adc_interrupt_disable:0000000000000006 .L0 
C:\Users\Karzan\AppData\Local\Temp\ccBvNvkC.s:1516   .text.adc_interrupt_disable:0000000000000006 .L0 
C:\Users\Karzan\AppData\Local\Temp\ccBvNvkC.s:1521   .text.adc_interrupt_disable:000000000000000e .L0 
C:\Users\Karzan\AppData\Local\Temp\ccBvNvkC.s:1522   .text.adc_interrupt_disable:000000000000000e .L0 
C:\Users\Karzan\AppData\Local\Temp\ccBvNvkC.s:1524   .text.adc_interrupt_disable:0000000000000012 .L0 
C:\Users\Karzan\AppData\Local\Temp\ccBvNvkC.s:1526   .text.adc_interrupt_disable:0000000000000014 .L0 
C:\Users\Karzan\AppData\Local\Temp\ccBvNvkC.s:1527   .text.adc_interrupt_disable:0000000000000014 .L0 
C:\Users\Karzan\AppData\Local\Temp\ccBvNvkC.s:1532   .text.adc_interrupt_disable:000000000000001c .L0 
C:\Users\Karzan\AppData\Local\Temp\ccBvNvkC.s:1533   .text.adc_interrupt_disable:000000000000001c .L0 
C:\Users\Karzan\AppData\Local\Temp\ccBvNvkC.s:1536   .text.adc_interrupt_disable:000000000000001e .L0 
C:\Users\Karzan\AppData\Local\Temp\ccBvNvkC.s:1538   .text.adc_interrupt_disable:0000000000000020 .L0 
C:\Users\Karzan\AppData\Local\Temp\ccBvNvkC.s:1539   .text.adc_interrupt_disable:0000000000000020 .L0 
C:\Users\Karzan\AppData\Local\Temp\ccBvNvkC.s:1544   .text.adc_interrupt_disable:0000000000000028 .L0 
C:\Users\Karzan\AppData\Local\Temp\ccBvNvkC.s:1545   .text.adc_interrupt_disable:000000000000002a .L0 
C:\Users\Karzan\AppData\Local\Temp\ccBvNvkC.s:1552   .text.adc_resolution_config:0000000000000000 adc_resolution_config
C:\Users\Karzan\AppData\Local\Temp\ccBvNvkC.s:1555   .text.adc_resolution_config:0000000000000000 .L0 
C:\Users\Karzan\AppData\Local\Temp\ccBvNvkC.s:1557   .text.adc_resolution_config:0000000000000000 .L0 
C:\Users\Karzan\AppData\Local\Temp\ccBvNvkC.s:1558   .text.adc_resolution_config:0000000000000000 .L0 
C:\Users\Karzan\AppData\Local\Temp\ccBvNvkC.s:1559   .text.adc_resolution_config:0000000000000000 .L0 
C:\Users\Karzan\AppData\Local\Temp\ccBvNvkC.s:1565   .text.adc_resolution_config:000000000000000e .L0 
C:\Users\Karzan\AppData\Local\Temp\ccBvNvkC.s:1566   .text.adc_resolution_config:000000000000000e .L0 
C:\Users\Karzan\AppData\Local\Temp\ccBvNvkC.s:1571   .text.adc_resolution_config:0000000000000018 .L0 
C:\Users\Karzan\AppData\Local\Temp\ccBvNvkC.s:1572   .text.adc_resolution_config:000000000000001a .L0 
C:\Users\Karzan\AppData\Local\Temp\ccBvNvkC.s:1579   .text.adc_oversample_mode_config:0000000000000000 adc_oversample_mode_config
C:\Users\Karzan\AppData\Local\Temp\ccBvNvkC.s:1582   .text.adc_oversample_mode_config:0000000000000000 .L0 
C:\Users\Karzan\AppData\Local\Temp\ccBvNvkC.s:1584   .text.adc_oversample_mode_config:0000000000000000 .L0 
C:\Users\Karzan\AppData\Local\Temp\ccBvNvkC.s:1585   .text.adc_oversample_mode_config:0000000000000000 .L0 
C:\Users\Karzan\AppData\Local\Temp\ccBvNvkC.s:1586   .text.adc_oversample_mode_config:0000000000000000 .L0 
C:\Users\Karzan\AppData\Local\Temp\ccBvNvkC.s:1588   .text.adc_oversample_mode_config:0000000000000004 .L0 
C:\Users\Karzan\AppData\Local\Temp\ccBvNvkC.s:1590   .text.adc_oversample_mode_config:0000000000000006 .L0 
C:\Users\Karzan\AppData\Local\Temp\ccBvNvkC.s:1591   .text.adc_oversample_mode_config:0000000000000006 .L0 
C:\Users\Karzan\AppData\Local\Temp\ccBvNvkC.s:1594   .text.adc_oversample_mode_config:000000000000000a .L0 
C:\Users\Karzan\AppData\Local\Temp\ccBvNvkC.s:1596   .text.adc_oversample_mode_config:000000000000000e .L0 
C:\Users\Karzan\AppData\Local\Temp\ccBvNvkC.s:1597   .text.adc_oversample_mode_config:000000000000000e .L0 
C:\Users\Karzan\AppData\Local\Temp\ccBvNvkC.s:1599   .text.adc_oversample_mode_config:0000000000000012 .L0 
C:\Users\Karzan\AppData\Local\Temp\ccBvNvkC.s:1602   .text.adc_oversample_mode_config:0000000000000014 .L0 
C:\Users\Karzan\AppData\Local\Temp\ccBvNvkC.s:1605   .text.adc_oversample_mode_config:000000000000001c .L0 
C:\Users\Karzan\AppData\Local\Temp\ccBvNvkC.s:1606   .text.adc_oversample_mode_config:000000000000001c .L0 
C:\Users\Karzan\AppData\Local\Temp\ccBvNvkC.s:1610   .text.adc_oversample_mode_config:0000000000000026 .L0 
C:\Users\Karzan\AppData\Local\Temp\ccBvNvkC.s:1614   .text.adc_oversample_mode_config:0000000000000028 .L0 
C:\Users\Karzan\AppData\Local\Temp\ccBvNvkC.s:1615   .text.adc_oversample_mode_config:0000000000000028 .L0 
C:\Users\Karzan\AppData\Local\Temp\ccBvNvkC.s:1617   .text.adc_oversample_mode_config:000000000000002e .L0 
C:\Users\Karzan\AppData\Local\Temp\ccBvNvkC.s:1624   .text.adc_oversample_mode_enable:0000000000000000 adc_oversample_mode_enable
GAS LISTING C:\Users\Karzan\AppData\Local\Temp\ccBvNvkC.s 			page 60


C:\Users\Karzan\AppData\Local\Temp\ccBvNvkC.s:1627   .text.adc_oversample_mode_enable:0000000000000000 .L0 
C:\Users\Karzan\AppData\Local\Temp\ccBvNvkC.s:1629   .text.adc_oversample_mode_enable:0000000000000000 .L0 
C:\Users\Karzan\AppData\Local\Temp\ccBvNvkC.s:1630   .text.adc_oversample_mode_enable:0000000000000000 .L0 
C:\Users\Karzan\AppData\Local\Temp\ccBvNvkC.s:1631   .text.adc_oversample_mode_enable:0000000000000000 .L0 
C:\Users\Karzan\AppData\Local\Temp\ccBvNvkC.s:1635   .text.adc_oversample_mode_enable:000000000000000c .L0 
C:\Users\Karzan\AppData\Local\Temp\ccBvNvkC.s:1636   .text.adc_oversample_mode_enable:000000000000000e .L0 
C:\Users\Karzan\AppData\Local\Temp\ccBvNvkC.s:1643   .text.adc_oversample_mode_disable:0000000000000000 adc_oversample_mode_disable
C:\Users\Karzan\AppData\Local\Temp\ccBvNvkC.s:1646   .text.adc_oversample_mode_disable:0000000000000000 .L0 
C:\Users\Karzan\AppData\Local\Temp\ccBvNvkC.s:1648   .text.adc_oversample_mode_disable:0000000000000000 .L0 
C:\Users\Karzan\AppData\Local\Temp\ccBvNvkC.s:1649   .text.adc_oversample_mode_disable:0000000000000000 .L0 
C:\Users\Karzan\AppData\Local\Temp\ccBvNvkC.s:1650   .text.adc_oversample_mode_disable:0000000000000000 .L0 
C:\Users\Karzan\AppData\Local\Temp\ccBvNvkC.s:1654   .text.adc_oversample_mode_disable:000000000000000a .L0 
C:\Users\Karzan\AppData\Local\Temp\ccBvNvkC.s:1655   .text.adc_oversample_mode_disable:000000000000000c .L0 
C:\Users\Karzan\AppData\Local\Temp\ccBvNvkC.s:78     .text.adc_deinit:0000000000000050 .L0 
C:\Users\Karzan\AppData\Local\Temp\ccBvNvkC.s:106    .text.adc_mode_config:0000000000000020 .L0 
C:\Users\Karzan\AppData\Local\Temp\ccBvNvkC.s:183    .text.adc_special_function_config:0000000000000048 .L0 
C:\Users\Karzan\AppData\Local\Temp\ccBvNvkC.s:217    .text.adc_data_alignment_config:000000000000001a .L0 
C:\Users\Karzan\AppData\Local\Temp\ccBvNvkC.s:244    .text.adc_enable:0000000000000010 .L0 
C:\Users\Karzan\AppData\Local\Temp\ccBvNvkC.s:263    .text.adc_disable:0000000000000008 .L0 
C:\Users\Karzan\AppData\Local\Temp\ccBvNvkC.s:306    .text.adc_calibration_enable:0000000000000022 .L0 
C:\Users\Karzan\AppData\Local\Temp\ccBvNvkC.s:326    .text.adc_tempsensor_vrefint_enable:0000000000000014 .L0 
C:\Users\Karzan\AppData\Local\Temp\ccBvNvkC.s:347    .text.adc_tempsensor_vrefint_disable:0000000000000016 .L0 
C:\Users\Karzan\AppData\Local\Temp\ccBvNvkC.s:366    .text.adc_dma_mode_enable:000000000000000a .L0 
C:\Users\Karzan\AppData\Local\Temp\ccBvNvkC.s:385    .text.adc_dma_mode_disable:000000000000000a .L0 
C:\Users\Karzan\AppData\Local\Temp\ccBvNvkC.s:449    .text.adc_discontinuous_mode_config:0000000000000046 .L0 
C:\Users\Karzan\AppData\Local\Temp\ccBvNvkC.s:515    .text.adc_channel_length_config:000000000000004a .L0 
C:\Users\Karzan\AppData\Local\Temp\ccBvNvkC.s:699    .text.adc_regular_channel_config:00000000000000be .L0 
C:\Users\Karzan\AppData\Local\Temp\ccBvNvkC.s:824    .text.adc_inserted_channel_config:0000000000000076 .L0 
C:\Users\Karzan\AppData\Local\Temp\ccBvNvkC.s:881    .text.adc_inserted_channel_offset_config:000000000000001e .L0 
C:\Users\Karzan\AppData\Local\Temp\ccBvNvkC.s:932    .text.adc_external_trigger_source_config:0000000000000034 .L0 
C:\Users\Karzan\AppData\Local\Temp\ccBvNvkC.s:996    .text.adc_external_trigger_config:000000000000003a .L0 
C:\Users\Karzan\AppData\Local\Temp\ccBvNvkC.s:1033   .text.adc_software_trigger_enable:0000000000000020 .L0 
C:\Users\Karzan\AppData\Local\Temp\ccBvNvkC.s:1053   .text.adc_regular_data_read:0000000000000008 .L0 
C:\Users\Karzan\AppData\Local\Temp\ccBvNvkC.s:1116   .text.adc_inserted_data_read:000000000000002c .L0 
C:\Users\Karzan\AppData\Local\Temp\ccBvNvkC.s:1133   .text.adc_sync_mode_convert_value_read:000000000000000a .L0 
C:\Users\Karzan\AppData\Local\Temp\ccBvNvkC.s:1169   .text.adc_watchdog_single_channel_enable:0000000000000024 .L0 
C:\Users\Karzan\AppData\Local\Temp\ccBvNvkC.s:1219   .text.adc_watchdog_group_channel_enable:000000000000003c .L0 
C:\Users\Karzan\AppData\Local\Temp\ccBvNvkC.s:1240   .text.adc_watchdog_disable:0000000000000010 .L0 
C:\Users\Karzan\AppData\Local\Temp\ccBvNvkC.s:1268   .text.adc_watchdog_threshold_config:000000000000000e .L0 
C:\Users\Karzan\AppData\Local\Temp\ccBvNvkC.s:1292   .text.adc_flag_get:000000000000000a .L0 
C:\Users\Karzan\AppData\Local\Temp\ccBvNvkC.s:1316   .text.adc_flag_clear:000000000000000c .L0 
C:\Users\Karzan\AppData\Local\Temp\ccBvNvkC.s:1340   .text.adc_regular_software_startconv_flag_get:0000000000000008 .L0 
C:\Users\Karzan\AppData\Local\Temp\ccBvNvkC.s:1364   .text.adc_inserted_software_startconv_flag_get:0000000000000008 .L0 
C:\Users\Karzan\AppData\Local\Temp\ccBvNvkC.s:1441   .text.adc_interrupt_flag_get:0000000000000048 .L0 
C:\Users\Karzan\AppData\Local\Temp\ccBvNvkC.s:1500   .text.adc_interrupt_enable:000000000000002a .L0 
C:\Users\Karzan\AppData\Local\Temp\ccBvNvkC.s:1548   .text.adc_interrupt_disable:000000000000002a .L0 
C:\Users\Karzan\AppData\Local\Temp\ccBvNvkC.s:1575   .text.adc_resolution_config:000000000000001a .L0 
C:\Users\Karzan\AppData\Local\Temp\ccBvNvkC.s:1620   .text.adc_oversample_mode_config:000000000000002e .L0 
C:\Users\Karzan\AppData\Local\Temp\ccBvNvkC.s:1639   .text.adc_oversample_mode_enable:000000000000000e .L0 
C:\Users\Karzan\AppData\Local\Temp\ccBvNvkC.s:1658   .text.adc_oversample_mode_disable:000000000000000c .L0 
                     .debug_frame:0000000000000000 .L0 
C:\Users\Karzan\AppData\Local\Temp\ccBvNvkC.s:43     .text.adc_deinit:0000000000000022 .L2
C:\Users\Karzan\AppData\Local\Temp\ccBvNvkC.s:64     .text.adc_deinit:000000000000003e .L3
C:\Users\Karzan\AppData\Local\Temp\ccBvNvkC.s:53     .text.adc_deinit:0000000000000032 .L7
C:\Users\Karzan\AppData\Local\Temp\ccBvNvkC.s:153    .text.adc_special_function_config:000000000000002c .L10
C:\Users\Karzan\AppData\Local\Temp\ccBvNvkC.s:130    .text.adc_special_function_config:0000000000000016 .L11
C:\Users\Karzan\AppData\Local\Temp\ccBvNvkC.s:139    .text.adc_special_function_config:0000000000000020 .L12
GAS LISTING C:\Users\Karzan\AppData\Local\Temp\ccBvNvkC.s 			page 61


C:\Users\Karzan\AppData\Local\Temp\ccBvNvkC.s:150    .text.adc_special_function_config:000000000000002a .L9
C:\Users\Karzan\AppData\Local\Temp\ccBvNvkC.s:162    .text.adc_special_function_config:0000000000000036 .L15
C:\Users\Karzan\AppData\Local\Temp\ccBvNvkC.s:171    .text.adc_special_function_config:0000000000000040 .L16
C:\Users\Karzan\AppData\Local\Temp\ccBvNvkC.s:147    .text.adc_special_function_config:0000000000000028 .L33
C:\Users\Karzan\AppData\Local\Temp\ccBvNvkC.s:207    .text.adc_data_alignment_config:0000000000000010 .L35
C:\Users\Karzan\AppData\Local\Temp\ccBvNvkC.s:202    .text.adc_data_alignment_config:000000000000000c .L37
C:\Users\Karzan\AppData\Local\Temp\ccBvNvkC.s:238    .text.adc_enable:000000000000000e .L38
C:\Users\Karzan\AppData\Local\Temp\ccBvNvkC.s:279    .text.adc_calibration_enable:000000000000000c .L42
C:\Users\Karzan\AppData\Local\Temp\ccBvNvkC.s:293    .text.adc_calibration_enable:000000000000001a .L43
C:\Users\Karzan\AppData\Local\Temp\ccBvNvkC.s:407    .text.adc_discontinuous_mode_config:000000000000001a .L51
C:\Users\Karzan\AppData\Local\Temp\ccBvNvkC.s:440    .text.adc_discontinuous_mode_config:0000000000000040 .L52
C:\Users\Karzan\AppData\Local\Temp\ccBvNvkC.s:432    .text.adc_discontinuous_mode_config:000000000000003a .L54
C:\Users\Karzan\AppData\Local\Temp\ccBvNvkC.s:464    .text.adc_channel_length_config:000000000000000e .L56
C:\Users\Karzan\AppData\Local\Temp\ccBvNvkC.s:488    .text.adc_channel_length_config:000000000000002c .L57
C:\Users\Karzan\AppData\Local\Temp\ccBvNvkC.s:589    .text.adc_regular_channel_config:0000000000000048 .L60
C:\Users\Karzan\AppData\Local\Temp\ccBvNvkC.s:657    .text.adc_regular_channel_config:0000000000000098 .L63
C:\Users\Karzan\AppData\Local\Temp\ccBvNvkC.s:623    .text.adc_regular_channel_config:0000000000000070 .L62
C:\Users\Karzan\AppData\Local\Temp\ccBvNvkC.s:555    .text.adc_regular_channel_config:0000000000000024 .L61
C:\Users\Karzan\AppData\Local\Temp\ccBvNvkC.s:693    .text.adc_regular_channel_config:00000000000000bc .L59
C:\Users\Karzan\AppData\Local\Temp\ccBvNvkC.s:782    .text.adc_inserted_channel_config:0000000000000050 .L66
C:\Users\Karzan\AppData\Local\Temp\ccBvNvkC.s:818    .text.adc_inserted_channel_config:0000000000000074 .L65
C:\Users\Karzan\AppData\Local\Temp\ccBvNvkC.s:875    .text.adc_inserted_channel_offset_config:000000000000001c .L68
C:\Users\Karzan\AppData\Local\Temp\ccBvNvkC.s:896    .text.adc_external_trigger_source_config:000000000000000e .L71
C:\Users\Karzan\AppData\Local\Temp\ccBvNvkC.s:913    .text.adc_external_trigger_source_config:0000000000000022 .L72
C:\Users\Karzan\AppData\Local\Temp\ccBvNvkC.s:971    .text.adc_external_trigger_config:0000000000000020 .L75
C:\Users\Karzan\AppData\Local\Temp\ccBvNvkC.s:956    .text.adc_external_trigger_config:0000000000000014 .L76
C:\Users\Karzan\AppData\Local\Temp\ccBvNvkC.s:968    .text.adc_external_trigger_config:000000000000001e .L74
C:\Users\Karzan\AppData\Local\Temp\ccBvNvkC.s:982    .text.adc_external_trigger_config:000000000000002e .L79
C:\Users\Karzan\AppData\Local\Temp\ccBvNvkC.s:965    .text.adc_external_trigger_config:000000000000001c .L90
C:\Users\Karzan\AppData\Local\Temp\ccBvNvkC.s:1015   .text.adc_software_trigger_enable:0000000000000010 .L92
C:\Users\Karzan\AppData\Local\Temp\ccBvNvkC.s:1027   .text.adc_software_trigger_enable:000000000000001e .L91
C:\Users\Karzan\AppData\Local\Temp\ccBvNvkC.s:1090   .text.adc_inserted_data_read:0000000000000020 .L102
C:\Users\Karzan\AppData\Local\Temp\ccBvNvkC.s:1082   .text.adc_inserted_data_read:000000000000001c .L103
C:\Users\Karzan\AppData\Local\Temp\ccBvNvkC.s:1098   .text.adc_inserted_data_read:0000000000000024 .L104
C:\Users\Karzan\AppData\Local\Temp\ccBvNvkC.s:1106   .text.adc_inserted_data_read:0000000000000028 .L105
C:\Users\Karzan\AppData\Local\Temp\ccBvNvkC.s:1074   .text.adc_inserted_data_read:0000000000000016 .L106
C:\Users\Karzan\AppData\Local\Temp\ccBvNvkC.s:1204   .text.adc_watchdog_group_channel_enable:000000000000002c .L110
C:\Users\Karzan\AppData\Local\Temp\ccBvNvkC.s:1210   .text.adc_watchdog_group_channel_enable:0000000000000034 .L111
C:\Users\Karzan\AppData\Local\Temp\ccBvNvkC.s:1201   .text.adc_watchdog_group_channel_enable:000000000000002a .L109
C:\Users\Karzan\AppData\Local\Temp\ccBvNvkC.s:1196   .text.adc_watchdog_group_channel_enable:0000000000000026 .L113
C:\Users\Karzan\AppData\Local\Temp\ccBvNvkC.s:1404   .text.adc_interrupt_flag_get:0000000000000026 .L121
C:\Users\Karzan\AppData\Local\Temp\ccBvNvkC.s:1423   .text.adc_interrupt_flag_get:0000000000000038 .L122
C:\Users\Karzan\AppData\Local\Temp\ccBvNvkC.s:1398   .text.adc_interrupt_flag_get:0000000000000022 .L120
C:\Users\Karzan\AppData\Local\Temp\ccBvNvkC.s:1419   .text.adc_interrupt_flag_get:0000000000000034 .L134
C:\Users\Karzan\AppData\Local\Temp\ccBvNvkC.s:1471   .text.adc_interrupt_enable:000000000000000e .L137
C:\Users\Karzan\AppData\Local\Temp\ccBvNvkC.s:1482   .text.adc_interrupt_enable:000000000000001c .L138
C:\Users\Karzan\AppData\Local\Temp\ccBvNvkC.s:1494   .text.adc_interrupt_enable:0000000000000028 .L136
C:\Users\Karzan\AppData\Local\Temp\ccBvNvkC.s:1519   .text.adc_interrupt_disable:000000000000000e .L150
C:\Users\Karzan\AppData\Local\Temp\ccBvNvkC.s:1530   .text.adc_interrupt_disable:000000000000001c .L151
C:\Users\Karzan\AppData\Local\Temp\ccBvNvkC.s:1542   .text.adc_interrupt_disable:0000000000000028 .L149
C:\Users\Karzan\AppData\Local\Temp\ccBvNvkC.s:1612   .text.adc_oversample_mode_config:0000000000000028 .L164
C:\Users\Karzan\AppData\Local\Temp\ccBvNvkC.s:1592   .text.adc_oversample_mode_config:000000000000000a .L166
C:\Users\Karzan\AppData\Local\Temp\ccBvNvkC.s:3139   .debug_abbrev:0000000000000000 .Ldebug_abbrev0
C:\Users\Karzan\AppData\Local\Temp\ccBvNvkC.s:4828   .debug_str:0000000000000574 .LASF117
C:\Users\Karzan\AppData\Local\Temp\ccBvNvkC.s:4808   .debug_str:000000000000047e .LASF118
C:\Users\Karzan\AppData\Local\Temp\ccBvNvkC.s:4708   .debug_str:0000000000000106 .LASF119
C:\Users\Karzan\AppData\Local\Temp\ccBvNvkC.s:4602   .debug_ranges:0000000000000000 .Ldebug_ranges0
GAS LISTING C:\Users\Karzan\AppData\Local\Temp\ccBvNvkC.s 			page 62


C:\Users\Karzan\AppData\Local\Temp\ccBvNvkC.s:4680   .debug_line:0000000000000000 .Ldebug_line0
C:\Users\Karzan\AppData\Local\Temp\ccBvNvkC.s:4706   .debug_str:00000000000000f9 .LASF0
C:\Users\Karzan\AppData\Local\Temp\ccBvNvkC.s:4912   .debug_str:0000000000000863 .LASF1
C:\Users\Karzan\AppData\Local\Temp\ccBvNvkC.s:4864   .debug_str:00000000000006f1 .LASF4
C:\Users\Karzan\AppData\Local\Temp\ccBvNvkC.s:4886   .debug_str:000000000000079b .LASF2
C:\Users\Karzan\AppData\Local\Temp\ccBvNvkC.s:4838   .debug_str:0000000000000629 .LASF3
C:\Users\Karzan\AppData\Local\Temp\ccBvNvkC.s:4742   .debug_str:0000000000000252 .LASF5
C:\Users\Karzan\AppData\Local\Temp\ccBvNvkC.s:4914   .debug_str:000000000000086f .LASF6
C:\Users\Karzan\AppData\Local\Temp\ccBvNvkC.s:4848   .debug_str:0000000000000669 .LASF7
C:\Users\Karzan\AppData\Local\Temp\ccBvNvkC.s:4888   .debug_str:00000000000007a9 .LASF8
C:\Users\Karzan\AppData\Local\Temp\ccBvNvkC.s:4876   .debug_str:0000000000000739 .LASF9
C:\Users\Karzan\AppData\Local\Temp\ccBvNvkC.s:4798   .debug_str:0000000000000422 .LASF10
C:\Users\Karzan\AppData\Local\Temp\ccBvNvkC.s:4740   .debug_str:000000000000023b .LASF11
C:\Users\Karzan\AppData\Local\Temp\ccBvNvkC.s:4784   .debug_str:00000000000003b4 .LASF12
C:\Users\Karzan\AppData\Local\Temp\ccBvNvkC.s:4824   .debug_str:000000000000055d .LASF13
C:\Users\Karzan\AppData\Local\Temp\ccBvNvkC.s:4730   .debug_str:000000000000020a .LASF14
C:\Users\Karzan\AppData\Local\Temp\ccBvNvkC.s:4686   .debug_str:0000000000000030 .LASF120
C:\Users\Karzan\AppData\Local\Temp\ccBvNvkC.s:4774   .debug_str:0000000000000381 .LASF15
C:\Users\Karzan\AppData\Local\Temp\ccBvNvkC.s:4874   .debug_str:0000000000000732 .LASF16
C:\Users\Karzan\AppData\Local\Temp\ccBvNvkC.s:4870   .debug_str:0000000000000716 .LASF17
C:\Users\Karzan\AppData\Local\Temp\ccBvNvkC.s:4856   .debug_str:00000000000006a8 .LASF18
C:\Users\Karzan\AppData\Local\Temp\ccBvNvkC.s:4716   .debug_str:0000000000000195 .LASF19
C:\Users\Karzan\AppData\Local\Temp\ccBvNvkC.s:4790   .debug_str:00000000000003de .LASF20
C:\Users\Karzan\AppData\Local\Temp\ccBvNvkC.s:4760   .debug_str:00000000000002f8 .LASF21
C:\Users\Karzan\AppData\Local\Temp\ccBvNvkC.s:4908   .debug_str:0000000000000840 .LASF22
C:\Users\Karzan\AppData\Local\Temp\ccBvNvkC.s:4796   .debug_str:0000000000000414 .LASF23
C:\Users\Karzan\AppData\Local\Temp\ccBvNvkC.s:4696   .debug_str:0000000000000083 .LASF24
C:\Users\Karzan\AppData\Local\Temp\ccBvNvkC.s:4826   .debug_str:0000000000000566 .LASF25
C:\Users\Karzan\AppData\Local\Temp\ccBvNvkC.s:4734   .debug_str:0000000000000221 .LASF26
C:\Users\Karzan\AppData\Local\Temp\ccBvNvkC.s:4898   .debug_str:00000000000007ee .LASF27
C:\Users\Karzan\AppData\Local\Temp\ccBvNvkC.s:4712   .debug_str:0000000000000172 .LASF28
C:\Users\Karzan\AppData\Local\Temp\ccBvNvkC.s:4836   .debug_str:000000000000061d .LASF29
C:\Users\Karzan\AppData\Local\Temp\ccBvNvkC.s:4872   .debug_str:0000000000000724 .LASF30
C:\Users\Karzan\AppData\Local\Temp\ccBvNvkC.s:4766   .debug_str:0000000000000329 .LASF31
C:\Users\Karzan\AppData\Local\Temp\ccBvNvkC.s:4868   .debug_str:0000000000000709 .LASF32
C:\Users\Karzan\AppData\Local\Temp\ccBvNvkC.s:4762   .debug_str:0000000000000306 .LASF33
C:\Users\Karzan\AppData\Local\Temp\ccBvNvkC.s:4894   .debug_str:00000000000007cc .LASF34
C:\Users\Karzan\AppData\Local\Temp\ccBvNvkC.s:4780   .debug_str:000000000000039d .LASF35
C:\Users\Karzan\AppData\Local\Temp\ccBvNvkC.s:4850   .debug_str:0000000000000672 .LASF36
C:\Users\Karzan\AppData\Local\Temp\ccBvNvkC.s:4744   .debug_str:000000000000025d .LASF37
C:\Users\Karzan\AppData\Local\Temp\ccBvNvkC.s:4916   .debug_str:0000000000000882 .LASF38
C:\Users\Karzan\AppData\Local\Temp\ccBvNvkC.s:4800   .debug_str:0000000000000430 .LASF39
C:\Users\Karzan\AppData\Local\Temp\ccBvNvkC.s:4698   .debug_str:0000000000000091 .LASF40
C:\Users\Karzan\AppData\Local\Temp\ccBvNvkC.s:4840   .debug_str:0000000000000633 .LASF41
C:\Users\Karzan\AppData\Local\Temp\ccBvNvkC.s:4792   .debug_str:00000000000003eb .LASF42
C:\Users\Karzan\AppData\Local\Temp\ccBvNvkC.s:4694   .debug_str:0000000000000076 .LASF43
C:\Users\Karzan\AppData\Local\Temp\ccBvNvkC.s:4820   .debug_str:0000000000000544 .LASF44
C:\Users\Karzan\AppData\Local\Temp\ccBvNvkC.s:4728   .debug_str:00000000000001fd .LASF45
C:\Users\Karzan\AppData\Local\Temp\ccBvNvkC.s:4884   .debug_str:000000000000078e .LASF46
C:\Users\Karzan\AppData\Local\Temp\ccBvNvkC.s:4756   .debug_str:00000000000002e5 .LASF47
C:\Users\Karzan\AppData\Local\Temp\ccBvNvkC.s:4902   .debug_str:0000000000000801 .LASF48
C:\Users\Karzan\AppData\Local\Temp\ccBvNvkC.s:4866   .debug_str:00000000000006fb .LASF49
C:\Users\Karzan\AppData\Local\Temp\ccBvNvkC.s:4804   .debug_str:0000000000000464 .LASF50
C:\Users\Karzan\AppData\Local\Temp\ccBvNvkC.s:4732   .debug_str:0000000000000213 .LASF51
C:\Users\Karzan\AppData\Local\Temp\ccBvNvkC.s:4822   .debug_str:0000000000000551 .LASF52
C:\Users\Karzan\AppData\Local\Temp\ccBvNvkC.s:4812   .debug_str:00000000000004e2 .LASF53
C:\Users\Karzan\AppData\Local\Temp\ccBvNvkC.s:1644   .text.adc_oversample_mode_disable:0000000000000000 .LFB39
GAS LISTING C:\Users\Karzan\AppData\Local\Temp\ccBvNvkC.s 			page 63


C:\Users\Karzan\AppData\Local\Temp\ccBvNvkC.s:1656   .text.adc_oversample_mode_disable:000000000000000c .LFE39
C:\Users\Karzan\AppData\Local\Temp\ccBvNvkC.s:4754   .debug_str:00000000000002da .LASF55
C:\Users\Karzan\AppData\Local\Temp\ccBvNvkC.s:4880   .debug_str:0000000000000767 .LASF54
C:\Users\Karzan\AppData\Local\Temp\ccBvNvkC.s:1625   .text.adc_oversample_mode_enable:0000000000000000 .LFB38
C:\Users\Karzan\AppData\Local\Temp\ccBvNvkC.s:1637   .text.adc_oversample_mode_enable:000000000000000e .LFE38
C:\Users\Karzan\AppData\Local\Temp\ccBvNvkC.s:4724   .debug_str:00000000000001c9 .LASF56
C:\Users\Karzan\AppData\Local\Temp\ccBvNvkC.s:1580   .text.adc_oversample_mode_config:0000000000000000 .LFB37
C:\Users\Karzan\AppData\Local\Temp\ccBvNvkC.s:1618   .text.adc_oversample_mode_config:000000000000002e .LFE37
C:\Users\Karzan\AppData\Local\Temp\ccBvNvkC.s:4718   .debug_str:00000000000001a0 .LASF57
C:\Users\Karzan\AppData\Local\Temp\ccBvNvkC.s:4736   .debug_str:000000000000022f .LASF58
C:\Users\Karzan\AppData\Local\Temp\ccBvNvkC.s:3659   .debug_loc:0000000000000000 .LLST41
C:\Users\Karzan\AppData\Local\Temp\ccBvNvkC.s:4710   .debug_str:000000000000016c .LASF59
C:\Users\Karzan\AppData\Local\Temp\ccBvNvkC.s:4764   .debug_str:0000000000000313 .LASF60
C:\Users\Karzan\AppData\Local\Temp\ccBvNvkC.s:1553   .text.adc_resolution_config:0000000000000000 .LFB36
C:\Users\Karzan\AppData\Local\Temp\ccBvNvkC.s:1573   .text.adc_resolution_config:000000000000001a .LFE36
C:\Users\Karzan\AppData\Local\Temp\ccBvNvkC.s:4782   .debug_str:00000000000003a9 .LASF61
C:\Users\Karzan\AppData\Local\Temp\ccBvNvkC.s:3677   .debug_loc:000000000000002c .LLST40
C:\Users\Karzan\AppData\Local\Temp\ccBvNvkC.s:4896   .debug_str:00000000000007d8 .LASF62
C:\Users\Karzan\AppData\Local\Temp\ccBvNvkC.s:1505   .text.adc_interrupt_disable:0000000000000000 .LFB35
C:\Users\Karzan\AppData\Local\Temp\ccBvNvkC.s:1546   .text.adc_interrupt_disable:000000000000002a .LFE35
C:\Users\Karzan\AppData\Local\Temp\ccBvNvkC.s:4806   .debug_str:0000000000000470 .LASF63
C:\Users\Karzan\AppData\Local\Temp\ccBvNvkC.s:3691   .debug_loc:000000000000004d .LLST39
C:\Users\Karzan\AppData\Local\Temp\ccBvNvkC.s:4910   .debug_str:000000000000084e .LASF64
C:\Users\Karzan\AppData\Local\Temp\ccBvNvkC.s:1457   .text.adc_interrupt_enable:0000000000000000 .LFB34
C:\Users\Karzan\AppData\Local\Temp\ccBvNvkC.s:1498   .text.adc_interrupt_enable:000000000000002a .LFE34
C:\Users\Karzan\AppData\Local\Temp\ccBvNvkC.s:3705   .debug_loc:000000000000006e .LLST38
C:\Users\Karzan\AppData\Local\Temp\ccBvNvkC.s:4788   .debug_str:00000000000003c5 .LASF121
C:\Users\Karzan\AppData\Local\Temp\ccBvNvkC.s:4714   .debug_str:000000000000017e .LASF67
C:\Users\Karzan\AppData\Local\Temp\ccBvNvkC.s:1369   .text.adc_interrupt_flag_get:0000000000000000 .LFB32
C:\Users\Karzan\AppData\Local\Temp\ccBvNvkC.s:1439   .text.adc_interrupt_flag_get:0000000000000048 .LFE32
C:\Users\Karzan\AppData\Local\Temp\ccBvNvkC.s:3719   .debug_loc:000000000000008f .LLST36
C:\Users\Karzan\AppData\Local\Temp\ccBvNvkC.s:4924   .debug_str:00000000000008c9 .LASF65
C:\Users\Karzan\AppData\Local\Temp\ccBvNvkC.s:4900   .debug_str:00000000000007fb .LASF66
C:\Users\Karzan\AppData\Local\Temp\ccBvNvkC.s:3737   .debug_loc:00000000000000bb .LLST37
C:\Users\Karzan\AppData\Local\Temp\ccBvNvkC.s:4802   .debug_str:000000000000043b .LASF68
C:\Users\Karzan\AppData\Local\Temp\ccBvNvkC.s:1345   .text.adc_inserted_software_startconv_flag_get:0000000000000000 .LFB31
C:\Users\Karzan\AppData\Local\Temp\ccBvNvkC.s:1362   .text.adc_inserted_software_startconv_flag_get:0000000000000008 .LFE31
C:\Users\Karzan\AppData\Local\Temp\ccBvNvkC.s:3764   .debug_loc:00000000000000f0 .LLST34
C:\Users\Karzan\AppData\Local\Temp\ccBvNvkC.s:4834   .debug_str:0000000000000617 .LASF69
C:\Users\Karzan\AppData\Local\Temp\ccBvNvkC.s:3778   .debug_loc:0000000000000111 .LLST35
C:\Users\Karzan\AppData\Local\Temp\ccBvNvkC.s:4746   .debug_str:0000000000000269 .LASF70
C:\Users\Karzan\AppData\Local\Temp\ccBvNvkC.s:1321   .text.adc_regular_software_startconv_flag_get:0000000000000000 .LFB30
C:\Users\Karzan\AppData\Local\Temp\ccBvNvkC.s:1338   .text.adc_regular_software_startconv_flag_get:0000000000000008 .LFE30
C:\Users\Karzan\AppData\Local\Temp\ccBvNvkC.s:3801   .debug_loc:000000000000013b .LLST32
C:\Users\Karzan\AppData\Local\Temp\ccBvNvkC.s:3815   .debug_loc:000000000000015c .LLST33
C:\Users\Karzan\AppData\Local\Temp\ccBvNvkC.s:4688   .debug_str:0000000000000040 .LASF71
C:\Users\Karzan\AppData\Local\Temp\ccBvNvkC.s:1297   .text.adc_flag_clear:0000000000000000 .LFB29
C:\Users\Karzan\AppData\Local\Temp\ccBvNvkC.s:1314   .text.adc_flag_clear:000000000000000c .LFE29
C:\Users\Karzan\AppData\Local\Temp\ccBvNvkC.s:4786   .debug_str:00000000000003bc .LASF72
C:\Users\Karzan\AppData\Local\Temp\ccBvNvkC.s:3838   .debug_loc:0000000000000186 .LLST31
C:\Users\Karzan\AppData\Local\Temp\ccBvNvkC.s:4720   .debug_str:00000000000001a5 .LASF73
C:\Users\Karzan\AppData\Local\Temp\ccBvNvkC.s:1273   .text.adc_flag_get:0000000000000000 .LFB28
C:\Users\Karzan\AppData\Local\Temp\ccBvNvkC.s:1290   .text.adc_flag_get:000000000000000a .LFE28
C:\Users\Karzan\AppData\Local\Temp\ccBvNvkC.s:3859   .debug_loc:00000000000001b5 .LLST29
C:\Users\Karzan\AppData\Local\Temp\ccBvNvkC.s:3873   .debug_loc:00000000000001d6 .LLST30
C:\Users\Karzan\AppData\Local\Temp\ccBvNvkC.s:4904   .debug_str:000000000000080d .LASF74
C:\Users\Karzan\AppData\Local\Temp\ccBvNvkC.s:1245   .text.adc_watchdog_threshold_config:0000000000000000 .LFB27
GAS LISTING C:\Users\Karzan\AppData\Local\Temp\ccBvNvkC.s 			page 64


C:\Users\Karzan\AppData\Local\Temp\ccBvNvkC.s:1266   .text.adc_watchdog_threshold_config:000000000000000e .LFE27
C:\Users\Karzan\AppData\Local\Temp\ccBvNvkC.s:4778   .debug_str:000000000000038f .LASF75
C:\Users\Karzan\AppData\Local\Temp\ccBvNvkC.s:3895   .debug_loc:00000000000001ff .LLST27
C:\Users\Karzan\AppData\Local\Temp\ccBvNvkC.s:4926   .debug_str:00000000000008d8 .LASF76
C:\Users\Karzan\AppData\Local\Temp\ccBvNvkC.s:3909   .debug_loc:0000000000000220 .LLST28
C:\Users\Karzan\AppData\Local\Temp\ccBvNvkC.s:4906   .debug_str:000000000000082b .LASF77
C:\Users\Karzan\AppData\Local\Temp\ccBvNvkC.s:1224   .text.adc_watchdog_disable:0000000000000000 .LFB26
C:\Users\Karzan\AppData\Local\Temp\ccBvNvkC.s:1238   .text.adc_watchdog_disable:0000000000000010 .LFE26
C:\Users\Karzan\AppData\Local\Temp\ccBvNvkC.s:4690   .debug_str:000000000000004f .LASF78
C:\Users\Karzan\AppData\Local\Temp\ccBvNvkC.s:1174   .text.adc_watchdog_group_channel_enable:0000000000000000 .LFB25
C:\Users\Karzan\AppData\Local\Temp\ccBvNvkC.s:1217   .text.adc_watchdog_group_channel_enable:000000000000003c .LFE25
C:\Users\Karzan\AppData\Local\Temp\ccBvNvkC.s:4832   .debug_str:0000000000000605 .LASF79
C:\Users\Karzan\AppData\Local\Temp\ccBvNvkC.s:4854   .debug_str:0000000000000685 .LASF80
C:\Users\Karzan\AppData\Local\Temp\ccBvNvkC.s:1138   .text.adc_watchdog_single_channel_enable:0000000000000000 .LFB24
C:\Users\Karzan\AppData\Local\Temp\ccBvNvkC.s:1167   .text.adc_watchdog_single_channel_enable:0000000000000024 .LFE24
C:\Users\Karzan\AppData\Local\Temp\ccBvNvkC.s:4882   .debug_str:0000000000000782 .LASF81
C:\Users\Karzan\AppData\Local\Temp\ccBvNvkC.s:3923   .debug_loc:0000000000000241 .LLST26
C:\Users\Karzan\AppData\Local\Temp\ccBvNvkC.s:4750   .debug_str:00000000000002a9 .LASF122
C:\Users\Karzan\AppData\Local\Temp\ccBvNvkC.s:1121   .text.adc_sync_mode_convert_value_read:0000000000000000 .LFB23
C:\Users\Karzan\AppData\Local\Temp\ccBvNvkC.s:1131   .text.adc_sync_mode_convert_value_read:000000000000000a .LFE23
C:\Users\Karzan\AppData\Local\Temp\ccBvNvkC.s:4722   .debug_str:00000000000001b2 .LASF82
C:\Users\Karzan\AppData\Local\Temp\ccBvNvkC.s:1058   .text.adc_inserted_data_read:0000000000000000 .LFB22
C:\Users\Karzan\AppData\Local\Temp\ccBvNvkC.s:1114   .text.adc_inserted_data_read:000000000000002c .LFE22
C:\Users\Karzan\AppData\Local\Temp\ccBvNvkC.s:3937   .debug_loc:0000000000000262 .LLST24
C:\Users\Karzan\AppData\Local\Temp\ccBvNvkC.s:4842   .debug_str:000000000000063d .LASF83
C:\Users\Karzan\AppData\Local\Temp\ccBvNvkC.s:4738   .debug_str:0000000000000235 .LASF84
C:\Users\Karzan\AppData\Local\Temp\ccBvNvkC.s:3995   .debug_loc:00000000000002e7 .LLST25
C:\Users\Karzan\AppData\Local\Temp\ccBvNvkC.s:4772   .debug_str:000000000000036b .LASF85
C:\Users\Karzan\AppData\Local\Temp\ccBvNvkC.s:1038   .text.adc_regular_data_read:0000000000000000 .LFB21
C:\Users\Karzan\AppData\Local\Temp\ccBvNvkC.s:1051   .text.adc_regular_data_read:0000000000000008 .LFE21
C:\Users\Karzan\AppData\Local\Temp\ccBvNvkC.s:4018   .debug_loc:0000000000000326 .LLST23
C:\Users\Karzan\AppData\Local\Temp\ccBvNvkC.s:4682   .debug_str:0000000000000000 .LASF86
C:\Users\Karzan\AppData\Local\Temp\ccBvNvkC.s:1001   .text.adc_software_trigger_enable:0000000000000000 .LFB20
C:\Users\Karzan\AppData\Local\Temp\ccBvNvkC.s:1031   .text.adc_software_trigger_enable:0000000000000020 .LFE20
C:\Users\Karzan\AppData\Local\Temp\ccBvNvkC.s:4032   .debug_loc:0000000000000347 .LLST22
C:\Users\Karzan\AppData\Local\Temp\ccBvNvkC.s:4878   .debug_str:000000000000074b .LASF87
C:\Users\Karzan\AppData\Local\Temp\ccBvNvkC.s:937    .text.adc_external_trigger_config:0000000000000000 .LFB19
C:\Users\Karzan\AppData\Local\Temp\ccBvNvkC.s:994    .text.adc_external_trigger_config:000000000000003a .LFE19
C:\Users\Karzan\AppData\Local\Temp\ccBvNvkC.s:4046   .debug_loc:0000000000000368 .LLST21
C:\Users\Karzan\AppData\Local\Temp\ccBvNvkC.s:4830   .debug_str:00000000000005fc .LASF88
C:\Users\Karzan\AppData\Local\Temp\ccBvNvkC.s:4702   .debug_str:00000000000000bb .LASF89
C:\Users\Karzan\AppData\Local\Temp\ccBvNvkC.s:886    .text.adc_external_trigger_source_config:0000000000000000 .LFB18
C:\Users\Karzan\AppData\Local\Temp\ccBvNvkC.s:930    .text.adc_external_trigger_source_config:0000000000000034 .LFE18
C:\Users\Karzan\AppData\Local\Temp\ccBvNvkC.s:4060   .debug_loc:0000000000000389 .LLST20
C:\Users\Karzan\AppData\Local\Temp\ccBvNvkC.s:4770   .debug_str:0000000000000353 .LASF90
C:\Users\Karzan\AppData\Local\Temp\ccBvNvkC.s:4920   .debug_str:000000000000089a .LASF91
C:\Users\Karzan\AppData\Local\Temp\ccBvNvkC.s:829    .text.adc_inserted_channel_offset_config:0000000000000000 .LFB17
C:\Users\Karzan\AppData\Local\Temp\ccBvNvkC.s:879    .text.adc_inserted_channel_offset_config:000000000000001e .LFE17
C:\Users\Karzan\AppData\Local\Temp\ccBvNvkC.s:4078   .debug_loc:00000000000003b5 .LLST15
C:\Users\Karzan\AppData\Local\Temp\ccBvNvkC.s:4098   .debug_loc:00000000000003e3 .LLST16
C:\Users\Karzan\AppData\Local\Temp\ccBvNvkC.s:4758   .debug_str:00000000000002f1 .LASF92
C:\Users\Karzan\AppData\Local\Temp\ccBvNvkC.s:4112   .debug_loc:0000000000000404 .LLST17
C:\Users\Karzan\AppData\Local\Temp\ccBvNvkC.s:4752   .debug_str:00000000000002ca .LASF93
C:\Users\Karzan\AppData\Local\Temp\ccBvNvkC.s:4126   .debug_loc:0000000000000425 .LLST18
C:\Users\Karzan\AppData\Local\Temp\ccBvNvkC.s:4139   .debug_loc:000000000000043e .LLST19
C:\Users\Karzan\AppData\Local\Temp\ccBvNvkC.s:4794   .debug_str:00000000000003f8 .LASF94
C:\Users\Karzan\AppData\Local\Temp\ccBvNvkC.s:704    .text.adc_inserted_channel_config:0000000000000000 .LFB16
GAS LISTING C:\Users\Karzan\AppData\Local\Temp\ccBvNvkC.s 			page 65


C:\Users\Karzan\AppData\Local\Temp\ccBvNvkC.s:822    .text.adc_inserted_channel_config:0000000000000076 .LFE16
C:\Users\Karzan\AppData\Local\Temp\ccBvNvkC.s:4692   .debug_str:0000000000000071 .LASF95
C:\Users\Karzan\AppData\Local\Temp\ccBvNvkC.s:4163   .debug_loc:0000000000000477 .LLST10
C:\Users\Karzan\AppData\Local\Temp\ccBvNvkC.s:4177   .debug_loc:0000000000000498 .LLST11
C:\Users\Karzan\AppData\Local\Temp\ccBvNvkC.s:4922   .debug_str:00000000000008bd .LASF96
C:\Users\Karzan\AppData\Local\Temp\ccBvNvkC.s:4202   .debug_loc:00000000000004d2 .LLST12
C:\Users\Karzan\AppData\Local\Temp\ccBvNvkC.s:4215   .debug_loc:00000000000004eb .LLST13
C:\Users\Karzan\AppData\Local\Temp\ccBvNvkC.s:4776   .debug_str:0000000000000389 .LASF97
C:\Users\Karzan\AppData\Local\Temp\ccBvNvkC.s:4230   .debug_loc:0000000000000514 .LLST14
C:\Users\Karzan\AppData\Local\Temp\ccBvNvkC.s:4704   .debug_str:00000000000000de .LASF98
C:\Users\Karzan\AppData\Local\Temp\ccBvNvkC.s:520    .text.adc_regular_channel_config:0000000000000000 .LFB15
C:\Users\Karzan\AppData\Local\Temp\ccBvNvkC.s:697    .text.adc_regular_channel_config:00000000000000be .LFE15
C:\Users\Karzan\AppData\Local\Temp\ccBvNvkC.s:4253   .debug_loc:0000000000000553 .LLST6
C:\Users\Karzan\AppData\Local\Temp\ccBvNvkC.s:4289   .debug_loc:00000000000005a6 .LLST7
C:\Users\Karzan\AppData\Local\Temp\ccBvNvkC.s:4314   .debug_loc:00000000000005e0 .LLST8
C:\Users\Karzan\AppData\Local\Temp\ccBvNvkC.s:4353   .debug_loc:000000000000064b .LLST9
C:\Users\Karzan\AppData\Local\Temp\ccBvNvkC.s:4814   .debug_str:00000000000004fe .LASF99
C:\Users\Karzan\AppData\Local\Temp\ccBvNvkC.s:454    .text.adc_channel_length_config:0000000000000000 .LFB14
C:\Users\Karzan\AppData\Local\Temp\ccBvNvkC.s:513    .text.adc_channel_length_config:000000000000004a .LFE14
C:\Users\Karzan\AppData\Local\Temp\ccBvNvkC.s:4852   .debug_str:000000000000067e .LASF100
C:\Users\Karzan\AppData\Local\Temp\ccBvNvkC.s:4376   .debug_loc:000000000000068a .LLST5
C:\Users\Karzan\AppData\Local\Temp\ccBvNvkC.s:4858   .debug_str:00000000000006ae .LASF101
C:\Users\Karzan\AppData\Local\Temp\ccBvNvkC.s:390    .text.adc_discontinuous_mode_config:0000000000000000 .LFB13
C:\Users\Karzan\AppData\Local\Temp\ccBvNvkC.s:447    .text.adc_discontinuous_mode_config:0000000000000046 .LFE13
C:\Users\Karzan\AppData\Local\Temp\ccBvNvkC.s:4413   .debug_loc:00000000000006de .LLST4
C:\Users\Karzan\AppData\Local\Temp\ccBvNvkC.s:4816   .debug_str:0000000000000518 .LASF102
C:\Users\Karzan\AppData\Local\Temp\ccBvNvkC.s:371    .text.adc_dma_mode_disable:0000000000000000 .LFB12
C:\Users\Karzan\AppData\Local\Temp\ccBvNvkC.s:383    .text.adc_dma_mode_disable:000000000000000a .LFE12
C:\Users\Karzan\AppData\Local\Temp\ccBvNvkC.s:4684   .debug_str:000000000000001c .LASF103
C:\Users\Karzan\AppData\Local\Temp\ccBvNvkC.s:352    .text.adc_dma_mode_enable:0000000000000000 .LFB11
C:\Users\Karzan\AppData\Local\Temp\ccBvNvkC.s:364    .text.adc_dma_mode_enable:000000000000000a .LFE11
C:\Users\Karzan\AppData\Local\Temp\ccBvNvkC.s:4700   .debug_str:000000000000009c .LASF104
C:\Users\Karzan\AppData\Local\Temp\ccBvNvkC.s:331    .text.adc_tempsensor_vrefint_disable:0000000000000000 .LFB10
C:\Users\Karzan\AppData\Local\Temp\ccBvNvkC.s:345    .text.adc_tempsensor_vrefint_disable:0000000000000016 .LFE10
C:\Users\Karzan\AppData\Local\Temp\ccBvNvkC.s:4810   .debug_str:00000000000004c4 .LASF105
C:\Users\Karzan\AppData\Local\Temp\ccBvNvkC.s:311    .text.adc_tempsensor_vrefint_enable:0000000000000000 .LFB9
C:\Users\Karzan\AppData\Local\Temp\ccBvNvkC.s:324    .text.adc_tempsensor_vrefint_enable:0000000000000014 .LFE9
C:\Users\Karzan\AppData\Local\Temp\ccBvNvkC.s:4818   .debug_str:000000000000052d .LASF106
C:\Users\Karzan\AppData\Local\Temp\ccBvNvkC.s:268    .text.adc_calibration_enable:0000000000000000 .LFB8
C:\Users\Karzan\AppData\Local\Temp\ccBvNvkC.s:304    .text.adc_calibration_enable:0000000000000022 .LFE8
C:\Users\Karzan\AppData\Local\Temp\ccBvNvkC.s:4918   .debug_str:000000000000088e .LASF107
C:\Users\Karzan\AppData\Local\Temp\ccBvNvkC.s:249    .text.adc_disable:0000000000000000 .LFB7
C:\Users\Karzan\AppData\Local\Temp\ccBvNvkC.s:261    .text.adc_disable:0000000000000008 .LFE7
C:\Users\Karzan\AppData\Local\Temp\ccBvNvkC.s:4860   .debug_str:00000000000006cc .LASF108
C:\Users\Karzan\AppData\Local\Temp\ccBvNvkC.s:222    .text.adc_enable:0000000000000000 .LFB6
C:\Users\Karzan\AppData\Local\Temp\ccBvNvkC.s:242    .text.adc_enable:0000000000000010 .LFE6
C:\Users\Karzan\AppData\Local\Temp\ccBvNvkC.s:4862   .debug_str:00000000000006d7 .LASF109
C:\Users\Karzan\AppData\Local\Temp\ccBvNvkC.s:188    .text.adc_data_alignment_config:0000000000000000 .LFB5
C:\Users\Karzan\AppData\Local\Temp\ccBvNvkC.s:215    .text.adc_data_alignment_config:000000000000001a .LFE5
C:\Users\Karzan\AppData\Local\Temp\ccBvNvkC.s:4892   .debug_str:00000000000007bd .LASF110
C:\Users\Karzan\AppData\Local\Temp\ccBvNvkC.s:4768   .debug_str:0000000000000337 .LASF111
C:\Users\Karzan\AppData\Local\Temp\ccBvNvkC.s:111    .text.adc_special_function_config:0000000000000000 .LFB4
C:\Users\Karzan\AppData\Local\Temp\ccBvNvkC.s:181    .text.adc_special_function_config:0000000000000048 .LFE4
C:\Users\Karzan\AppData\Local\Temp\ccBvNvkC.s:4890   .debug_str:00000000000007b4 .LASF112
C:\Users\Karzan\AppData\Local\Temp\ccBvNvkC.s:4431   .debug_loc:000000000000070a .LLST3
C:\Users\Karzan\AppData\Local\Temp\ccBvNvkC.s:4846   .debug_str:0000000000000659 .LASF113
C:\Users\Karzan\AppData\Local\Temp\ccBvNvkC.s:83     .text.adc_mode_config:0000000000000000 .LFB3
GAS LISTING C:\Users\Karzan\AppData\Local\Temp\ccBvNvkC.s 			page 66


C:\Users\Karzan\AppData\Local\Temp\ccBvNvkC.s:104    .text.adc_mode_config:0000000000000020 .LFE3
C:\Users\Karzan\AppData\Local\Temp\ccBvNvkC.s:4445   .debug_loc:000000000000072b .LLST2
C:\Users\Karzan\AppData\Local\Temp\ccBvNvkC.s:4844   .debug_str:000000000000064e .LASF114
C:\Users\Karzan\AppData\Local\Temp\ccBvNvkC.s:14     .text.adc_deinit:0000000000000000 .LFB2
C:\Users\Karzan\AppData\Local\Temp\ccBvNvkC.s:76     .text.adc_deinit:0000000000000050 .LFE2
C:\Users\Karzan\AppData\Local\Temp\ccBvNvkC.s:4459   .debug_loc:000000000000074c .LLST0
C:\Users\Karzan\AppData\Local\Temp\ccBvNvkC.s:4492   .debug_loc:000000000000079c .LLST1
C:\Users\Karzan\AppData\Local\Temp\ccBvNvkC.s:50     .text.adc_deinit:000000000000002e .LVL2
C:\Users\Karzan\AppData\Local\Temp\ccBvNvkC.s:63     .text.adc_deinit:000000000000003e .LVL3
C:\Users\Karzan\AppData\Local\Temp\ccBvNvkC.s:71     .text.adc_deinit:000000000000004a .LVL5
C:\Users\Karzan\AppData\Local\Temp\ccBvNvkC.s:4748   .debug_str:0000000000000291 .LASF115
C:\Users\Karzan\AppData\Local\Temp\ccBvNvkC.s:4726   .debug_str:00000000000001e4 .LASF116
C:\Users\Karzan\AppData\Local\Temp\ccBvNvkC.s:1583   .text.adc_oversample_mode_config:0000000000000000 .LVL132
C:\Users\Karzan\AppData\Local\Temp\ccBvNvkC.s:1600   .text.adc_oversample_mode_config:0000000000000014 .LVL133
C:\Users\Karzan\AppData\Local\Temp\ccBvNvkC.s:1611   .text.adc_oversample_mode_config:0000000000000028 .LVL134
C:\Users\Karzan\AppData\Local\Temp\ccBvNvkC.s:1556   .text.adc_resolution_config:0000000000000000 .LVL130
C:\Users\Karzan\AppData\Local\Temp\ccBvNvkC.s:1568   .text.adc_resolution_config:0000000000000014 .LVL131
C:\Users\Karzan\AppData\Local\Temp\ccBvNvkC.s:1508   .text.adc_interrupt_disable:0000000000000000 .LVL128
C:\Users\Karzan\AppData\Local\Temp\ccBvNvkC.s:1534   .text.adc_interrupt_disable:000000000000001e .LVL129
C:\Users\Karzan\AppData\Local\Temp\ccBvNvkC.s:1460   .text.adc_interrupt_enable:0000000000000000 .LVL126
C:\Users\Karzan\AppData\Local\Temp\ccBvNvkC.s:1486   .text.adc_interrupt_enable:000000000000001e .LVL127
C:\Users\Karzan\AppData\Local\Temp\ccBvNvkC.s:1372   .text.adc_interrupt_flag_get:0000000000000000 .LVL118
C:\Users\Karzan\AppData\Local\Temp\ccBvNvkC.s:1401   .text.adc_interrupt_flag_get:0000000000000024 .LVL121
C:\Users\Karzan\AppData\Local\Temp\ccBvNvkC.s:1403   .text.adc_interrupt_flag_get:0000000000000026 .LVL122
C:\Users\Karzan\AppData\Local\Temp\ccBvNvkC.s:1388   .text.adc_interrupt_flag_get:0000000000000016 .LVL119
C:\Users\Karzan\AppData\Local\Temp\ccBvNvkC.s:1397   .text.adc_interrupt_flag_get:0000000000000022 .LVL120
C:\Users\Karzan\AppData\Local\Temp\ccBvNvkC.s:1408   .text.adc_interrupt_flag_get:0000000000000028 .LVL123
C:\Users\Karzan\AppData\Local\Temp\ccBvNvkC.s:1418   .text.adc_interrupt_flag_get:0000000000000034 .LVL124
C:\Users\Karzan\AppData\Local\Temp\ccBvNvkC.s:1427   .text.adc_interrupt_flag_get:000000000000003a .LVL125
C:\Users\Karzan\AppData\Local\Temp\ccBvNvkC.s:1348   .text.adc_inserted_software_startconv_flag_get:0000000000000000 .LVL115
C:\Users\Karzan\AppData\Local\Temp\ccBvNvkC.s:1353   .text.adc_inserted_software_startconv_flag_get:0000000000000002 .LVL116
C:\Users\Karzan\AppData\Local\Temp\ccBvNvkC.s:1357   .text.adc_inserted_software_startconv_flag_get:0000000000000004 .LVL117
C:\Users\Karzan\AppData\Local\Temp\ccBvNvkC.s:1324   .text.adc_regular_software_startconv_flag_get:0000000000000000 .LVL112
C:\Users\Karzan\AppData\Local\Temp\ccBvNvkC.s:1329   .text.adc_regular_software_startconv_flag_get:0000000000000002 .LVL113
C:\Users\Karzan\AppData\Local\Temp\ccBvNvkC.s:1333   .text.adc_regular_software_startconv_flag_get:0000000000000004 .LVL114
C:\Users\Karzan\AppData\Local\Temp\ccBvNvkC.s:1300   .text.adc_flag_clear:0000000000000000 .LVL109
C:\Users\Karzan\AppData\Local\Temp\ccBvNvkC.s:1306   .text.adc_flag_clear:0000000000000006 .LVL110
C:\Users\Karzan\AppData\Local\Temp\ccBvNvkC.s:1309   .text.adc_flag_clear:0000000000000008 .LVL111
C:\Users\Karzan\AppData\Local\Temp\ccBvNvkC.s:1276   .text.adc_flag_get:0000000000000000 .LVL106
C:\Users\Karzan\AppData\Local\Temp\ccBvNvkC.s:1281   .text.adc_flag_get:0000000000000002 .LVL107
C:\Users\Karzan\AppData\Local\Temp\ccBvNvkC.s:1285   .text.adc_flag_get:0000000000000004 .LVL108
C:\Users\Karzan\AppData\Local\Temp\ccBvNvkC.s:1248   .text.adc_watchdog_threshold_config:0000000000000000 .LVL103
C:\Users\Karzan\AppData\Local\Temp\ccBvNvkC.s:1254   .text.adc_watchdog_threshold_config:0000000000000006 .LVL104
C:\Users\Karzan\AppData\Local\Temp\ccBvNvkC.s:1260   .text.adc_watchdog_threshold_config:000000000000000a .LVL105
C:\Users\Karzan\AppData\Local\Temp\ccBvNvkC.s:1141   .text.adc_watchdog_single_channel_enable:0000000000000000 .LVL99
C:\Users\Karzan\AppData\Local\Temp\ccBvNvkC.s:1157   .text.adc_watchdog_single_channel_enable:000000000000001a .LVL100
C:\Users\Karzan\AppData\Local\Temp\ccBvNvkC.s:1061   .text.adc_inserted_data_read:0000000000000000 .LVL88
C:\Users\Karzan\AppData\Local\Temp\ccBvNvkC.s:1073   .text.adc_inserted_data_read:0000000000000016 .LVL89
C:\Users\Karzan\AppData\Local\Temp\ccBvNvkC.s:1081   .text.adc_inserted_data_read:000000000000001c .LVL91
C:\Users\Karzan\AppData\Local\Temp\ccBvNvkC.s:1086   .text.adc_inserted_data_read:000000000000001e .LVL92
C:\Users\Karzan\AppData\Local\Temp\ccBvNvkC.s:1089   .text.adc_inserted_data_read:0000000000000020 .LVL93
C:\Users\Karzan\AppData\Local\Temp\ccBvNvkC.s:1094   .text.adc_inserted_data_read:0000000000000022 .LVL94
C:\Users\Karzan\AppData\Local\Temp\ccBvNvkC.s:1097   .text.adc_inserted_data_read:0000000000000024 .LVL95
C:\Users\Karzan\AppData\Local\Temp\ccBvNvkC.s:1102   .text.adc_inserted_data_read:0000000000000026 .LVL96
C:\Users\Karzan\AppData\Local\Temp\ccBvNvkC.s:1105   .text.adc_inserted_data_read:0000000000000028 .LVL97
C:\Users\Karzan\AppData\Local\Temp\ccBvNvkC.s:1110   .text.adc_inserted_data_read:000000000000002a .LVL98
C:\Users\Karzan\AppData\Local\Temp\ccBvNvkC.s:1078   .text.adc_inserted_data_read:0000000000000018 .LVL90
GAS LISTING C:\Users\Karzan\AppData\Local\Temp\ccBvNvkC.s 			page 67


C:\Users\Karzan\AppData\Local\Temp\ccBvNvkC.s:1041   .text.adc_regular_data_read:0000000000000000 .LVL86
C:\Users\Karzan\AppData\Local\Temp\ccBvNvkC.s:1045   .text.adc_regular_data_read:0000000000000002 .LVL87
C:\Users\Karzan\AppData\Local\Temp\ccBvNvkC.s:1004   .text.adc_software_trigger_enable:0000000000000000 .LVL84
C:\Users\Karzan\AppData\Local\Temp\ccBvNvkC.s:1019   .text.adc_software_trigger_enable:0000000000000012 .LVL85
C:\Users\Karzan\AppData\Local\Temp\ccBvNvkC.s:940    .text.adc_external_trigger_config:0000000000000000 .LVL82
C:\Users\Karzan\AppData\Local\Temp\ccBvNvkC.s:944    .text.adc_external_trigger_config:0000000000000006 .LVL83
C:\Users\Karzan\AppData\Local\Temp\ccBvNvkC.s:889    .text.adc_external_trigger_source_config:0000000000000000 .LVL79
C:\Users\Karzan\AppData\Local\Temp\ccBvNvkC.s:901    .text.adc_external_trigger_source_config:0000000000000014 .LVL80
C:\Users\Karzan\AppData\Local\Temp\ccBvNvkC.s:912    .text.adc_external_trigger_source_config:0000000000000022 .LVL81
C:\Users\Karzan\AppData\Local\Temp\ccBvNvkC.s:832    .text.adc_inserted_channel_offset_config:0000000000000000 .LVL68
C:\Users\Karzan\AppData\Local\Temp\ccBvNvkC.s:863    .text.adc_inserted_channel_offset_config:0000000000000014 .LVL75
C:\Users\Karzan\AppData\Local\Temp\ccBvNvkC.s:874    .text.adc_inserted_channel_offset_config:000000000000001c .LVL78
C:\Users\Karzan\AppData\Local\Temp\ccBvNvkC.s:842    .text.adc_inserted_channel_offset_config:0000000000000004 .LVL70
C:\Users\Karzan\AppData\Local\Temp\ccBvNvkC.s:866    .text.adc_inserted_channel_offset_config:0000000000000016 .LVL76
C:\Users\Karzan\AppData\Local\Temp\ccBvNvkC.s:838    .text.adc_inserted_channel_offset_config:0000000000000002 .LVL69
C:\Users\Karzan\AppData\Local\Temp\ccBvNvkC.s:845    .text.adc_inserted_channel_offset_config:0000000000000006 .LVL71
C:\Users\Karzan\AppData\Local\Temp\ccBvNvkC.s:850    .text.adc_inserted_channel_offset_config:000000000000000a .LVL72
C:\Users\Karzan\AppData\Local\Temp\ccBvNvkC.s:856    .text.adc_inserted_channel_offset_config:0000000000000010 .LVL73
C:\Users\Karzan\AppData\Local\Temp\ccBvNvkC.s:860    .text.adc_inserted_channel_offset_config:0000000000000012 .LVL74
C:\Users\Karzan\AppData\Local\Temp\ccBvNvkC.s:869    .text.adc_inserted_channel_offset_config:0000000000000018 .LVL77
C:\Users\Karzan\AppData\Local\Temp\ccBvNvkC.s:707    .text.adc_inserted_channel_config:0000000000000000 .LVL51
C:\Users\Karzan\AppData\Local\Temp\ccBvNvkC.s:727    .text.adc_inserted_channel_config:0000000000000010 .LVL55
C:\Users\Karzan\AppData\Local\Temp\ccBvNvkC.s:758    .text.adc_inserted_channel_config:0000000000000038 .LVL58
C:\Users\Karzan\AppData\Local\Temp\ccBvNvkC.s:781    .text.adc_inserted_channel_config:0000000000000050 .LVL62
C:\Users\Karzan\AppData\Local\Temp\ccBvNvkC.s:792    .text.adc_inserted_channel_config:000000000000005a .LVL63
C:\Users\Karzan\AppData\Local\Temp\ccBvNvkC.s:713    .text.adc_inserted_channel_config:0000000000000002 .LVL52
C:\Users\Karzan\AppData\Local\Temp\ccBvNvkC.s:723    .text.adc_inserted_channel_config:000000000000000a .LVL54
C:\Users\Karzan\AppData\Local\Temp\ccBvNvkC.s:719    .text.adc_inserted_channel_config:0000000000000008 .LVL53
C:\Users\Karzan\AppData\Local\Temp\ccBvNvkC.s:741    .text.adc_inserted_channel_config:0000000000000026 .LVL56
C:\Users\Karzan\AppData\Local\Temp\ccBvNvkC.s:747    .text.adc_inserted_channel_config:000000000000002c .LVL57
C:\Users\Karzan\AppData\Local\Temp\ccBvNvkC.s:761    .text.adc_inserted_channel_config:000000000000003a .LVL59
C:\Users\Karzan\AppData\Local\Temp\ccBvNvkC.s:770    .text.adc_inserted_channel_config:0000000000000046 .LVL60
C:\Users\Karzan\AppData\Local\Temp\ccBvNvkC.s:776    .text.adc_inserted_channel_config:000000000000004c .LVL61
C:\Users\Karzan\AppData\Local\Temp\ccBvNvkC.s:797    .text.adc_inserted_channel_config:0000000000000060 .LVL64
C:\Users\Karzan\AppData\Local\Temp\ccBvNvkC.s:806    .text.adc_inserted_channel_config:000000000000006c .LVL65
C:\Users\Karzan\AppData\Local\Temp\ccBvNvkC.s:817    .text.adc_inserted_channel_config:0000000000000074 .LVL67
C:\Users\Karzan\AppData\Local\Temp\ccBvNvkC.s:523    .text.adc_regular_channel_config:0000000000000000 .LVL25
C:\Users\Karzan\AppData\Local\Temp\ccBvNvkC.s:532    .text.adc_regular_channel_config:000000000000000a .LVL26
C:\Users\Karzan\AppData\Local\Temp\ccBvNvkC.s:588    .text.adc_regular_channel_config:0000000000000048 .LVL35
C:\Users\Karzan\AppData\Local\Temp\ccBvNvkC.s:597    .text.adc_regular_channel_config:0000000000000050 .LVL36
C:\Users\Karzan\AppData\Local\Temp\ccBvNvkC.s:622    .text.adc_regular_channel_config:0000000000000070 .LVL40
C:\Users\Karzan\AppData\Local\Temp\ccBvNvkC.s:631    .text.adc_regular_channel_config:0000000000000078 .LVL41
C:\Users\Karzan\AppData\Local\Temp\ccBvNvkC.s:565    .text.adc_regular_channel_config:0000000000000030 .LVL31
C:\Users\Karzan\AppData\Local\Temp\ccBvNvkC.s:667    .text.adc_regular_channel_config:00000000000000a2 .LVL46
C:\Users\Karzan\AppData\Local\Temp\ccBvNvkC.s:535    .text.adc_regular_channel_config:000000000000000e .LVL27
C:\Users\Karzan\AppData\Local\Temp\ccBvNvkC.s:544    .text.adc_regular_channel_config:000000000000001c .LVL28
C:\Users\Karzan\AppData\Local\Temp\ccBvNvkC.s:550    .text.adc_regular_channel_config:0000000000000022 .LVL29
C:\Users\Karzan\AppData\Local\Temp\ccBvNvkC.s:554    .text.adc_regular_channel_config:0000000000000024 .LVL30
C:\Users\Karzan\AppData\Local\Temp\ccBvNvkC.s:602    .text.adc_regular_channel_config:0000000000000058 .LVL37
C:\Users\Karzan\AppData\Local\Temp\ccBvNvkC.s:611    .text.adc_regular_channel_config:0000000000000066 .LVL38
C:\Users\Karzan\AppData\Local\Temp\ccBvNvkC.s:617    .text.adc_regular_channel_config:000000000000006c .LVL39
C:\Users\Karzan\AppData\Local\Temp\ccBvNvkC.s:636    .text.adc_regular_channel_config:0000000000000080 .LVL42
C:\Users\Karzan\AppData\Local\Temp\ccBvNvkC.s:645    .text.adc_regular_channel_config:000000000000008e .LVL43
C:\Users\Karzan\AppData\Local\Temp\ccBvNvkC.s:651    .text.adc_regular_channel_config:0000000000000094 .LVL44
C:\Users\Karzan\AppData\Local\Temp\ccBvNvkC.s:656    .text.adc_regular_channel_config:0000000000000098 .LVL45
C:\Users\Karzan\AppData\Local\Temp\ccBvNvkC.s:568    .text.adc_regular_channel_config:0000000000000032 .LVL32
C:\Users\Karzan\AppData\Local\Temp\ccBvNvkC.s:577    .text.adc_regular_channel_config:000000000000003e .LVL33
GAS LISTING C:\Users\Karzan\AppData\Local\Temp\ccBvNvkC.s 			page 68


C:\Users\Karzan\AppData\Local\Temp\ccBvNvkC.s:583    .text.adc_regular_channel_config:0000000000000044 .LVL34
C:\Users\Karzan\AppData\Local\Temp\ccBvNvkC.s:672    .text.adc_regular_channel_config:00000000000000a8 .LVL47
C:\Users\Karzan\AppData\Local\Temp\ccBvNvkC.s:681    .text.adc_regular_channel_config:00000000000000b4 .LVL48
C:\Users\Karzan\AppData\Local\Temp\ccBvNvkC.s:692    .text.adc_regular_channel_config:00000000000000bc .LVL50
C:\Users\Karzan\AppData\Local\Temp\ccBvNvkC.s:457    .text.adc_channel_length_config:0000000000000000 .LVL19
C:\Users\Karzan\AppData\Local\Temp\ccBvNvkC.s:477    .text.adc_channel_length_config:000000000000001e .LVL20
C:\Users\Karzan\AppData\Local\Temp\ccBvNvkC.s:479    .text.adc_channel_length_config:0000000000000020 .LVL21
C:\Users\Karzan\AppData\Local\Temp\ccBvNvkC.s:487    .text.adc_channel_length_config:000000000000002c .LVL22
C:\Users\Karzan\AppData\Local\Temp\ccBvNvkC.s:501    .text.adc_channel_length_config:000000000000003c .LVL23
C:\Users\Karzan\AppData\Local\Temp\ccBvNvkC.s:503    .text.adc_channel_length_config:000000000000003e .LVL24
C:\Users\Karzan\AppData\Local\Temp\ccBvNvkC.s:393    .text.adc_discontinuous_mode_config:0000000000000000 .LVL16
C:\Users\Karzan\AppData\Local\Temp\ccBvNvkC.s:420    .text.adc_discontinuous_mode_config:0000000000000028 .LVL17
C:\Users\Karzan\AppData\Local\Temp\ccBvNvkC.s:439    .text.adc_discontinuous_mode_config:0000000000000040 .LVL18
C:\Users\Karzan\AppData\Local\Temp\ccBvNvkC.s:114    .text.adc_special_function_config:0000000000000000 .LVL8
C:\Users\Karzan\AppData\Local\Temp\ccBvNvkC.s:119    .text.adc_special_function_config:000000000000000a .LVL9
C:\Users\Karzan\AppData\Local\Temp\ccBvNvkC.s:86     .text.adc_mode_config:0000000000000000 .LVL6
C:\Users\Karzan\AppData\Local\Temp\ccBvNvkC.s:99     .text.adc_mode_config:000000000000001a .LVL7
C:\Users\Karzan\AppData\Local\Temp\ccBvNvkC.s:22     .text.adc_deinit:0000000000000002 .LCFI0
C:\Users\Karzan\AppData\Local\Temp\ccBvNvkC.s:40     .text.adc_deinit:0000000000000020 .LCFI1
C:\Users\Karzan\AppData\Local\Temp\ccBvNvkC.s:44     .text.adc_deinit:0000000000000022 .LCFI2
C:\Users\Karzan\AppData\Local\Temp\ccBvNvkC.s:59     .text.adc_deinit:0000000000000036 .LCFI3
C:\Users\Karzan\AppData\Local\Temp\ccBvNvkC.s:65     .text.adc_deinit:000000000000003e .LCFI4
C:\Users\Karzan\AppData\Local\Temp\ccBvNvkC.s:18     .text.adc_deinit:0000000000000000 .LVL0
C:\Users\Karzan\AppData\Local\Temp\ccBvNvkC.s:48     .text.adc_deinit:0000000000000026 .LVL1
C:\Users\Karzan\AppData\Local\Temp\ccBvNvkC.s:69     .text.adc_deinit:0000000000000042 .LVL4
C:\Users\Karzan\AppData\Local\Temp\ccBvNvkC.s:1666   .debug_info:0000000000000000 .Ldebug_info0

UNDEFINED SYMBOLS
rcu_periph_reset_enable
rcu_periph_reset_disable
