GAS LISTING C:\Users\Karzan\AppData\Local\Temp\ccXUorsL.s 			page 1


   1              		.file	"gd32vf103_can.c"
   2              		.option nopic
   3              		.attribute arch, "rv32i2p0_m2p0_a2p0_c2p0"
   4              		.attribute unaligned_access, 0
   5              		.attribute stack_align, 16
   6              		.text
   7              	.Ltext0:
   8              		.cfi_sections	.debug_frame
   9              		.section	.text.can_deinit,"ax",@progbits
  10              		.align	1
  11              		.globl	can_deinit
  13              	can_deinit:
  14              	.LFB2:
  15              		.file 1 "./../../firmware/GD32VF103_standard_peripheral/Source/gd32vf103_can.c"
   1:./../../firmware/GD32VF103_standard_peripheral/Source/gd32vf103_can.c **** /*!
   2:./../../firmware/GD32VF103_standard_peripheral/Source/gd32vf103_can.c ****     \file    gd32vf103_can.c
   3:./../../firmware/GD32VF103_standard_peripheral/Source/gd32vf103_can.c ****     \brief   CAN driver
   4:./../../firmware/GD32VF103_standard_peripheral/Source/gd32vf103_can.c ****     
   5:./../../firmware/GD32VF103_standard_peripheral/Source/gd32vf103_can.c ****     \version 2019-06-05, V1.0.0, firmware for GD32VF103
   6:./../../firmware/GD32VF103_standard_peripheral/Source/gd32vf103_can.c ****     \version 2019-11-27, V1.0.1, firmware for GD32VF103
   7:./../../firmware/GD32VF103_standard_peripheral/Source/gd32vf103_can.c ****     \version 2020-07-14, V1.0.2, firmware for GD32VF103
   8:./../../firmware/GD32VF103_standard_peripheral/Source/gd32vf103_can.c ****     \version 2020-08-04, V1.1.0, firmware for GD32VF103
   9:./../../firmware/GD32VF103_standard_peripheral/Source/gd32vf103_can.c ****     \version 2020-12-14, V1.1.1, firmware for GD32VF103
  10:./../../firmware/GD32VF103_standard_peripheral/Source/gd32vf103_can.c **** */
  11:./../../firmware/GD32VF103_standard_peripheral/Source/gd32vf103_can.c **** 
  12:./../../firmware/GD32VF103_standard_peripheral/Source/gd32vf103_can.c **** /*
  13:./../../firmware/GD32VF103_standard_peripheral/Source/gd32vf103_can.c ****     Copyright (c) 2020, GigaDevice Semiconductor Inc.
  14:./../../firmware/GD32VF103_standard_peripheral/Source/gd32vf103_can.c **** 
  15:./../../firmware/GD32VF103_standard_peripheral/Source/gd32vf103_can.c ****     Redistribution and use in source and binary forms, with or without modification, 
  16:./../../firmware/GD32VF103_standard_peripheral/Source/gd32vf103_can.c **** are permitted provided that the following conditions are met:
  17:./../../firmware/GD32VF103_standard_peripheral/Source/gd32vf103_can.c **** 
  18:./../../firmware/GD32VF103_standard_peripheral/Source/gd32vf103_can.c ****     1. Redistributions of source code must retain the above copyright notice, this 
  19:./../../firmware/GD32VF103_standard_peripheral/Source/gd32vf103_can.c ****        list of conditions and the following disclaimer.
  20:./../../firmware/GD32VF103_standard_peripheral/Source/gd32vf103_can.c ****     2. Redistributions in binary form must reproduce the above copyright notice, 
  21:./../../firmware/GD32VF103_standard_peripheral/Source/gd32vf103_can.c ****        this list of conditions and the following disclaimer in the documentation 
  22:./../../firmware/GD32VF103_standard_peripheral/Source/gd32vf103_can.c ****        and/or other materials provided with the distribution.
  23:./../../firmware/GD32VF103_standard_peripheral/Source/gd32vf103_can.c ****     3. Neither the name of the copyright holder nor the names of its contributors 
  24:./../../firmware/GD32VF103_standard_peripheral/Source/gd32vf103_can.c ****        may be used to endorse or promote products derived from this software without 
  25:./../../firmware/GD32VF103_standard_peripheral/Source/gd32vf103_can.c ****        specific prior written permission.
  26:./../../firmware/GD32VF103_standard_peripheral/Source/gd32vf103_can.c **** 
  27:./../../firmware/GD32VF103_standard_peripheral/Source/gd32vf103_can.c ****     THIS SOFTWARE IS PROVIDED BY THE COPYRIGHT HOLDERS AND CONTRIBUTORS "AS IS" 
  28:./../../firmware/GD32VF103_standard_peripheral/Source/gd32vf103_can.c **** AND ANY EXPRESS OR IMPLIED WARRANTIES, INCLUDING, BUT NOT LIMITED TO, THE IMPLIED 
  29:./../../firmware/GD32VF103_standard_peripheral/Source/gd32vf103_can.c **** WARRANTIES OF MERCHANTABILITY AND FITNESS FOR A PARTICULAR PURPOSE ARE DISCLAIMED. 
  30:./../../firmware/GD32VF103_standard_peripheral/Source/gd32vf103_can.c **** IN NO EVENT SHALL THE COPYRIGHT HOLDER OR CONTRIBUTORS BE LIABLE FOR ANY DIRECT, 
  31:./../../firmware/GD32VF103_standard_peripheral/Source/gd32vf103_can.c **** INDIRECT, INCIDENTAL, SPECIAL, EXEMPLARY, OR CONSEQUENTIAL DAMAGES (INCLUDING, BUT 
  32:./../../firmware/GD32VF103_standard_peripheral/Source/gd32vf103_can.c **** NOT LIMITED TO, PROCUREMENT OF SUBSTITUTE GOODS OR SERVICES; LOSS OF USE, DATA, OR 
  33:./../../firmware/GD32VF103_standard_peripheral/Source/gd32vf103_can.c **** PROFITS; OR BUSINESS INTERRUPTION) HOWEVER CAUSED AND ON ANY THEORY OF LIABILITY, 
  34:./../../firmware/GD32VF103_standard_peripheral/Source/gd32vf103_can.c **** WHETHER IN CONTRACT, STRICT LIABILITY, OR TORT (INCLUDING NEGLIGENCE OR OTHERWISE) 
  35:./../../firmware/GD32VF103_standard_peripheral/Source/gd32vf103_can.c **** ARISING IN ANY WAY OUT OF THE USE OF THIS SOFTWARE, EVEN IF ADVISED OF THE POSSIBILITY 
  36:./../../firmware/GD32VF103_standard_peripheral/Source/gd32vf103_can.c **** OF SUCH DAMAGE.
  37:./../../firmware/GD32VF103_standard_peripheral/Source/gd32vf103_can.c **** */
  38:./../../firmware/GD32VF103_standard_peripheral/Source/gd32vf103_can.c **** 
  39:./../../firmware/GD32VF103_standard_peripheral/Source/gd32vf103_can.c **** #include "gd32vf103_can.h"
  40:./../../firmware/GD32VF103_standard_peripheral/Source/gd32vf103_can.c **** 
  41:./../../firmware/GD32VF103_standard_peripheral/Source/gd32vf103_can.c **** #define CAN_ERROR_HANDLE(s)     do{}while(1)
  42:./../../firmware/GD32VF103_standard_peripheral/Source/gd32vf103_can.c **** 
  43:./../../firmware/GD32VF103_standard_peripheral/Source/gd32vf103_can.c **** /*!
GAS LISTING C:\Users\Karzan\AppData\Local\Temp\ccXUorsL.s 			page 2


  44:./../../firmware/GD32VF103_standard_peripheral/Source/gd32vf103_can.c ****     \brief      deinitialize CAN 
  45:./../../firmware/GD32VF103_standard_peripheral/Source/gd32vf103_can.c ****     \param[in]  can_periph
  46:./../../firmware/GD32VF103_standard_peripheral/Source/gd32vf103_can.c ****     \arg        CANx(x=0,1)
  47:./../../firmware/GD32VF103_standard_peripheral/Source/gd32vf103_can.c ****     \param[out] none
  48:./../../firmware/GD32VF103_standard_peripheral/Source/gd32vf103_can.c ****     \retval     none
  49:./../../firmware/GD32VF103_standard_peripheral/Source/gd32vf103_can.c **** */
  50:./../../firmware/GD32VF103_standard_peripheral/Source/gd32vf103_can.c **** void can_deinit(uint32_t can_periph)
  51:./../../firmware/GD32VF103_standard_peripheral/Source/gd32vf103_can.c **** {
  16              		.loc 1 51 1
  17              		.cfi_startproc
  18              	.LVL0:
  52:./../../firmware/GD32VF103_standard_peripheral/Source/gd32vf103_can.c ****     if(CAN0 == can_periph){
  19              		.loc 1 52 5
  51:./../../firmware/GD32VF103_standard_peripheral/Source/gd32vf103_can.c ****     if(CAN0 == can_periph){
  20              		.loc 1 51 1 is_stmt 0
  21 0000 4111     		addi	sp,sp,-16
  22              	.LCFI0:
  23              		.cfi_def_cfa_offset 16
  24              		.loc 1 52 7
  25 0002 B7670040 		li	a5,1073766400
  51:./../../firmware/GD32VF103_standard_peripheral/Source/gd32vf103_can.c ****     if(CAN0 == can_periph){
  26              		.loc 1 51 1
  27 0006 06C6     		sw	ra,12(sp)
  28              		.cfi_offset 1, -4
  29              		.loc 1 52 7
  30 0008 93870740 		addi	a5,a5,1024
  31 000c 6310F502 		bne	a0,a5,.L2
  53:./../../firmware/GD32VF103_standard_peripheral/Source/gd32vf103_can.c ****         rcu_periph_reset_enable(RCU_CAN0RST);
  32              		.loc 1 53 9 is_stmt 1
  33 0010 13059041 		li	a0,1049
  34              	.LVL1:
  35 0014 97000000 		call	rcu_periph_reset_enable
  35      E7800000 
  36              	.LVL2:
  54:./../../firmware/GD32VF103_standard_peripheral/Source/gd32vf103_can.c ****         rcu_periph_reset_disable(RCU_CAN0RST);
  37              		.loc 1 54 9
  38 001c 13059041 		li	a0,1049
  39              	.L4:
  55:./../../firmware/GD32VF103_standard_peripheral/Source/gd32vf103_can.c ****     }else{
  56:./../../firmware/GD32VF103_standard_peripheral/Source/gd32vf103_can.c ****         rcu_periph_reset_enable(RCU_CAN1RST);
  57:./../../firmware/GD32VF103_standard_peripheral/Source/gd32vf103_can.c ****         rcu_periph_reset_disable(RCU_CAN1RST);
  58:./../../firmware/GD32VF103_standard_peripheral/Source/gd32vf103_can.c ****     }
  59:./../../firmware/GD32VF103_standard_peripheral/Source/gd32vf103_can.c **** }
  40              		.loc 1 59 1 is_stmt 0
  41 0020 B240     		lw	ra,12(sp)
  42              		.cfi_remember_state
  43              		.cfi_restore 1
  44 0022 4101     		addi	sp,sp,16
  45              	.LCFI1:
  46              		.cfi_def_cfa_offset 0
  57:./../../firmware/GD32VF103_standard_peripheral/Source/gd32vf103_can.c ****     }
  47              		.loc 1 57 9
  48 0024 17030000 		tail	rcu_periph_reset_disable
  48      67000300 
  49              	.LVL3:
  50              	.L2:
  51              	.LCFI2:
GAS LISTING C:\Users\Karzan\AppData\Local\Temp\ccXUorsL.s 			page 3


  52              		.cfi_restore_state
  56:./../../firmware/GD32VF103_standard_peripheral/Source/gd32vf103_can.c ****         rcu_periph_reset_disable(RCU_CAN1RST);
  53              		.loc 1 56 9 is_stmt 1
  54 002c 1305A041 		li	a0,1050
  55              	.LVL4:
  56 0030 97000000 		call	rcu_periph_reset_enable
  56      E7800000 
  57              	.LVL5:
  57:./../../firmware/GD32VF103_standard_peripheral/Source/gd32vf103_can.c ****     }
  58              		.loc 1 57 9
  59 0038 1305A041 		li	a0,1050
  60 003c D5B7     		j	.L4
  61              		.cfi_endproc
  62              	.LFE2:
  64              		.section	.text.can_struct_para_init,"ax",@progbits
  65              		.align	1
  66              		.globl	can_struct_para_init
  68              	can_struct_para_init:
  69              	.LFB3:
  60:./../../firmware/GD32VF103_standard_peripheral/Source/gd32vf103_can.c **** 
  61:./../../firmware/GD32VF103_standard_peripheral/Source/gd32vf103_can.c **** /*!
  62:./../../firmware/GD32VF103_standard_peripheral/Source/gd32vf103_can.c ****     \brief      initialize CAN parameter struct with a default value
  63:./../../firmware/GD32VF103_standard_peripheral/Source/gd32vf103_can.c ****     \param[in]  type: the type of CAN parameter struct  
  64:./../../firmware/GD32VF103_standard_peripheral/Source/gd32vf103_can.c ****                 only one parameter can be selected which is shown as below:
  65:./../../firmware/GD32VF103_standard_peripheral/Source/gd32vf103_can.c ****       \arg        CAN_INIT_STRUCT: the CAN initial struct
  66:./../../firmware/GD32VF103_standard_peripheral/Source/gd32vf103_can.c ****       \arg        CAN_FILTER_STRUCT: the CAN filter struct
  67:./../../firmware/GD32VF103_standard_peripheral/Source/gd32vf103_can.c ****       \arg        CAN_TX_MESSAGE_STRUCT: the CAN TX message struct
  68:./../../firmware/GD32VF103_standard_peripheral/Source/gd32vf103_can.c ****       \arg        CAN_RX_MESSAGE_STRUCT: the CAN RX message struct
  69:./../../firmware/GD32VF103_standard_peripheral/Source/gd32vf103_can.c ****     \param[in]  p_struct: the pointer of the specific struct 
  70:./../../firmware/GD32VF103_standard_peripheral/Source/gd32vf103_can.c ****     \param[out] none
  71:./../../firmware/GD32VF103_standard_peripheral/Source/gd32vf103_can.c ****     \retval     none
  72:./../../firmware/GD32VF103_standard_peripheral/Source/gd32vf103_can.c **** */
  73:./../../firmware/GD32VF103_standard_peripheral/Source/gd32vf103_can.c **** void can_struct_para_init(can_struct_type_enum type, void* p_struct)
  74:./../../firmware/GD32VF103_standard_peripheral/Source/gd32vf103_can.c **** {
  70              		.loc 1 74 1
  71              		.cfi_startproc
  72              	.LVL6:
  75:./../../firmware/GD32VF103_standard_peripheral/Source/gd32vf103_can.c ****     uint8_t i;
  73              		.loc 1 75 5
  76:./../../firmware/GD32VF103_standard_peripheral/Source/gd32vf103_can.c ****     
  77:./../../firmware/GD32VF103_standard_peripheral/Source/gd32vf103_can.c ****     /* get type of the struct */
  78:./../../firmware/GD32VF103_standard_peripheral/Source/gd32vf103_can.c ****     switch(type){
  74              		.loc 1 78 5
  75 0000 8547     		li	a5,1
  76 0002 630EF502 		beq	a0,a5,.L6
  77 0006 01C9     		beq	a0,zero,.L7
  78 0008 8947     		li	a5,2
  79 000a 6305F504 		beq	a0,a5,.L8
  80 000e 8D47     		li	a5,3
  81 0010 630FF504 		beq	a0,a5,.L9
  82              	.L10:
  79:./../../firmware/GD32VF103_standard_peripheral/Source/gd32vf103_can.c ****         /* used for can_init() */
  80:./../../firmware/GD32VF103_standard_peripheral/Source/gd32vf103_can.c ****         case CAN_INIT_STRUCT:
  81:./../../firmware/GD32VF103_standard_peripheral/Source/gd32vf103_can.c ****             ((can_parameter_struct*)p_struct)->auto_bus_off_recovery = DISABLE;
  82:./../../firmware/GD32VF103_standard_peripheral/Source/gd32vf103_can.c ****             ((can_parameter_struct*)p_struct)->no_auto_retrans = DISABLE;
  83:./../../firmware/GD32VF103_standard_peripheral/Source/gd32vf103_can.c ****             ((can_parameter_struct*)p_struct)->auto_wake_up = DISABLE;
  84:./../../firmware/GD32VF103_standard_peripheral/Source/gd32vf103_can.c ****             ((can_parameter_struct*)p_struct)->prescaler = 0x03FFU; 
GAS LISTING C:\Users\Karzan\AppData\Local\Temp\ccXUorsL.s 			page 4


  85:./../../firmware/GD32VF103_standard_peripheral/Source/gd32vf103_can.c ****             ((can_parameter_struct*)p_struct)->rec_fifo_overwrite = DISABLE; 
  86:./../../firmware/GD32VF103_standard_peripheral/Source/gd32vf103_can.c ****             ((can_parameter_struct*)p_struct)->resync_jump_width = CAN_BT_SJW_1TQ;
  87:./../../firmware/GD32VF103_standard_peripheral/Source/gd32vf103_can.c ****             ((can_parameter_struct*)p_struct)->time_segment_1 = CAN_BT_BS1_3TQ;
  88:./../../firmware/GD32VF103_standard_peripheral/Source/gd32vf103_can.c ****             ((can_parameter_struct*)p_struct)->time_segment_2 = CAN_BT_BS2_1TQ;
  89:./../../firmware/GD32VF103_standard_peripheral/Source/gd32vf103_can.c ****             ((can_parameter_struct*)p_struct)->time_triggered = DISABLE;
  90:./../../firmware/GD32VF103_standard_peripheral/Source/gd32vf103_can.c ****             ((can_parameter_struct*)p_struct)->trans_fifo_order = DISABLE;
  91:./../../firmware/GD32VF103_standard_peripheral/Source/gd32vf103_can.c ****             ((can_parameter_struct*)p_struct)->working_mode = CAN_NORMAL_MODE;
  92:./../../firmware/GD32VF103_standard_peripheral/Source/gd32vf103_can.c ****             
  93:./../../firmware/GD32VF103_standard_peripheral/Source/gd32vf103_can.c ****             break;
  94:./../../firmware/GD32VF103_standard_peripheral/Source/gd32vf103_can.c ****         /* used for can_filter_init() */
  95:./../../firmware/GD32VF103_standard_peripheral/Source/gd32vf103_can.c ****         case CAN_FILTER_STRUCT:
  96:./../../firmware/GD32VF103_standard_peripheral/Source/gd32vf103_can.c ****             ((can_filter_parameter_struct*)p_struct)->filter_bits = CAN_FILTERBITS_32BIT;
  97:./../../firmware/GD32VF103_standard_peripheral/Source/gd32vf103_can.c ****             ((can_filter_parameter_struct*)p_struct)->filter_enable = DISABLE;
  98:./../../firmware/GD32VF103_standard_peripheral/Source/gd32vf103_can.c ****             ((can_filter_parameter_struct*)p_struct)->filter_fifo_number = CAN_FIFO0;
  99:./../../firmware/GD32VF103_standard_peripheral/Source/gd32vf103_can.c ****             ((can_filter_parameter_struct*)p_struct)->filter_list_high = 0x0000U;
 100:./../../firmware/GD32VF103_standard_peripheral/Source/gd32vf103_can.c ****             ((can_filter_parameter_struct*)p_struct)->filter_list_low = 0x0000U;
 101:./../../firmware/GD32VF103_standard_peripheral/Source/gd32vf103_can.c ****             ((can_filter_parameter_struct*)p_struct)->filter_mask_high = 0x0000U;
 102:./../../firmware/GD32VF103_standard_peripheral/Source/gd32vf103_can.c ****             ((can_filter_parameter_struct*)p_struct)->filter_mask_low = 0x0000U;
 103:./../../firmware/GD32VF103_standard_peripheral/Source/gd32vf103_can.c ****             ((can_filter_parameter_struct*)p_struct)->filter_mode = CAN_FILTERMODE_MASK;
 104:./../../firmware/GD32VF103_standard_peripheral/Source/gd32vf103_can.c ****             ((can_filter_parameter_struct*)p_struct)->filter_number = 0U;
 105:./../../firmware/GD32VF103_standard_peripheral/Source/gd32vf103_can.c **** 
 106:./../../firmware/GD32VF103_standard_peripheral/Source/gd32vf103_can.c ****             break;
 107:./../../firmware/GD32VF103_standard_peripheral/Source/gd32vf103_can.c ****         /* used for can_message_transmit() */
 108:./../../firmware/GD32VF103_standard_peripheral/Source/gd32vf103_can.c ****         case CAN_TX_MESSAGE_STRUCT:
 109:./../../firmware/GD32VF103_standard_peripheral/Source/gd32vf103_can.c ****             for(i = 0U; i < 8U; i++){
 110:./../../firmware/GD32VF103_standard_peripheral/Source/gd32vf103_can.c ****                 ((can_trasnmit_message_struct*)p_struct)->tx_data[i] = 0U;
 111:./../../firmware/GD32VF103_standard_peripheral/Source/gd32vf103_can.c ****             }
 112:./../../firmware/GD32VF103_standard_peripheral/Source/gd32vf103_can.c ****             
 113:./../../firmware/GD32VF103_standard_peripheral/Source/gd32vf103_can.c ****             ((can_trasnmit_message_struct*)p_struct)->tx_dlen = 0u;
 114:./../../firmware/GD32VF103_standard_peripheral/Source/gd32vf103_can.c ****             ((can_trasnmit_message_struct*)p_struct)->tx_efid = 0U;
 115:./../../firmware/GD32VF103_standard_peripheral/Source/gd32vf103_can.c ****             ((can_trasnmit_message_struct*)p_struct)->tx_ff = (uint8_t)CAN_FF_STANDARD;
 116:./../../firmware/GD32VF103_standard_peripheral/Source/gd32vf103_can.c ****             ((can_trasnmit_message_struct*)p_struct)->tx_ft = (uint8_t)CAN_FT_DATA;
 117:./../../firmware/GD32VF103_standard_peripheral/Source/gd32vf103_can.c ****             ((can_trasnmit_message_struct*)p_struct)->tx_sfid = 0U;
 118:./../../firmware/GD32VF103_standard_peripheral/Source/gd32vf103_can.c ****             
 119:./../../firmware/GD32VF103_standard_peripheral/Source/gd32vf103_can.c ****             break;
 120:./../../firmware/GD32VF103_standard_peripheral/Source/gd32vf103_can.c ****         /* used for can_message_receive() */
 121:./../../firmware/GD32VF103_standard_peripheral/Source/gd32vf103_can.c ****         case CAN_RX_MESSAGE_STRUCT:
 122:./../../firmware/GD32VF103_standard_peripheral/Source/gd32vf103_can.c ****             for(i = 0U; i < 8U; i++){
 123:./../../firmware/GD32VF103_standard_peripheral/Source/gd32vf103_can.c ****                 ((can_receive_message_struct*)p_struct)->rx_data[i] = 0U;
 124:./../../firmware/GD32VF103_standard_peripheral/Source/gd32vf103_can.c ****             }
 125:./../../firmware/GD32VF103_standard_peripheral/Source/gd32vf103_can.c ****             
 126:./../../firmware/GD32VF103_standard_peripheral/Source/gd32vf103_can.c ****             ((can_receive_message_struct*)p_struct)->rx_dlen = 0U;
 127:./../../firmware/GD32VF103_standard_peripheral/Source/gd32vf103_can.c ****             ((can_receive_message_struct*)p_struct)->rx_efid = 0U;
 128:./../../firmware/GD32VF103_standard_peripheral/Source/gd32vf103_can.c ****             ((can_receive_message_struct*)p_struct)->rx_ff = (uint8_t)CAN_FF_STANDARD;
 129:./../../firmware/GD32VF103_standard_peripheral/Source/gd32vf103_can.c ****             ((can_receive_message_struct*)p_struct)->rx_fi = 0U;
 130:./../../firmware/GD32VF103_standard_peripheral/Source/gd32vf103_can.c ****             ((can_receive_message_struct*)p_struct)->rx_ft = (uint8_t)CAN_FT_DATA;
 131:./../../firmware/GD32VF103_standard_peripheral/Source/gd32vf103_can.c ****             ((can_receive_message_struct*)p_struct)->rx_sfid = 0U;
 132:./../../firmware/GD32VF103_standard_peripheral/Source/gd32vf103_can.c ****             
 133:./../../firmware/GD32VF103_standard_peripheral/Source/gd32vf103_can.c ****             break;
 134:./../../firmware/GD32VF103_standard_peripheral/Source/gd32vf103_can.c **** 
 135:./../../firmware/GD32VF103_standard_peripheral/Source/gd32vf103_can.c ****         default:
 136:./../../firmware/GD32VF103_standard_peripheral/Source/gd32vf103_can.c ****             CAN_ERROR_HANDLE("parameter is invalid \r\n");
  83              		.loc 1 136 13 discriminator 1
  84              		.loc 1 136 13 discriminator 1
  85 0014 01A0     		j	.L10
  86              	.L7:
  81:./../../firmware/GD32VF103_standard_peripheral/Source/gd32vf103_can.c ****             ((can_parameter_struct*)p_struct)->no_auto_retrans = DISABLE;
GAS LISTING C:\Users\Karzan\AppData\Local\Temp\ccXUorsL.s 			page 5


  87              		.loc 1 81 13
  82:./../../firmware/GD32VF103_standard_peripheral/Source/gd32vf103_can.c ****             ((can_parameter_struct*)p_struct)->auto_wake_up = DISABLE;
  88              		.loc 1 82 13
  83:./../../firmware/GD32VF103_standard_peripheral/Source/gd32vf103_can.c ****             ((can_parameter_struct*)p_struct)->prescaler = 0x03FFU; 
  89              		.loc 1 83 13
  84:./../../firmware/GD32VF103_standard_peripheral/Source/gd32vf103_can.c ****             ((can_parameter_struct*)p_struct)->rec_fifo_overwrite = DISABLE; 
  90              		.loc 1 84 13
  85:./../../firmware/GD32VF103_standard_peripheral/Source/gd32vf103_can.c ****             ((can_parameter_struct*)p_struct)->resync_jump_width = CAN_BT_SJW_1TQ;
  91              		.loc 1 85 13
  86:./../../firmware/GD32VF103_standard_peripheral/Source/gd32vf103_can.c ****             ((can_parameter_struct*)p_struct)->time_segment_1 = CAN_BT_BS1_3TQ;
  92              		.loc 1 86 13
  87:./../../firmware/GD32VF103_standard_peripheral/Source/gd32vf103_can.c ****             ((can_parameter_struct*)p_struct)->time_segment_2 = CAN_BT_BS2_1TQ;
  93              		.loc 1 87 13
  88:./../../firmware/GD32VF103_standard_peripheral/Source/gd32vf103_can.c ****             ((can_parameter_struct*)p_struct)->time_triggered = DISABLE;
  94              		.loc 1 88 13
  89:./../../firmware/GD32VF103_standard_peripheral/Source/gd32vf103_can.c ****             ((can_parameter_struct*)p_struct)->trans_fifo_order = DISABLE;
  95              		.loc 1 89 13
  90:./../../firmware/GD32VF103_standard_peripheral/Source/gd32vf103_can.c ****             ((can_parameter_struct*)p_struct)->working_mode = CAN_NORMAL_MODE;
  96              		.loc 1 90 13
  91:./../../firmware/GD32VF103_standard_peripheral/Source/gd32vf103_can.c ****             
  97              		.loc 1 91 13
  91:./../../firmware/GD32VF103_standard_peripheral/Source/gd32vf103_can.c ****             
  98              		.loc 1 91 61 is_stmt 0
  99 0016 B7070200 		li	a5,131072
 100 001a 9CC1     		sw	a5,0(a1)
  84:./../../firmware/GD32VF103_standard_peripheral/Source/gd32vf103_can.c ****             ((can_parameter_struct*)p_struct)->rec_fifo_overwrite = DISABLE; 
 101              		.loc 1 84 58
 102 001c 9307F03F 		li	a5,1023
  89:./../../firmware/GD32VF103_standard_peripheral/Source/gd32vf103_can.c ****             ((can_parameter_struct*)p_struct)->trans_fifo_order = DISABLE;
 103              		.loc 1 89 63
 104 0020 23A20500 		sw	zero,4(a1)
  81:./../../firmware/GD32VF103_standard_peripheral/Source/gd32vf103_can.c ****             ((can_parameter_struct*)p_struct)->no_auto_retrans = DISABLE;
 105              		.loc 1 81 70
 106 0024 23A40500 		sw	zero,8(a1)
  83:./../../firmware/GD32VF103_standard_peripheral/Source/gd32vf103_can.c ****             ((can_parameter_struct*)p_struct)->prescaler = 0x03FFU; 
 107              		.loc 1 83 61
 108 0028 23A60500 		sw	zero,12(a1)
  82:./../../firmware/GD32VF103_standard_peripheral/Source/gd32vf103_can.c ****             ((can_parameter_struct*)p_struct)->auto_wake_up = DISABLE;
 109              		.loc 1 82 64
 110 002c 23A80500 		sw	zero,16(a1)
  85:./../../firmware/GD32VF103_standard_peripheral/Source/gd32vf103_can.c ****             ((can_parameter_struct*)p_struct)->resync_jump_width = CAN_BT_SJW_1TQ;
 111              		.loc 1 85 67
 112 0030 23AA0500 		sw	zero,20(a1)
  90:./../../firmware/GD32VF103_standard_peripheral/Source/gd32vf103_can.c ****             ((can_parameter_struct*)p_struct)->working_mode = CAN_NORMAL_MODE;
 113              		.loc 1 90 65
 114 0034 23AC0500 		sw	zero,24(a1)
  84:./../../firmware/GD32VF103_standard_peripheral/Source/gd32vf103_can.c ****             ((can_parameter_struct*)p_struct)->rec_fifo_overwrite = DISABLE; 
 115              		.loc 1 84 58
 116 0038 239EF500 		sh	a5,28(a1)
  93:./../../firmware/GD32VF103_standard_peripheral/Source/gd32vf103_can.c ****         /* used for can_filter_init() */
 117              		.loc 1 93 13 is_stmt 1
 118 003c 8280     		ret
 119              	.L6:
  96:./../../firmware/GD32VF103_standard_peripheral/Source/gd32vf103_can.c ****             ((can_filter_parameter_struct*)p_struct)->filter_enable = DISABLE;
 120              		.loc 1 96 13
  97:./../../firmware/GD32VF103_standard_peripheral/Source/gd32vf103_can.c ****             ((can_filter_parameter_struct*)p_struct)->filter_fifo_number = CAN_FIFO0;
 121              		.loc 1 97 13
GAS LISTING C:\Users\Karzan\AppData\Local\Temp\ccXUorsL.s 			page 6


  98:./../../firmware/GD32VF103_standard_peripheral/Source/gd32vf103_can.c ****             ((can_filter_parameter_struct*)p_struct)->filter_list_high = 0x0000U;
 122              		.loc 1 98 13
  99:./../../firmware/GD32VF103_standard_peripheral/Source/gd32vf103_can.c ****             ((can_filter_parameter_struct*)p_struct)->filter_list_low = 0x0000U;
 123              		.loc 1 99 13
 100:./../../firmware/GD32VF103_standard_peripheral/Source/gd32vf103_can.c ****             ((can_filter_parameter_struct*)p_struct)->filter_mask_high = 0x0000U;
 124              		.loc 1 100 13
 101:./../../firmware/GD32VF103_standard_peripheral/Source/gd32vf103_can.c ****             ((can_filter_parameter_struct*)p_struct)->filter_mask_low = 0x0000U;
 125              		.loc 1 101 13
 102:./../../firmware/GD32VF103_standard_peripheral/Source/gd32vf103_can.c ****             ((can_filter_parameter_struct*)p_struct)->filter_mode = CAN_FILTERMODE_MASK;
 126              		.loc 1 102 13
 103:./../../firmware/GD32VF103_standard_peripheral/Source/gd32vf103_can.c ****             ((can_filter_parameter_struct*)p_struct)->filter_number = 0U;
 127              		.loc 1 103 13
 104:./../../firmware/GD32VF103_standard_peripheral/Source/gd32vf103_can.c **** 
 128              		.loc 1 104 13
 103:./../../firmware/GD32VF103_standard_peripheral/Source/gd32vf103_can.c ****             ((can_filter_parameter_struct*)p_struct)->filter_number = 0U;
 129              		.loc 1 103 67 is_stmt 0
 130 003e C167     		li	a5,65536
  99:./../../firmware/GD32VF103_standard_peripheral/Source/gd32vf103_can.c ****             ((can_filter_parameter_struct*)p_struct)->filter_list_low = 0x0000U;
 131              		.loc 1 99 72
 132 0040 23A00500 		sw	zero,0(a1)
 101:./../../firmware/GD32VF103_standard_peripheral/Source/gd32vf103_can.c ****             ((can_filter_parameter_struct*)p_struct)->filter_mask_low = 0x0000U;
 133              		.loc 1 101 72
 134 0044 23A20500 		sw	zero,4(a1)
  98:./../../firmware/GD32VF103_standard_peripheral/Source/gd32vf103_can.c ****             ((can_filter_parameter_struct*)p_struct)->filter_list_high = 0x0000U;
 135              		.loc 1 98 74
 136 0048 23A40500 		sw	zero,8(a1)
 103:./../../firmware/GD32VF103_standard_peripheral/Source/gd32vf103_can.c ****             ((can_filter_parameter_struct*)p_struct)->filter_number = 0U;
 137              		.loc 1 103 67
 138 004c DCC5     		sw	a5,12(a1)
 139              	.L12:
 123:./../../firmware/GD32VF103_standard_peripheral/Source/gd32vf103_can.c ****             }
 140              		.loc 1 123 69
 141 004e 23A80500 		sw	zero,16(a1)
 133:./../../firmware/GD32VF103_standard_peripheral/Source/gd32vf103_can.c **** 
 142              		.loc 1 133 13 is_stmt 1
 137:./../../firmware/GD32VF103_standard_peripheral/Source/gd32vf103_can.c ****     }
 138:./../../firmware/GD32VF103_standard_peripheral/Source/gd32vf103_can.c **** }
 143              		.loc 1 138 1 is_stmt 0
 144 0052 8280     		ret
 145              	.L8:
 146              	.LVL7:
 110:./../../firmware/GD32VF103_standard_peripheral/Source/gd32vf103_can.c ****             }
 147              		.loc 1 110 17 is_stmt 1
 110:./../../firmware/GD32VF103_standard_peripheral/Source/gd32vf103_can.c ****             }
 148              		.loc 1 110 17
 110:./../../firmware/GD32VF103_standard_peripheral/Source/gd32vf103_can.c ****             }
 149              		.loc 1 110 17
 110:./../../firmware/GD32VF103_standard_peripheral/Source/gd32vf103_can.c ****             }
 150              		.loc 1 110 17
 110:./../../firmware/GD32VF103_standard_peripheral/Source/gd32vf103_can.c ****             }
 151              		.loc 1 110 17
 110:./../../firmware/GD32VF103_standard_peripheral/Source/gd32vf103_can.c ****             }
 152              		.loc 1 110 17
 110:./../../firmware/GD32VF103_standard_peripheral/Source/gd32vf103_can.c ****             }
 153              		.loc 1 110 17
 110:./../../firmware/GD32VF103_standard_peripheral/Source/gd32vf103_can.c ****             }
 154              		.loc 1 110 17
GAS LISTING C:\Users\Karzan\AppData\Local\Temp\ccXUorsL.s 			page 7


 113:./../../firmware/GD32VF103_standard_peripheral/Source/gd32vf103_can.c ****             ((can_trasnmit_message_struct*)p_struct)->tx_efid = 0U;
 155              		.loc 1 113 13
 114:./../../firmware/GD32VF103_standard_peripheral/Source/gd32vf103_can.c ****             ((can_trasnmit_message_struct*)p_struct)->tx_ff = (uint8_t)CAN_FF_STANDARD;
 156              		.loc 1 114 13
 115:./../../firmware/GD32VF103_standard_peripheral/Source/gd32vf103_can.c ****             ((can_trasnmit_message_struct*)p_struct)->tx_ft = (uint8_t)CAN_FT_DATA;
 157              		.loc 1 115 13
 116:./../../firmware/GD32VF103_standard_peripheral/Source/gd32vf103_can.c ****             ((can_trasnmit_message_struct*)p_struct)->tx_sfid = 0U;
 158              		.loc 1 116 13
 117:./../../firmware/GD32VF103_standard_peripheral/Source/gd32vf103_can.c ****             
 159              		.loc 1 117 13
 117:./../../firmware/GD32VF103_standard_peripheral/Source/gd32vf103_can.c ****             
 160              		.loc 1 117 63 is_stmt 0
 161 0054 23A00500 		sw	zero,0(a1)
 114:./../../firmware/GD32VF103_standard_peripheral/Source/gd32vf103_can.c ****             ((can_trasnmit_message_struct*)p_struct)->tx_ff = (uint8_t)CAN_FF_STANDARD;
 162              		.loc 1 114 63
 163 0058 23A20500 		sw	zero,4(a1)
 115:./../../firmware/GD32VF103_standard_peripheral/Source/gd32vf103_can.c ****             ((can_trasnmit_message_struct*)p_struct)->tx_ft = (uint8_t)CAN_FT_DATA;
 164              		.loc 1 115 61
 165 005c 23A40500 		sw	zero,8(a1)
 110:./../../firmware/GD32VF103_standard_peripheral/Source/gd32vf103_can.c ****             }
 166              		.loc 1 110 70
 167 0060 23A60500 		sw	zero,12(a1)
 168 0064 23980500 		sh	zero,16(a1)
 169 0068 23890500 		sb	zero,18(a1)
 119:./../../firmware/GD32VF103_standard_peripheral/Source/gd32vf103_can.c ****         /* used for can_message_receive() */
 170              		.loc 1 119 13 is_stmt 1
 171 006c 8280     		ret
 172              	.LVL8:
 173              	.L9:
 123:./../../firmware/GD32VF103_standard_peripheral/Source/gd32vf103_can.c ****             }
 174              		.loc 1 123 17
 123:./../../firmware/GD32VF103_standard_peripheral/Source/gd32vf103_can.c ****             }
 175              		.loc 1 123 17
 123:./../../firmware/GD32VF103_standard_peripheral/Source/gd32vf103_can.c ****             }
 176              		.loc 1 123 17
 123:./../../firmware/GD32VF103_standard_peripheral/Source/gd32vf103_can.c ****             }
 177              		.loc 1 123 17
 123:./../../firmware/GD32VF103_standard_peripheral/Source/gd32vf103_can.c ****             }
 178              		.loc 1 123 17
 123:./../../firmware/GD32VF103_standard_peripheral/Source/gd32vf103_can.c ****             }
 179              		.loc 1 123 17
 123:./../../firmware/GD32VF103_standard_peripheral/Source/gd32vf103_can.c ****             }
 180              		.loc 1 123 17
 123:./../../firmware/GD32VF103_standard_peripheral/Source/gd32vf103_can.c ****             }
 181              		.loc 1 123 17
 126:./../../firmware/GD32VF103_standard_peripheral/Source/gd32vf103_can.c ****             ((can_receive_message_struct*)p_struct)->rx_efid = 0U;
 182              		.loc 1 126 13
 127:./../../firmware/GD32VF103_standard_peripheral/Source/gd32vf103_can.c ****             ((can_receive_message_struct*)p_struct)->rx_ff = (uint8_t)CAN_FF_STANDARD;
 183              		.loc 1 127 13
 128:./../../firmware/GD32VF103_standard_peripheral/Source/gd32vf103_can.c ****             ((can_receive_message_struct*)p_struct)->rx_fi = 0U;
 184              		.loc 1 128 13
 129:./../../firmware/GD32VF103_standard_peripheral/Source/gd32vf103_can.c ****             ((can_receive_message_struct*)p_struct)->rx_ft = (uint8_t)CAN_FT_DATA;
 185              		.loc 1 129 13
 130:./../../firmware/GD32VF103_standard_peripheral/Source/gd32vf103_can.c ****             ((can_receive_message_struct*)p_struct)->rx_sfid = 0U;
 186              		.loc 1 130 13
 131:./../../firmware/GD32VF103_standard_peripheral/Source/gd32vf103_can.c ****             
 187              		.loc 1 131 13
GAS LISTING C:\Users\Karzan\AppData\Local\Temp\ccXUorsL.s 			page 8


 131:./../../firmware/GD32VF103_standard_peripheral/Source/gd32vf103_can.c ****             
 188              		.loc 1 131 62 is_stmt 0
 189 006e 23A00500 		sw	zero,0(a1)
 127:./../../firmware/GD32VF103_standard_peripheral/Source/gd32vf103_can.c ****             ((can_receive_message_struct*)p_struct)->rx_ff = (uint8_t)CAN_FF_STANDARD;
 190              		.loc 1 127 62
 191 0072 23A20500 		sw	zero,4(a1)
 128:./../../firmware/GD32VF103_standard_peripheral/Source/gd32vf103_can.c ****             ((can_receive_message_struct*)p_struct)->rx_fi = 0U;
 192              		.loc 1 128 60
 193 0076 23A40500 		sw	zero,8(a1)
 123:./../../firmware/GD32VF103_standard_peripheral/Source/gd32vf103_can.c ****             }
 194              		.loc 1 123 69
 195 007a 23A60500 		sw	zero,12(a1)
 196 007e C1BF     		j	.L12
 197              		.cfi_endproc
 198              	.LFE3:
 200              		.section	.text.can_init,"ax",@progbits
 201              		.align	1
 202              		.globl	can_init
 204              	can_init:
 205              	.LFB4:
 139:./../../firmware/GD32VF103_standard_peripheral/Source/gd32vf103_can.c **** 
 140:./../../firmware/GD32VF103_standard_peripheral/Source/gd32vf103_can.c **** /*!
 141:./../../firmware/GD32VF103_standard_peripheral/Source/gd32vf103_can.c ****     \brief      initialize CAN
 142:./../../firmware/GD32VF103_standard_peripheral/Source/gd32vf103_can.c ****     \param[in]  can_periph
 143:./../../firmware/GD32VF103_standard_peripheral/Source/gd32vf103_can.c ****       \arg        CANx(x=0,1)
 144:./../../firmware/GD32VF103_standard_peripheral/Source/gd32vf103_can.c ****     \param[in]  can_parameter_init: parameters for CAN initializtion
 145:./../../firmware/GD32VF103_standard_peripheral/Source/gd32vf103_can.c ****       \arg        working_mode: CAN_NORMAL_MODE, CAN_LOOPBACK_MODE, CAN_SILENT_MODE, CAN_SILENT_LOO
 146:./../../firmware/GD32VF103_standard_peripheral/Source/gd32vf103_can.c ****       \arg        resync_jump_width: CAN_BT_SJW_xTQ(x=1, 2, 3, 4)
 147:./../../firmware/GD32VF103_standard_peripheral/Source/gd32vf103_can.c ****       \arg        time_segment_1: CAN_BT_BS1_xTQ(1..16)
 148:./../../firmware/GD32VF103_standard_peripheral/Source/gd32vf103_can.c ****       \arg        time_segment_2: CAN_BT_BS2_xTQ(1..8)
 149:./../../firmware/GD32VF103_standard_peripheral/Source/gd32vf103_can.c ****       \arg        time_triggered: ENABLE or DISABLE
 150:./../../firmware/GD32VF103_standard_peripheral/Source/gd32vf103_can.c ****       \arg        auto_bus_off_recovery: ENABLE or DISABLE
 151:./../../firmware/GD32VF103_standard_peripheral/Source/gd32vf103_can.c ****       \arg        auto_wake_up: ENABLE or DISABLE
 152:./../../firmware/GD32VF103_standard_peripheral/Source/gd32vf103_can.c ****       \arg        no_auto_retrans: ENABLE or DISABLE
 153:./../../firmware/GD32VF103_standard_peripheral/Source/gd32vf103_can.c ****       \arg        rec_fifo_overwrite: ENABLE or DISABLE
 154:./../../firmware/GD32VF103_standard_peripheral/Source/gd32vf103_can.c ****       \arg        trans_fifo_order: ENABLE or DISABLE
 155:./../../firmware/GD32VF103_standard_peripheral/Source/gd32vf103_can.c ****       \arg        prescaler: 0x0001 - 0x0400
 156:./../../firmware/GD32VF103_standard_peripheral/Source/gd32vf103_can.c ****     \param[out] none
 157:./../../firmware/GD32VF103_standard_peripheral/Source/gd32vf103_can.c ****     \retval     ErrStatus: SUCCESS or ERROR
 158:./../../firmware/GD32VF103_standard_peripheral/Source/gd32vf103_can.c **** */
 159:./../../firmware/GD32VF103_standard_peripheral/Source/gd32vf103_can.c **** ErrStatus can_init(uint32_t can_periph, can_parameter_struct* can_parameter_init)
 160:./../../firmware/GD32VF103_standard_peripheral/Source/gd32vf103_can.c **** {
 206              		.loc 1 160 1 is_stmt 1
 207              		.cfi_startproc
 208              	.LVL9:
 161:./../../firmware/GD32VF103_standard_peripheral/Source/gd32vf103_can.c ****     uint32_t timeout = CAN_TIMEOUT;
 209              		.loc 1 161 5
 162:./../../firmware/GD32VF103_standard_peripheral/Source/gd32vf103_can.c ****     ErrStatus flag = ERROR;
 210              		.loc 1 162 5
 163:./../../firmware/GD32VF103_standard_peripheral/Source/gd32vf103_can.c ****     
 164:./../../firmware/GD32VF103_standard_peripheral/Source/gd32vf103_can.c ****     /* disable sleep mode */
 165:./../../firmware/GD32VF103_standard_peripheral/Source/gd32vf103_can.c ****     CAN_CTL(can_periph) &= ~CAN_CTL_SLPWMOD;
 211              		.loc 1 165 5
 212              		.loc 1 165 25 is_stmt 0
 213 0000 1C41     		lw	a5,0(a0)
 214 0002 F59B     		andi	a5,a5,-3
 215 0004 1CC1     		sw	a5,0(a0)
GAS LISTING C:\Users\Karzan\AppData\Local\Temp\ccXUorsL.s 			page 9


 166:./../../firmware/GD32VF103_standard_peripheral/Source/gd32vf103_can.c ****     /* enable initialize mode */
 167:./../../firmware/GD32VF103_standard_peripheral/Source/gd32vf103_can.c ****     CAN_CTL(can_periph) |= CAN_CTL_IWMOD;
 216              		.loc 1 167 5 is_stmt 1
 217              		.loc 1 167 25 is_stmt 0
 218 0006 1C41     		lw	a5,0(a0)
 219 0008 93E71700 		ori	a5,a5,1
 220 000c 1CC1     		sw	a5,0(a0)
 168:./../../firmware/GD32VF103_standard_peripheral/Source/gd32vf103_can.c ****     /* wait ACK */
 169:./../../firmware/GD32VF103_standard_peripheral/Source/gd32vf103_can.c ****     while((CAN_STAT_IWS != (CAN_STAT(can_periph) & CAN_STAT_IWS)) && (0U != timeout)){
 221              		.loc 1 169 5 is_stmt 1
 222              		.loc 1 169 10 is_stmt 0
 223 000e C167     		li	a5,65536
 224              	.LVL10:
 225              	.L17:
 226              		.loc 1 169 29
 227 0010 5841     		lw	a4,4(a0)
 228 0012 93064500 		addi	a3,a0,4
 229              		.loc 1 169 50
 230 0016 058B     		andi	a4,a4,1
 231              		.loc 1 169 10
 232 0018 55CF     		beq	a4,zero,.L14
 233              	.LVL11:
 234              	.L18:
 170:./../../firmware/GD32VF103_standard_peripheral/Source/gd32vf103_can.c ****         timeout--;
 171:./../../firmware/GD32VF103_standard_peripheral/Source/gd32vf103_can.c ****     }
 172:./../../firmware/GD32VF103_standard_peripheral/Source/gd32vf103_can.c ****     /* check initialize working success */
 173:./../../firmware/GD32VF103_standard_peripheral/Source/gd32vf103_can.c ****     if(CAN_STAT_IWS != (CAN_STAT(can_periph) & CAN_STAT_IWS)){
 235              		.loc 1 173 5 is_stmt 1
 236              		.loc 1 173 25 is_stmt 0
 237 001a 9C42     		lw	a5,0(a3)
 238              		.loc 1 173 46
 239 001c 858B     		andi	a5,a5,1
 240              		.loc 1 173 7
 241 001e CDCB     		beq	a5,zero,.L15
 174:./../../firmware/GD32VF103_standard_peripheral/Source/gd32vf103_can.c ****         flag = ERROR;
 175:./../../firmware/GD32VF103_standard_peripheral/Source/gd32vf103_can.c ****     }else{
 176:./../../firmware/GD32VF103_standard_peripheral/Source/gd32vf103_can.c ****         /* set the bit timing register */
 177:./../../firmware/GD32VF103_standard_peripheral/Source/gd32vf103_can.c ****         CAN_BT(can_periph) = (BT_MODE((uint32_t)can_parameter_init->working_mode) | \
 242              		.loc 1 177 9 is_stmt 1
 178:./../../firmware/GD32VF103_standard_peripheral/Source/gd32vf103_can.c ****                               BT_SJW((uint32_t)can_parameter_init->resync_jump_width) | \
 243              		.loc 1 178 31 is_stmt 0
 244 0020 83C71500 		lbu	a5,1(a1)
 245 0024 37070003 		li	a4,50331648
 179:./../../firmware/GD32VF103_standard_peripheral/Source/gd32vf103_can.c ****                               BT_BS1((uint32_t)can_parameter_init->time_segment_1) | \
 246              		.loc 1 179 31
 247 0028 37060F00 		li	a2,983040
 178:./../../firmware/GD32VF103_standard_peripheral/Source/gd32vf103_can.c ****                               BT_SJW((uint32_t)can_parameter_init->resync_jump_width) | \
 248              		.loc 1 178 31
 249 002c E207     		slli	a5,a5,24
 250 002e F98F     		and	a5,a5,a4
 251              		.loc 1 179 31
 252 0030 03C72500 		lbu	a4,2(a1)
 253 0034 4207     		slli	a4,a4,16
 254 0036 718F     		and	a4,a4,a2
 178:./../../firmware/GD32VF103_standard_peripheral/Source/gd32vf103_can.c ****                               BT_SJW((uint32_t)can_parameter_init->resync_jump_width) | \
 255              		.loc 1 178 87
 256 0038 D98F     		or	a5,a5,a4
GAS LISTING C:\Users\Karzan\AppData\Local\Temp\ccXUorsL.s 			page 10


 177:./../../firmware/GD32VF103_standard_peripheral/Source/gd32vf103_can.c ****                               BT_SJW((uint32_t)can_parameter_init->resync_jump_width) | \
 257              		.loc 1 177 31
 258 003a 03C70500 		lbu	a4,0(a1)
 180:./../../firmware/GD32VF103_standard_peripheral/Source/gd32vf103_can.c ****                               BT_BS2((uint32_t)can_parameter_init->time_segment_2) | \
 259              		.loc 1 180 31
 260 003e 37067000 		li	a2,7340032
 177:./../../firmware/GD32VF103_standard_peripheral/Source/gd32vf103_can.c ****                               BT_SJW((uint32_t)can_parameter_init->resync_jump_width) | \
 261              		.loc 1 177 31
 262 0042 7A07     		slli	a4,a4,30
 178:./../../firmware/GD32VF103_standard_peripheral/Source/gd32vf103_can.c ****                               BT_BS1((uint32_t)can_parameter_init->time_segment_1) | \
 263              		.loc 1 178 87
 264 0044 D98F     		or	a5,a5,a4
 265              		.loc 1 180 31
 266 0046 03C73500 		lbu	a4,3(a1)
 267 004a 5207     		slli	a4,a4,20
 268 004c 718F     		and	a4,a4,a2
 179:./../../firmware/GD32VF103_standard_peripheral/Source/gd32vf103_can.c ****                               BT_BS2((uint32_t)can_parameter_init->time_segment_2) | \
 269              		.loc 1 179 84
 270 004e D98F     		or	a5,a5,a4
 181:./../../firmware/GD32VF103_standard_peripheral/Source/gd32vf103_can.c ****                               BT_BAUDPSC(((uint32_t)(can_parameter_init->prescaler) - 1U)));
 271              		.loc 1 181 31
 272 0050 03D7C501 		lhu	a4,28(a1)
 273 0054 7D17     		addi	a4,a4,-1
 274 0056 1377F73F 		andi	a4,a4,1023
 180:./../../firmware/GD32VF103_standard_peripheral/Source/gd32vf103_can.c ****                               BT_BAUDPSC(((uint32_t)(can_parameter_init->prescaler) - 1U)));
 275              		.loc 1 180 84
 276 005a D98F     		or	a5,a5,a4
 182:./../../firmware/GD32VF103_standard_peripheral/Source/gd32vf103_can.c **** 
 183:./../../firmware/GD32VF103_standard_peripheral/Source/gd32vf103_can.c ****         /* time trigger communication mode */
 184:./../../firmware/GD32VF103_standard_peripheral/Source/gd32vf103_can.c ****         if(ENABLE == can_parameter_init->time_triggered){
 277              		.loc 1 184 11
 278 005c D841     		lw	a4,4(a1)
 177:./../../firmware/GD32VF103_standard_peripheral/Source/gd32vf103_can.c ****                               BT_SJW((uint32_t)can_parameter_init->resync_jump_width) | \
 279              		.loc 1 177 28
 280 005e 5CCD     		sw	a5,28(a0)
 281              		.loc 1 184 9 is_stmt 1
 282              		.loc 1 184 11 is_stmt 0
 283 0060 8547     		li	a5,1
 284 0062 631CF706 		bne	a4,a5,.L20
 185:./../../firmware/GD32VF103_standard_peripheral/Source/gd32vf103_can.c ****             CAN_CTL(can_periph) |= CAN_CTL_TTC;
 285              		.loc 1 185 13 is_stmt 1
 286              		.loc 1 185 33 is_stmt 0
 287 0066 1C41     		lw	a5,0(a0)
 288 0068 93E70708 		ori	a5,a5,128
 289              	.L40:
 186:./../../firmware/GD32VF103_standard_peripheral/Source/gd32vf103_can.c ****         }else{
 187:./../../firmware/GD32VF103_standard_peripheral/Source/gd32vf103_can.c ****             CAN_CTL(can_periph) &= ~CAN_CTL_TTC;
 188:./../../firmware/GD32VF103_standard_peripheral/Source/gd32vf103_can.c ****         }
 189:./../../firmware/GD32VF103_standard_peripheral/Source/gd32vf103_can.c ****         /* automatic bus-off managment */
 190:./../../firmware/GD32VF103_standard_peripheral/Source/gd32vf103_can.c ****         if(ENABLE == can_parameter_init->auto_bus_off_recovery){
 290              		.loc 1 190 11
 291 006c 9845     		lw	a4,8(a1)
 187:./../../firmware/GD32VF103_standard_peripheral/Source/gd32vf103_can.c ****         }
 292              		.loc 1 187 33
 293 006e 1CC1     		sw	a5,0(a0)
 294              		.loc 1 190 9 is_stmt 1
 295              		.loc 1 190 11 is_stmt 0
GAS LISTING C:\Users\Karzan\AppData\Local\Temp\ccXUorsL.s 			page 11


 296 0070 8547     		li	a5,1
 297 0072 6318F706 		bne	a4,a5,.L22
 191:./../../firmware/GD32VF103_standard_peripheral/Source/gd32vf103_can.c ****             CAN_CTL(can_periph) |= CAN_CTL_ABOR;
 298              		.loc 1 191 13 is_stmt 1
 299              		.loc 1 191 33 is_stmt 0
 300 0076 1C41     		lw	a5,0(a0)
 301 0078 93E70704 		ori	a5,a5,64
 302              	.L41:
 192:./../../firmware/GD32VF103_standard_peripheral/Source/gd32vf103_can.c ****         }else{
 193:./../../firmware/GD32VF103_standard_peripheral/Source/gd32vf103_can.c ****             CAN_CTL(can_periph) &= ~CAN_CTL_ABOR;
 194:./../../firmware/GD32VF103_standard_peripheral/Source/gd32vf103_can.c ****         }
 195:./../../firmware/GD32VF103_standard_peripheral/Source/gd32vf103_can.c ****         /* automatic wakeup mode */
 196:./../../firmware/GD32VF103_standard_peripheral/Source/gd32vf103_can.c ****         if(ENABLE == can_parameter_init->auto_wake_up){
 303              		.loc 1 196 11
 304 007c D845     		lw	a4,12(a1)
 193:./../../firmware/GD32VF103_standard_peripheral/Source/gd32vf103_can.c ****         }
 305              		.loc 1 193 33
 306 007e 1CC1     		sw	a5,0(a0)
 307              		.loc 1 196 9 is_stmt 1
 308              		.loc 1 196 11 is_stmt 0
 309 0080 8547     		li	a5,1
 310 0082 6314F706 		bne	a4,a5,.L24
 197:./../../firmware/GD32VF103_standard_peripheral/Source/gd32vf103_can.c ****             CAN_CTL(can_periph) |= CAN_CTL_AWU;
 311              		.loc 1 197 13 is_stmt 1
 312              		.loc 1 197 33 is_stmt 0
 313 0086 1C41     		lw	a5,0(a0)
 314 0088 93E70702 		ori	a5,a5,32
 315              	.L42:
 198:./../../firmware/GD32VF103_standard_peripheral/Source/gd32vf103_can.c ****         }else{
 199:./../../firmware/GD32VF103_standard_peripheral/Source/gd32vf103_can.c ****             CAN_CTL(can_periph) &= ~CAN_CTL_AWU;
 200:./../../firmware/GD32VF103_standard_peripheral/Source/gd32vf103_can.c ****         }
 201:./../../firmware/GD32VF103_standard_peripheral/Source/gd32vf103_can.c ****         /* automatic retransmission mode disable */
 202:./../../firmware/GD32VF103_standard_peripheral/Source/gd32vf103_can.c ****         if(ENABLE == can_parameter_init->no_auto_retrans){
 316              		.loc 1 202 11
 317 008c 9849     		lw	a4,16(a1)
 199:./../../firmware/GD32VF103_standard_peripheral/Source/gd32vf103_can.c ****         }
 318              		.loc 1 199 33
 319 008e 1CC1     		sw	a5,0(a0)
 320              		.loc 1 202 9 is_stmt 1
 321              		.loc 1 202 11 is_stmt 0
 322 0090 8547     		li	a5,1
 323 0092 6310F706 		bne	a4,a5,.L26
 203:./../../firmware/GD32VF103_standard_peripheral/Source/gd32vf103_can.c ****             CAN_CTL(can_periph) |= CAN_CTL_ARD;
 324              		.loc 1 203 13 is_stmt 1
 325              		.loc 1 203 33 is_stmt 0
 326 0096 1C41     		lw	a5,0(a0)
 327 0098 93E70701 		ori	a5,a5,16
 328              	.L43:
 204:./../../firmware/GD32VF103_standard_peripheral/Source/gd32vf103_can.c ****         }else{
 205:./../../firmware/GD32VF103_standard_peripheral/Source/gd32vf103_can.c ****             CAN_CTL(can_periph) &= ~CAN_CTL_ARD;
 206:./../../firmware/GD32VF103_standard_peripheral/Source/gd32vf103_can.c ****         }
 207:./../../firmware/GD32VF103_standard_peripheral/Source/gd32vf103_can.c ****         /* receive fifo overwrite mode */        
 208:./../../firmware/GD32VF103_standard_peripheral/Source/gd32vf103_can.c ****         if(ENABLE == can_parameter_init->rec_fifo_overwrite){
 329              		.loc 1 208 11
 330 009c D849     		lw	a4,20(a1)
 205:./../../firmware/GD32VF103_standard_peripheral/Source/gd32vf103_can.c ****         }
 331              		.loc 1 205 33
GAS LISTING C:\Users\Karzan\AppData\Local\Temp\ccXUorsL.s 			page 12


 332 009e 1CC1     		sw	a5,0(a0)
 333              		.loc 1 208 9 is_stmt 1
 334              		.loc 1 208 11 is_stmt 0
 335 00a0 8547     		li	a5,1
 336 00a2 631BF704 		bne	a4,a5,.L28
 209:./../../firmware/GD32VF103_standard_peripheral/Source/gd32vf103_can.c ****             CAN_CTL(can_periph) |= CAN_CTL_RFOD;
 337              		.loc 1 209 13 is_stmt 1
 338              		.loc 1 209 33 is_stmt 0
 339 00a6 1C41     		lw	a5,0(a0)
 340 00a8 93E78700 		ori	a5,a5,8
 341              	.L44:
 210:./../../firmware/GD32VF103_standard_peripheral/Source/gd32vf103_can.c ****         }else{
 211:./../../firmware/GD32VF103_standard_peripheral/Source/gd32vf103_can.c ****             CAN_CTL(can_periph) &= ~CAN_CTL_RFOD;
 212:./../../firmware/GD32VF103_standard_peripheral/Source/gd32vf103_can.c ****         } 
 213:./../../firmware/GD32VF103_standard_peripheral/Source/gd32vf103_can.c ****         /* transmit fifo order */
 214:./../../firmware/GD32VF103_standard_peripheral/Source/gd32vf103_can.c ****         if(ENABLE == can_parameter_init->trans_fifo_order){
 342              		.loc 1 214 11
 343 00ac 984D     		lw	a4,24(a1)
 211:./../../firmware/GD32VF103_standard_peripheral/Source/gd32vf103_can.c ****         } 
 344              		.loc 1 211 33
 345 00ae 1CC1     		sw	a5,0(a0)
 346              		.loc 1 214 9 is_stmt 1
 347              		.loc 1 214 11 is_stmt 0
 348 00b0 8547     		li	a5,1
 349 00b2 6316F704 		bne	a4,a5,.L30
 215:./../../firmware/GD32VF103_standard_peripheral/Source/gd32vf103_can.c ****             CAN_CTL(can_periph) |= CAN_CTL_TFO;
 350              		.loc 1 215 13 is_stmt 1
 351              		.loc 1 215 33 is_stmt 0
 352 00b6 1C41     		lw	a5,0(a0)
 353 00b8 93E74700 		ori	a5,a5,4
 354              	.L45:
 216:./../../firmware/GD32VF103_standard_peripheral/Source/gd32vf103_can.c ****         }else{
 217:./../../firmware/GD32VF103_standard_peripheral/Source/gd32vf103_can.c ****             CAN_CTL(can_periph) &= ~CAN_CTL_TFO;
 355              		.loc 1 217 33
 356 00bc 1CC1     		sw	a5,0(a0)
 218:./../../firmware/GD32VF103_standard_peripheral/Source/gd32vf103_can.c ****         }  
 219:./../../firmware/GD32VF103_standard_peripheral/Source/gd32vf103_can.c ****         /* disable initialize mode */
 220:./../../firmware/GD32VF103_standard_peripheral/Source/gd32vf103_can.c ****         CAN_CTL(can_periph) &= ~CAN_CTL_IWMOD;
 357              		.loc 1 220 9 is_stmt 1
 358              		.loc 1 220 29 is_stmt 0
 359 00be 1C41     		lw	a5,0(a0)
 360 00c0 F99B     		andi	a5,a5,-2
 361 00c2 1CC1     		sw	a5,0(a0)
 221:./../../firmware/GD32VF103_standard_peripheral/Source/gd32vf103_can.c ****         timeout = CAN_TIMEOUT;
 362              		.loc 1 221 9 is_stmt 1
 363              	.LVL12:
 222:./../../firmware/GD32VF103_standard_peripheral/Source/gd32vf103_can.c ****         /* wait the ACK */
 223:./../../firmware/GD32VF103_standard_peripheral/Source/gd32vf103_can.c ****         while((CAN_STAT_IWS == (CAN_STAT(can_periph) & CAN_STAT_IWS)) && (0U != timeout)){
 364              		.loc 1 223 9
 221:./../../firmware/GD32VF103_standard_peripheral/Source/gd32vf103_can.c ****         timeout = CAN_TIMEOUT;
 365              		.loc 1 221 17 is_stmt 0
 366 00c4 4165     		li	a0,65536
 367              	.LVL13:
 368              	.L34:
 224:./../../firmware/GD32VF103_standard_peripheral/Source/gd32vf103_can.c ****             timeout--;
 369              		.loc 1 224 13 is_stmt 1
 223:./../../firmware/GD32VF103_standard_peripheral/Source/gd32vf103_can.c ****             timeout--;
GAS LISTING C:\Users\Karzan\AppData\Local\Temp\ccXUorsL.s 			page 13


 370              		.loc 1 223 33 is_stmt 0
 371 00c6 9C42     		lw	a5,0(a3)
 372              		.loc 1 224 20
 373 00c8 7D15     		addi	a0,a0,-1
 374              	.LVL14:
 223:./../../firmware/GD32VF103_standard_peripheral/Source/gd32vf103_can.c ****             timeout--;
 375              		.loc 1 223 54
 376 00ca 858B     		andi	a5,a5,1
 223:./../../firmware/GD32VF103_standard_peripheral/Source/gd32vf103_can.c ****             timeout--;
 377              		.loc 1 223 14
 378 00cc 85CF     		beq	a5,zero,.L33
 223:./../../firmware/GD32VF103_standard_peripheral/Source/gd32vf103_can.c ****             timeout--;
 379              		.loc 1 223 71 discriminator 1
 380 00ce 65FD     		bne	a0,zero,.L34
 381              	.LVL15:
 382              	.L15:
 174:./../../firmware/GD32VF103_standard_peripheral/Source/gd32vf103_can.c ****     }else{
 383              		.loc 1 174 14
 384 00d0 0145     		li	a0,0
 385 00d2 8280     		ret
 386              	.LVL16:
 387              	.L14:
 388 00d4 FD17     		addi	a5,a5,-1
 389              	.LVL17:
 169:./../../firmware/GD32VF103_standard_peripheral/Source/gd32vf103_can.c ****         timeout--;
 390              		.loc 1 169 67 discriminator 1
 391 00d6 8DFF     		bne	a5,zero,.L17
 392 00d8 89B7     		j	.L18
 393              	.LVL18:
 394              	.L20:
 187:./../../firmware/GD32VF103_standard_peripheral/Source/gd32vf103_can.c ****         }
 395              		.loc 1 187 13 is_stmt 1
 187:./../../firmware/GD32VF103_standard_peripheral/Source/gd32vf103_can.c ****         }
 396              		.loc 1 187 33 is_stmt 0
 397 00da 1C41     		lw	a5,0(a0)
 398 00dc 93F7F7F7 		andi	a5,a5,-129
 399 00e0 71B7     		j	.L40
 400              	.L22:
 193:./../../firmware/GD32VF103_standard_peripheral/Source/gd32vf103_can.c ****         }
 401              		.loc 1 193 13 is_stmt 1
 193:./../../firmware/GD32VF103_standard_peripheral/Source/gd32vf103_can.c ****         }
 402              		.loc 1 193 33 is_stmt 0
 403 00e2 1C41     		lw	a5,0(a0)
 404 00e4 93F7F7FB 		andi	a5,a5,-65
 405 00e8 51BF     		j	.L41
 406              	.L24:
 199:./../../firmware/GD32VF103_standard_peripheral/Source/gd32vf103_can.c ****         }
 407              		.loc 1 199 13 is_stmt 1
 199:./../../firmware/GD32VF103_standard_peripheral/Source/gd32vf103_can.c ****         }
 408              		.loc 1 199 33 is_stmt 0
 409 00ea 1C41     		lw	a5,0(a0)
 410 00ec 93F7F7FD 		andi	a5,a5,-33
 411 00f0 71BF     		j	.L42
 412              	.L26:
 205:./../../firmware/GD32VF103_standard_peripheral/Source/gd32vf103_can.c ****         }
 413              		.loc 1 205 13 is_stmt 1
 205:./../../firmware/GD32VF103_standard_peripheral/Source/gd32vf103_can.c ****         }
GAS LISTING C:\Users\Karzan\AppData\Local\Temp\ccXUorsL.s 			page 14


 414              		.loc 1 205 33 is_stmt 0
 415 00f2 1C41     		lw	a5,0(a0)
 416 00f4 BD9B     		andi	a5,a5,-17
 417 00f6 5DB7     		j	.L43
 418              	.L28:
 211:./../../firmware/GD32VF103_standard_peripheral/Source/gd32vf103_can.c ****         } 
 419              		.loc 1 211 13 is_stmt 1
 211:./../../firmware/GD32VF103_standard_peripheral/Source/gd32vf103_can.c ****         } 
 420              		.loc 1 211 33 is_stmt 0
 421 00f8 1C41     		lw	a5,0(a0)
 422 00fa DD9B     		andi	a5,a5,-9
 423 00fc 45BF     		j	.L44
 424              	.L30:
 217:./../../firmware/GD32VF103_standard_peripheral/Source/gd32vf103_can.c ****         }  
 425              		.loc 1 217 13 is_stmt 1
 217:./../../firmware/GD32VF103_standard_peripheral/Source/gd32vf103_can.c ****         }  
 426              		.loc 1 217 33 is_stmt 0
 427 00fe 1C41     		lw	a5,0(a0)
 428 0100 ED9B     		andi	a5,a5,-5
 429 0102 6DBF     		j	.L45
 430              	.LVL19:
 431              	.L33:
 225:./../../firmware/GD32VF103_standard_peripheral/Source/gd32vf103_can.c ****         }
 226:./../../firmware/GD32VF103_standard_peripheral/Source/gd32vf103_can.c ****         /* check exit initialize mode */
 227:./../../firmware/GD32VF103_standard_peripheral/Source/gd32vf103_can.c ****         if(0U != timeout){
 432              		.loc 1 227 9 is_stmt 1
 433              		.loc 1 227 11 is_stmt 0
 434 0104 3335A000 		snez	a0,a0
 435              	.LVL20:
 228:./../../firmware/GD32VF103_standard_peripheral/Source/gd32vf103_can.c ****             flag = SUCCESS;
 229:./../../firmware/GD32VF103_standard_peripheral/Source/gd32vf103_can.c ****         }
 230:./../../firmware/GD32VF103_standard_peripheral/Source/gd32vf103_can.c ****     }  
 231:./../../firmware/GD32VF103_standard_peripheral/Source/gd32vf103_can.c ****     return flag;
 436              		.loc 1 231 5 is_stmt 1
 232:./../../firmware/GD32VF103_standard_peripheral/Source/gd32vf103_can.c **** }
 437              		.loc 1 232 1 is_stmt 0
 438 0108 8280     		ret
 439              		.cfi_endproc
 440              	.LFE4:
 442              		.section	.text.can_filter_init,"ax",@progbits
 443              		.align	1
 444              		.globl	can_filter_init
 446              	can_filter_init:
 447              	.LFB5:
 233:./../../firmware/GD32VF103_standard_peripheral/Source/gd32vf103_can.c **** 
 234:./../../firmware/GD32VF103_standard_peripheral/Source/gd32vf103_can.c **** /*!
 235:./../../firmware/GD32VF103_standard_peripheral/Source/gd32vf103_can.c ****     \brief      initialize CAN filter 
 236:./../../firmware/GD32VF103_standard_peripheral/Source/gd32vf103_can.c ****     \param[in]  can_filter_parameter_init: struct for CAN filter initialization
 237:./../../firmware/GD32VF103_standard_peripheral/Source/gd32vf103_can.c ****       \arg        filter_list_high: 0x0000 - 0xFFFF
 238:./../../firmware/GD32VF103_standard_peripheral/Source/gd32vf103_can.c ****       \arg        filter_list_low: 0x0000 - 0xFFFF
 239:./../../firmware/GD32VF103_standard_peripheral/Source/gd32vf103_can.c ****       \arg        filter_mask_high: 0x0000 - 0xFFFF
 240:./../../firmware/GD32VF103_standard_peripheral/Source/gd32vf103_can.c ****       \arg        filter_mask_low: 0x0000 - 0xFFFF
 241:./../../firmware/GD32VF103_standard_peripheral/Source/gd32vf103_can.c ****       \arg        filter_fifo_number: CAN_FIFO0, CAN_FIFO1 
 242:./../../firmware/GD32VF103_standard_peripheral/Source/gd32vf103_can.c ****       \arg        filter_number: 0 - 27
 243:./../../firmware/GD32VF103_standard_peripheral/Source/gd32vf103_can.c ****       \arg        filter_mode: CAN_FILTERMODE_MASK, CAN_FILTERMODE_LIST
 244:./../../firmware/GD32VF103_standard_peripheral/Source/gd32vf103_can.c ****       \arg        filter_bits: CAN_FILTERBITS_32BIT, CAN_FILTERBITS_16BIT 
 245:./../../firmware/GD32VF103_standard_peripheral/Source/gd32vf103_can.c ****       \arg        filter_enable: ENABLE or DISABLE
GAS LISTING C:\Users\Karzan\AppData\Local\Temp\ccXUorsL.s 			page 15


 246:./../../firmware/GD32VF103_standard_peripheral/Source/gd32vf103_can.c ****     \param[out] none
 247:./../../firmware/GD32VF103_standard_peripheral/Source/gd32vf103_can.c ****     \retval     none
 248:./../../firmware/GD32VF103_standard_peripheral/Source/gd32vf103_can.c **** */
 249:./../../firmware/GD32VF103_standard_peripheral/Source/gd32vf103_can.c **** void can_filter_init(can_filter_parameter_struct* can_filter_parameter_init)
 250:./../../firmware/GD32VF103_standard_peripheral/Source/gd32vf103_can.c **** {
 448              		.loc 1 250 1 is_stmt 1
 449              		.cfi_startproc
 450              	.LVL21:
 251:./../../firmware/GD32VF103_standard_peripheral/Source/gd32vf103_can.c ****     uint32_t val = 0U;
 451              		.loc 1 251 5
 252:./../../firmware/GD32VF103_standard_peripheral/Source/gd32vf103_can.c ****     
 253:./../../firmware/GD32VF103_standard_peripheral/Source/gd32vf103_can.c ****     val = ((uint32_t)1) << (can_filter_parameter_init->filter_number);
 452              		.loc 1 253 5
 254:./../../firmware/GD32VF103_standard_peripheral/Source/gd32vf103_can.c ****     /* filter lock disable */
 255:./../../firmware/GD32VF103_standard_peripheral/Source/gd32vf103_can.c ****     CAN_FCTL(CAN0) |= CAN_FCTL_FLD;
 453              		.loc 1 255 20 is_stmt 0
 454 0000 37670040 		li	a4,1073766400
 455 0004 83260760 		lw	a3,1536(a4)
 253:./../../firmware/GD32VF103_standard_peripheral/Source/gd32vf103_can.c ****     /* filter lock disable */
 456              		.loc 1 253 54
 457 0008 8357A500 		lhu	a5,10(a0)
 253:./../../firmware/GD32VF103_standard_peripheral/Source/gd32vf103_can.c ****     /* filter lock disable */
 458              		.loc 1 253 9
 459 000c 0548     		li	a6,1
 460              		.loc 1 255 20
 461 000e 93E61600 		ori	a3,a3,1
 462 0012 2320D760 		sw	a3,1536(a4)
 256:./../../firmware/GD32VF103_standard_peripheral/Source/gd32vf103_can.c ****     /* disable filter */
 257:./../../firmware/GD32VF103_standard_peripheral/Source/gd32vf103_can.c ****     CAN_FW(CAN0) &= ~(uint32_t)val;
 463              		.loc 1 257 18
 464 0016 8325C761 		lw	a1,1564(a4)
 253:./../../firmware/GD32VF103_standard_peripheral/Source/gd32vf103_can.c ****     /* filter lock disable */
 465              		.loc 1 253 9
 466 001a 3316F800 		sll	a2,a6,a5
 467              	.LVL22:
 255:./../../firmware/GD32VF103_standard_peripheral/Source/gd32vf103_can.c ****     /* disable filter */
 468              		.loc 1 255 5 is_stmt 1
 469              		.loc 1 257 5
 470              		.loc 1 257 21 is_stmt 0
 471 001e 9346F6FF 		not	a3,a2
 472              		.loc 1 257 18
 473 0022 F58D     		and	a1,a1,a3
 474 0024 232EB760 		sw	a1,1564(a4)
 258:./../../firmware/GD32VF103_standard_peripheral/Source/gd32vf103_can.c ****     
 259:./../../firmware/GD32VF103_standard_peripheral/Source/gd32vf103_can.c ****     /* filter 16 bits */
 260:./../../firmware/GD32VF103_standard_peripheral/Source/gd32vf103_can.c ****     if(CAN_FILTERBITS_16BIT == can_filter_parameter_init->filter_bits){
 475              		.loc 1 260 5 is_stmt 1
 476              		.loc 1 260 57 is_stmt 0
 477 0028 8355E500 		lhu	a1,14(a0)
 478              		.loc 1 260 7
 479 002c C9E1     		bne	a1,zero,.L47
 261:./../../firmware/GD32VF103_standard_peripheral/Source/gd32vf103_can.c ****         /* set filter 16 bits */
 262:./../../firmware/GD32VF103_standard_peripheral/Source/gd32vf103_can.c ****         CAN_FSCFG(CAN0) &= ~(uint32_t)val;
 480              		.loc 1 262 9 is_stmt 1
 481              		.loc 1 262 25 is_stmt 0
 482 002e 8325C760 		lw	a1,1548(a4)
 483 0032 F58D     		and	a1,a3,a1
GAS LISTING C:\Users\Karzan\AppData\Local\Temp\ccXUorsL.s 			page 16


 484 0034 2326B760 		sw	a1,1548(a4)
 263:./../../firmware/GD32VF103_standard_peripheral/Source/gd32vf103_can.c ****         /* first 16 bits list and first 16 bits mask or first 16 bits list and second 16 bits list 
 264:./../../firmware/GD32VF103_standard_peripheral/Source/gd32vf103_can.c ****         CAN_FDATA0(CAN0, can_filter_parameter_init->filter_number) = \
 485              		.loc 1 264 9 is_stmt 1
 486 0038 37170008 		li	a4,134221824
 487 003c 130787CC 		addi	a4,a4,-824
 488 0040 BA97     		add	a5,a5,a4
 265:./../../firmware/GD32VF103_standard_peripheral/Source/gd32vf103_can.c ****                                 FDATA_MASK_HIGH((can_filter_parameter_init->filter_mask_low) & CAN_
 489              		.loc 1 265 33 is_stmt 0
 490 0042 03576500 		lhu	a4,6(a0)
 266:./../../firmware/GD32VF103_standard_peripheral/Source/gd32vf103_can.c ****                                 FDATA_MASK_LOW((can_filter_parameter_init->filter_list_low) & CAN_F
 491              		.loc 1 266 33
 492 0046 83552500 		lhu	a1,2(a0)
 264:./../../firmware/GD32VF103_standard_peripheral/Source/gd32vf103_can.c ****                                 FDATA_MASK_HIGH((can_filter_parameter_init->filter_mask_low) & CAN_
 493              		.loc 1 264 9
 494 004a 8E07     		slli	a5,a5,3
 265:./../../firmware/GD32VF103_standard_peripheral/Source/gd32vf103_can.c ****                                 FDATA_MASK_HIGH((can_filter_parameter_init->filter_mask_low) & CAN_
 495              		.loc 1 265 33
 496 004c 4207     		slli	a4,a4,16
 265:./../../firmware/GD32VF103_standard_peripheral/Source/gd32vf103_can.c ****                                 FDATA_MASK_HIGH((can_filter_parameter_init->filter_mask_low) & CAN_
 497              		.loc 1 265 120
 498 004e 4D8F     		or	a4,a4,a1
 264:./../../firmware/GD32VF103_standard_peripheral/Source/gd32vf103_can.c ****                                 FDATA_MASK_HIGH((can_filter_parameter_init->filter_mask_low) & CAN_
 499              		.loc 1 264 68
 500 0050 98C3     		sw	a4,0(a5)
 267:./../../firmware/GD32VF103_standard_peripheral/Source/gd32vf103_can.c ****         /* second 16 bits list and second 16 bits mask or third 16 bits list and fourth 16 bits lis
 268:./../../firmware/GD32VF103_standard_peripheral/Source/gd32vf103_can.c ****         CAN_FDATA1(CAN0, can_filter_parameter_init->filter_number) = \
 501              		.loc 1 268 9 is_stmt 1
 269:./../../firmware/GD32VF103_standard_peripheral/Source/gd32vf103_can.c ****                                 FDATA_MASK_HIGH((can_filter_parameter_init->filter_mask_high) & CAN
 502              		.loc 1 269 33 is_stmt 0
 503 0052 03574500 		lhu	a4,4(a0)
 270:./../../firmware/GD32VF103_standard_peripheral/Source/gd32vf103_can.c ****                                 FDATA_MASK_LOW((can_filter_parameter_init->filter_list_high) & CAN_
 504              		.loc 1 270 33
 505 0056 83550500 		lhu	a1,0(a0)
 269:./../../firmware/GD32VF103_standard_peripheral/Source/gd32vf103_can.c ****                                 FDATA_MASK_HIGH((can_filter_parameter_init->filter_mask_high) & CAN
 506              		.loc 1 269 33
 507 005a 4207     		slli	a4,a4,16
 508              	.L54:
 271:./../../firmware/GD32VF103_standard_peripheral/Source/gd32vf103_can.c ****     }
 272:./../../firmware/GD32VF103_standard_peripheral/Source/gd32vf103_can.c ****     /* filter 32 bits */
 273:./../../firmware/GD32VF103_standard_peripheral/Source/gd32vf103_can.c ****     if(CAN_FILTERBITS_32BIT == can_filter_parameter_init->filter_bits){
 274:./../../firmware/GD32VF103_standard_peripheral/Source/gd32vf103_can.c ****         /* set filter 32 bits */
 275:./../../firmware/GD32VF103_standard_peripheral/Source/gd32vf103_can.c ****         CAN_FSCFG(CAN0) |= (uint32_t)val;
 276:./../../firmware/GD32VF103_standard_peripheral/Source/gd32vf103_can.c ****         /* 32 bits list or first 32 bits list */
 277:./../../firmware/GD32VF103_standard_peripheral/Source/gd32vf103_can.c ****         CAN_FDATA0(CAN0, can_filter_parameter_init->filter_number) = \
 278:./../../firmware/GD32VF103_standard_peripheral/Source/gd32vf103_can.c ****                                 FDATA_MASK_HIGH((can_filter_parameter_init->filter_list_high) & CAN
 279:./../../firmware/GD32VF103_standard_peripheral/Source/gd32vf103_can.c ****                                 FDATA_MASK_LOW((can_filter_parameter_init->filter_list_low) & CAN_F
 280:./../../firmware/GD32VF103_standard_peripheral/Source/gd32vf103_can.c ****         /* 32 bits mask or second 32 bits list */
 281:./../../firmware/GD32VF103_standard_peripheral/Source/gd32vf103_can.c ****         CAN_FDATA1(CAN0, can_filter_parameter_init->filter_number) = \
 282:./../../firmware/GD32VF103_standard_peripheral/Source/gd32vf103_can.c ****                                 FDATA_MASK_HIGH((can_filter_parameter_init->filter_mask_high) & CAN
 509              		.loc 1 282 121
 510 005c 4D8F     		or	a4,a4,a1
 281:./../../firmware/GD32VF103_standard_peripheral/Source/gd32vf103_can.c ****                                 FDATA_MASK_HIGH((can_filter_parameter_init->filter_mask_high) & CAN
 511              		.loc 1 281 68
 512 005e D8C3     		sw	a4,4(a5)
 513              	.L48:
 283:./../../firmware/GD32VF103_standard_peripheral/Source/gd32vf103_can.c ****                                 FDATA_MASK_LOW((can_filter_parameter_init->filter_mask_low) & CAN_F
GAS LISTING C:\Users\Karzan\AppData\Local\Temp\ccXUorsL.s 			page 17


 284:./../../firmware/GD32VF103_standard_peripheral/Source/gd32vf103_can.c ****     }
 285:./../../firmware/GD32VF103_standard_peripheral/Source/gd32vf103_can.c ****     
 286:./../../firmware/GD32VF103_standard_peripheral/Source/gd32vf103_can.c ****     /* filter mode */
 287:./../../firmware/GD32VF103_standard_peripheral/Source/gd32vf103_can.c ****     if(CAN_FILTERMODE_MASK == can_filter_parameter_init->filter_mode){
 514              		.loc 1 287 5 is_stmt 1
 515              		.loc 1 287 7 is_stmt 0
 516 0060 8357C500 		lhu	a5,12(a0)
 288:./../../firmware/GD32VF103_standard_peripheral/Source/gd32vf103_can.c ****         /* mask mode */
 289:./../../firmware/GD32VF103_standard_peripheral/Source/gd32vf103_can.c ****         CAN_FMCFG(CAN0) &= ~(uint32_t)val;
 517              		.loc 1 289 25
 518 0064 37670040 		li	a4,1073766400
 287:./../../firmware/GD32VF103_standard_peripheral/Source/gd32vf103_can.c ****         /* mask mode */
 519              		.loc 1 287 7
 520 0068 ADEF     		bne	a5,zero,.L49
 521              		.loc 1 289 9 is_stmt 1
 522              		.loc 1 289 25 is_stmt 0
 523 006a 83274760 		lw	a5,1540(a4)
 524 006e F58F     		and	a5,a3,a5
 525              	.L55:
 290:./../../firmware/GD32VF103_standard_peripheral/Source/gd32vf103_can.c ****     }else{
 291:./../../firmware/GD32VF103_standard_peripheral/Source/gd32vf103_can.c ****         /* list mode */
 292:./../../firmware/GD32VF103_standard_peripheral/Source/gd32vf103_can.c ****         CAN_FMCFG(CAN0) |= (uint32_t)val;
 526              		.loc 1 292 25
 527 0070 2322F760 		sw	a5,1540(a4)
 293:./../../firmware/GD32VF103_standard_peripheral/Source/gd32vf103_can.c ****     }
 294:./../../firmware/GD32VF103_standard_peripheral/Source/gd32vf103_can.c ****     
 295:./../../firmware/GD32VF103_standard_peripheral/Source/gd32vf103_can.c ****     /* filter FIFO */
 296:./../../firmware/GD32VF103_standard_peripheral/Source/gd32vf103_can.c ****     if(CAN_FIFO0 == (can_filter_parameter_init->filter_fifo_number)){
 528              		.loc 1 296 5 is_stmt 1
 529              		.loc 1 296 7 is_stmt 0
 530 0074 83578500 		lhu	a5,8(a0)
 531 0078 ADEB     		bne	a5,zero,.L51
 297:./../../firmware/GD32VF103_standard_peripheral/Source/gd32vf103_can.c ****         /* FIFO0 */
 298:./../../firmware/GD32VF103_standard_peripheral/Source/gd32vf103_can.c ****         CAN_FAFIFO(CAN0) &= ~(uint32_t)val;
 532              		.loc 1 298 9 is_stmt 1
 533              		.loc 1 298 26 is_stmt 0
 534 007a B7670040 		li	a5,1073766400
 535 007e 03A74761 		lw	a4,1556(a5)
 536 0082 F98E     		and	a3,a3,a4
 537 0084 23AAD760 		sw	a3,1556(a5)
 538              	.L52:
 299:./../../firmware/GD32VF103_standard_peripheral/Source/gd32vf103_can.c ****     }else{
 300:./../../firmware/GD32VF103_standard_peripheral/Source/gd32vf103_can.c ****         /* FIFO1 */
 301:./../../firmware/GD32VF103_standard_peripheral/Source/gd32vf103_can.c ****         CAN_FAFIFO(CAN0) |= (uint32_t)val;
 302:./../../firmware/GD32VF103_standard_peripheral/Source/gd32vf103_can.c ****     }
 303:./../../firmware/GD32VF103_standard_peripheral/Source/gd32vf103_can.c ****     
 304:./../../firmware/GD32VF103_standard_peripheral/Source/gd32vf103_can.c ****     /* filter working */
 305:./../../firmware/GD32VF103_standard_peripheral/Source/gd32vf103_can.c ****     if(ENABLE == can_filter_parameter_init->filter_enable){
 539              		.loc 1 305 5 is_stmt 1
 540              		.loc 1 305 7 is_stmt 0
 541 0088 1849     		lw	a4,16(a0)
 542 008a 8547     		li	a5,1
 543 008c 6319F700 		bne	a4,a5,.L53
 306:./../../firmware/GD32VF103_standard_peripheral/Source/gd32vf103_can.c ****         
 307:./../../firmware/GD32VF103_standard_peripheral/Source/gd32vf103_can.c ****         CAN_FW(CAN0) |= (uint32_t)val;
 544              		.loc 1 307 9 is_stmt 1
 545              		.loc 1 307 22 is_stmt 0
GAS LISTING C:\Users\Karzan\AppData\Local\Temp\ccXUorsL.s 			page 18


 546 0090 37670040 		li	a4,1073766400
 547 0094 8327C761 		lw	a5,1564(a4)
 548 0098 5D8E     		or	a2,a5,a2
 549              	.LVL23:
 550 009a 232EC760 		sw	a2,1564(a4)
 551              	.L53:
 308:./../../firmware/GD32VF103_standard_peripheral/Source/gd32vf103_can.c ****     }
 309:./../../firmware/GD32VF103_standard_peripheral/Source/gd32vf103_can.c ****     
 310:./../../firmware/GD32VF103_standard_peripheral/Source/gd32vf103_can.c ****     /* filter lock enable */
 311:./../../firmware/GD32VF103_standard_peripheral/Source/gd32vf103_can.c ****     CAN_FCTL(CAN0) &= ~CAN_FCTL_FLD;
 552              		.loc 1 311 5 is_stmt 1
 553              		.loc 1 311 20 is_stmt 0
 554 009e 37670040 		li	a4,1073766400
 555 00a2 83270760 		lw	a5,1536(a4)
 556 00a6 F99B     		andi	a5,a5,-2
 557 00a8 2320F760 		sw	a5,1536(a4)
 312:./../../firmware/GD32VF103_standard_peripheral/Source/gd32vf103_can.c **** }
 558              		.loc 1 312 1
 559 00ac 8280     		ret
 560              	.LVL24:
 561              	.L47:
 273:./../../firmware/GD32VF103_standard_peripheral/Source/gd32vf103_can.c ****         /* set filter 32 bits */
 562              		.loc 1 273 5 is_stmt 1
 273:./../../firmware/GD32VF103_standard_peripheral/Source/gd32vf103_can.c ****         /* set filter 32 bits */
 563              		.loc 1 273 7 is_stmt 0
 564 00ae E39905FB 		bne	a1,a6,.L48
 275:./../../firmware/GD32VF103_standard_peripheral/Source/gd32vf103_can.c ****         /* 32 bits list or first 32 bits list */
 565              		.loc 1 275 9 is_stmt 1
 275:./../../firmware/GD32VF103_standard_peripheral/Source/gd32vf103_can.c ****         /* 32 bits list or first 32 bits list */
 566              		.loc 1 275 25 is_stmt 0
 567 00b2 8325C760 		lw	a1,1548(a4)
 568 00b6 D18D     		or	a1,a1,a2
 569 00b8 2326B760 		sw	a1,1548(a4)
 277:./../../firmware/GD32VF103_standard_peripheral/Source/gd32vf103_can.c ****                                 FDATA_MASK_HIGH((can_filter_parameter_init->filter_list_high) & CAN
 570              		.loc 1 277 9 is_stmt 1
 571 00bc 37170008 		li	a4,134221824
 572 00c0 130787CC 		addi	a4,a4,-824
 573 00c4 BA97     		add	a5,a5,a4
 278:./../../firmware/GD32VF103_standard_peripheral/Source/gd32vf103_can.c ****                                 FDATA_MASK_LOW((can_filter_parameter_init->filter_list_low) & CAN_F
 574              		.loc 1 278 33 is_stmt 0
 575 00c6 03570500 		lhu	a4,0(a0)
 279:./../../firmware/GD32VF103_standard_peripheral/Source/gd32vf103_can.c ****         /* 32 bits mask or second 32 bits list */
 576              		.loc 1 279 33
 577 00ca 83552500 		lhu	a1,2(a0)
 277:./../../firmware/GD32VF103_standard_peripheral/Source/gd32vf103_can.c ****                                 FDATA_MASK_HIGH((can_filter_parameter_init->filter_list_high) & CAN
 578              		.loc 1 277 9
 579 00ce 8E07     		slli	a5,a5,3
 278:./../../firmware/GD32VF103_standard_peripheral/Source/gd32vf103_can.c ****                                 FDATA_MASK_LOW((can_filter_parameter_init->filter_list_low) & CAN_F
 580              		.loc 1 278 33
 581 00d0 4207     		slli	a4,a4,16
 278:./../../firmware/GD32VF103_standard_peripheral/Source/gd32vf103_can.c ****                                 FDATA_MASK_LOW((can_filter_parameter_init->filter_list_low) & CAN_F
 582              		.loc 1 278 121
 583 00d2 4D8F     		or	a4,a4,a1
 277:./../../firmware/GD32VF103_standard_peripheral/Source/gd32vf103_can.c ****                                 FDATA_MASK_HIGH((can_filter_parameter_init->filter_list_high) & CAN
 584              		.loc 1 277 68
 585 00d4 98C3     		sw	a4,0(a5)
 281:./../../firmware/GD32VF103_standard_peripheral/Source/gd32vf103_can.c ****                                 FDATA_MASK_HIGH((can_filter_parameter_init->filter_mask_high) & CAN
GAS LISTING C:\Users\Karzan\AppData\Local\Temp\ccXUorsL.s 			page 19


 586              		.loc 1 281 9 is_stmt 1
 282:./../../firmware/GD32VF103_standard_peripheral/Source/gd32vf103_can.c ****                                 FDATA_MASK_LOW((can_filter_parameter_init->filter_mask_low) & CAN_F
 587              		.loc 1 282 33 is_stmt 0
 588 00d6 03574500 		lhu	a4,4(a0)
 283:./../../firmware/GD32VF103_standard_peripheral/Source/gd32vf103_can.c ****     }
 589              		.loc 1 283 33
 590 00da 83556500 		lhu	a1,6(a0)
 282:./../../firmware/GD32VF103_standard_peripheral/Source/gd32vf103_can.c ****                                 FDATA_MASK_LOW((can_filter_parameter_init->filter_mask_low) & CAN_F
 591              		.loc 1 282 33
 592 00de 4207     		slli	a4,a4,16
 593 00e0 B5BF     		j	.L54
 594              	.L49:
 292:./../../firmware/GD32VF103_standard_peripheral/Source/gd32vf103_can.c ****     }
 595              		.loc 1 292 9 is_stmt 1
 292:./../../firmware/GD32VF103_standard_peripheral/Source/gd32vf103_can.c ****     }
 596              		.loc 1 292 25 is_stmt 0
 597 00e2 83274760 		lw	a5,1540(a4)
 598 00e6 D18F     		or	a5,a5,a2
 599 00e8 61B7     		j	.L55
 600              	.L51:
 301:./../../firmware/GD32VF103_standard_peripheral/Source/gd32vf103_can.c ****     }
 601              		.loc 1 301 9 is_stmt 1
 301:./../../firmware/GD32VF103_standard_peripheral/Source/gd32vf103_can.c ****     }
 602              		.loc 1 301 26 is_stmt 0
 603 00ea 37670040 		li	a4,1073766400
 604 00ee 83274761 		lw	a5,1556(a4)
 605 00f2 D18F     		or	a5,a5,a2
 606 00f4 232AF760 		sw	a5,1556(a4)
 607 00f8 41BF     		j	.L52
 608              		.cfi_endproc
 609              	.LFE5:
 611              		.section	.text.can1_filter_start_bank,"ax",@progbits
 612              		.align	1
 613              		.globl	can1_filter_start_bank
 615              	can1_filter_start_bank:
 616              	.LFB6:
 313:./../../firmware/GD32VF103_standard_peripheral/Source/gd32vf103_can.c **** 
 314:./../../firmware/GD32VF103_standard_peripheral/Source/gd32vf103_can.c **** /*!
 315:./../../firmware/GD32VF103_standard_peripheral/Source/gd32vf103_can.c ****     \brief      set CAN1 fliter start bank number
 316:./../../firmware/GD32VF103_standard_peripheral/Source/gd32vf103_can.c ****     \param[in]  start_bank: CAN1 start bank number
 317:./../../firmware/GD32VF103_standard_peripheral/Source/gd32vf103_can.c ****                 only one parameter can be selected which is shown as below:
 318:./../../firmware/GD32VF103_standard_peripheral/Source/gd32vf103_can.c ****       \arg        (1..27)
 319:./../../firmware/GD32VF103_standard_peripheral/Source/gd32vf103_can.c ****     \param[out] none
 320:./../../firmware/GD32VF103_standard_peripheral/Source/gd32vf103_can.c ****     \retval     none
 321:./../../firmware/GD32VF103_standard_peripheral/Source/gd32vf103_can.c **** */
 322:./../../firmware/GD32VF103_standard_peripheral/Source/gd32vf103_can.c **** void can1_filter_start_bank(uint8_t start_bank)
 323:./../../firmware/GD32VF103_standard_peripheral/Source/gd32vf103_can.c **** {
 617              		.loc 1 323 1 is_stmt 1
 618              		.cfi_startproc
 619              	.LVL25:
 324:./../../firmware/GD32VF103_standard_peripheral/Source/gd32vf103_can.c ****     /* filter lock disable */
 325:./../../firmware/GD32VF103_standard_peripheral/Source/gd32vf103_can.c ****     CAN_FCTL(CAN0) |= CAN_FCTL_FLD;
 620              		.loc 1 325 5
 621              		.loc 1 325 20 is_stmt 0
 622 0000 B7670040 		li	a5,1073766400
 623 0004 03A70760 		lw	a4,1536(a5)
 326:./../../firmware/GD32VF103_standard_peripheral/Source/gd32vf103_can.c ****     /* set CAN1 filter start number */
GAS LISTING C:\Users\Karzan\AppData\Local\Temp\ccXUorsL.s 			page 20


 327:./../../firmware/GD32VF103_standard_peripheral/Source/gd32vf103_can.c ****     CAN_FCTL(CAN0) &= ~(uint32_t)CAN_FCTL_HBC1F;
 624              		.loc 1 327 20
 625 0008 F176     		li	a3,-16384
 626 000a 9386F60F 		addi	a3,a3,255
 325:./../../firmware/GD32VF103_standard_peripheral/Source/gd32vf103_can.c ****     /* set CAN1 filter start number */
 627              		.loc 1 325 20
 628 000e 13671700 		ori	a4,a4,1
 629 0012 23A0E760 		sw	a4,1536(a5)
 630              		.loc 1 327 5 is_stmt 1
 631              		.loc 1 327 20 is_stmt 0
 632 0016 03A70760 		lw	a4,1536(a5)
 328:./../../firmware/GD32VF103_standard_peripheral/Source/gd32vf103_can.c ****     CAN_FCTL(CAN0) |= FCTL_HBC1F(start_bank);
 633              		.loc 1 328 23
 634 001a 2205     		slli	a0,a0,8
 635              	.LVL26:
 327:./../../firmware/GD32VF103_standard_peripheral/Source/gd32vf103_can.c ****     CAN_FCTL(CAN0) |= FCTL_HBC1F(start_bank);
 636              		.loc 1 327 20
 637 001c 758F     		and	a4,a4,a3
 638 001e 23A0E760 		sw	a4,1536(a5)
 639              		.loc 1 328 5 is_stmt 1
 640              		.loc 1 328 20 is_stmt 0
 641 0022 83A60760 		lw	a3,1536(a5)
 642              		.loc 1 328 23
 643 0026 1167     		li	a4,16384
 644 0028 130707F0 		addi	a4,a4,-256
 645 002c 798D     		and	a0,a0,a4
 646              		.loc 1 328 20
 647 002e 558D     		or	a0,a0,a3
 648 0030 23A0A760 		sw	a0,1536(a5)
 329:./../../firmware/GD32VF103_standard_peripheral/Source/gd32vf103_can.c ****     /* filter lock enaable */
 330:./../../firmware/GD32VF103_standard_peripheral/Source/gd32vf103_can.c ****     CAN_FCTL(CAN0) &= ~CAN_FCTL_FLD;
 649              		.loc 1 330 5 is_stmt 1
 650              		.loc 1 330 20 is_stmt 0
 651 0034 03A70760 		lw	a4,1536(a5)
 652 0038 799B     		andi	a4,a4,-2
 653 003a 23A0E760 		sw	a4,1536(a5)
 331:./../../firmware/GD32VF103_standard_peripheral/Source/gd32vf103_can.c **** }
 654              		.loc 1 331 1
 655 003e 8280     		ret
 656              		.cfi_endproc
 657              	.LFE6:
 659              		.section	.text.can_debug_freeze_enable,"ax",@progbits
 660              		.align	1
 661              		.globl	can_debug_freeze_enable
 663              	can_debug_freeze_enable:
 664              	.LFB7:
 332:./../../firmware/GD32VF103_standard_peripheral/Source/gd32vf103_can.c **** 
 333:./../../firmware/GD32VF103_standard_peripheral/Source/gd32vf103_can.c **** /*!
 334:./../../firmware/GD32VF103_standard_peripheral/Source/gd32vf103_can.c ****     \brief      enable CAN debug freeze
 335:./../../firmware/GD32VF103_standard_peripheral/Source/gd32vf103_can.c ****     \param[in]  can_periph
 336:./../../firmware/GD32VF103_standard_peripheral/Source/gd32vf103_can.c ****       \arg        CANx(x=0,1)
 337:./../../firmware/GD32VF103_standard_peripheral/Source/gd32vf103_can.c ****     \param[out] none
 338:./../../firmware/GD32VF103_standard_peripheral/Source/gd32vf103_can.c ****     \retval     none
 339:./../../firmware/GD32VF103_standard_peripheral/Source/gd32vf103_can.c **** */
 340:./../../firmware/GD32VF103_standard_peripheral/Source/gd32vf103_can.c **** void can_debug_freeze_enable(uint32_t can_periph)
 341:./../../firmware/GD32VF103_standard_peripheral/Source/gd32vf103_can.c **** {
 665              		.loc 1 341 1 is_stmt 1
GAS LISTING C:\Users\Karzan\AppData\Local\Temp\ccXUorsL.s 			page 21


 666              		.cfi_startproc
 667              	.LVL27:
 342:./../../firmware/GD32VF103_standard_peripheral/Source/gd32vf103_can.c ****     /* set DFZ bit */
 343:./../../firmware/GD32VF103_standard_peripheral/Source/gd32vf103_can.c ****     CAN_CTL(can_periph) |= CAN_CTL_DFZ;
 668              		.loc 1 343 5
 669              		.loc 1 343 25 is_stmt 0
 670 0000 1C41     		lw	a5,0(a0)
 671 0002 4167     		li	a4,65536
 672 0004 D98F     		or	a5,a5,a4
 673 0006 1CC1     		sw	a5,0(a0)
 344:./../../firmware/GD32VF103_standard_peripheral/Source/gd32vf103_can.c ****     if(CAN0 == can_periph){
 674              		.loc 1 344 5 is_stmt 1
 675              		.loc 1 344 7 is_stmt 0
 676 0008 B7670040 		li	a5,1073766400
 677 000c 93870740 		addi	a5,a5,1024
 678 0010 6317F500 		bne	a0,a5,.L58
 345:./../../firmware/GD32VF103_standard_peripheral/Source/gd32vf103_can.c ****         dbg_periph_enable(DBG_CAN0_HOLD);
 679              		.loc 1 345 9 is_stmt 1
 680 0014 1165     		li	a0,16384
 681              	.LVL28:
 682              	.L59:
 346:./../../firmware/GD32VF103_standard_peripheral/Source/gd32vf103_can.c ****     }else{
 347:./../../firmware/GD32VF103_standard_peripheral/Source/gd32vf103_can.c ****         dbg_periph_enable(DBG_CAN1_HOLD);
 683              		.loc 1 347 9 is_stmt 0
 684 0016 17030000 		tail	dbg_periph_enable
 684      67000300 
 685              	.LVL29:
 686              	.L58:
 687              		.loc 1 347 9 is_stmt 1
 688 001e 37052000 		li	a0,2097152
 689              	.LVL30:
 690 0022 D5BF     		j	.L59
 691              		.cfi_endproc
 692              	.LFE7:
 694              		.section	.text.can_debug_freeze_disable,"ax",@progbits
 695              		.align	1
 696              		.globl	can_debug_freeze_disable
 698              	can_debug_freeze_disable:
 699              	.LFB8:
 348:./../../firmware/GD32VF103_standard_peripheral/Source/gd32vf103_can.c ****     }
 349:./../../firmware/GD32VF103_standard_peripheral/Source/gd32vf103_can.c **** }
 350:./../../firmware/GD32VF103_standard_peripheral/Source/gd32vf103_can.c **** 
 351:./../../firmware/GD32VF103_standard_peripheral/Source/gd32vf103_can.c **** /*!
 352:./../../firmware/GD32VF103_standard_peripheral/Source/gd32vf103_can.c ****     \brief      disable CAN debug freeze
 353:./../../firmware/GD32VF103_standard_peripheral/Source/gd32vf103_can.c ****     \param[in]  can_periph
 354:./../../firmware/GD32VF103_standard_peripheral/Source/gd32vf103_can.c ****       \arg        CANx(x=0,1)
 355:./../../firmware/GD32VF103_standard_peripheral/Source/gd32vf103_can.c ****     \param[out] none
 356:./../../firmware/GD32VF103_standard_peripheral/Source/gd32vf103_can.c ****     \retval     none
 357:./../../firmware/GD32VF103_standard_peripheral/Source/gd32vf103_can.c **** */
 358:./../../firmware/GD32VF103_standard_peripheral/Source/gd32vf103_can.c **** void can_debug_freeze_disable(uint32_t can_periph)
 359:./../../firmware/GD32VF103_standard_peripheral/Source/gd32vf103_can.c **** {
 700              		.loc 1 359 1
 701              		.cfi_startproc
 702              	.LVL31:
 360:./../../firmware/GD32VF103_standard_peripheral/Source/gd32vf103_can.c ****     /* set DFZ bit */
 361:./../../firmware/GD32VF103_standard_peripheral/Source/gd32vf103_can.c ****     CAN_CTL(can_periph) &= ~CAN_CTL_DFZ;
 703              		.loc 1 361 5
GAS LISTING C:\Users\Karzan\AppData\Local\Temp\ccXUorsL.s 			page 22


 704              		.loc 1 361 25 is_stmt 0
 705 0000 1C41     		lw	a5,0(a0)
 706 0002 4177     		li	a4,-65536
 707 0004 7D17     		addi	a4,a4,-1
 708 0006 F98F     		and	a5,a5,a4
 709 0008 1CC1     		sw	a5,0(a0)
 362:./../../firmware/GD32VF103_standard_peripheral/Source/gd32vf103_can.c ****     if(CAN0 == can_periph){
 710              		.loc 1 362 5 is_stmt 1
 711              		.loc 1 362 7 is_stmt 0
 712 000a B7670040 		li	a5,1073766400
 713 000e 93870740 		addi	a5,a5,1024
 714 0012 6317F500 		bne	a0,a5,.L61
 363:./../../firmware/GD32VF103_standard_peripheral/Source/gd32vf103_can.c ****         dbg_periph_disable(DBG_CAN0_HOLD);
 715              		.loc 1 363 9 is_stmt 1
 716 0016 1165     		li	a0,16384
 717              	.LVL32:
 718              	.L62:
 364:./../../firmware/GD32VF103_standard_peripheral/Source/gd32vf103_can.c ****     }else{
 365:./../../firmware/GD32VF103_standard_peripheral/Source/gd32vf103_can.c ****         dbg_periph_disable(DBG_CAN1_HOLD);
 719              		.loc 1 365 9 is_stmt 0
 720 0018 17030000 		tail	dbg_periph_disable
 720      67000300 
 721              	.LVL33:
 722              	.L61:
 723              		.loc 1 365 9 is_stmt 1
 724 0020 37052000 		li	a0,2097152
 725              	.LVL34:
 726 0024 D5BF     		j	.L62
 727              		.cfi_endproc
 728              	.LFE8:
 730              		.section	.text.can_time_trigger_mode_enable,"ax",@progbits
 731              		.align	1
 732              		.globl	can_time_trigger_mode_enable
 734              	can_time_trigger_mode_enable:
 735              	.LFB9:
 366:./../../firmware/GD32VF103_standard_peripheral/Source/gd32vf103_can.c ****     }
 367:./../../firmware/GD32VF103_standard_peripheral/Source/gd32vf103_can.c **** }
 368:./../../firmware/GD32VF103_standard_peripheral/Source/gd32vf103_can.c **** 
 369:./../../firmware/GD32VF103_standard_peripheral/Source/gd32vf103_can.c **** /*!
 370:./../../firmware/GD32VF103_standard_peripheral/Source/gd32vf103_can.c ****     \brief      enable CAN time trigger mode
 371:./../../firmware/GD32VF103_standard_peripheral/Source/gd32vf103_can.c ****     \param[in]  can_periph
 372:./../../firmware/GD32VF103_standard_peripheral/Source/gd32vf103_can.c ****       \arg        CANx(x=0,1)
 373:./../../firmware/GD32VF103_standard_peripheral/Source/gd32vf103_can.c ****     \param[out] none
 374:./../../firmware/GD32VF103_standard_peripheral/Source/gd32vf103_can.c ****     \retval     none
 375:./../../firmware/GD32VF103_standard_peripheral/Source/gd32vf103_can.c **** */
 376:./../../firmware/GD32VF103_standard_peripheral/Source/gd32vf103_can.c **** void can_time_trigger_mode_enable(uint32_t can_periph)
 377:./../../firmware/GD32VF103_standard_peripheral/Source/gd32vf103_can.c **** {
 736              		.loc 1 377 1
 737              		.cfi_startproc
 738              	.LVL35:
 378:./../../firmware/GD32VF103_standard_peripheral/Source/gd32vf103_can.c ****     uint8_t mailbox_number;
 739              		.loc 1 378 5
 379:./../../firmware/GD32VF103_standard_peripheral/Source/gd32vf103_can.c ****     
 380:./../../firmware/GD32VF103_standard_peripheral/Source/gd32vf103_can.c ****     /* enable the tcc mode */
 381:./../../firmware/GD32VF103_standard_peripheral/Source/gd32vf103_can.c ****     CAN_CTL(can_periph) |= CAN_CTL_TTC;
 740              		.loc 1 381 5
 741              		.loc 1 381 25 is_stmt 0
GAS LISTING C:\Users\Karzan\AppData\Local\Temp\ccXUorsL.s 			page 23


 742 0000 1C41     		lw	a5,0(a0)
 743 0002 93E70708 		ori	a5,a5,128
 744 0006 1CC1     		sw	a5,0(a0)
 382:./../../firmware/GD32VF103_standard_peripheral/Source/gd32vf103_can.c ****     /* enable time stamp */
 383:./../../firmware/GD32VF103_standard_peripheral/Source/gd32vf103_can.c ****     for(mailbox_number = 0U; mailbox_number < 3U; mailbox_number++){
 745              		.loc 1 383 5 is_stmt 1
 746              	.LVL36:
 384:./../../firmware/GD32VF103_standard_peripheral/Source/gd32vf103_can.c ****         CAN_TMP(can_periph, mailbox_number) |= CAN_TMP_TSEN;
 747              		.loc 1 384 9
 748              		.loc 1 384 45 is_stmt 0
 749 0008 83274518 		lw	a5,388(a0)
 750 000c 93E70710 		ori	a5,a5,256
 751 0010 2322F518 		sw	a5,388(a0)
 752              	.LVL37:
 753              		.loc 1 384 9 is_stmt 1
 754              		.loc 1 384 45 is_stmt 0
 755 0014 83274519 		lw	a5,404(a0)
 756 0018 93E70710 		ori	a5,a5,256
 757 001c 232AF518 		sw	a5,404(a0)
 758              	.LVL38:
 759              		.loc 1 384 9 is_stmt 1
 760              		.loc 1 384 45 is_stmt 0
 761 0020 8327451A 		lw	a5,420(a0)
 762 0024 93E70710 		ori	a5,a5,256
 763 0028 2322F51A 		sw	a5,420(a0)
 764              	.LVL39:
 385:./../../firmware/GD32VF103_standard_peripheral/Source/gd32vf103_can.c ****     }
 386:./../../firmware/GD32VF103_standard_peripheral/Source/gd32vf103_can.c **** }
 765              		.loc 1 386 1
 766 002c 8280     		ret
 767              		.cfi_endproc
 768              	.LFE9:
 770              		.section	.text.can_time_trigger_mode_disable,"ax",@progbits
 771              		.align	1
 772              		.globl	can_time_trigger_mode_disable
 774              	can_time_trigger_mode_disable:
 775              	.LFB10:
 387:./../../firmware/GD32VF103_standard_peripheral/Source/gd32vf103_can.c **** 
 388:./../../firmware/GD32VF103_standard_peripheral/Source/gd32vf103_can.c **** /*!
 389:./../../firmware/GD32VF103_standard_peripheral/Source/gd32vf103_can.c ****     \brief      disable CAN time trigger mode
 390:./../../firmware/GD32VF103_standard_peripheral/Source/gd32vf103_can.c ****     \param[in]  can_periph
 391:./../../firmware/GD32VF103_standard_peripheral/Source/gd32vf103_can.c ****       \arg        CANx(x=0,1)
 392:./../../firmware/GD32VF103_standard_peripheral/Source/gd32vf103_can.c ****     \param[out] none
 393:./../../firmware/GD32VF103_standard_peripheral/Source/gd32vf103_can.c ****     \retval     none
 394:./../../firmware/GD32VF103_standard_peripheral/Source/gd32vf103_can.c **** */
 395:./../../firmware/GD32VF103_standard_peripheral/Source/gd32vf103_can.c **** void can_time_trigger_mode_disable(uint32_t can_periph)
 396:./../../firmware/GD32VF103_standard_peripheral/Source/gd32vf103_can.c **** {
 776              		.loc 1 396 1 is_stmt 1
 777              		.cfi_startproc
 778              	.LVL40:
 397:./../../firmware/GD32VF103_standard_peripheral/Source/gd32vf103_can.c ****     uint8_t mailbox_number; 
 779              		.loc 1 397 5
 398:./../../firmware/GD32VF103_standard_peripheral/Source/gd32vf103_can.c ****     
 399:./../../firmware/GD32VF103_standard_peripheral/Source/gd32vf103_can.c ****     /* disable the TCC mode */
 400:./../../firmware/GD32VF103_standard_peripheral/Source/gd32vf103_can.c ****     CAN_CTL(can_periph) &= ~CAN_CTL_TTC;
 780              		.loc 1 400 5
 781              		.loc 1 400 25 is_stmt 0
GAS LISTING C:\Users\Karzan\AppData\Local\Temp\ccXUorsL.s 			page 24


 782 0000 1C41     		lw	a5,0(a0)
 783 0002 93F7F7F7 		andi	a5,a5,-129
 784 0006 1CC1     		sw	a5,0(a0)
 401:./../../firmware/GD32VF103_standard_peripheral/Source/gd32vf103_can.c ****     /* reset TSEN bits */
 402:./../../firmware/GD32VF103_standard_peripheral/Source/gd32vf103_can.c ****     for(mailbox_number = 0U; mailbox_number < 3U; mailbox_number++){
 785              		.loc 1 402 5 is_stmt 1
 786              	.LVL41:
 403:./../../firmware/GD32VF103_standard_peripheral/Source/gd32vf103_can.c ****         CAN_TMP(can_periph, mailbox_number) &= ~CAN_TMP_TSEN;
 787              		.loc 1 403 9
 788              		.loc 1 403 45 is_stmt 0
 789 0008 83274518 		lw	a5,388(a0)
 790 000c 93F7F7EF 		andi	a5,a5,-257
 791 0010 2322F518 		sw	a5,388(a0)
 792              	.LVL42:
 793              		.loc 1 403 9 is_stmt 1
 794              		.loc 1 403 45 is_stmt 0
 795 0014 83274519 		lw	a5,404(a0)
 796 0018 93F7F7EF 		andi	a5,a5,-257
 797 001c 232AF518 		sw	a5,404(a0)
 798              	.LVL43:
 799              		.loc 1 403 9 is_stmt 1
 800              		.loc 1 403 45 is_stmt 0
 801 0020 8327451A 		lw	a5,420(a0)
 802 0024 93F7F7EF 		andi	a5,a5,-257
 803 0028 2322F51A 		sw	a5,420(a0)
 804              	.LVL44:
 404:./../../firmware/GD32VF103_standard_peripheral/Source/gd32vf103_can.c ****     }
 405:./../../firmware/GD32VF103_standard_peripheral/Source/gd32vf103_can.c **** }
 805              		.loc 1 405 1
 806 002c 8280     		ret
 807              		.cfi_endproc
 808              	.LFE10:
 810              		.section	.text.can_message_transmit,"ax",@progbits
 811              		.align	1
 812              		.globl	can_message_transmit
 814              	can_message_transmit:
 815              	.LFB11:
 406:./../../firmware/GD32VF103_standard_peripheral/Source/gd32vf103_can.c **** 
 407:./../../firmware/GD32VF103_standard_peripheral/Source/gd32vf103_can.c **** /*!
 408:./../../firmware/GD32VF103_standard_peripheral/Source/gd32vf103_can.c ****     \brief       transmit CAN message
 409:./../../firmware/GD32VF103_standard_peripheral/Source/gd32vf103_can.c ****     \param[in]  can_periph
 410:./../../firmware/GD32VF103_standard_peripheral/Source/gd32vf103_can.c ****       \arg        CANx(x=0,1)
 411:./../../firmware/GD32VF103_standard_peripheral/Source/gd32vf103_can.c ****     \param[in]  transmit_message: struct for CAN transmit message
 412:./../../firmware/GD32VF103_standard_peripheral/Source/gd32vf103_can.c ****       \arg        tx_sfid: 0x00000000 - 0x000007FF
 413:./../../firmware/GD32VF103_standard_peripheral/Source/gd32vf103_can.c ****       \arg        tx_efid: 0x00000000 - 0x1FFFFFFF
 414:./../../firmware/GD32VF103_standard_peripheral/Source/gd32vf103_can.c ****       \arg        tx_ff: CAN_FF_STANDARD, CAN_FF_EXTENDED
 415:./../../firmware/GD32VF103_standard_peripheral/Source/gd32vf103_can.c ****       \arg        tx_ft: CAN_FT_DATA, CAN_FT_REMOTE
 416:./../../firmware/GD32VF103_standard_peripheral/Source/gd32vf103_can.c ****       \arg        tx_dlen: 0 - 8
 417:./../../firmware/GD32VF103_standard_peripheral/Source/gd32vf103_can.c ****       \arg        tx_data[]: 0x00 - 0xFF
 418:./../../firmware/GD32VF103_standard_peripheral/Source/gd32vf103_can.c ****     \param[out] none
 419:./../../firmware/GD32VF103_standard_peripheral/Source/gd32vf103_can.c ****     \retval     mailbox_number
 420:./../../firmware/GD32VF103_standard_peripheral/Source/gd32vf103_can.c **** */
 421:./../../firmware/GD32VF103_standard_peripheral/Source/gd32vf103_can.c **** uint8_t can_message_transmit(uint32_t can_periph, can_trasnmit_message_struct* transmit_message)
 422:./../../firmware/GD32VF103_standard_peripheral/Source/gd32vf103_can.c **** {
 816              		.loc 1 422 1 is_stmt 1
 817              		.cfi_startproc
 818              	.LVL45:
GAS LISTING C:\Users\Karzan\AppData\Local\Temp\ccXUorsL.s 			page 25


 423:./../../firmware/GD32VF103_standard_peripheral/Source/gd32vf103_can.c ****     uint8_t mailbox_number = CAN_MAILBOX0;
 819              		.loc 1 423 5
 424:./../../firmware/GD32VF103_standard_peripheral/Source/gd32vf103_can.c **** 
 425:./../../firmware/GD32VF103_standard_peripheral/Source/gd32vf103_can.c ****     /* select one empty mailbox */
 426:./../../firmware/GD32VF103_standard_peripheral/Source/gd32vf103_can.c ****     if(CAN_TSTAT_TME0 == (CAN_TSTAT(can_periph)&CAN_TSTAT_TME0)){
 820              		.loc 1 426 5
 821              		.loc 1 426 27 is_stmt 0
 822 0000 1C45     		lw	a5,8(a0)
 823              		.loc 1 426 7
 824 0002 13975700 		slli	a4,a5,5
 825 0006 6347070A 		blt	a4,zero,.L70
 427:./../../firmware/GD32VF103_standard_peripheral/Source/gd32vf103_can.c ****         mailbox_number = CAN_MAILBOX0;
 428:./../../firmware/GD32VF103_standard_peripheral/Source/gd32vf103_can.c ****     }else if(CAN_TSTAT_TME1 == (CAN_TSTAT(can_periph)&CAN_TSTAT_TME1)){
 826              		.loc 1 428 11 is_stmt 1
 827              		.loc 1 428 33 is_stmt 0
 828 000a 1C45     		lw	a5,8(a0)
 829              		.loc 1 428 13
 830 000c 13974700 		slli	a4,a5,4
 831 0010 6344070A 		blt	a4,zero,.L71
 429:./../../firmware/GD32VF103_standard_peripheral/Source/gd32vf103_can.c ****         mailbox_number = CAN_MAILBOX1;
 430:./../../firmware/GD32VF103_standard_peripheral/Source/gd32vf103_can.c ****     }else if(CAN_TSTAT_TME2 == (CAN_TSTAT(can_periph)&CAN_TSTAT_TME2)){
 832              		.loc 1 430 11 is_stmt 1
 833              		.loc 1 430 33 is_stmt 0
 834 0014 1C45     		lw	a5,8(a0)
 431:./../../firmware/GD32VF103_standard_peripheral/Source/gd32vf103_can.c ****         mailbox_number = CAN_MAILBOX2;
 432:./../../firmware/GD32VF103_standard_peripheral/Source/gd32vf103_can.c ****     }else{
 433:./../../firmware/GD32VF103_standard_peripheral/Source/gd32vf103_can.c ****         mailbox_number = CAN_NOMAILBOX;
 434:./../../firmware/GD32VF103_standard_peripheral/Source/gd32vf103_can.c ****     }
 435:./../../firmware/GD32VF103_standard_peripheral/Source/gd32vf103_can.c ****     /* return no mailbox empty */
 436:./../../firmware/GD32VF103_standard_peripheral/Source/gd32vf103_can.c ****     if(CAN_NOMAILBOX == mailbox_number){
 437:./../../firmware/GD32VF103_standard_peripheral/Source/gd32vf103_can.c ****         return CAN_NOMAILBOX;
 835              		.loc 1 437 16
 836 0016 8D46     		li	a3,3
 430:./../../firmware/GD32VF103_standard_peripheral/Source/gd32vf103_can.c ****         mailbox_number = CAN_MAILBOX2;
 837              		.loc 1 430 13
 838 0018 13973700 		slli	a4,a5,3
 839 001c 635A0708 		bge	a4,zero,.L67
 431:./../../firmware/GD32VF103_standard_peripheral/Source/gd32vf103_can.c ****         mailbox_number = CAN_MAILBOX2;
 840              		.loc 1 431 24
 841 0020 8946     		li	a3,2
 842              	.L66:
 438:./../../firmware/GD32VF103_standard_peripheral/Source/gd32vf103_can.c ****     }
 439:./../../firmware/GD32VF103_standard_peripheral/Source/gd32vf103_can.c ****     
 440:./../../firmware/GD32VF103_standard_peripheral/Source/gd32vf103_can.c ****     CAN_TMI(can_periph, mailbox_number) &= CAN_TMI_TEN;
 843              		.loc 1 440 5 is_stmt 1
 844              		.loc 1 440 41 is_stmt 0
 845 0022 93974600 		slli	a5,a3,4
 846 0026 AA97     		add	a5,a5,a0
 847 0028 03A70718 		lw	a4,384(a5)
 848 002c 058B     		andi	a4,a4,1
 849 002e 23A0E718 		sw	a4,384(a5)
 441:./../../firmware/GD32VF103_standard_peripheral/Source/gd32vf103_can.c ****     if(CAN_FF_STANDARD == transmit_message->tx_ff){
 850              		.loc 1 441 5 is_stmt 1
 851              		.loc 1 441 43 is_stmt 0
 852 0032 03C58500 		lbu	a0,8(a1)
 853              	.LVL46:
 854 0036 03C69500 		lbu	a2,9(a1)
GAS LISTING C:\Users\Karzan\AppData\Local\Temp\ccXUorsL.s 			page 26


 855              		.loc 1 441 7
 856 003a 49E1     		bne	a0,zero,.L68
 442:./../../firmware/GD32VF103_standard_peripheral/Source/gd32vf103_can.c ****         /* set transmit mailbox standard identifier */
 443:./../../firmware/GD32VF103_standard_peripheral/Source/gd32vf103_can.c ****         CAN_TMI(can_periph, mailbox_number) |= (uint32_t)(TMI_SFID(transmit_message->tx_sfid) | \
 857              		.loc 1 443 9 is_stmt 1
 858              		.loc 1 443 59 is_stmt 0
 859 003c 9841     		lw	a4,0(a1)
 860              		.loc 1 443 45
 861 003e 03A50718 		lw	a0,384(a5)
 862              		.loc 1 443 59
 863 0042 5607     		slli	a4,a4,21
 864              		.loc 1 443 48
 865 0044 518F     		or	a4,a4,a2
 866              		.loc 1 443 45
 867 0046 498F     		or	a4,a4,a0
 868              	.L73:
 444:./../../firmware/GD32VF103_standard_peripheral/Source/gd32vf103_can.c ****                                                 transmit_message->tx_ft);
 445:./../../firmware/GD32VF103_standard_peripheral/Source/gd32vf103_can.c ****     }else{
 446:./../../firmware/GD32VF103_standard_peripheral/Source/gd32vf103_can.c ****         /* set transmit mailbox extended identifier */
 447:./../../firmware/GD32VF103_standard_peripheral/Source/gd32vf103_can.c ****         CAN_TMI(can_periph, mailbox_number) |= (uint32_t)(TMI_EFID(transmit_message->tx_efid) | \
 869              		.loc 1 447 45
 870 0048 23A0E718 		sw	a4,384(a5)
 448:./../../firmware/GD32VF103_standard_peripheral/Source/gd32vf103_can.c ****                                                 transmit_message->tx_ff | \
 449:./../../firmware/GD32VF103_standard_peripheral/Source/gd32vf103_can.c ****                                                 transmit_message->tx_ft);
 450:./../../firmware/GD32VF103_standard_peripheral/Source/gd32vf103_can.c ****     }
 451:./../../firmware/GD32VF103_standard_peripheral/Source/gd32vf103_can.c ****     /* set the data length */
 452:./../../firmware/GD32VF103_standard_peripheral/Source/gd32vf103_can.c ****     CAN_TMP(can_periph, mailbox_number) &= ~CAN_TMP_DLENC;
 871              		.loc 1 452 5 is_stmt 1
 872              		.loc 1 452 41 is_stmt 0
 873 004c 03A74718 		lw	a4,388(a5)
 874 0050 419B     		andi	a4,a4,-16
 875 0052 23A2E718 		sw	a4,388(a5)
 453:./../../firmware/GD32VF103_standard_peripheral/Source/gd32vf103_can.c ****     CAN_TMP(can_periph, mailbox_number) |= transmit_message->tx_dlen;
 876              		.loc 1 453 5 is_stmt 1
 877              		.loc 1 453 41 is_stmt 0
 878 0056 03A64718 		lw	a2,388(a5)
 879              		.loc 1 453 60
 880 005a 03C7A500 		lbu	a4,10(a1)
 881              		.loc 1 453 41
 882 005e 518F     		or	a4,a4,a2
 883 0060 23A2E718 		sw	a4,388(a5)
 454:./../../firmware/GD32VF103_standard_peripheral/Source/gd32vf103_can.c ****     /* set the data */
 455:./../../firmware/GD32VF103_standard_peripheral/Source/gd32vf103_can.c ****     CAN_TMDATA0(can_periph, mailbox_number) = TMDATA0_DB3(transmit_message->tx_data[3]) | \
 884              		.loc 1 455 5 is_stmt 1
 456:./../../firmware/GD32VF103_standard_peripheral/Source/gd32vf103_can.c ****                                               TMDATA0_DB2(transmit_message->tx_data[2]) | \
 457:./../../firmware/GD32VF103_standard_peripheral/Source/gd32vf103_can.c ****                                               TMDATA0_DB1(transmit_message->tx_data[1]) | \
 885              		.loc 1 457 89 is_stmt 0
 886 0064 03C6C500 		lbu	a2,12(a1)
 887 0068 03C7B500 		lbu	a4,11(a1)
 888 006c 2206     		slli	a2,a2,8
 889 006e 598E     		or	a2,a2,a4
 890 0070 03C7D500 		lbu	a4,13(a1)
 891 0074 4207     		slli	a4,a4,16
 892 0076 598E     		or	a2,a4,a2
 893 0078 03C7E500 		lbu	a4,14(a1)
 894 007c 6207     		slli	a4,a4,24
 895 007e 518F     		or	a4,a4,a2
GAS LISTING C:\Users\Karzan\AppData\Local\Temp\ccXUorsL.s 			page 27


 455:./../../firmware/GD32VF103_standard_peripheral/Source/gd32vf103_can.c ****                                               TMDATA0_DB2(transmit_message->tx_data[2]) | \
 896              		.loc 1 455 45
 897 0080 23A4E718 		sw	a4,392(a5)
 458:./../../firmware/GD32VF103_standard_peripheral/Source/gd32vf103_can.c ****                                               TMDATA0_DB0(transmit_message->tx_data[0]);
 459:./../../firmware/GD32VF103_standard_peripheral/Source/gd32vf103_can.c ****     CAN_TMDATA1(can_periph, mailbox_number) = TMDATA1_DB7(transmit_message->tx_data[7]) | \
 898              		.loc 1 459 5 is_stmt 1
 460:./../../firmware/GD32VF103_standard_peripheral/Source/gd32vf103_can.c ****                                               TMDATA1_DB6(transmit_message->tx_data[6]) | \
 461:./../../firmware/GD32VF103_standard_peripheral/Source/gd32vf103_can.c ****                                               TMDATA1_DB5(transmit_message->tx_data[5]) | \
 899              		.loc 1 461 89 is_stmt 0
 900 0084 03C60501 		lbu	a2,16(a1)
 901 0088 03C7F500 		lbu	a4,15(a1)
 902 008c 2206     		slli	a2,a2,8
 903 008e 598E     		or	a2,a2,a4
 904 0090 03C71501 		lbu	a4,17(a1)
 905 0094 4207     		slli	a4,a4,16
 906 0096 598E     		or	a2,a4,a2
 907 0098 03C72501 		lbu	a4,18(a1)
 908 009c 6207     		slli	a4,a4,24
 909 009e 518F     		or	a4,a4,a2
 459:./../../firmware/GD32VF103_standard_peripheral/Source/gd32vf103_can.c ****                                               TMDATA1_DB6(transmit_message->tx_data[6]) | \
 910              		.loc 1 459 45
 911 00a0 23A6E718 		sw	a4,396(a5)
 462:./../../firmware/GD32VF103_standard_peripheral/Source/gd32vf103_can.c ****                                               TMDATA1_DB4(transmit_message->tx_data[4]);
 463:./../../firmware/GD32VF103_standard_peripheral/Source/gd32vf103_can.c ****     /* enable transmission */
 464:./../../firmware/GD32VF103_standard_peripheral/Source/gd32vf103_can.c ****     CAN_TMI(can_periph, mailbox_number) |= CAN_TMI_TEN;
 912              		.loc 1 464 5 is_stmt 1
 913              		.loc 1 464 41 is_stmt 0
 914 00a4 03A70718 		lw	a4,384(a5)
 915 00a8 13671700 		ori	a4,a4,1
 916 00ac 23A0E718 		sw	a4,384(a5)
 465:./../../firmware/GD32VF103_standard_peripheral/Source/gd32vf103_can.c **** 
 466:./../../firmware/GD32VF103_standard_peripheral/Source/gd32vf103_can.c ****     return mailbox_number;
 917              		.loc 1 466 5 is_stmt 1
 918              	.L67:
 467:./../../firmware/GD32VF103_standard_peripheral/Source/gd32vf103_can.c **** }
 919              		.loc 1 467 1 is_stmt 0
 920 00b0 3685     		mv	a0,a3
 921 00b2 8280     		ret
 922              	.LVL47:
 923              	.L70:
 427:./../../firmware/GD32VF103_standard_peripheral/Source/gd32vf103_can.c ****     }else if(CAN_TSTAT_TME1 == (CAN_TSTAT(can_periph)&CAN_TSTAT_TME1)){
 924              		.loc 1 427 24
 925 00b4 8146     		li	a3,0
 926 00b6 B5B7     		j	.L66
 927              	.L71:
 429:./../../firmware/GD32VF103_standard_peripheral/Source/gd32vf103_can.c ****     }else if(CAN_TSTAT_TME2 == (CAN_TSTAT(can_periph)&CAN_TSTAT_TME2)){
 928              		.loc 1 429 24
 929 00b8 8546     		li	a3,1
 930 00ba A5B7     		j	.L66
 931              	.LVL48:
 932              	.L68:
 447:./../../firmware/GD32VF103_standard_peripheral/Source/gd32vf103_can.c ****                                                 transmit_message->tx_ff | \
 933              		.loc 1 447 9 is_stmt 1
 447:./../../firmware/GD32VF103_standard_peripheral/Source/gd32vf103_can.c ****                                                 transmit_message->tx_ff | \
 934              		.loc 1 447 59 is_stmt 0
 935 00bc D841     		lw	a4,4(a1)
 447:./../../firmware/GD32VF103_standard_peripheral/Source/gd32vf103_can.c ****                                                 transmit_message->tx_ff | \
GAS LISTING C:\Users\Karzan\AppData\Local\Temp\ccXUorsL.s 			page 28


 936              		.loc 1 447 45
 937 00be 03A80718 		lw	a6,384(a5)
 447:./../../firmware/GD32VF103_standard_peripheral/Source/gd32vf103_can.c ****                                                 transmit_message->tx_ff | \
 938              		.loc 1 447 59
 939 00c2 0E07     		slli	a4,a4,3
 447:./../../firmware/GD32VF103_standard_peripheral/Source/gd32vf103_can.c ****                                                 transmit_message->tx_ff | \
 940              		.loc 1 447 95
 941 00c4 498F     		or	a4,a4,a0
 447:./../../firmware/GD32VF103_standard_peripheral/Source/gd32vf103_can.c ****                                                 transmit_message->tx_ff | \
 942              		.loc 1 447 48
 943 00c6 518F     		or	a4,a4,a2
 447:./../../firmware/GD32VF103_standard_peripheral/Source/gd32vf103_can.c ****                                                 transmit_message->tx_ff | \
 944              		.loc 1 447 45
 945 00c8 33670701 		or	a4,a4,a6
 946 00cc B5BF     		j	.L73
 947              		.cfi_endproc
 948              	.LFE11:
 950              		.section	.text.can_transmit_states,"ax",@progbits
 951              		.align	1
 952              		.globl	can_transmit_states
 954              	can_transmit_states:
 955              	.LFB12:
 468:./../../firmware/GD32VF103_standard_peripheral/Source/gd32vf103_can.c **** 
 469:./../../firmware/GD32VF103_standard_peripheral/Source/gd32vf103_can.c **** /*!
 470:./../../firmware/GD32VF103_standard_peripheral/Source/gd32vf103_can.c ****     \brief      get CAN transmit state 
 471:./../../firmware/GD32VF103_standard_peripheral/Source/gd32vf103_can.c ****     \param[in]  can_periph
 472:./../../firmware/GD32VF103_standard_peripheral/Source/gd32vf103_can.c ****       \arg        CANx(x=0,1)
 473:./../../firmware/GD32VF103_standard_peripheral/Source/gd32vf103_can.c ****     \param[in]  mailbox_number
 474:./../../firmware/GD32VF103_standard_peripheral/Source/gd32vf103_can.c ****                 only one parameter can be selected which is shown as below:
 475:./../../firmware/GD32VF103_standard_peripheral/Source/gd32vf103_can.c ****       \arg        CAN_MAILBOX(x=0,1,2)
 476:./../../firmware/GD32VF103_standard_peripheral/Source/gd32vf103_can.c ****     \param[out] none
 477:./../../firmware/GD32VF103_standard_peripheral/Source/gd32vf103_can.c ****     \retval     can_transmit_state_enum
 478:./../../firmware/GD32VF103_standard_peripheral/Source/gd32vf103_can.c **** */
 479:./../../firmware/GD32VF103_standard_peripheral/Source/gd32vf103_can.c **** can_transmit_state_enum can_transmit_states(uint32_t can_periph, uint8_t mailbox_number)
 480:./../../firmware/GD32VF103_standard_peripheral/Source/gd32vf103_can.c **** {
 956              		.loc 1 480 1 is_stmt 1
 957              		.cfi_startproc
 958              	.LVL49:
 481:./../../firmware/GD32VF103_standard_peripheral/Source/gd32vf103_can.c ****     can_transmit_state_enum state = CAN_TRANSMIT_FAILED;
 959              		.loc 1 481 5
 482:./../../firmware/GD32VF103_standard_peripheral/Source/gd32vf103_can.c ****     uint32_t val = 0U;
 960              		.loc 1 482 5
 483:./../../firmware/GD32VF103_standard_peripheral/Source/gd32vf103_can.c ****     
 484:./../../firmware/GD32VF103_standard_peripheral/Source/gd32vf103_can.c ****     /* check selected mailbox state */    
 485:./../../firmware/GD32VF103_standard_peripheral/Source/gd32vf103_can.c ****     switch(mailbox_number){
 961              		.loc 1 485 5
 962 0000 8547     		li	a5,1
 963 0002 6389F502 		beq	a1,a5,.L75
 964 0006 91C5     		beq	a1,zero,.L76
 965 0008 8947     		li	a5,2
 966 000a 638BF502 		beq	a1,a5,.L77
 486:./../../firmware/GD32VF103_standard_peripheral/Source/gd32vf103_can.c ****     /* mailbox0 */
 487:./../../firmware/GD32VF103_standard_peripheral/Source/gd32vf103_can.c ****     case CAN_MAILBOX0:
 488:./../../firmware/GD32VF103_standard_peripheral/Source/gd32vf103_can.c ****         val = CAN_TSTAT(can_periph) & (CAN_TSTAT_MTF0 | CAN_TSTAT_MTFNERR0 | CAN_TSTAT_TME0);
 489:./../../firmware/GD32VF103_standard_peripheral/Source/gd32vf103_can.c ****         break;
 490:./../../firmware/GD32VF103_standard_peripheral/Source/gd32vf103_can.c ****     /* mailbox1 */
 491:./../../firmware/GD32VF103_standard_peripheral/Source/gd32vf103_can.c ****     case CAN_MAILBOX1:
GAS LISTING C:\Users\Karzan\AppData\Local\Temp\ccXUorsL.s 			page 29


 492:./../../firmware/GD32VF103_standard_peripheral/Source/gd32vf103_can.c ****         val = CAN_TSTAT(can_periph) & (CAN_TSTAT_MTF1 | CAN_TSTAT_MTFNERR1 | CAN_TSTAT_TME1);
 493:./../../firmware/GD32VF103_standard_peripheral/Source/gd32vf103_can.c ****         break;
 494:./../../firmware/GD32VF103_standard_peripheral/Source/gd32vf103_can.c ****     /* mailbox2 */
 495:./../../firmware/GD32VF103_standard_peripheral/Source/gd32vf103_can.c ****     case CAN_MAILBOX2:
 496:./../../firmware/GD32VF103_standard_peripheral/Source/gd32vf103_can.c ****         val = CAN_TSTAT(can_periph) & (CAN_TSTAT_MTF2 | CAN_TSTAT_MTFNERR2 | CAN_TSTAT_TME2);
 497:./../../firmware/GD32VF103_standard_peripheral/Source/gd32vf103_can.c ****         break;
 498:./../../firmware/GD32VF103_standard_peripheral/Source/gd32vf103_can.c ****     default:
 499:./../../firmware/GD32VF103_standard_peripheral/Source/gd32vf103_can.c ****         val = CAN_TRANSMIT_FAILED;
 500:./../../firmware/GD32VF103_standard_peripheral/Source/gd32vf103_can.c ****         break;
 501:./../../firmware/GD32VF103_standard_peripheral/Source/gd32vf103_can.c ****     }
 502:./../../firmware/GD32VF103_standard_peripheral/Source/gd32vf103_can.c ****     
 503:./../../firmware/GD32VF103_standard_peripheral/Source/gd32vf103_can.c ****     switch(val){
 504:./../../firmware/GD32VF103_standard_peripheral/Source/gd32vf103_can.c ****         /* transmit pending */
 505:./../../firmware/GD32VF103_standard_peripheral/Source/gd32vf103_can.c ****     case (CAN_STATE_PENDING): 
 506:./../../firmware/GD32VF103_standard_peripheral/Source/gd32vf103_can.c ****         state = CAN_TRANSMIT_PENDING;
 967              		.loc 1 506 15 is_stmt 0
 968 000e 0945     		li	a0,2
 969              	.LVL50:
 970 0010 8280     		ret
 971              	.LVL51:
 972              	.L76:
 488:./../../firmware/GD32VF103_standard_peripheral/Source/gd32vf103_can.c ****         break;
 973              		.loc 1 488 9 is_stmt 1
 488:./../../firmware/GD32VF103_standard_peripheral/Source/gd32vf103_can.c ****         break;
 974              		.loc 1 488 15 is_stmt 0
 975 0012 1C45     		lw	a5,8(a0)
 488:./../../firmware/GD32VF103_standard_peripheral/Source/gd32vf103_can.c ****         break;
 976              		.loc 1 488 13
 977 0014 37050004 		li	a0,67108864
 978              	.LVL52:
 979 0018 0D05     		addi	a0,a0,3
 980              	.L85:
 503:./../../firmware/GD32VF103_standard_peripheral/Source/gd32vf103_can.c ****         /* transmit pending */
 981              		.loc 1 503 5
 982 001a 37070004 		li	a4,67108864
 496:./../../firmware/GD32VF103_standard_peripheral/Source/gd32vf103_can.c ****         break;
 983              		.loc 1 496 13
 984 001e E98F     		and	a5,a5,a0
 985              	.LVL53:
 497:./../../firmware/GD32VF103_standard_peripheral/Source/gd32vf103_can.c ****     default:
 986              		.loc 1 497 9 is_stmt 1
 503:./../../firmware/GD32VF103_standard_peripheral/Source/gd32vf103_can.c ****         /* transmit pending */
 987              		.loc 1 503 5
 988 0020 0D07     		addi	a4,a4,3
 507:./../../firmware/GD32VF103_standard_peripheral/Source/gd32vf103_can.c ****         break;
 508:./../../firmware/GD32VF103_standard_peripheral/Source/gd32vf103_can.c ****         /* mailbox0 transmit succeeded */
 509:./../../firmware/GD32VF103_standard_peripheral/Source/gd32vf103_can.c ****     case (CAN_TSTAT_MTF0 | CAN_TSTAT_MTFNERR0 | CAN_TSTAT_TME0):
 510:./../../firmware/GD32VF103_standard_peripheral/Source/gd32vf103_can.c ****         state = CAN_TRANSMIT_OK;
 989              		.loc 1 510 15 is_stmt 0
 990 0022 0545     		li	a0,1
 503:./../../firmware/GD32VF103_standard_peripheral/Source/gd32vf103_can.c ****         /* transmit pending */
 991              		.loc 1 503 5
 992 0024 638EE702 		beq	a5,a4,.L74
 993 0028 6360F702 		bgtu	a5,a4,.L80
 511:./../../firmware/GD32VF103_standard_peripheral/Source/gd32vf103_can.c ****         break;
 512:./../../firmware/GD32VF103_standard_peripheral/Source/gd32vf103_can.c ****         /* mailbox1 transmit succeeded */
 513:./../../firmware/GD32VF103_standard_peripheral/Source/gd32vf103_can.c ****     case (CAN_TSTAT_MTF1 | CAN_TSTAT_MTFNERR1 | CAN_TSTAT_TME1):
GAS LISTING C:\Users\Karzan\AppData\Local\Temp\ccXUorsL.s 			page 30


 514:./../../firmware/GD32VF103_standard_peripheral/Source/gd32vf103_can.c ****         state = CAN_TRANSMIT_OK;
 515:./../../firmware/GD32VF103_standard_peripheral/Source/gd32vf103_can.c ****         break;
 516:./../../firmware/GD32VF103_standard_peripheral/Source/gd32vf103_can.c ****         /* mailbox2 transmit succeeded */
 517:./../../firmware/GD32VF103_standard_peripheral/Source/gd32vf103_can.c ****     case (CAN_TSTAT_MTF2 | CAN_TSTAT_MTFNERR2 | CAN_TSTAT_TME2):
 518:./../../firmware/GD32VF103_standard_peripheral/Source/gd32vf103_can.c ****         state = CAN_TRANSMIT_OK;
 519:./../../firmware/GD32VF103_standard_peripheral/Source/gd32vf103_can.c ****         break;
 520:./../../firmware/GD32VF103_standard_peripheral/Source/gd32vf103_can.c ****         /* transmit failed */
 521:./../../firmware/GD32VF103_standard_peripheral/Source/gd32vf103_can.c ****     default: 
 522:./../../firmware/GD32VF103_standard_peripheral/Source/gd32vf103_can.c ****         state = CAN_TRANSMIT_FAILED;
 994              		.loc 1 522 15
 995 002c 13B51700 		seqz	a0,a5
 996 0030 0605     		slli	a0,a0,1
 997 0032 8280     		ret
 998              	.LVL54:
 999              	.L75:
 492:./../../firmware/GD32VF103_standard_peripheral/Source/gd32vf103_can.c ****         break;
 1000              		.loc 1 492 9 is_stmt 1
 492:./../../firmware/GD32VF103_standard_peripheral/Source/gd32vf103_can.c ****         break;
 1001              		.loc 1 492 15 is_stmt 0
 1002 0034 1C45     		lw	a5,8(a0)
 492:./../../firmware/GD32VF103_standard_peripheral/Source/gd32vf103_can.c ****         break;
 1003              		.loc 1 492 13
 1004 0036 37050008 		li	a0,134217728
 1005              	.LVL55:
 1006 003a 13050530 		addi	a0,a0,768
 1007 003e F1BF     		j	.L85
 1008              	.LVL56:
 1009              	.L77:
 496:./../../firmware/GD32VF103_standard_peripheral/Source/gd32vf103_can.c ****         break;
 1010              		.loc 1 496 9 is_stmt 1
 496:./../../firmware/GD32VF103_standard_peripheral/Source/gd32vf103_can.c ****         break;
 1011              		.loc 1 496 15 is_stmt 0
 1012 0040 1C45     		lw	a5,8(a0)
 496:./../../firmware/GD32VF103_standard_peripheral/Source/gd32vf103_can.c ****         break;
 1013              		.loc 1 496 13
 1014 0042 37050310 		li	a0,268632064
 1015              	.LVL57:
 1016 0046 D1BF     		j	.L85
 1017              	.LVL58:
 1018              	.L80:
 503:./../../firmware/GD32VF103_standard_peripheral/Source/gd32vf103_can.c ****         /* transmit pending */
 1019              		.loc 1 503 5
 1020 0048 37070008 		li	a4,134217728
 1021 004c 13070730 		addi	a4,a4,768
 510:./../../firmware/GD32VF103_standard_peripheral/Source/gd32vf103_can.c ****         break;
 1022              		.loc 1 510 15
 1023 0050 0545     		li	a0,1
 503:./../../firmware/GD32VF103_standard_peripheral/Source/gd32vf103_can.c ****         /* transmit pending */
 1024              		.loc 1 503 5
 1025 0052 6387E700 		beq	a5,a4,.L74
 1026 0056 37050310 		li	a0,268632064
 1027              		.loc 1 522 15
 1028 005a 898F     		sub	a5,a5,a0
 1029              	.LVL59:
 1030 005c 13B51700 		seqz	a0,a5
 1031              	.LVL60:
 1032              	.L74:
GAS LISTING C:\Users\Karzan\AppData\Local\Temp\ccXUorsL.s 			page 31


 523:./../../firmware/GD32VF103_standard_peripheral/Source/gd32vf103_can.c ****         break;
 524:./../../firmware/GD32VF103_standard_peripheral/Source/gd32vf103_can.c ****     }
 525:./../../firmware/GD32VF103_standard_peripheral/Source/gd32vf103_can.c ****     return state;
 526:./../../firmware/GD32VF103_standard_peripheral/Source/gd32vf103_can.c **** }
 1033              		.loc 1 526 1
 1034 0060 8280     		ret
 1035              		.cfi_endproc
 1036              	.LFE12:
 1038              		.section	.text.can_transmission_stop,"ax",@progbits
 1039              		.align	1
 1040              		.globl	can_transmission_stop
 1042              	can_transmission_stop:
 1043              	.LFB13:
 527:./../../firmware/GD32VF103_standard_peripheral/Source/gd32vf103_can.c **** 
 528:./../../firmware/GD32VF103_standard_peripheral/Source/gd32vf103_can.c **** /*!
 529:./../../firmware/GD32VF103_standard_peripheral/Source/gd32vf103_can.c ****     \brief      stop CAN transmission
 530:./../../firmware/GD32VF103_standard_peripheral/Source/gd32vf103_can.c ****     \param[in]  can_periph
 531:./../../firmware/GD32VF103_standard_peripheral/Source/gd32vf103_can.c ****       \arg        CANx(x=0,1)
 532:./../../firmware/GD32VF103_standard_peripheral/Source/gd32vf103_can.c ****     \param[in]  mailbox_number
 533:./../../firmware/GD32VF103_standard_peripheral/Source/gd32vf103_can.c ****                 only one parameter can be selected which is shown as below:
 534:./../../firmware/GD32VF103_standard_peripheral/Source/gd32vf103_can.c ****       \arg        CAN_MAILBOXx(x=0,1,2)
 535:./../../firmware/GD32VF103_standard_peripheral/Source/gd32vf103_can.c ****     \param[out] none
 536:./../../firmware/GD32VF103_standard_peripheral/Source/gd32vf103_can.c ****     \retval     none
 537:./../../firmware/GD32VF103_standard_peripheral/Source/gd32vf103_can.c **** */
 538:./../../firmware/GD32VF103_standard_peripheral/Source/gd32vf103_can.c **** void can_transmission_stop(uint32_t can_periph, uint8_t mailbox_number)
 539:./../../firmware/GD32VF103_standard_peripheral/Source/gd32vf103_can.c **** {
 1044              		.loc 1 539 1 is_stmt 1
 1045              		.cfi_startproc
 1046              	.LVL61:
 540:./../../firmware/GD32VF103_standard_peripheral/Source/gd32vf103_can.c ****     if(CAN_MAILBOX0 == mailbox_number){
 1047              		.loc 1 540 5
 1048              		.loc 1 540 7 is_stmt 0
 1049 0000 81ED     		bne	a1,zero,.L87
 541:./../../firmware/GD32VF103_standard_peripheral/Source/gd32vf103_can.c ****         CAN_TSTAT(can_periph) |= CAN_TSTAT_MST0;
 1050              		.loc 1 541 9 is_stmt 1
 1051              		.loc 1 541 31 is_stmt 0
 1052 0002 1C45     		lw	a5,8(a0)
 1053 0004 13078500 		addi	a4,a0,8
 1054 0008 93E70708 		ori	a5,a5,128
 1055 000c 1CC5     		sw	a5,8(a0)
 542:./../../firmware/GD32VF103_standard_peripheral/Source/gd32vf103_can.c ****         while(CAN_TSTAT_MST0 == (CAN_TSTAT(can_periph) & CAN_TSTAT_MST0)){
 1056              		.loc 1 542 9 is_stmt 1
 1057              	.L88:
 543:./../../firmware/GD32VF103_standard_peripheral/Source/gd32vf103_can.c ****         }
 1058              		.loc 1 543 9 discriminator 1
 542:./../../firmware/GD32VF103_standard_peripheral/Source/gd32vf103_can.c ****         while(CAN_TSTAT_MST0 == (CAN_TSTAT(can_periph) & CAN_TSTAT_MST0)){
 1059              		.loc 1 542 34 is_stmt 0 discriminator 1
 1060 000e 1C43     		lw	a5,0(a4)
 542:./../../firmware/GD32VF103_standard_peripheral/Source/gd32vf103_can.c ****         while(CAN_TSTAT_MST0 == (CAN_TSTAT(can_periph) & CAN_TSTAT_MST0)){
 1061              		.loc 1 542 56 discriminator 1
 1062 0010 93F70708 		andi	a5,a5,128
 542:./../../firmware/GD32VF103_standard_peripheral/Source/gd32vf103_can.c ****         while(CAN_TSTAT_MST0 == (CAN_TSTAT(can_periph) & CAN_TSTAT_MST0)){
 1063              		.loc 1 542 14 discriminator 1
 1064 0014 EDFF     		bne	a5,zero,.L88
 1065 0016 8280     		ret
 1066              	.L87:
 544:./../../firmware/GD32VF103_standard_peripheral/Source/gd32vf103_can.c ****     }else if(CAN_MAILBOX1 == mailbox_number){
GAS LISTING C:\Users\Karzan\AppData\Local\Temp\ccXUorsL.s 			page 32


 1067              		.loc 1 544 11 is_stmt 1
 1068              		.loc 1 544 13 is_stmt 0
 1069 0018 8547     		li	a5,1
 1070 001a 639EF500 		bne	a1,a5,.L90
 545:./../../firmware/GD32VF103_standard_peripheral/Source/gd32vf103_can.c ****         CAN_TSTAT(can_periph) |= CAN_TSTAT_MST1;
 1071              		.loc 1 545 9 is_stmt 1
 1072              		.loc 1 545 31 is_stmt 0
 1073 001e 1C45     		lw	a5,8(a0)
 1074 0020 A166     		li	a3,32768
 1075 0022 13078500 		addi	a4,a0,8
 1076 0026 D58F     		or	a5,a5,a3
 1077 0028 1CC5     		sw	a5,8(a0)
 546:./../../firmware/GD32VF103_standard_peripheral/Source/gd32vf103_can.c ****         while(CAN_TSTAT_MST1 == (CAN_TSTAT(can_periph) & CAN_TSTAT_MST1)){
 1078              		.loc 1 546 9 is_stmt 1
 1079              	.L91:
 547:./../../firmware/GD32VF103_standard_peripheral/Source/gd32vf103_can.c ****         }
 1080              		.loc 1 547 9 discriminator 1
 546:./../../firmware/GD32VF103_standard_peripheral/Source/gd32vf103_can.c ****         while(CAN_TSTAT_MST1 == (CAN_TSTAT(can_periph) & CAN_TSTAT_MST1)){
 1081              		.loc 1 546 34 is_stmt 0 discriminator 1
 1082 002a 1C43     		lw	a5,0(a4)
 546:./../../firmware/GD32VF103_standard_peripheral/Source/gd32vf103_can.c ****         while(CAN_TSTAT_MST1 == (CAN_TSTAT(can_periph) & CAN_TSTAT_MST1)){
 1083              		.loc 1 546 14 discriminator 1
 1084 002c 93960701 		slli	a3,a5,16
 1085 0030 E3CD06FE 		blt	a3,zero,.L91
 1086 0034 8280     		ret
 1087              	.L90:
 548:./../../firmware/GD32VF103_standard_peripheral/Source/gd32vf103_can.c ****     }else if(CAN_MAILBOX2 == mailbox_number){
 1088              		.loc 1 548 11 is_stmt 1
 1089              		.loc 1 548 13 is_stmt 0
 1090 0036 8947     		li	a5,2
 1091 0038 639EF500 		bne	a1,a5,.L86
 549:./../../firmware/GD32VF103_standard_peripheral/Source/gd32vf103_can.c ****         CAN_TSTAT(can_periph) |= CAN_TSTAT_MST2;
 1092              		.loc 1 549 9 is_stmt 1
 1093              		.loc 1 549 31 is_stmt 0
 1094 003c 1C45     		lw	a5,8(a0)
 1095 003e B7068000 		li	a3,8388608
 1096 0042 13078500 		addi	a4,a0,8
 1097 0046 D58F     		or	a5,a5,a3
 1098 0048 1CC5     		sw	a5,8(a0)
 550:./../../firmware/GD32VF103_standard_peripheral/Source/gd32vf103_can.c ****         while(CAN_TSTAT_MST2 == (CAN_TSTAT(can_periph) & CAN_TSTAT_MST2)){
 1099              		.loc 1 550 9 is_stmt 1
 1100              	.L92:
 551:./../../firmware/GD32VF103_standard_peripheral/Source/gd32vf103_can.c ****         }
 1101              		.loc 1 551 9 discriminator 1
 550:./../../firmware/GD32VF103_standard_peripheral/Source/gd32vf103_can.c ****         while(CAN_TSTAT_MST2 == (CAN_TSTAT(can_periph) & CAN_TSTAT_MST2)){
 1102              		.loc 1 550 34 is_stmt 0 discriminator 1
 1103 004a 1C43     		lw	a5,0(a4)
 550:./../../firmware/GD32VF103_standard_peripheral/Source/gd32vf103_can.c ****         while(CAN_TSTAT_MST2 == (CAN_TSTAT(can_periph) & CAN_TSTAT_MST2)){
 1104              		.loc 1 550 14 discriminator 1
 1105 004c 93968700 		slli	a3,a5,8
 1106 0050 E3CD06FE 		blt	a3,zero,.L92
 1107              	.L86:
 552:./../../firmware/GD32VF103_standard_peripheral/Source/gd32vf103_can.c ****     }else{
 553:./../../firmware/GD32VF103_standard_peripheral/Source/gd32vf103_can.c ****         /* illegal parameters */
 554:./../../firmware/GD32VF103_standard_peripheral/Source/gd32vf103_can.c ****     }
 555:./../../firmware/GD32VF103_standard_peripheral/Source/gd32vf103_can.c **** }
 1108              		.loc 1 555 1
GAS LISTING C:\Users\Karzan\AppData\Local\Temp\ccXUorsL.s 			page 33


 1109 0054 8280     		ret
 1110              		.cfi_endproc
 1111              	.LFE13:
 1113              		.section	.text.can_message_receive,"ax",@progbits
 1114              		.align	1
 1115              		.globl	can_message_receive
 1117              	can_message_receive:
 1118              	.LFB14:
 556:./../../firmware/GD32VF103_standard_peripheral/Source/gd32vf103_can.c **** 
 557:./../../firmware/GD32VF103_standard_peripheral/Source/gd32vf103_can.c **** /*!
 558:./../../firmware/GD32VF103_standard_peripheral/Source/gd32vf103_can.c ****     \brief      CAN receive message
 559:./../../firmware/GD32VF103_standard_peripheral/Source/gd32vf103_can.c ****     \param[in]  can_periph
 560:./../../firmware/GD32VF103_standard_peripheral/Source/gd32vf103_can.c ****       \arg        CANx(x=0,1)
 561:./../../firmware/GD32VF103_standard_peripheral/Source/gd32vf103_can.c ****     \param[in]  fifo_number
 562:./../../firmware/GD32VF103_standard_peripheral/Source/gd32vf103_can.c ****       \arg        CAN_FIFOx(x=0,1)
 563:./../../firmware/GD32VF103_standard_peripheral/Source/gd32vf103_can.c ****     \param[out] receive_message: struct for CAN receive message
 564:./../../firmware/GD32VF103_standard_peripheral/Source/gd32vf103_can.c ****       \arg        rx_sfid: 0x00000000 - 0x000007FF
 565:./../../firmware/GD32VF103_standard_peripheral/Source/gd32vf103_can.c ****       \arg        rx_efid: 0x00000000 - 0x1FFFFFFF
 566:./../../firmware/GD32VF103_standard_peripheral/Source/gd32vf103_can.c ****       \arg        rx_ff: CAN_FF_STANDARD, CAN_FF_EXTENDED
 567:./../../firmware/GD32VF103_standard_peripheral/Source/gd32vf103_can.c ****       \arg        rx_ft: CAN_FT_DATA, CAN_FT_REMOTE
 568:./../../firmware/GD32VF103_standard_peripheral/Source/gd32vf103_can.c ****       \arg        rx_dlen: 0 - 8
 569:./../../firmware/GD32VF103_standard_peripheral/Source/gd32vf103_can.c ****       \arg        rx_data[]: 0x00 - 0xFF
 570:./../../firmware/GD32VF103_standard_peripheral/Source/gd32vf103_can.c ****       \arg        rx_fi: 0 - 27
 571:./../../firmware/GD32VF103_standard_peripheral/Source/gd32vf103_can.c ****     \retval     none
 572:./../../firmware/GD32VF103_standard_peripheral/Source/gd32vf103_can.c **** */
 573:./../../firmware/GD32VF103_standard_peripheral/Source/gd32vf103_can.c **** void can_message_receive(uint32_t can_periph, uint8_t fifo_number, can_receive_message_struct* rece
 574:./../../firmware/GD32VF103_standard_peripheral/Source/gd32vf103_can.c **** {
 1119              		.loc 1 574 1 is_stmt 1
 1120              		.cfi_startproc
 1121              	.LVL62:
 575:./../../firmware/GD32VF103_standard_peripheral/Source/gd32vf103_can.c ****     /* get the frame format */
 576:./../../firmware/GD32VF103_standard_peripheral/Source/gd32vf103_can.c ****     receive_message->rx_ff = (uint8_t)(CAN_RFIFOMI_FF & CAN_RFIFOMI(can_periph, fifo_number));
 1122              		.loc 1 576 5
 1123              		.loc 1 576 57 is_stmt 0
 1124 0000 93974500 		slli	a5,a1,4
 1125 0004 AA97     		add	a5,a5,a0
 1126 0006 03A7071B 		lw	a4,432(a5)
 1127              		.loc 1 576 30
 1128 000a 118B     		andi	a4,a4,4
 1129              		.loc 1 576 28
 1130 000c 2304E600 		sb	a4,8(a2)
 577:./../../firmware/GD32VF103_standard_peripheral/Source/gd32vf103_can.c ****     if(CAN_FF_STANDARD == receive_message->rx_ff){
 1131              		.loc 1 577 5 is_stmt 1
 1132              		.loc 1 577 7 is_stmt 0
 1133 0010 41E3     		bne	a4,zero,.L97
 578:./../../firmware/GD32VF103_standard_peripheral/Source/gd32vf103_can.c ****         /* get standard identifier */
 579:./../../firmware/GD32VF103_standard_peripheral/Source/gd32vf103_can.c ****         receive_message->rx_sfid = (uint32_t)(GET_RFIFOMI_SFID(CAN_RFIFOMI(can_periph, fifo_number)
 1134              		.loc 1 579 9 is_stmt 1
 1135              		.loc 1 579 47 is_stmt 0
 1136 0012 03A7071B 		lw	a4,432(a5)
 1137              		.loc 1 579 36
 1138 0016 5583     		srli	a4,a4,21
 1139              		.loc 1 579 34
 1140 0018 18C2     		sw	a4,0(a2)
 1141              	.L98:
 580:./../../firmware/GD32VF103_standard_peripheral/Source/gd32vf103_can.c ****     }else{
 581:./../../firmware/GD32VF103_standard_peripheral/Source/gd32vf103_can.c ****         /* get extended identifier */
GAS LISTING C:\Users\Karzan\AppData\Local\Temp\ccXUorsL.s 			page 34


 582:./../../firmware/GD32VF103_standard_peripheral/Source/gd32vf103_can.c ****         receive_message->rx_efid = (uint32_t)(GET_RFIFOMI_EFID(CAN_RFIFOMI(can_periph, fifo_number)
 583:./../../firmware/GD32VF103_standard_peripheral/Source/gd32vf103_can.c ****     }
 584:./../../firmware/GD32VF103_standard_peripheral/Source/gd32vf103_can.c ****     
 585:./../../firmware/GD32VF103_standard_peripheral/Source/gd32vf103_can.c ****     /* get frame type */
 586:./../../firmware/GD32VF103_standard_peripheral/Source/gd32vf103_can.c ****     receive_message->rx_ft = (uint8_t)(CAN_RFIFOMI_FT & CAN_RFIFOMI(can_periph, fifo_number));     
 1142              		.loc 1 586 5 is_stmt 1
 1143              		.loc 1 586 57 is_stmt 0
 1144 001a 03A7071B 		lw	a4,432(a5)
 1145              		.loc 1 586 30
 1146 001e 098B     		andi	a4,a4,2
 1147              		.loc 1 586 28
 1148 0020 A304E600 		sb	a4,9(a2)
 587:./../../firmware/GD32VF103_standard_peripheral/Source/gd32vf103_can.c ****     /* filtering index */
 588:./../../firmware/GD32VF103_standard_peripheral/Source/gd32vf103_can.c ****     receive_message->rx_fi = (uint8_t)(GET_RFIFOMP_FI(CAN_RFIFOMP(can_periph, fifo_number)));
 1149              		.loc 1 588 5 is_stmt 1
 1150              		.loc 1 588 40 is_stmt 0
 1151 0024 03A7471B 		lw	a4,436(a5)
 1152 0028 2183     		srli	a4,a4,8
 1153              		.loc 1 588 30
 1154 002a A309E600 		sb	a4,19(a2)
 589:./../../firmware/GD32VF103_standard_peripheral/Source/gd32vf103_can.c ****     /* get recevie data length */
 590:./../../firmware/GD32VF103_standard_peripheral/Source/gd32vf103_can.c ****     receive_message->rx_dlen = (uint8_t)(GET_RFIFOMP_DLENC(CAN_RFIFOMP(can_periph, fifo_number)));
 1155              		.loc 1 590 5 is_stmt 1
 1156              		.loc 1 590 42 is_stmt 0
 1157 002e 03A7471B 		lw	a4,436(a5)
 1158              		.loc 1 590 32
 1159 0032 3D8B     		andi	a4,a4,15
 1160              		.loc 1 590 30
 1161 0034 2305E600 		sb	a4,10(a2)
 591:./../../firmware/GD32VF103_standard_peripheral/Source/gd32vf103_can.c ****     
 592:./../../firmware/GD32VF103_standard_peripheral/Source/gd32vf103_can.c ****     /* receive data */
 593:./../../firmware/GD32VF103_standard_peripheral/Source/gd32vf103_can.c ****     receive_message -> rx_data[0] = (uint8_t)(GET_RFIFOMDATA0_DB0(CAN_RFIFOMDATA0(can_periph, fifo_
 1162              		.loc 1 593 5 is_stmt 1
 1163              		.loc 1 593 47 is_stmt 0
 1164 0038 03A7871B 		lw	a4,440(a5)
 1165              		.loc 1 593 37
 1166 003c A305E600 		sb	a4,11(a2)
 594:./../../firmware/GD32VF103_standard_peripheral/Source/gd32vf103_can.c ****     receive_message -> rx_data[1] = (uint8_t)(GET_RFIFOMDATA0_DB1(CAN_RFIFOMDATA0(can_periph, fifo_
 1167              		.loc 1 594 5 is_stmt 1
 1168              		.loc 1 594 47 is_stmt 0
 1169 0040 03A7871B 		lw	a4,440(a5)
 1170 0044 2183     		srli	a4,a4,8
 1171              		.loc 1 594 37
 1172 0046 2306E600 		sb	a4,12(a2)
 595:./../../firmware/GD32VF103_standard_peripheral/Source/gd32vf103_can.c ****     receive_message -> rx_data[2] = (uint8_t)(GET_RFIFOMDATA0_DB2(CAN_RFIFOMDATA0(can_periph, fifo_
 1173              		.loc 1 595 5 is_stmt 1
 1174              		.loc 1 595 47 is_stmt 0
 1175 004a 03A7871B 		lw	a4,440(a5)
 1176 004e 4183     		srli	a4,a4,16
 1177              		.loc 1 595 37
 1178 0050 A306E600 		sb	a4,13(a2)
 596:./../../firmware/GD32VF103_standard_peripheral/Source/gd32vf103_can.c ****     receive_message -> rx_data[3] = (uint8_t)(GET_RFIFOMDATA0_DB3(CAN_RFIFOMDATA0(can_periph, fifo_
 1179              		.loc 1 596 5 is_stmt 1
 1180              		.loc 1 596 47 is_stmt 0
 1181 0054 03A7871B 		lw	a4,440(a5)
 1182 0058 6183     		srli	a4,a4,24
 1183              		.loc 1 596 37
GAS LISTING C:\Users\Karzan\AppData\Local\Temp\ccXUorsL.s 			page 35


 1184 005a 2307E600 		sb	a4,14(a2)
 597:./../../firmware/GD32VF103_standard_peripheral/Source/gd32vf103_can.c ****     receive_message -> rx_data[4] = (uint8_t)(GET_RFIFOMDATA1_DB4(CAN_RFIFOMDATA1(can_periph, fifo_
 1185              		.loc 1 597 5 is_stmt 1
 1186              		.loc 1 597 47 is_stmt 0
 1187 005e 03A7C71B 		lw	a4,444(a5)
 1188              		.loc 1 597 37
 1189 0062 A307E600 		sb	a4,15(a2)
 598:./../../firmware/GD32VF103_standard_peripheral/Source/gd32vf103_can.c ****     receive_message -> rx_data[5] = (uint8_t)(GET_RFIFOMDATA1_DB5(CAN_RFIFOMDATA1(can_periph, fifo_
 1190              		.loc 1 598 5 is_stmt 1
 1191              		.loc 1 598 47 is_stmt 0
 1192 0066 03A7C71B 		lw	a4,444(a5)
 1193 006a 2183     		srli	a4,a4,8
 1194              		.loc 1 598 37
 1195 006c 2308E600 		sb	a4,16(a2)
 599:./../../firmware/GD32VF103_standard_peripheral/Source/gd32vf103_can.c ****     receive_message -> rx_data[6] = (uint8_t)(GET_RFIFOMDATA1_DB6(CAN_RFIFOMDATA1(can_periph, fifo_
 1196              		.loc 1 599 5 is_stmt 1
 1197              		.loc 1 599 47 is_stmt 0
 1198 0070 03A7C71B 		lw	a4,444(a5)
 1199 0074 4183     		srli	a4,a4,16
 1200              		.loc 1 599 37
 1201 0076 A308E600 		sb	a4,17(a2)
 600:./../../firmware/GD32VF103_standard_peripheral/Source/gd32vf103_can.c ****     receive_message -> rx_data[7] = (uint8_t)(GET_RFIFOMDATA1_DB7(CAN_RFIFOMDATA1(can_periph, fifo_
 1202              		.loc 1 600 5 is_stmt 1
 1203              		.loc 1 600 47 is_stmt 0
 1204 007a 83A7C71B 		lw	a5,444(a5)
 1205 007e E183     		srli	a5,a5,24
 1206              		.loc 1 600 37
 1207 0080 2309F600 		sb	a5,18(a2)
 601:./../../firmware/GD32VF103_standard_peripheral/Source/gd32vf103_can.c ****     
 602:./../../firmware/GD32VF103_standard_peripheral/Source/gd32vf103_can.c ****     /* release FIFO */
 603:./../../firmware/GD32VF103_standard_peripheral/Source/gd32vf103_can.c ****     if(CAN_FIFO0 == fifo_number){
 1208              		.loc 1 603 5 is_stmt 1
 1209              		.loc 1 603 7 is_stmt 0
 1210 0084 99E9     		bne	a1,zero,.L99
 604:./../../firmware/GD32VF103_standard_peripheral/Source/gd32vf103_can.c ****         CAN_RFIFO0(can_periph) |= CAN_RFIFO0_RFD0;
 1211              		.loc 1 604 9 is_stmt 1
 1212              		.loc 1 604 32 is_stmt 0
 1213 0086 5C45     		lw	a5,12(a0)
 1214 0088 93E70702 		ori	a5,a5,32
 1215 008c 5CC5     		sw	a5,12(a0)
 1216 008e 8280     		ret
 1217              	.L97:
 582:./../../firmware/GD32VF103_standard_peripheral/Source/gd32vf103_can.c ****     }
 1218              		.loc 1 582 9 is_stmt 1
 582:./../../firmware/GD32VF103_standard_peripheral/Source/gd32vf103_can.c ****     }
 1219              		.loc 1 582 47 is_stmt 0
 1220 0090 03A7071B 		lw	a4,432(a5)
 582:./../../firmware/GD32VF103_standard_peripheral/Source/gd32vf103_can.c ****     }
 1221              		.loc 1 582 36
 1222 0094 0D83     		srli	a4,a4,3
 582:./../../firmware/GD32VF103_standard_peripheral/Source/gd32vf103_can.c ****     }
 1223              		.loc 1 582 34
 1224 0096 58C2     		sw	a4,4(a2)
 1225 0098 49B7     		j	.L98
 1226              	.L99:
 605:./../../firmware/GD32VF103_standard_peripheral/Source/gd32vf103_can.c ****     }else{
 606:./../../firmware/GD32VF103_standard_peripheral/Source/gd32vf103_can.c ****         CAN_RFIFO1(can_periph) |= CAN_RFIFO1_RFD1;
GAS LISTING C:\Users\Karzan\AppData\Local\Temp\ccXUorsL.s 			page 36


 1227              		.loc 1 606 9 is_stmt 1
 1228              		.loc 1 606 32 is_stmt 0
 1229 009a 1C49     		lw	a5,16(a0)
 1230 009c 93E70702 		ori	a5,a5,32
 1231 00a0 1CC9     		sw	a5,16(a0)
 607:./../../firmware/GD32VF103_standard_peripheral/Source/gd32vf103_can.c ****     }
 608:./../../firmware/GD32VF103_standard_peripheral/Source/gd32vf103_can.c **** }
 1232              		.loc 1 608 1
 1233 00a2 8280     		ret
 1234              		.cfi_endproc
 1235              	.LFE14:
 1237              		.section	.text.can_fifo_release,"ax",@progbits
 1238              		.align	1
 1239              		.globl	can_fifo_release
 1241              	can_fifo_release:
 1242              	.LFB15:
 609:./../../firmware/GD32VF103_standard_peripheral/Source/gd32vf103_can.c **** 
 610:./../../firmware/GD32VF103_standard_peripheral/Source/gd32vf103_can.c **** /*!
 611:./../../firmware/GD32VF103_standard_peripheral/Source/gd32vf103_can.c ****     \brief      release FIFO0
 612:./../../firmware/GD32VF103_standard_peripheral/Source/gd32vf103_can.c ****     \param[in]  can_periph
 613:./../../firmware/GD32VF103_standard_peripheral/Source/gd32vf103_can.c ****       \arg        CANx(x=0,1)
 614:./../../firmware/GD32VF103_standard_peripheral/Source/gd32vf103_can.c ****     \param[in]  fifo_number
 615:./../../firmware/GD32VF103_standard_peripheral/Source/gd32vf103_can.c ****                 only one parameter can be selected which is shown as below:
 616:./../../firmware/GD32VF103_standard_peripheral/Source/gd32vf103_can.c ****       \arg        CAN_FIFOx(x=0,1)
 617:./../../firmware/GD32VF103_standard_peripheral/Source/gd32vf103_can.c ****     \param[out] none
 618:./../../firmware/GD32VF103_standard_peripheral/Source/gd32vf103_can.c ****     \retval     none
 619:./../../firmware/GD32VF103_standard_peripheral/Source/gd32vf103_can.c **** */
 620:./../../firmware/GD32VF103_standard_peripheral/Source/gd32vf103_can.c **** void can_fifo_release(uint32_t can_periph, uint8_t fifo_number)
 621:./../../firmware/GD32VF103_standard_peripheral/Source/gd32vf103_can.c **** {
 1243              		.loc 1 621 1 is_stmt 1
 1244              		.cfi_startproc
 1245              	.LVL63:
 622:./../../firmware/GD32VF103_standard_peripheral/Source/gd32vf103_can.c ****     if(CAN_FIFO0 == fifo_number){
 1246              		.loc 1 622 5
 1247              		.loc 1 622 7 is_stmt 0
 1248 0000 91E5     		bne	a1,zero,.L102
 623:./../../firmware/GD32VF103_standard_peripheral/Source/gd32vf103_can.c ****         CAN_RFIFO0(can_periph) |= CAN_RFIFO0_RFD0;
 1249              		.loc 1 623 9 is_stmt 1
 1250              		.loc 1 623 32 is_stmt 0
 1251 0002 5C45     		lw	a5,12(a0)
 1252 0004 93E70702 		ori	a5,a5,32
 1253 0008 5CC5     		sw	a5,12(a0)
 1254 000a 8280     		ret
 1255              	.L102:
 624:./../../firmware/GD32VF103_standard_peripheral/Source/gd32vf103_can.c ****     }else if(CAN_FIFO1 == fifo_number){
 1256              		.loc 1 624 11 is_stmt 1
 1257              		.loc 1 624 13 is_stmt 0
 1258 000c 8547     		li	a5,1
 1259 000e 6397F500 		bne	a1,a5,.L104
 625:./../../firmware/GD32VF103_standard_peripheral/Source/gd32vf103_can.c ****         CAN_RFIFO1(can_periph) |= CAN_RFIFO1_RFD1;
 1260              		.loc 1 625 9 is_stmt 1
 1261              		.loc 1 625 32 is_stmt 0
 1262 0012 1C49     		lw	a5,16(a0)
 1263 0014 93E70702 		ori	a5,a5,32
 1264 0018 1CC9     		sw	a5,16(a0)
 626:./../../firmware/GD32VF103_standard_peripheral/Source/gd32vf103_can.c ****     }else{
 627:./../../firmware/GD32VF103_standard_peripheral/Source/gd32vf103_can.c ****         /* illegal parameters */
GAS LISTING C:\Users\Karzan\AppData\Local\Temp\ccXUorsL.s 			page 37


 628:./../../firmware/GD32VF103_standard_peripheral/Source/gd32vf103_can.c ****         CAN_ERROR_HANDLE("CAN FIFO NUM is invalid \r\n");
 629:./../../firmware/GD32VF103_standard_peripheral/Source/gd32vf103_can.c ****     }
 630:./../../firmware/GD32VF103_standard_peripheral/Source/gd32vf103_can.c **** }
 1265              		.loc 1 630 1
 1266 001a 8280     		ret
 1267              	.L104:
 628:./../../firmware/GD32VF103_standard_peripheral/Source/gd32vf103_can.c ****     }
 1268              		.loc 1 628 9 is_stmt 1 discriminator 1
 628:./../../firmware/GD32VF103_standard_peripheral/Source/gd32vf103_can.c ****     }
 1269              		.loc 1 628 9 discriminator 1
 1270 001c 01A0     		j	.L104
 1271              		.cfi_endproc
 1272              	.LFE15:
 1274              		.section	.text.can_receive_message_length_get,"ax",@progbits
 1275              		.align	1
 1276              		.globl	can_receive_message_length_get
 1278              	can_receive_message_length_get:
 1279              	.LFB16:
 631:./../../firmware/GD32VF103_standard_peripheral/Source/gd32vf103_can.c **** 
 632:./../../firmware/GD32VF103_standard_peripheral/Source/gd32vf103_can.c **** /*!
 633:./../../firmware/GD32VF103_standard_peripheral/Source/gd32vf103_can.c ****     \brief      CAN receive message length
 634:./../../firmware/GD32VF103_standard_peripheral/Source/gd32vf103_can.c ****     \param[in]  can_periph
 635:./../../firmware/GD32VF103_standard_peripheral/Source/gd32vf103_can.c ****       \arg        CANx(x=0,1)
 636:./../../firmware/GD32VF103_standard_peripheral/Source/gd32vf103_can.c ****     \param[in]  fifo_number
 637:./../../firmware/GD32VF103_standard_peripheral/Source/gd32vf103_can.c ****                 only one parameter can be selected which is shown as below:
 638:./../../firmware/GD32VF103_standard_peripheral/Source/gd32vf103_can.c ****       \arg        CAN_FIFOx(x=0,1) 
 639:./../../firmware/GD32VF103_standard_peripheral/Source/gd32vf103_can.c ****     \param[out] none
 640:./../../firmware/GD32VF103_standard_peripheral/Source/gd32vf103_can.c ****     \retval     message length
 641:./../../firmware/GD32VF103_standard_peripheral/Source/gd32vf103_can.c **** */
 642:./../../firmware/GD32VF103_standard_peripheral/Source/gd32vf103_can.c **** uint8_t can_receive_message_length_get(uint32_t can_periph, uint8_t fifo_number)
 643:./../../firmware/GD32VF103_standard_peripheral/Source/gd32vf103_can.c **** {
 1280              		.loc 1 643 1
 1281              		.cfi_startproc
 1282              	.LVL64:
 644:./../../firmware/GD32VF103_standard_peripheral/Source/gd32vf103_can.c ****     uint8_t val = 0U;
 1283              		.loc 1 644 5
 645:./../../firmware/GD32VF103_standard_peripheral/Source/gd32vf103_can.c ****     
 646:./../../firmware/GD32VF103_standard_peripheral/Source/gd32vf103_can.c ****     if(CAN_FIFO0 == fifo_number){
 1284              		.loc 1 646 5
 1285              		.loc 1 646 7 is_stmt 0
 1286 0000 89E5     		bne	a1,zero,.L107
 647:./../../firmware/GD32VF103_standard_peripheral/Source/gd32vf103_can.c ****         /* FIFO0 */
 648:./../../firmware/GD32VF103_standard_peripheral/Source/gd32vf103_can.c ****         val = (uint8_t)(CAN_RFIFO0(can_periph) & CAN_RFIF_RFL_MASK);
 1287              		.loc 1 648 9 is_stmt 1
 1288              		.loc 1 648 25 is_stmt 0
 1289 0002 5C45     		lw	a5,12(a0)
 1290              	.L110:
 1291              	.LBB8:
 1292              	.LBB9:
 649:./../../firmware/GD32VF103_standard_peripheral/Source/gd32vf103_can.c ****     }else if(CAN_FIFO1 == fifo_number){
 650:./../../firmware/GD32VF103_standard_peripheral/Source/gd32vf103_can.c ****         /* FIFO1 */
 651:./../../firmware/GD32VF103_standard_peripheral/Source/gd32vf103_can.c ****         val = (uint8_t)(CAN_RFIFO1(can_periph) & CAN_RFIF_RFL_MASK);
 1293              		.loc 1 651 13
 1294 0004 8D8B     		andi	a5,a5,3
 1295              	.LVL65:
 1296              	.L108:
 1297              	.LBE9:
GAS LISTING C:\Users\Karzan\AppData\Local\Temp\ccXUorsL.s 			page 38


 1298              	.LBE8:
 652:./../../firmware/GD32VF103_standard_peripheral/Source/gd32vf103_can.c ****     }else{
 653:./../../firmware/GD32VF103_standard_peripheral/Source/gd32vf103_can.c ****         /* illegal parameters */
 654:./../../firmware/GD32VF103_standard_peripheral/Source/gd32vf103_can.c ****     }
 1299              		.loc 1 654 5 is_stmt 1
 655:./../../firmware/GD32VF103_standard_peripheral/Source/gd32vf103_can.c ****     return val;
 1300              		.loc 1 655 5
 656:./../../firmware/GD32VF103_standard_peripheral/Source/gd32vf103_can.c **** }
 1301              		.loc 1 656 1 is_stmt 0
 1302 0006 3E85     		mv	a0,a5
 1303              	.LVL66:
 1304 0008 8280     		ret
 1305              	.LVL67:
 1306              	.L107:
 1307              	.LBB11:
 1308              	.LBB10:
 649:./../../firmware/GD32VF103_standard_peripheral/Source/gd32vf103_can.c ****         /* FIFO1 */
 1309              		.loc 1 649 11 is_stmt 1
 649:./../../firmware/GD32VF103_standard_peripheral/Source/gd32vf103_can.c ****         /* FIFO1 */
 1310              		.loc 1 649 13 is_stmt 0
 1311 000a 0547     		li	a4,1
 644:./../../firmware/GD32VF103_standard_peripheral/Source/gd32vf103_can.c ****     
 1312              		.loc 1 644 13
 1313 000c 8147     		li	a5,0
 649:./../../firmware/GD32VF103_standard_peripheral/Source/gd32vf103_can.c ****         /* FIFO1 */
 1314              		.loc 1 649 13
 1315 000e E39CE5FE 		bne	a1,a4,.L108
 651:./../../firmware/GD32VF103_standard_peripheral/Source/gd32vf103_can.c ****     }else{
 1316              		.loc 1 651 9 is_stmt 1
 651:./../../firmware/GD32VF103_standard_peripheral/Source/gd32vf103_can.c ****     }else{
 1317              		.loc 1 651 25 is_stmt 0
 1318 0012 1C49     		lw	a5,16(a0)
 1319 0014 C5BF     		j	.L110
 1320              	.LBE10:
 1321              	.LBE11:
 1322              		.cfi_endproc
 1323              	.LFE16:
 1325              		.section	.text.can_working_mode_set,"ax",@progbits
 1326              		.align	1
 1327              		.globl	can_working_mode_set
 1329              	can_working_mode_set:
 1330              	.LFB17:
 657:./../../firmware/GD32VF103_standard_peripheral/Source/gd32vf103_can.c **** 
 658:./../../firmware/GD32VF103_standard_peripheral/Source/gd32vf103_can.c **** /*!
 659:./../../firmware/GD32VF103_standard_peripheral/Source/gd32vf103_can.c ****     \brief      set CAN working mode
 660:./../../firmware/GD32VF103_standard_peripheral/Source/gd32vf103_can.c ****     \param[in]  can_periph
 661:./../../firmware/GD32VF103_standard_peripheral/Source/gd32vf103_can.c ****       \arg        CANx(x=0,1)
 662:./../../firmware/GD32VF103_standard_peripheral/Source/gd32vf103_can.c ****     \param[in]  can_working_mode
 663:./../../firmware/GD32VF103_standard_peripheral/Source/gd32vf103_can.c ****                 only one parameter can be selected which is shown as below:
 664:./../../firmware/GD32VF103_standard_peripheral/Source/gd32vf103_can.c ****       \arg        CAN_MODE_INITIALIZE
 665:./../../firmware/GD32VF103_standard_peripheral/Source/gd32vf103_can.c ****       \arg        CAN_MODE_NORMAL
 666:./../../firmware/GD32VF103_standard_peripheral/Source/gd32vf103_can.c ****       \arg        CAN_MODE_SLEEP
 667:./../../firmware/GD32VF103_standard_peripheral/Source/gd32vf103_can.c ****     \param[out] none
 668:./../../firmware/GD32VF103_standard_peripheral/Source/gd32vf103_can.c ****     \retval     ErrStatus: SUCCESS or ERROR
 669:./../../firmware/GD32VF103_standard_peripheral/Source/gd32vf103_can.c **** */
 670:./../../firmware/GD32VF103_standard_peripheral/Source/gd32vf103_can.c **** ErrStatus can_working_mode_set(uint32_t can_periph, uint8_t working_mode)
 671:./../../firmware/GD32VF103_standard_peripheral/Source/gd32vf103_can.c **** {
GAS LISTING C:\Users\Karzan\AppData\Local\Temp\ccXUorsL.s 			page 39


 1331              		.loc 1 671 1 is_stmt 1
 1332              		.cfi_startproc
 1333              	.LVL68:
 672:./../../firmware/GD32VF103_standard_peripheral/Source/gd32vf103_can.c ****     ErrStatus flag = ERROR;
 1334              		.loc 1 672 5
 673:./../../firmware/GD32VF103_standard_peripheral/Source/gd32vf103_can.c ****     /* timeout for IWS or also for SLPWS bits */
 674:./../../firmware/GD32VF103_standard_peripheral/Source/gd32vf103_can.c ****     uint32_t timeout = CAN_TIMEOUT; 
 1335              		.loc 1 674 5
 675:./../../firmware/GD32VF103_standard_peripheral/Source/gd32vf103_can.c ****     
 676:./../../firmware/GD32VF103_standard_peripheral/Source/gd32vf103_can.c ****     if(CAN_MODE_INITIALIZE == working_mode){
 1336              		.loc 1 676 5
 1337              		.loc 1 676 7 is_stmt 0
 1338 0000 0547     		li	a4,1
 671:./../../firmware/GD32VF103_standard_peripheral/Source/gd32vf103_can.c ****     ErrStatus flag = ERROR;
 1339              		.loc 1 671 1
 1340 0002 AA87     		mv	a5,a0
 1341              		.loc 1 676 7
 1342 0004 6395E502 		bne	a1,a4,.L112
 677:./../../firmware/GD32VF103_standard_peripheral/Source/gd32vf103_can.c ****         /* disable sleep mode */
 678:./../../firmware/GD32VF103_standard_peripheral/Source/gd32vf103_can.c ****         CAN_CTL(can_periph) &= (~(uint32_t)CAN_CTL_SLPWMOD);
 1343              		.loc 1 678 9 is_stmt 1
 1344              		.loc 1 678 29 is_stmt 0
 1345 0008 1841     		lw	a4,0(a0)
 1346 000a 759B     		andi	a4,a4,-3
 1347 000c 18C1     		sw	a4,0(a0)
 679:./../../firmware/GD32VF103_standard_peripheral/Source/gd32vf103_can.c ****         /* set initialize mode */
 680:./../../firmware/GD32VF103_standard_peripheral/Source/gd32vf103_can.c ****         CAN_CTL(can_periph) |= (uint8_t)CAN_CTL_IWMOD;
 1348              		.loc 1 680 9 is_stmt 1
 1349              		.loc 1 680 29 is_stmt 0
 1350 000e 1841     		lw	a4,0(a0)
 1351 0010 13671700 		ori	a4,a4,1
 1352 0014 18C1     		sw	a4,0(a0)
 681:./../../firmware/GD32VF103_standard_peripheral/Source/gd32vf103_can.c ****         /* wait the acknowledge */
 682:./../../firmware/GD32VF103_standard_peripheral/Source/gd32vf103_can.c ****         while((CAN_STAT_IWS != (CAN_STAT(can_periph) & CAN_STAT_IWS)) && (0U != timeout)){
 1353              		.loc 1 682 9 is_stmt 1
 1354              		.loc 1 682 14 is_stmt 0
 1355 0016 4167     		li	a4,65536
 1356              	.LVL69:
 1357              	.L115:
 1358              		.loc 1 682 33
 1359 0018 D443     		lw	a3,4(a5)
 1360 001a 13864700 		addi	a2,a5,4
 1361              		.loc 1 682 54
 1362 001e 858A     		andi	a3,a3,1
 1363              		.loc 1 682 14
 1364 0020 81C6     		beq	a3,zero,.L113
 1365              	.LVL70:
 1366              	.L116:
 683:./../../firmware/GD32VF103_standard_peripheral/Source/gd32vf103_can.c ****             timeout--;
 684:./../../firmware/GD32VF103_standard_peripheral/Source/gd32vf103_can.c ****         }
 685:./../../firmware/GD32VF103_standard_peripheral/Source/gd32vf103_can.c ****         if(CAN_STAT_IWS != (CAN_STAT(can_periph) & CAN_STAT_IWS)){
 1367              		.loc 1 685 9 is_stmt 1
 1368              		.loc 1 685 29 is_stmt 0
 1369 0022 0842     		lw	a0,0(a2)
 1370              	.LVL71:
 1371              	.L128:
 686:./../../firmware/GD32VF103_standard_peripheral/Source/gd32vf103_can.c ****             flag = ERROR;
GAS LISTING C:\Users\Karzan\AppData\Local\Temp\ccXUorsL.s 			page 40


 687:./../../firmware/GD32VF103_standard_peripheral/Source/gd32vf103_can.c ****         }else{
 688:./../../firmware/GD32VF103_standard_peripheral/Source/gd32vf103_can.c ****             flag = SUCCESS;
 689:./../../firmware/GD32VF103_standard_peripheral/Source/gd32vf103_can.c ****         }
 690:./../../firmware/GD32VF103_standard_peripheral/Source/gd32vf103_can.c ****     }else if(CAN_MODE_NORMAL == working_mode){
 691:./../../firmware/GD32VF103_standard_peripheral/Source/gd32vf103_can.c ****         /* enter normal mode */
 692:./../../firmware/GD32VF103_standard_peripheral/Source/gd32vf103_can.c ****         CAN_CTL(can_periph) &= ~(uint32_t)(CAN_CTL_SLPWMOD | CAN_CTL_IWMOD);
 693:./../../firmware/GD32VF103_standard_peripheral/Source/gd32vf103_can.c ****         /* wait the acknowledge */
 694:./../../firmware/GD32VF103_standard_peripheral/Source/gd32vf103_can.c ****         while((0U != (CAN_STAT(can_periph) & (CAN_STAT_IWS | CAN_STAT_SLPWS))) && (0U != timeout)){
 695:./../../firmware/GD32VF103_standard_peripheral/Source/gd32vf103_can.c ****             timeout--;
 696:./../../firmware/GD32VF103_standard_peripheral/Source/gd32vf103_can.c ****         }
 697:./../../firmware/GD32VF103_standard_peripheral/Source/gd32vf103_can.c ****         if(0U != (CAN_STAT(can_periph) & (CAN_STAT_IWS | CAN_STAT_SLPWS))){
 698:./../../firmware/GD32VF103_standard_peripheral/Source/gd32vf103_can.c ****             flag = ERROR;
 699:./../../firmware/GD32VF103_standard_peripheral/Source/gd32vf103_can.c ****         }else{
 700:./../../firmware/GD32VF103_standard_peripheral/Source/gd32vf103_can.c ****             flag = SUCCESS;
 701:./../../firmware/GD32VF103_standard_peripheral/Source/gd32vf103_can.c ****         }
 702:./../../firmware/GD32VF103_standard_peripheral/Source/gd32vf103_can.c ****     }else if(CAN_MODE_SLEEP == working_mode){
 703:./../../firmware/GD32VF103_standard_peripheral/Source/gd32vf103_can.c ****         /* disable initialize mode */
 704:./../../firmware/GD32VF103_standard_peripheral/Source/gd32vf103_can.c ****         CAN_CTL(can_periph) &= (~(uint32_t)CAN_CTL_IWMOD);
 705:./../../firmware/GD32VF103_standard_peripheral/Source/gd32vf103_can.c ****         /* set sleep mode */
 706:./../../firmware/GD32VF103_standard_peripheral/Source/gd32vf103_can.c ****         CAN_CTL(can_periph) |= (uint8_t)CAN_CTL_SLPWMOD;
 707:./../../firmware/GD32VF103_standard_peripheral/Source/gd32vf103_can.c ****         /* wait the acknowledge */
 708:./../../firmware/GD32VF103_standard_peripheral/Source/gd32vf103_can.c ****         while((CAN_STAT_SLPWS != (CAN_STAT(can_periph) & CAN_STAT_SLPWS)) && (0U != timeout)){
 709:./../../firmware/GD32VF103_standard_peripheral/Source/gd32vf103_can.c ****             timeout--;
 710:./../../firmware/GD32VF103_standard_peripheral/Source/gd32vf103_can.c ****         }
 711:./../../firmware/GD32VF103_standard_peripheral/Source/gd32vf103_can.c ****         if(CAN_STAT_SLPWS != (CAN_STAT(can_periph) & CAN_STAT_SLPWS)){
 1372              		.loc 1 711 11
 1373 0024 0589     		andi	a0,a0,1
 1374 0026 8280     		ret
 1375              	.LVL72:
 1376              	.L113:
 1377 0028 7D17     		addi	a4,a4,-1
 1378              	.LVL73:
 682:./../../firmware/GD32VF103_standard_peripheral/Source/gd32vf103_can.c ****             timeout--;
 1379              		.loc 1 682 71 discriminator 1
 1380 002a 7DF7     		bne	a4,zero,.L115
 1381 002c DDBF     		j	.L116
 1382              	.LVL74:
 1383              	.L112:
 690:./../../firmware/GD32VF103_standard_peripheral/Source/gd32vf103_can.c ****         /* enter normal mode */
 1384              		.loc 1 690 11 is_stmt 1
 690:./../../firmware/GD32VF103_standard_peripheral/Source/gd32vf103_can.c ****         /* enter normal mode */
 1385              		.loc 1 690 13 is_stmt 0
 1386 002e 0947     		li	a4,2
 1387 0030 6393E502 		bne	a1,a4,.L117
 692:./../../firmware/GD32VF103_standard_peripheral/Source/gd32vf103_can.c ****         /* wait the acknowledge */
 1388              		.loc 1 692 9 is_stmt 1
 692:./../../firmware/GD32VF103_standard_peripheral/Source/gd32vf103_can.c ****         /* wait the acknowledge */
 1389              		.loc 1 692 29 is_stmt 0
 1390 0034 1841     		lw	a4,0(a0)
 1391 0036 719B     		andi	a4,a4,-4
 1392 0038 18C1     		sw	a4,0(a0)
 694:./../../firmware/GD32VF103_standard_peripheral/Source/gd32vf103_can.c ****             timeout--;
 1393              		.loc 1 694 9 is_stmt 1
 694:./../../firmware/GD32VF103_standard_peripheral/Source/gd32vf103_can.c ****             timeout--;
 1394              		.loc 1 694 14 is_stmt 0
 1395 003a 4167     		li	a4,65536
 1396              	.LVL75:
GAS LISTING C:\Users\Karzan\AppData\Local\Temp\ccXUorsL.s 			page 41


 1397              	.L119:
 694:./../../firmware/GD32VF103_standard_peripheral/Source/gd32vf103_can.c ****             timeout--;
 1398              		.loc 1 694 23
 1399 003c D443     		lw	a3,4(a5)
 1400 003e 13864700 		addi	a2,a5,4
 694:./../../firmware/GD32VF103_standard_peripheral/Source/gd32vf103_can.c ****             timeout--;
 1401              		.loc 1 694 44
 1402 0042 8D8A     		andi	a3,a3,3
 694:./../../firmware/GD32VF103_standard_peripheral/Source/gd32vf103_can.c ****             timeout--;
 1403              		.loc 1 694 14
 1404 0044 91E6     		bne	a3,zero,.L118
 1405              	.LVL76:
 1406              	.L120:
 697:./../../firmware/GD32VF103_standard_peripheral/Source/gd32vf103_can.c ****             flag = ERROR;
 1407              		.loc 1 697 9 is_stmt 1
 697:./../../firmware/GD32VF103_standard_peripheral/Source/gd32vf103_can.c ****             flag = ERROR;
 1408              		.loc 1 697 19 is_stmt 0
 1409 0046 0842     		lw	a0,0(a2)
 1410              	.LVL77:
 697:./../../firmware/GD32VF103_standard_peripheral/Source/gd32vf103_can.c ****             flag = ERROR;
 1411              		.loc 1 697 40
 1412 0048 0D89     		andi	a0,a0,3
 697:./../../firmware/GD32VF103_standard_peripheral/Source/gd32vf103_can.c ****             flag = ERROR;
 1413              		.loc 1 697 11
 1414 004a 13351500 		seqz	a0,a0
 1415 004e 8280     		ret
 1416              	.LVL78:
 1417              	.L118:
 1418 0050 7D17     		addi	a4,a4,-1
 1419              	.LVL79:
 694:./../../firmware/GD32VF103_standard_peripheral/Source/gd32vf103_can.c ****             timeout--;
 1420              		.loc 1 694 80 discriminator 1
 1421 0052 6DF7     		bne	a4,zero,.L119
 1422 0054 CDBF     		j	.L120
 1423              	.LVL80:
 1424              	.L117:
 702:./../../firmware/GD32VF103_standard_peripheral/Source/gd32vf103_can.c ****         /* disable initialize mode */
 1425              		.loc 1 702 11 is_stmt 1
 702:./../../firmware/GD32VF103_standard_peripheral/Source/gd32vf103_can.c ****         /* disable initialize mode */
 1426              		.loc 1 702 13 is_stmt 0
 1427 0056 1147     		li	a4,4
 712:./../../firmware/GD32VF103_standard_peripheral/Source/gd32vf103_can.c ****             flag = ERROR;
 713:./../../firmware/GD32VF103_standard_peripheral/Source/gd32vf103_can.c ****         }else{
 714:./../../firmware/GD32VF103_standard_peripheral/Source/gd32vf103_can.c ****             flag = SUCCESS;
 715:./../../firmware/GD32VF103_standard_peripheral/Source/gd32vf103_can.c ****         }
 716:./../../firmware/GD32VF103_standard_peripheral/Source/gd32vf103_can.c ****     }else{
 717:./../../firmware/GD32VF103_standard_peripheral/Source/gd32vf103_can.c ****         flag = ERROR;
 1428              		.loc 1 717 14
 1429 0058 0145     		li	a0,0
 1430              	.LVL81:
 702:./../../firmware/GD32VF103_standard_peripheral/Source/gd32vf103_can.c ****         /* disable initialize mode */
 1431              		.loc 1 702 13
 1432 005a 6395E502 		bne	a1,a4,.L111
 704:./../../firmware/GD32VF103_standard_peripheral/Source/gd32vf103_can.c ****         /* set sleep mode */
 1433              		.loc 1 704 9 is_stmt 1
 704:./../../firmware/GD32VF103_standard_peripheral/Source/gd32vf103_can.c ****         /* set sleep mode */
 1434              		.loc 1 704 29 is_stmt 0
GAS LISTING C:\Users\Karzan\AppData\Local\Temp\ccXUorsL.s 			page 42


 1435 005e 9843     		lw	a4,0(a5)
 1436 0060 799B     		andi	a4,a4,-2
 1437 0062 98C3     		sw	a4,0(a5)
 706:./../../firmware/GD32VF103_standard_peripheral/Source/gd32vf103_can.c ****         /* wait the acknowledge */
 1438              		.loc 1 706 9 is_stmt 1
 706:./../../firmware/GD32VF103_standard_peripheral/Source/gd32vf103_can.c ****         /* wait the acknowledge */
 1439              		.loc 1 706 29 is_stmt 0
 1440 0064 9843     		lw	a4,0(a5)
 1441 0066 13672700 		ori	a4,a4,2
 1442 006a 98C3     		sw	a4,0(a5)
 708:./../../firmware/GD32VF103_standard_peripheral/Source/gd32vf103_can.c ****             timeout--;
 1443              		.loc 1 708 9 is_stmt 1
 708:./../../firmware/GD32VF103_standard_peripheral/Source/gd32vf103_can.c ****             timeout--;
 1444              		.loc 1 708 14 is_stmt 0
 1445 006c 4167     		li	a4,65536
 1446              	.LVL82:
 1447              	.L122:
 708:./../../firmware/GD32VF103_standard_peripheral/Source/gd32vf103_can.c ****             timeout--;
 1448              		.loc 1 708 35
 1449 006e D443     		lw	a3,4(a5)
 1450 0070 13864700 		addi	a2,a5,4
 708:./../../firmware/GD32VF103_standard_peripheral/Source/gd32vf103_can.c ****             timeout--;
 1451              		.loc 1 708 56
 1452 0074 898A     		andi	a3,a3,2
 708:./../../firmware/GD32VF103_standard_peripheral/Source/gd32vf103_can.c ****             timeout--;
 1453              		.loc 1 708 14
 1454 0076 81C6     		beq	a3,zero,.L121
 1455              	.LVL83:
 1456              	.L123:
 711:./../../firmware/GD32VF103_standard_peripheral/Source/gd32vf103_can.c ****             flag = ERROR;
 1457              		.loc 1 711 9 is_stmt 1
 711:./../../firmware/GD32VF103_standard_peripheral/Source/gd32vf103_can.c ****             flag = ERROR;
 1458              		.loc 1 711 31 is_stmt 0
 1459 0078 0842     		lw	a0,0(a2)
 711:./../../firmware/GD32VF103_standard_peripheral/Source/gd32vf103_can.c ****             flag = ERROR;
 1460              		.loc 1 711 11
 1461 007a 0581     		srli	a0,a0,1
 1462 007c 65B7     		j	.L128
 1463              	.LVL84:
 1464              	.L121:
 1465 007e 7D17     		addi	a4,a4,-1
 1466              	.LVL85:
 708:./../../firmware/GD32VF103_standard_peripheral/Source/gd32vf103_can.c ****             timeout--;
 1467              		.loc 1 708 75 discriminator 1
 1468 0080 7DF7     		bne	a4,zero,.L122
 1469 0082 DDBF     		j	.L123
 1470              	.LVL86:
 1471              	.L111:
 718:./../../firmware/GD32VF103_standard_peripheral/Source/gd32vf103_can.c ****     }
 719:./../../firmware/GD32VF103_standard_peripheral/Source/gd32vf103_can.c ****     return flag;
 720:./../../firmware/GD32VF103_standard_peripheral/Source/gd32vf103_can.c **** }
 1472              		.loc 1 720 1
 1473 0084 8280     		ret
 1474              		.cfi_endproc
 1475              	.LFE17:
 1477              		.section	.text.can_wakeup,"ax",@progbits
 1478              		.align	1
GAS LISTING C:\Users\Karzan\AppData\Local\Temp\ccXUorsL.s 			page 43


 1479              		.globl	can_wakeup
 1481              	can_wakeup:
 1482              	.LFB18:
 721:./../../firmware/GD32VF103_standard_peripheral/Source/gd32vf103_can.c **** 
 722:./../../firmware/GD32VF103_standard_peripheral/Source/gd32vf103_can.c **** /*!
 723:./../../firmware/GD32VF103_standard_peripheral/Source/gd32vf103_can.c ****     \brief      wake up CAN
 724:./../../firmware/GD32VF103_standard_peripheral/Source/gd32vf103_can.c ****     \param[in]  can_periph
 725:./../../firmware/GD32VF103_standard_peripheral/Source/gd32vf103_can.c ****       \arg        CANx(x=0,1)
 726:./../../firmware/GD32VF103_standard_peripheral/Source/gd32vf103_can.c ****     \param[out] none
 727:./../../firmware/GD32VF103_standard_peripheral/Source/gd32vf103_can.c ****     \retval     ErrStatus: SUCCESS or ERROR
 728:./../../firmware/GD32VF103_standard_peripheral/Source/gd32vf103_can.c **** */
 729:./../../firmware/GD32VF103_standard_peripheral/Source/gd32vf103_can.c **** ErrStatus can_wakeup(uint32_t can_periph)
 730:./../../firmware/GD32VF103_standard_peripheral/Source/gd32vf103_can.c **** {
 1483              		.loc 1 730 1 is_stmt 1
 1484              		.cfi_startproc
 1485              	.LVL87:
 731:./../../firmware/GD32VF103_standard_peripheral/Source/gd32vf103_can.c ****     ErrStatus flag = ERROR;
 1486              		.loc 1 731 5
 732:./../../firmware/GD32VF103_standard_peripheral/Source/gd32vf103_can.c ****     uint32_t timeout = CAN_TIMEOUT;
 1487              		.loc 1 732 5
 733:./../../firmware/GD32VF103_standard_peripheral/Source/gd32vf103_can.c ****     
 734:./../../firmware/GD32VF103_standard_peripheral/Source/gd32vf103_can.c ****     /* wakeup */
 735:./../../firmware/GD32VF103_standard_peripheral/Source/gd32vf103_can.c ****     CAN_CTL(can_periph) &= ~CAN_CTL_SLPWMOD;
 1488              		.loc 1 735 5
 1489              		.loc 1 735 25 is_stmt 0
 1490 0000 1C41     		lw	a5,0(a0)
 1491 0002 F59B     		andi	a5,a5,-3
 1492 0004 1CC1     		sw	a5,0(a0)
 736:./../../firmware/GD32VF103_standard_peripheral/Source/gd32vf103_can.c ****     
 737:./../../firmware/GD32VF103_standard_peripheral/Source/gd32vf103_can.c ****     while((0U != (CAN_STAT(can_periph) & CAN_STAT_SLPWS)) && (0x00U != timeout)){
 1493              		.loc 1 737 5 is_stmt 1
 1494              		.loc 1 737 10 is_stmt 0
 1495 0006 C167     		li	a5,65536
 1496              	.LVL88:
 1497              	.L131:
 1498              		.loc 1 737 19
 1499 0008 5841     		lw	a4,4(a0)
 1500 000a 93064500 		addi	a3,a0,4
 1501              		.loc 1 737 40
 1502 000e 098B     		andi	a4,a4,2
 1503              		.loc 1 737 10
 1504 0010 19C3     		beq	a4,zero,.L132
 1505 0012 FD17     		addi	a5,a5,-1
 1506              	.LVL89:
 1507              		.loc 1 737 59 discriminator 1
 1508 0014 F5FB     		bne	a5,zero,.L131
 1509              	.LVL90:
 1510              	.L132:
 738:./../../firmware/GD32VF103_standard_peripheral/Source/gd32vf103_can.c ****         timeout--;
 739:./../../firmware/GD32VF103_standard_peripheral/Source/gd32vf103_can.c ****     }
 740:./../../firmware/GD32VF103_standard_peripheral/Source/gd32vf103_can.c ****     /* check state */
 741:./../../firmware/GD32VF103_standard_peripheral/Source/gd32vf103_can.c ****     if(0U != (CAN_STAT(can_periph) & CAN_STAT_SLPWS)){
 1511              		.loc 1 741 5 is_stmt 1
 1512              		.loc 1 741 15 is_stmt 0
 1513 0016 8842     		lw	a0,0(a3)
 1514              	.LVL91:
 742:./../../firmware/GD32VF103_standard_peripheral/Source/gd32vf103_can.c ****         flag = ERROR;
GAS LISTING C:\Users\Karzan\AppData\Local\Temp\ccXUorsL.s 			page 44


 743:./../../firmware/GD32VF103_standard_peripheral/Source/gd32vf103_can.c ****     }else{
 744:./../../firmware/GD32VF103_standard_peripheral/Source/gd32vf103_can.c ****         flag = SUCCESS;
 745:./../../firmware/GD32VF103_standard_peripheral/Source/gd32vf103_can.c ****     }
 746:./../../firmware/GD32VF103_standard_peripheral/Source/gd32vf103_can.c ****     return flag;
 1515              		.loc 1 746 5 is_stmt 1
 741:./../../firmware/GD32VF103_standard_peripheral/Source/gd32vf103_can.c ****         flag = ERROR;
 1516              		.loc 1 741 7 is_stmt 0
 1517 0018 0581     		srli	a0,a0,1
 1518              	.LVL92:
 1519 001a 13451500 		xori	a0,a0,1
 1520 001e 0589     		andi	a0,a0,1
 747:./../../firmware/GD32VF103_standard_peripheral/Source/gd32vf103_can.c **** }
 1521              		.loc 1 747 1
 1522 0020 8280     		ret
 1523              		.cfi_endproc
 1524              	.LFE18:
 1526              		.section	.text.can_error_get,"ax",@progbits
 1527              		.align	1
 1528              		.globl	can_error_get
 1530              	can_error_get:
 1531              	.LFB19:
 748:./../../firmware/GD32VF103_standard_peripheral/Source/gd32vf103_can.c **** 
 749:./../../firmware/GD32VF103_standard_peripheral/Source/gd32vf103_can.c **** /*!
 750:./../../firmware/GD32VF103_standard_peripheral/Source/gd32vf103_can.c ****     \brief      get CAN error type
 751:./../../firmware/GD32VF103_standard_peripheral/Source/gd32vf103_can.c ****     \param[in]  can_periph
 752:./../../firmware/GD32VF103_standard_peripheral/Source/gd32vf103_can.c ****       \arg        CANx(x=0,1)
 753:./../../firmware/GD32VF103_standard_peripheral/Source/gd32vf103_can.c ****     \param[out] none
 754:./../../firmware/GD32VF103_standard_peripheral/Source/gd32vf103_can.c ****     \retval     can_error_enum
 755:./../../firmware/GD32VF103_standard_peripheral/Source/gd32vf103_can.c ****       \arg        CAN_ERROR_NONE: no error
 756:./../../firmware/GD32VF103_standard_peripheral/Source/gd32vf103_can.c ****       \arg        CAN_ERROR_FILL: fill error
 757:./../../firmware/GD32VF103_standard_peripheral/Source/gd32vf103_can.c ****       \arg        CAN_ERROR_FORMATE: format error
 758:./../../firmware/GD32VF103_standard_peripheral/Source/gd32vf103_can.c ****       \arg        CAN_ERROR_ACK: ACK error
 759:./../../firmware/GD32VF103_standard_peripheral/Source/gd32vf103_can.c ****       \arg        CAN_ERROR_BITRECESSIVE: bit recessive
 760:./../../firmware/GD32VF103_standard_peripheral/Source/gd32vf103_can.c ****       \arg        CAN_ERROR_BITDOMINANTER: bit dominant error
 761:./../../firmware/GD32VF103_standard_peripheral/Source/gd32vf103_can.c ****       \arg        CAN_ERROR_CRC: CRC error
 762:./../../firmware/GD32VF103_standard_peripheral/Source/gd32vf103_can.c ****       \arg        CAN_ERROR_SOFTWARECFG: software configure
 763:./../../firmware/GD32VF103_standard_peripheral/Source/gd32vf103_can.c **** */
 764:./../../firmware/GD32VF103_standard_peripheral/Source/gd32vf103_can.c **** can_error_enum can_error_get(uint32_t can_periph)
 765:./../../firmware/GD32VF103_standard_peripheral/Source/gd32vf103_can.c **** {
 1532              		.loc 1 765 1 is_stmt 1
 1533              		.cfi_startproc
 1534              	.LVL93:
 766:./../../firmware/GD32VF103_standard_peripheral/Source/gd32vf103_can.c ****     can_error_enum error;
 1535              		.loc 1 766 5
 767:./../../firmware/GD32VF103_standard_peripheral/Source/gd32vf103_can.c ****     error = CAN_ERROR_NONE;
 1536              		.loc 1 767 5
 768:./../../firmware/GD32VF103_standard_peripheral/Source/gd32vf103_can.c ****     
 769:./../../firmware/GD32VF103_standard_peripheral/Source/gd32vf103_can.c ****     /* get error type */
 770:./../../firmware/GD32VF103_standard_peripheral/Source/gd32vf103_can.c ****     error = (can_error_enum)(GET_ERR_ERRN(CAN_ERR(can_periph)));
 1537              		.loc 1 770 5
 1538              		.loc 1 770 30 is_stmt 0
 1539 0000 084D     		lw	a0,24(a0)
 1540              	.LVL94:
 771:./../../firmware/GD32VF103_standard_peripheral/Source/gd32vf103_can.c ****     return error;
 1541              		.loc 1 771 5 is_stmt 1
 770:./../../firmware/GD32VF103_standard_peripheral/Source/gd32vf103_can.c ****     return error;
 1542              		.loc 1 770 30 is_stmt 0
GAS LISTING C:\Users\Karzan\AppData\Local\Temp\ccXUorsL.s 			page 45


 1543 0002 1181     		srli	a0,a0,4
 1544              	.LVL95:
 772:./../../firmware/GD32VF103_standard_peripheral/Source/gd32vf103_can.c **** }
 1545              		.loc 1 772 1
 1546 0004 1D89     		andi	a0,a0,7
 1547              	.LVL96:
 1548 0006 8280     		ret
 1549              		.cfi_endproc
 1550              	.LFE19:
 1552              		.section	.text.can_receive_error_number_get,"ax",@progbits
 1553              		.align	1
 1554              		.globl	can_receive_error_number_get
 1556              	can_receive_error_number_get:
 1557              	.LFB20:
 773:./../../firmware/GD32VF103_standard_peripheral/Source/gd32vf103_can.c **** 
 774:./../../firmware/GD32VF103_standard_peripheral/Source/gd32vf103_can.c **** /*!
 775:./../../firmware/GD32VF103_standard_peripheral/Source/gd32vf103_can.c ****     \brief      get CAN receive error number
 776:./../../firmware/GD32VF103_standard_peripheral/Source/gd32vf103_can.c ****     \param[in]  can_periph
 777:./../../firmware/GD32VF103_standard_peripheral/Source/gd32vf103_can.c ****       \arg        CANx(x=0,1)
 778:./../../firmware/GD32VF103_standard_peripheral/Source/gd32vf103_can.c ****     \param[out] none
 779:./../../firmware/GD32VF103_standard_peripheral/Source/gd32vf103_can.c ****     \retval     error number
 780:./../../firmware/GD32VF103_standard_peripheral/Source/gd32vf103_can.c **** */
 781:./../../firmware/GD32VF103_standard_peripheral/Source/gd32vf103_can.c **** uint8_t can_receive_error_number_get(uint32_t can_periph)
 782:./../../firmware/GD32VF103_standard_peripheral/Source/gd32vf103_can.c **** {
 1558              		.loc 1 782 1 is_stmt 1
 1559              		.cfi_startproc
 1560              	.LVL97:
 783:./../../firmware/GD32VF103_standard_peripheral/Source/gd32vf103_can.c ****     uint8_t val;
 1561              		.loc 1 783 5
 784:./../../firmware/GD32VF103_standard_peripheral/Source/gd32vf103_can.c ****     
 785:./../../firmware/GD32VF103_standard_peripheral/Source/gd32vf103_can.c ****     /* get error count */
 786:./../../firmware/GD32VF103_standard_peripheral/Source/gd32vf103_can.c ****     val = (uint8_t)(GET_ERR_RECNT(CAN_ERR(can_periph)));
 1562              		.loc 1 786 5
 1563              		.loc 1 786 21 is_stmt 0
 1564 0000 084D     		lw	a0,24(a0)
 1565              	.LVL98:
 787:./../../firmware/GD32VF103_standard_peripheral/Source/gd32vf103_can.c ****     return val;
 1566              		.loc 1 787 5 is_stmt 1
 788:./../../firmware/GD32VF103_standard_peripheral/Source/gd32vf103_can.c **** }
 1567              		.loc 1 788 1 is_stmt 0
 1568 0002 6181     		srli	a0,a0,24
 1569              	.LVL99:
 1570 0004 8280     		ret
 1571              		.cfi_endproc
 1572              	.LFE20:
 1574              		.section	.text.can_transmit_error_number_get,"ax",@progbits
 1575              		.align	1
 1576              		.globl	can_transmit_error_number_get
 1578              	can_transmit_error_number_get:
 1579              	.LFB21:
 789:./../../firmware/GD32VF103_standard_peripheral/Source/gd32vf103_can.c **** 
 790:./../../firmware/GD32VF103_standard_peripheral/Source/gd32vf103_can.c **** /*!
 791:./../../firmware/GD32VF103_standard_peripheral/Source/gd32vf103_can.c ****     \brief      get CAN transmit error number
 792:./../../firmware/GD32VF103_standard_peripheral/Source/gd32vf103_can.c ****     \param[in]  can_periph
 793:./../../firmware/GD32VF103_standard_peripheral/Source/gd32vf103_can.c ****       \arg        CANx(x=0,1)
 794:./../../firmware/GD32VF103_standard_peripheral/Source/gd32vf103_can.c ****     \param[out] none
 795:./../../firmware/GD32VF103_standard_peripheral/Source/gd32vf103_can.c ****     \retval     error number
GAS LISTING C:\Users\Karzan\AppData\Local\Temp\ccXUorsL.s 			page 46


 796:./../../firmware/GD32VF103_standard_peripheral/Source/gd32vf103_can.c **** */
 797:./../../firmware/GD32VF103_standard_peripheral/Source/gd32vf103_can.c **** uint8_t can_transmit_error_number_get(uint32_t can_periph)
 798:./../../firmware/GD32VF103_standard_peripheral/Source/gd32vf103_can.c **** {
 1580              		.loc 1 798 1 is_stmt 1
 1581              		.cfi_startproc
 1582              	.LVL100:
 799:./../../firmware/GD32VF103_standard_peripheral/Source/gd32vf103_can.c ****     uint8_t val;
 1583              		.loc 1 799 5
 800:./../../firmware/GD32VF103_standard_peripheral/Source/gd32vf103_can.c ****     
 801:./../../firmware/GD32VF103_standard_peripheral/Source/gd32vf103_can.c ****     val = (uint8_t)(GET_ERR_TECNT(CAN_ERR(can_periph)));
 1584              		.loc 1 801 5
 1585              		.loc 1 801 21 is_stmt 0
 1586 0000 084D     		lw	a0,24(a0)
 1587              	.LVL101:
 802:./../../firmware/GD32VF103_standard_peripheral/Source/gd32vf103_can.c ****     return val;
 1588              		.loc 1 802 5 is_stmt 1
 801:./../../firmware/GD32VF103_standard_peripheral/Source/gd32vf103_can.c ****     return val;
 1589              		.loc 1 801 21 is_stmt 0
 1590 0002 4181     		srli	a0,a0,16
 1591              	.LVL102:
 803:./../../firmware/GD32VF103_standard_peripheral/Source/gd32vf103_can.c **** }
 1592              		.loc 1 803 1
 1593 0004 1375F50F 		andi	a0,a0,0xff
 1594 0008 8280     		ret
 1595              		.cfi_endproc
 1596              	.LFE21:
 1598              		.section	.text.can_interrupt_enable,"ax",@progbits
 1599              		.align	1
 1600              		.globl	can_interrupt_enable
 1602              	can_interrupt_enable:
 1603              	.LFB22:
 804:./../../firmware/GD32VF103_standard_peripheral/Source/gd32vf103_can.c **** 
 805:./../../firmware/GD32VF103_standard_peripheral/Source/gd32vf103_can.c **** /*!
 806:./../../firmware/GD32VF103_standard_peripheral/Source/gd32vf103_can.c ****     \brief      enable CAN interrupt 
 807:./../../firmware/GD32VF103_standard_peripheral/Source/gd32vf103_can.c ****     \param[in]  can_periph
 808:./../../firmware/GD32VF103_standard_peripheral/Source/gd32vf103_can.c ****       \arg        CANx(x=0,1)
 809:./../../firmware/GD32VF103_standard_peripheral/Source/gd32vf103_can.c ****     \param[in]  interrupt 
 810:./../../firmware/GD32VF103_standard_peripheral/Source/gd32vf103_can.c ****                 one or more parameters can be selected which are shown as below:
 811:./../../firmware/GD32VF103_standard_peripheral/Source/gd32vf103_can.c ****       \arg        CAN_INT_TME: transmit mailbox empty interrupt enable
 812:./../../firmware/GD32VF103_standard_peripheral/Source/gd32vf103_can.c ****       \arg        CAN_INT_RFNE0: receive FIFO0 not empty interrupt enable
 813:./../../firmware/GD32VF103_standard_peripheral/Source/gd32vf103_can.c ****       \arg        CAN_INT_RFF0: receive FIFO0 full interrupt enable
 814:./../../firmware/GD32VF103_standard_peripheral/Source/gd32vf103_can.c ****       \arg        CAN_INT_RFO0: receive FIFO0 overfull interrupt enable
 815:./../../firmware/GD32VF103_standard_peripheral/Source/gd32vf103_can.c ****       \arg        CAN_INT_RFNE1: receive FIFO1 not empty interrupt enable
 816:./../../firmware/GD32VF103_standard_peripheral/Source/gd32vf103_can.c ****       \arg        CAN_INT_RFF1: receive FIFO1 full interrupt enable
 817:./../../firmware/GD32VF103_standard_peripheral/Source/gd32vf103_can.c ****       \arg        CAN_INT_RFO1: receive FIFO1 overfull interrupt enable
 818:./../../firmware/GD32VF103_standard_peripheral/Source/gd32vf103_can.c ****       \arg        CAN_INT_WERR: warning error interrupt enable
 819:./../../firmware/GD32VF103_standard_peripheral/Source/gd32vf103_can.c ****       \arg        CAN_INT_PERR: passive error interrupt enable
 820:./../../firmware/GD32VF103_standard_peripheral/Source/gd32vf103_can.c ****       \arg        CAN_INT_BO: bus-off interrupt enable
 821:./../../firmware/GD32VF103_standard_peripheral/Source/gd32vf103_can.c ****       \arg        CAN_INT_ERRN: error number interrupt enable
 822:./../../firmware/GD32VF103_standard_peripheral/Source/gd32vf103_can.c ****       \arg        CAN_INT_ERR: error interrupt enable
 823:./../../firmware/GD32VF103_standard_peripheral/Source/gd32vf103_can.c ****       \arg        CAN_INT_WU: wakeup interrupt enable
 824:./../../firmware/GD32VF103_standard_peripheral/Source/gd32vf103_can.c ****       \arg        CAN_INT_SLPW: sleep working interrupt enable
 825:./../../firmware/GD32VF103_standard_peripheral/Source/gd32vf103_can.c ****     \param[out] none
 826:./../../firmware/GD32VF103_standard_peripheral/Source/gd32vf103_can.c ****     \retval     none
 827:./../../firmware/GD32VF103_standard_peripheral/Source/gd32vf103_can.c **** */
 828:./../../firmware/GD32VF103_standard_peripheral/Source/gd32vf103_can.c **** void can_interrupt_enable(uint32_t can_periph, uint32_t interrupt)
 829:./../../firmware/GD32VF103_standard_peripheral/Source/gd32vf103_can.c **** {
GAS LISTING C:\Users\Karzan\AppData\Local\Temp\ccXUorsL.s 			page 47


 1604              		.loc 1 829 1 is_stmt 1
 1605              		.cfi_startproc
 1606              	.LVL103:
 830:./../../firmware/GD32VF103_standard_peripheral/Source/gd32vf103_can.c ****     CAN_INTEN(can_periph) |= interrupt;
 1607              		.loc 1 830 5
 1608              		.loc 1 830 27 is_stmt 0
 1609 0000 5C49     		lw	a5,20(a0)
 1610 0002 DD8D     		or	a1,a5,a1
 1611              	.LVL104:
 1612 0004 4CC9     		sw	a1,20(a0)
 831:./../../firmware/GD32VF103_standard_peripheral/Source/gd32vf103_can.c **** }
 1613              		.loc 1 831 1
 1614 0006 8280     		ret
 1615              		.cfi_endproc
 1616              	.LFE22:
 1618              		.section	.text.can_interrupt_disable,"ax",@progbits
 1619              		.align	1
 1620              		.globl	can_interrupt_disable
 1622              	can_interrupt_disable:
 1623              	.LFB23:
 832:./../../firmware/GD32VF103_standard_peripheral/Source/gd32vf103_can.c **** 
 833:./../../firmware/GD32VF103_standard_peripheral/Source/gd32vf103_can.c **** /*!
 834:./../../firmware/GD32VF103_standard_peripheral/Source/gd32vf103_can.c ****     \brief      disable CAN interrupt 
 835:./../../firmware/GD32VF103_standard_peripheral/Source/gd32vf103_can.c ****     \param[in]  can_periph
 836:./../../firmware/GD32VF103_standard_peripheral/Source/gd32vf103_can.c ****       \arg        CANx(x=0,1)
 837:./../../firmware/GD32VF103_standard_peripheral/Source/gd32vf103_can.c ****     \param[in]  interrupt
 838:./../../firmware/GD32VF103_standard_peripheral/Source/gd32vf103_can.c ****                 one or more parameters can be selected which are shown as below:
 839:./../../firmware/GD32VF103_standard_peripheral/Source/gd32vf103_can.c ****       \arg        CAN_INT_TME: transmit mailbox empty interrupt enable
 840:./../../firmware/GD32VF103_standard_peripheral/Source/gd32vf103_can.c ****       \arg        CAN_INT_RFNE0: receive FIFO0 not empty interrupt enable
 841:./../../firmware/GD32VF103_standard_peripheral/Source/gd32vf103_can.c ****       \arg        CAN_INT_RFF0: receive FIFO0 full interrupt enable
 842:./../../firmware/GD32VF103_standard_peripheral/Source/gd32vf103_can.c ****       \arg        CAN_INT_RFO0: receive FIFO0 overfull interrupt enable
 843:./../../firmware/GD32VF103_standard_peripheral/Source/gd32vf103_can.c ****       \arg        CAN_INT_RFNE1: receive FIFO1 not empty interrupt enable
 844:./../../firmware/GD32VF103_standard_peripheral/Source/gd32vf103_can.c ****       \arg        CAN_INT_RFF1: receive FIFO1 full interrupt enable
 845:./../../firmware/GD32VF103_standard_peripheral/Source/gd32vf103_can.c ****       \arg        CAN_INT_RFO1: receive FIFO1 overfull interrupt enable
 846:./../../firmware/GD32VF103_standard_peripheral/Source/gd32vf103_can.c ****       \arg        CAN_INT_WERR: warning error interrupt enable
 847:./../../firmware/GD32VF103_standard_peripheral/Source/gd32vf103_can.c ****       \arg        CAN_INT_PERR: passive error interrupt enable
 848:./../../firmware/GD32VF103_standard_peripheral/Source/gd32vf103_can.c ****       \arg        CAN_INT_BO: bus-off interrupt enable
 849:./../../firmware/GD32VF103_standard_peripheral/Source/gd32vf103_can.c ****       \arg        CAN_INT_ERRN: error number interrupt enable
 850:./../../firmware/GD32VF103_standard_peripheral/Source/gd32vf103_can.c ****       \arg        CAN_INT_ERR: error interrupt enable
 851:./../../firmware/GD32VF103_standard_peripheral/Source/gd32vf103_can.c ****       \arg        CAN_INT_WU: wakeup interrupt enable
 852:./../../firmware/GD32VF103_standard_peripheral/Source/gd32vf103_can.c ****       \arg        CAN_INT_SLPW: sleep working interrupt enable
 853:./../../firmware/GD32VF103_standard_peripheral/Source/gd32vf103_can.c ****     \param[out] none
 854:./../../firmware/GD32VF103_standard_peripheral/Source/gd32vf103_can.c ****     \retval     none
 855:./../../firmware/GD32VF103_standard_peripheral/Source/gd32vf103_can.c **** */
 856:./../../firmware/GD32VF103_standard_peripheral/Source/gd32vf103_can.c **** void can_interrupt_disable(uint32_t can_periph, uint32_t interrupt)
 857:./../../firmware/GD32VF103_standard_peripheral/Source/gd32vf103_can.c **** {
 1624              		.loc 1 857 1 is_stmt 1
 1625              		.cfi_startproc
 1626              	.LVL105:
 858:./../../firmware/GD32VF103_standard_peripheral/Source/gd32vf103_can.c ****     CAN_INTEN(can_periph) &= ~interrupt;
 1627              		.loc 1 858 5
 1628              		.loc 1 858 27 is_stmt 0
 1629 0000 5C49     		lw	a5,20(a0)
 1630              		.loc 1 858 30
 1631 0002 93C5F5FF 		not	a1,a1
 1632              	.LVL106:
 1633              		.loc 1 858 27
GAS LISTING C:\Users\Karzan\AppData\Local\Temp\ccXUorsL.s 			page 48


 1634 0006 FD8D     		and	a1,a1,a5
 1635              	.LVL107:
 1636 0008 4CC9     		sw	a1,20(a0)
 859:./../../firmware/GD32VF103_standard_peripheral/Source/gd32vf103_can.c **** }
 1637              		.loc 1 859 1
 1638 000a 8280     		ret
 1639              		.cfi_endproc
 1640              	.LFE23:
 1642              		.section	.text.can_flag_get,"ax",@progbits
 1643              		.align	1
 1644              		.globl	can_flag_get
 1646              	can_flag_get:
 1647              	.LFB24:
 860:./../../firmware/GD32VF103_standard_peripheral/Source/gd32vf103_can.c **** 
 861:./../../firmware/GD32VF103_standard_peripheral/Source/gd32vf103_can.c **** /*!
 862:./../../firmware/GD32VF103_standard_peripheral/Source/gd32vf103_can.c ****     \brief      get CAN flag state
 863:./../../firmware/GD32VF103_standard_peripheral/Source/gd32vf103_can.c ****     \param[in]  can_periph
 864:./../../firmware/GD32VF103_standard_peripheral/Source/gd32vf103_can.c ****       \arg        CANx(x=0,1)
 865:./../../firmware/GD32VF103_standard_peripheral/Source/gd32vf103_can.c ****     \param[in]  flag: CAN flags, refer to can_flag_enum
 866:./../../firmware/GD32VF103_standard_peripheral/Source/gd32vf103_can.c ****                 only one parameter can be selected which is shown as below:
 867:./../../firmware/GD32VF103_standard_peripheral/Source/gd32vf103_can.c ****       \arg        CAN_FLAG_RXL: RX level
 868:./../../firmware/GD32VF103_standard_peripheral/Source/gd32vf103_can.c ****       \arg        CAN_FLAG_LASTRX: last sample value of RX pin
 869:./../../firmware/GD32VF103_standard_peripheral/Source/gd32vf103_can.c ****       \arg        CAN_FLAG_RS: receiving state
 870:./../../firmware/GD32VF103_standard_peripheral/Source/gd32vf103_can.c ****       \arg        CAN_FLAG_TS: transmitting state
 871:./../../firmware/GD32VF103_standard_peripheral/Source/gd32vf103_can.c ****       \arg        CAN_FLAG_SLPIF: status change flag of entering sleep working mode
 872:./../../firmware/GD32VF103_standard_peripheral/Source/gd32vf103_can.c ****       \arg        CAN_FLAG_WUIF: status change flag of wakeup from sleep working mode
 873:./../../firmware/GD32VF103_standard_peripheral/Source/gd32vf103_can.c ****       \arg        CAN_FLAG_ERRIF: error flag
 874:./../../firmware/GD32VF103_standard_peripheral/Source/gd32vf103_can.c ****       \arg        CAN_FLAG_SLPWS: sleep working state
 875:./../../firmware/GD32VF103_standard_peripheral/Source/gd32vf103_can.c ****       \arg        CAN_FLAG_IWS: initial working state
 876:./../../firmware/GD32VF103_standard_peripheral/Source/gd32vf103_can.c ****       \arg        CAN_FLAG_TMLS2: transmit mailbox 2 last sending in Tx FIFO
 877:./../../firmware/GD32VF103_standard_peripheral/Source/gd32vf103_can.c ****       \arg        CAN_FLAG_TMLS1: transmit mailbox 1 last sending in Tx FIFO
 878:./../../firmware/GD32VF103_standard_peripheral/Source/gd32vf103_can.c ****       \arg        CAN_FLAG_TMLS0: transmit mailbox 0 last sending in Tx FIFO
 879:./../../firmware/GD32VF103_standard_peripheral/Source/gd32vf103_can.c ****       \arg        CAN_FLAG_TME2: transmit mailbox 2 empty
 880:./../../firmware/GD32VF103_standard_peripheral/Source/gd32vf103_can.c ****       \arg        CAN_FLAG_TME1: transmit mailbox 1 empty
 881:./../../firmware/GD32VF103_standard_peripheral/Source/gd32vf103_can.c ****       \arg        CAN_FLAG_TME0: transmit mailbox 0 empty
 882:./../../firmware/GD32VF103_standard_peripheral/Source/gd32vf103_can.c ****       \arg        CAN_FLAG_MTE2: mailbox 2 transmit error
 883:./../../firmware/GD32VF103_standard_peripheral/Source/gd32vf103_can.c ****       \arg        CAN_FLAG_MTE1: mailbox 1 transmit error
 884:./../../firmware/GD32VF103_standard_peripheral/Source/gd32vf103_can.c ****       \arg        CAN_FLAG_MTE0: mailbox 0 transmit error
 885:./../../firmware/GD32VF103_standard_peripheral/Source/gd32vf103_can.c ****       \arg        CAN_FLAG_MAL2: mailbox 2 arbitration lost
 886:./../../firmware/GD32VF103_standard_peripheral/Source/gd32vf103_can.c ****       \arg        CAN_FLAG_MAL1: mailbox 1 arbitration lost
 887:./../../firmware/GD32VF103_standard_peripheral/Source/gd32vf103_can.c ****       \arg        CAN_FLAG_MAL0: mailbox 0 arbitration lost
 888:./../../firmware/GD32VF103_standard_peripheral/Source/gd32vf103_can.c ****       \arg        CAN_FLAG_MTFNERR2: mailbox 2 transmit finished with no error
 889:./../../firmware/GD32VF103_standard_peripheral/Source/gd32vf103_can.c ****       \arg        CAN_FLAG_MTFNERR1: mailbox 1 transmit finished with no error
 890:./../../firmware/GD32VF103_standard_peripheral/Source/gd32vf103_can.c ****       \arg        CAN_FLAG_MTFNERR0: mailbox 0 transmit finished with no error
 891:./../../firmware/GD32VF103_standard_peripheral/Source/gd32vf103_can.c ****       \arg        CAN_FLAG_MTF2: mailbox 2 transmit finished
 892:./../../firmware/GD32VF103_standard_peripheral/Source/gd32vf103_can.c ****       \arg        CAN_FLAG_MTF1: mailbox 1 transmit finished
 893:./../../firmware/GD32VF103_standard_peripheral/Source/gd32vf103_can.c ****       \arg        CAN_FLAG_MTF0: mailbox 0 transmit finished
 894:./../../firmware/GD32VF103_standard_peripheral/Source/gd32vf103_can.c ****       \arg        CAN_FLAG_RFO0: receive FIFO0 overfull
 895:./../../firmware/GD32VF103_standard_peripheral/Source/gd32vf103_can.c ****       \arg        CAN_FLAG_RFF0: receive FIFO0 full
 896:./../../firmware/GD32VF103_standard_peripheral/Source/gd32vf103_can.c ****       \arg        CAN_FLAG_RFO1: receive FIFO1 overfull
 897:./../../firmware/GD32VF103_standard_peripheral/Source/gd32vf103_can.c ****       \arg        CAN_FLAG_RFF1: receive FIFO1 full
 898:./../../firmware/GD32VF103_standard_peripheral/Source/gd32vf103_can.c ****       \arg        CAN_FLAG_BOERR: bus-off error
 899:./../../firmware/GD32VF103_standard_peripheral/Source/gd32vf103_can.c ****       \arg        CAN_FLAG_PERR: passive error
 900:./../../firmware/GD32VF103_standard_peripheral/Source/gd32vf103_can.c ****       \arg        CAN_FLAG_WERR: warning error
 901:./../../firmware/GD32VF103_standard_peripheral/Source/gd32vf103_can.c ****     \param[out] none
 902:./../../firmware/GD32VF103_standard_peripheral/Source/gd32vf103_can.c ****     \retval     FlagStatus: SET or RESET
 903:./../../firmware/GD32VF103_standard_peripheral/Source/gd32vf103_can.c **** */
GAS LISTING C:\Users\Karzan\AppData\Local\Temp\ccXUorsL.s 			page 49


 904:./../../firmware/GD32VF103_standard_peripheral/Source/gd32vf103_can.c **** FlagStatus can_flag_get(uint32_t can_periph, can_flag_enum flag)
 905:./../../firmware/GD32VF103_standard_peripheral/Source/gd32vf103_can.c **** {  
 1648              		.loc 1 905 1 is_stmt 1
 1649              		.cfi_startproc
 1650              	.LVL108:
 906:./../../firmware/GD32VF103_standard_peripheral/Source/gd32vf103_can.c ****     /* get flag and interrupt enable state */
 907:./../../firmware/GD32VF103_standard_peripheral/Source/gd32vf103_can.c ****     if(RESET != (CAN_REG_VAL(can_periph, flag) & BIT(CAN_BIT_POS(flag)))){
 1651              		.loc 1 907 5
 1652              		.loc 1 907 18 is_stmt 0
 1653 0000 93D76500 		srli	a5,a1,6
 1654 0004 3E95     		add	a0,a5,a0
 1655              	.LVL109:
 1656 0006 0841     		lw	a0,0(a0)
 1657              		.loc 1 907 14
 1658 0008 3355B500 		srl	a0,a0,a1
 908:./../../firmware/GD32VF103_standard_peripheral/Source/gd32vf103_can.c ****         return SET;
 909:./../../firmware/GD32VF103_standard_peripheral/Source/gd32vf103_can.c ****     }else{
 910:./../../firmware/GD32VF103_standard_peripheral/Source/gd32vf103_can.c ****         return RESET;
 911:./../../firmware/GD32VF103_standard_peripheral/Source/gd32vf103_can.c ****     }
 912:./../../firmware/GD32VF103_standard_peripheral/Source/gd32vf103_can.c **** }
 1659              		.loc 1 912 1
 1660 000c 0589     		andi	a0,a0,1
 1661 000e 8280     		ret
 1662              		.cfi_endproc
 1663              	.LFE24:
 1665              		.section	.text.can_flag_clear,"ax",@progbits
 1666              		.align	1
 1667              		.globl	can_flag_clear
 1669              	can_flag_clear:
 1670              	.LFB25:
 913:./../../firmware/GD32VF103_standard_peripheral/Source/gd32vf103_can.c **** 
 914:./../../firmware/GD32VF103_standard_peripheral/Source/gd32vf103_can.c **** /*!
 915:./../../firmware/GD32VF103_standard_peripheral/Source/gd32vf103_can.c ****     \brief      clear CAN flag state
 916:./../../firmware/GD32VF103_standard_peripheral/Source/gd32vf103_can.c ****     \param[in]  can_periph
 917:./../../firmware/GD32VF103_standard_peripheral/Source/gd32vf103_can.c ****       \arg        CANx(x=0,1)
 918:./../../firmware/GD32VF103_standard_peripheral/Source/gd32vf103_can.c ****     \param[in]  flag: CAN flags, refer to can_flag_enum
 919:./../../firmware/GD32VF103_standard_peripheral/Source/gd32vf103_can.c ****                 only one parameter can be selected which is shown as below:
 920:./../../firmware/GD32VF103_standard_peripheral/Source/gd32vf103_can.c ****       \arg        CAN_FLAG_SLPIF: status change flag of entering sleep working mode
 921:./../../firmware/GD32VF103_standard_peripheral/Source/gd32vf103_can.c ****       \arg        CAN_FLAG_WUIF: status change flag of wakeup from sleep working mode
 922:./../../firmware/GD32VF103_standard_peripheral/Source/gd32vf103_can.c ****       \arg        CAN_FLAG_ERRIF: error flag
 923:./../../firmware/GD32VF103_standard_peripheral/Source/gd32vf103_can.c ****       \arg        CAN_FLAG_MTE2: mailbox 2 transmit error
 924:./../../firmware/GD32VF103_standard_peripheral/Source/gd32vf103_can.c ****       \arg        CAN_FLAG_MTE1: mailbox 1 transmit error
 925:./../../firmware/GD32VF103_standard_peripheral/Source/gd32vf103_can.c ****       \arg        CAN_FLAG_MTE0: mailbox 0 transmit error
 926:./../../firmware/GD32VF103_standard_peripheral/Source/gd32vf103_can.c ****       \arg        CAN_FLAG_MAL2: mailbox 2 arbitration lost
 927:./../../firmware/GD32VF103_standard_peripheral/Source/gd32vf103_can.c ****       \arg        CAN_FLAG_MAL1: mailbox 1 arbitration lost
 928:./../../firmware/GD32VF103_standard_peripheral/Source/gd32vf103_can.c ****       \arg        CAN_FLAG_MAL0: mailbox 0 arbitration lost
 929:./../../firmware/GD32VF103_standard_peripheral/Source/gd32vf103_can.c ****       \arg        CAN_FLAG_MTFNERR2: mailbox 2 transmit finished with no error
 930:./../../firmware/GD32VF103_standard_peripheral/Source/gd32vf103_can.c ****       \arg        CAN_FLAG_MTFNERR1: mailbox 1 transmit finished with no error
 931:./../../firmware/GD32VF103_standard_peripheral/Source/gd32vf103_can.c ****       \arg        CAN_FLAG_MTFNERR0: mailbox 0 transmit finished with no error
 932:./../../firmware/GD32VF103_standard_peripheral/Source/gd32vf103_can.c ****       \arg        CAN_FLAG_MTF2: mailbox 2 transmit finished
 933:./../../firmware/GD32VF103_standard_peripheral/Source/gd32vf103_can.c ****       \arg        CAN_FLAG_MTF1: mailbox 1 transmit finished
 934:./../../firmware/GD32VF103_standard_peripheral/Source/gd32vf103_can.c ****       \arg        CAN_FLAG_MTF0: mailbox 0 transmit finished
 935:./../../firmware/GD32VF103_standard_peripheral/Source/gd32vf103_can.c ****       \arg        CAN_FLAG_RFO0: receive FIFO0 overfull
 936:./../../firmware/GD32VF103_standard_peripheral/Source/gd32vf103_can.c ****       \arg        CAN_FLAG_RFF0: receive FIFO0 full
 937:./../../firmware/GD32VF103_standard_peripheral/Source/gd32vf103_can.c ****       \arg        CAN_FLAG_RFO1: receive FIFO1 overfull
 938:./../../firmware/GD32VF103_standard_peripheral/Source/gd32vf103_can.c ****       \arg        CAN_FLAG_RFF1: receive FIFO1 full
 939:./../../firmware/GD32VF103_standard_peripheral/Source/gd32vf103_can.c ****     \param[out] none
GAS LISTING C:\Users\Karzan\AppData\Local\Temp\ccXUorsL.s 			page 50


 940:./../../firmware/GD32VF103_standard_peripheral/Source/gd32vf103_can.c ****     \retval     none
 941:./../../firmware/GD32VF103_standard_peripheral/Source/gd32vf103_can.c **** */
 942:./../../firmware/GD32VF103_standard_peripheral/Source/gd32vf103_can.c **** void can_flag_clear(uint32_t can_periph, can_flag_enum flag)
 943:./../../firmware/GD32VF103_standard_peripheral/Source/gd32vf103_can.c **** {
 1671              		.loc 1 943 1 is_stmt 1
 1672              		.cfi_startproc
 1673              	.LVL110:
 944:./../../firmware/GD32VF103_standard_peripheral/Source/gd32vf103_can.c ****     CAN_REG_VAL(can_periph, flag) = BIT(CAN_BIT_POS(flag));
 1674              		.loc 1 944 5
 1675 0000 93D76500 		srli	a5,a1,6
 1676 0004 3E95     		add	a0,a5,a0
 1677              	.LVL111:
 1678              		.loc 1 944 37 is_stmt 0
 1679 0006 8547     		li	a5,1
 1680 0008 B397B700 		sll	a5,a5,a1
 1681              		.loc 1 944 35
 1682 000c 1CC1     		sw	a5,0(a0)
 945:./../../firmware/GD32VF103_standard_peripheral/Source/gd32vf103_can.c **** }
 1683              		.loc 1 945 1
 1684 000e 8280     		ret
 1685              		.cfi_endproc
 1686              	.LFE25:
 1688              		.section	.text.can_interrupt_flag_get,"ax",@progbits
 1689              		.align	1
 1690              		.globl	can_interrupt_flag_get
 1692              	can_interrupt_flag_get:
 1693              	.LFB26:
 946:./../../firmware/GD32VF103_standard_peripheral/Source/gd32vf103_can.c **** 
 947:./../../firmware/GD32VF103_standard_peripheral/Source/gd32vf103_can.c **** /*!
 948:./../../firmware/GD32VF103_standard_peripheral/Source/gd32vf103_can.c ****     \brief      get CAN interrupt flag state
 949:./../../firmware/GD32VF103_standard_peripheral/Source/gd32vf103_can.c ****     \param[in]  can_periph
 950:./../../firmware/GD32VF103_standard_peripheral/Source/gd32vf103_can.c ****       \arg        CANx(x=0,1)
 951:./../../firmware/GD32VF103_standard_peripheral/Source/gd32vf103_can.c ****     \param[in]  flag: CAN interrupt flags, refer to can_interrupt_flag_enum
 952:./../../firmware/GD32VF103_standard_peripheral/Source/gd32vf103_can.c ****                 only one parameter can be selected which is shown as below:
 953:./../../firmware/GD32VF103_standard_peripheral/Source/gd32vf103_can.c ****       \arg        CAN_INT_FLAG_SLPIF: status change interrupt flag of sleep working mode entering
 954:./../../firmware/GD32VF103_standard_peripheral/Source/gd32vf103_can.c ****       \arg        CAN_INT_FLAG_WUIF: status change interrupt flag of wakeup from sleep working mode
 955:./../../firmware/GD32VF103_standard_peripheral/Source/gd32vf103_can.c ****       \arg        CAN_INT_FLAG_ERRIF: error interrupt flag
 956:./../../firmware/GD32VF103_standard_peripheral/Source/gd32vf103_can.c ****       \arg        CAN_INT_FLAG_MTF2: mailbox 2 transmit finished interrupt flag
 957:./../../firmware/GD32VF103_standard_peripheral/Source/gd32vf103_can.c ****       \arg        CAN_INT_FLAG_MTF1: mailbox 1 transmit finished interrupt flag
 958:./../../firmware/GD32VF103_standard_peripheral/Source/gd32vf103_can.c ****       \arg        CAN_INT_FLAG_MTF0: mailbox 0 transmit finished interrupt flag
 959:./../../firmware/GD32VF103_standard_peripheral/Source/gd32vf103_can.c ****       \arg        CAN_INT_FLAG_RFO0: receive FIFO0 overfull interrupt flag
 960:./../../firmware/GD32VF103_standard_peripheral/Source/gd32vf103_can.c ****       \arg        CAN_INT_FLAG_RFF0: receive FIFO0 full interrupt flag
 961:./../../firmware/GD32VF103_standard_peripheral/Source/gd32vf103_can.c ****       \arg        CAN_INT_FLAG_RFL0: receive FIFO0 not empty interrupt flag
 962:./../../firmware/GD32VF103_standard_peripheral/Source/gd32vf103_can.c ****       \arg        CAN_INT_FLAG_RFO1: receive FIFO1 overfull interrupt flag
 963:./../../firmware/GD32VF103_standard_peripheral/Source/gd32vf103_can.c ****       \arg        CAN_INT_FLAG_RFF1: receive FIFO1 full interrupt flag
 964:./../../firmware/GD32VF103_standard_peripheral/Source/gd32vf103_can.c ****       \arg        CAN_INT_FLAG_RFL1: receive FIFO1 not empty interrupt flag
 965:./../../firmware/GD32VF103_standard_peripheral/Source/gd32vf103_can.c ****       \arg        CAN_INT_FLAG_ERRN: error number interrupt flag
 966:./../../firmware/GD32VF103_standard_peripheral/Source/gd32vf103_can.c ****       \arg        CAN_INT_FLAG_BOERR: bus-off error interrupt flag
 967:./../../firmware/GD32VF103_standard_peripheral/Source/gd32vf103_can.c ****       \arg        CAN_INT_FLAG_PERR: passive error interrupt flag
 968:./../../firmware/GD32VF103_standard_peripheral/Source/gd32vf103_can.c ****       \arg        CAN_INT_FLAG_WERR: warning error interrupt flag
 969:./../../firmware/GD32VF103_standard_peripheral/Source/gd32vf103_can.c ****     \param[out] none
 970:./../../firmware/GD32VF103_standard_peripheral/Source/gd32vf103_can.c ****     \retval     FlagStatus: SET or RESET
 971:./../../firmware/GD32VF103_standard_peripheral/Source/gd32vf103_can.c **** */
 972:./../../firmware/GD32VF103_standard_peripheral/Source/gd32vf103_can.c **** FlagStatus can_interrupt_flag_get(uint32_t can_periph, can_interrupt_flag_enum flag)
 973:./../../firmware/GD32VF103_standard_peripheral/Source/gd32vf103_can.c **** {
 1694              		.loc 1 973 1 is_stmt 1
 1695              		.cfi_startproc
GAS LISTING C:\Users\Karzan\AppData\Local\Temp\ccXUorsL.s 			page 51


 1696              	.LVL112:
 974:./../../firmware/GD32VF103_standard_peripheral/Source/gd32vf103_can.c ****     uint32_t ret1 = RESET;
 1697              		.loc 1 974 5
 975:./../../firmware/GD32VF103_standard_peripheral/Source/gd32vf103_can.c ****     uint32_t ret2 = RESET;
 1698              		.loc 1 975 5
 976:./../../firmware/GD32VF103_standard_peripheral/Source/gd32vf103_can.c ****     
 977:./../../firmware/GD32VF103_standard_peripheral/Source/gd32vf103_can.c ****     /* get the staus of interrupt flag */
 978:./../../firmware/GD32VF103_standard_peripheral/Source/gd32vf103_can.c ****     if (flag == CAN_INT_FLAG_RFL0) {
 1699              		.loc 1 978 5
 973:./../../firmware/GD32VF103_standard_peripheral/Source/gd32vf103_can.c ****     uint32_t ret1 = RESET;
 1700              		.loc 1 973 1 is_stmt 0
 1701 0000 0111     		addi	sp,sp,-32
 1702              	.LCFI3:
 1703              		.cfi_def_cfa_offset 32
 1704              		.loc 1 978 8
 1705 0002 B167     		li	a5,49152
 973:./../../firmware/GD32VF103_standard_peripheral/Source/gd32vf103_can.c ****     uint32_t ret1 = RESET;
 1706              		.loc 1 973 1
 1707 0004 22CC     		sw	s0,24(sp)
 1708 0006 06CE     		sw	ra,28(sp)
 1709              		.cfi_offset 8, -8
 1710              		.cfi_offset 1, -4
 1711              		.loc 1 978 8
 1712 0008 93871708 		addi	a5,a5,129
 973:./../../firmware/GD32VF103_standard_peripheral/Source/gd32vf103_can.c ****     uint32_t ret1 = RESET;
 1713              		.loc 1 973 1
 1714 000c 2A84     		mv	s0,a0
 1715              		.loc 1 978 8
 1716 000e 6390F502 		bne	a1,a5,.L143
 979:./../../firmware/GD32VF103_standard_peripheral/Source/gd32vf103_can.c ****         ret1 = can_receive_message_length_get(can_periph, CAN_FIFO0);
 1717              		.loc 1 979 9 is_stmt 1
 1718              	.LVL113:
 1719              	.LBB18:
 1720              	.LBB19:
 644:./../../firmware/GD32VF103_standard_peripheral/Source/gd32vf103_can.c ****     
 1721              		.loc 1 644 5
 646:./../../firmware/GD32VF103_standard_peripheral/Source/gd32vf103_can.c ****         /* FIFO0 */
 1722              		.loc 1 646 5
 648:./../../firmware/GD32VF103_standard_peripheral/Source/gd32vf103_can.c ****     }else if(CAN_FIFO1 == fifo_number){
 1723              		.loc 1 648 9
 648:./../../firmware/GD32VF103_standard_peripheral/Source/gd32vf103_can.c ****     }else if(CAN_FIFO1 == fifo_number){
 1724              		.loc 1 648 25 is_stmt 0
 1725 0012 4845     		lw	a0,12(a0)
 1726              	.LVL114:
 654:./../../firmware/GD32VF103_standard_peripheral/Source/gd32vf103_can.c ****     return val;
 1727              		.loc 1 654 5 is_stmt 1
 655:./../../firmware/GD32VF103_standard_peripheral/Source/gd32vf103_can.c **** }
 1728              		.loc 1 655 5
 1729              	.L152:
 1730              	.LBE19:
 1731              	.LBE18:
 1732              	.LBB20:
 1733              	.LBB21:
 1734              	.LBB22:
 1735              	.LBB23:
 654:./../../firmware/GD32VF103_standard_peripheral/Source/gd32vf103_can.c ****     return val;
 1736              		.loc 1 654 5
GAS LISTING C:\Users\Karzan\AppData\Local\Temp\ccXUorsL.s 			page 52


 655:./../../firmware/GD32VF103_standard_peripheral/Source/gd32vf103_can.c **** }
 1737              		.loc 1 655 5
 1738              	.LBE23:
 1739              	.LBE22:
 654:./../../firmware/GD32VF103_standard_peripheral/Source/gd32vf103_can.c ****     return val;
 1740              		.loc 1 654 5
 655:./../../firmware/GD32VF103_standard_peripheral/Source/gd32vf103_can.c **** }
 1741              		.loc 1 655 5
 1742              	.LBE21:
 1743              	.LBE20:
 980:./../../firmware/GD32VF103_standard_peripheral/Source/gd32vf103_can.c ****     } else if (flag == CAN_INT_FLAG_RFL1) {
 981:./../../firmware/GD32VF103_standard_peripheral/Source/gd32vf103_can.c ****         ret1 = can_receive_message_length_get(can_periph, CAN_FIFO1);
 1744              		.loc 1 981 14 is_stmt 0
 1745 0014 0D89     		andi	a0,a0,3
 1746              	.LVL115:
 1747              	.L144:
 982:./../../firmware/GD32VF103_standard_peripheral/Source/gd32vf103_can.c ****     } else if (flag == CAN_INT_FLAG_ERRN) {
 983:./../../firmware/GD32VF103_standard_peripheral/Source/gd32vf103_can.c ****         ret1 = can_error_get(can_periph);
 984:./../../firmware/GD32VF103_standard_peripheral/Source/gd32vf103_can.c ****     } else {
 985:./../../firmware/GD32VF103_standard_peripheral/Source/gd32vf103_can.c ****         ret1 = CAN_REG_VALS(can_periph, flag) & BIT(CAN_BIT_POS0(flag));
 986:./../../firmware/GD32VF103_standard_peripheral/Source/gd32vf103_can.c ****     }
 987:./../../firmware/GD32VF103_standard_peripheral/Source/gd32vf103_can.c ****     /* get the staus of interrupt enale bit */
 988:./../../firmware/GD32VF103_standard_peripheral/Source/gd32vf103_can.c ****     ret2 = CAN_INTEN(can_periph) & BIT(CAN_BIT_POS1(flag));
 1748              		.loc 1 988 5 is_stmt 1
 1749              		.loc 1 988 12 is_stmt 0
 1750 0016 5848     		lw	a4,20(s0)
 1751              	.LVL116:
 989:./../../firmware/GD32VF103_standard_peripheral/Source/gd32vf103_can.c ****     if(ret1 && ret2){
 1752              		.loc 1 989 5 is_stmt 1
 1753              		.loc 1 989 7 is_stmt 0
 1754 0018 19C5     		beq	a0,zero,.L142
 988:./../../firmware/GD32VF103_standard_peripheral/Source/gd32vf103_can.c ****     if(ret1 && ret2){
 1755              		.loc 1 988 36 discriminator 1
 1756 001a 8547     		li	a5,1
 1757 001c 3395B700 		sll	a0,a5,a1
 1758              	.LVL117:
 988:./../../firmware/GD32VF103_standard_peripheral/Source/gd32vf103_can.c ****     if(ret1 && ret2){
 1759              		.loc 1 988 10 discriminator 1
 1760 0020 798D     		and	a0,a0,a4
 1761              		.loc 1 989 13 discriminator 1
 1762 0022 3335A000 		snez	a0,a0
 1763              	.L142:
 990:./../../firmware/GD32VF103_standard_peripheral/Source/gd32vf103_can.c ****         return SET;
 991:./../../firmware/GD32VF103_standard_peripheral/Source/gd32vf103_can.c ****     }else{
 992:./../../firmware/GD32VF103_standard_peripheral/Source/gd32vf103_can.c ****         return RESET;
 993:./../../firmware/GD32VF103_standard_peripheral/Source/gd32vf103_can.c ****     }
 994:./../../firmware/GD32VF103_standard_peripheral/Source/gd32vf103_can.c **** }
 1764              		.loc 1 994 1
 1765 0026 F240     		lw	ra,28(sp)
 1766              		.cfi_remember_state
 1767              		.cfi_restore 1
 1768 0028 6244     		lw	s0,24(sp)
 1769              		.cfi_restore 8
 1770              	.LVL118:
 1771 002a 0561     		addi	sp,sp,32
 1772              	.LCFI4:
 1773              		.cfi_def_cfa_offset 0
GAS LISTING C:\Users\Karzan\AppData\Local\Temp\ccXUorsL.s 			page 53


 1774 002c 8280     		jr	ra
 1775              	.LVL119:
 1776              	.L143:
 1777              	.LCFI5:
 1778              		.cfi_restore_state
 980:./../../firmware/GD32VF103_standard_peripheral/Source/gd32vf103_can.c ****         ret1 = can_receive_message_length_get(can_periph, CAN_FIFO1);
 1779              		.loc 1 980 12 is_stmt 1
 980:./../../firmware/GD32VF103_standard_peripheral/Source/gd32vf103_can.c ****         ret1 = can_receive_message_length_get(can_periph, CAN_FIFO1);
 1780              		.loc 1 980 15 is_stmt 0
 1781 002e C167     		li	a5,65536
 1782 0030 93874708 		addi	a5,a5,132
 1783 0034 6394F500 		bne	a1,a5,.L145
 981:./../../firmware/GD32VF103_standard_peripheral/Source/gd32vf103_can.c ****     } else if (flag == CAN_INT_FLAG_ERRN) {
 1784              		.loc 1 981 9 is_stmt 1
 1785              	.LVL120:
 1786              	.LBB27:
 1787              	.LBB26:
 644:./../../firmware/GD32VF103_standard_peripheral/Source/gd32vf103_can.c ****     
 1788              		.loc 1 644 5
 646:./../../firmware/GD32VF103_standard_peripheral/Source/gd32vf103_can.c ****         /* FIFO0 */
 1789              		.loc 1 646 5
 1790              	.LBB25:
 1791              	.LBB24:
 649:./../../firmware/GD32VF103_standard_peripheral/Source/gd32vf103_can.c ****         /* FIFO1 */
 1792              		.loc 1 649 11
 651:./../../firmware/GD32VF103_standard_peripheral/Source/gd32vf103_can.c ****     }else{
 1793              		.loc 1 651 9
 651:./../../firmware/GD32VF103_standard_peripheral/Source/gd32vf103_can.c ****     }else{
 1794              		.loc 1 651 25 is_stmt 0
 1795 0038 0849     		lw	a0,16(a0)
 1796 003a E9BF     		j	.L152
 1797              	.LVL121:
 1798              	.L145:
 1799              	.LBE24:
 1800              	.LBE25:
 1801              	.LBE26:
 1802              	.LBE27:
 982:./../../firmware/GD32VF103_standard_peripheral/Source/gd32vf103_can.c ****         ret1 = can_error_get(can_periph);
 1803              		.loc 1 982 12 is_stmt 1
 982:./../../firmware/GD32VF103_standard_peripheral/Source/gd32vf103_can.c ****         ret1 = can_error_get(can_periph);
 1804              		.loc 1 982 15 is_stmt 0
 1805 003c E167     		li	a5,98304
 1806 003e 9387B70C 		addi	a5,a5,203
 1807 0042 6399F500 		bne	a1,a5,.L146
 1808 0046 2EC6     		sw	a1,12(sp)
 983:./../../firmware/GD32VF103_standard_peripheral/Source/gd32vf103_can.c ****     } else {
 1809              		.loc 1 983 9 is_stmt 1
 983:./../../firmware/GD32VF103_standard_peripheral/Source/gd32vf103_can.c ****     } else {
 1810              		.loc 1 983 16 is_stmt 0
 1811 0048 97000000 		call	can_error_get
 1811      E7800000 
 1812              	.LVL122:
 1813 0050 B245     		lw	a1,12(sp)
 1814 0052 D1B7     		j	.L144
 1815              	.LVL123:
 1816              	.L146:
 985:./../../firmware/GD32VF103_standard_peripheral/Source/gd32vf103_can.c ****     }
GAS LISTING C:\Users\Karzan\AppData\Local\Temp\ccXUorsL.s 			page 54


 1817              		.loc 1 985 9 is_stmt 1
 985:./../../firmware/GD32VF103_standard_peripheral/Source/gd32vf103_can.c ****     }
 1818              		.loc 1 985 16 is_stmt 0
 1819 0054 93D7C500 		srli	a5,a1,12
 1820 0058 AA97     		add	a5,a5,a0
 1821 005a 9C43     		lw	a5,0(a5)
 985:./../../firmware/GD32VF103_standard_peripheral/Source/gd32vf103_can.c ****     }
 1822              		.loc 1 985 49
 1823 005c 13D56500 		srli	a0,a1,6
 1824 0060 0547     		li	a4,1
 1825 0062 3315A700 		sll	a0,a4,a0
 985:./../../firmware/GD32VF103_standard_peripheral/Source/gd32vf103_can.c ****     }
 1826              		.loc 1 985 14
 1827 0066 7D8D     		and	a0,a0,a5
 1828              	.LVL124:
 1829 0068 7DB7     		j	.L144
 1830              		.cfi_endproc
 1831              	.LFE26:
 1833              		.section	.text.can_interrupt_flag_clear,"ax",@progbits
 1834              		.align	1
 1835              		.globl	can_interrupt_flag_clear
 1837              	can_interrupt_flag_clear:
 1838              	.LFB27:
 995:./../../firmware/GD32VF103_standard_peripheral/Source/gd32vf103_can.c **** 
 996:./../../firmware/GD32VF103_standard_peripheral/Source/gd32vf103_can.c **** /*!
 997:./../../firmware/GD32VF103_standard_peripheral/Source/gd32vf103_can.c ****     \brief      clear CAN interrupt flag state
 998:./../../firmware/GD32VF103_standard_peripheral/Source/gd32vf103_can.c ****     \param[in]  can_periph
 999:./../../firmware/GD32VF103_standard_peripheral/Source/gd32vf103_can.c ****       \arg        CANx(x=0,1)
1000:./../../firmware/GD32VF103_standard_peripheral/Source/gd32vf103_can.c ****     \param[in]  flag: CAN interrupt flags, refer to can_interrupt_flag_enum
1001:./../../firmware/GD32VF103_standard_peripheral/Source/gd32vf103_can.c ****                 only one parameter can be selected which is shown as below:
1002:./../../firmware/GD32VF103_standard_peripheral/Source/gd32vf103_can.c ****       \arg        CAN_INT_FLAG_SLPIF: status change interrupt flag of sleep working mode entering
1003:./../../firmware/GD32VF103_standard_peripheral/Source/gd32vf103_can.c ****       \arg        CAN_INT_FLAG_WUIF: status change interrupt flag of wakeup from sleep working mode
1004:./../../firmware/GD32VF103_standard_peripheral/Source/gd32vf103_can.c ****       \arg        CAN_INT_FLAG_ERRIF: error interrupt flag
1005:./../../firmware/GD32VF103_standard_peripheral/Source/gd32vf103_can.c ****       \arg        CAN_INT_FLAG_MTF2: mailbox 2 transmit finished interrupt flag
1006:./../../firmware/GD32VF103_standard_peripheral/Source/gd32vf103_can.c ****       \arg        CAN_INT_FLAG_MTF1: mailbox 1 transmit finished interrupt flag
1007:./../../firmware/GD32VF103_standard_peripheral/Source/gd32vf103_can.c ****       \arg        CAN_INT_FLAG_MTF0: mailbox 0 transmit finished interrupt flag
1008:./../../firmware/GD32VF103_standard_peripheral/Source/gd32vf103_can.c ****       \arg        CAN_INT_FLAG_RFO0: receive FIFO0 overfull interrupt flag
1009:./../../firmware/GD32VF103_standard_peripheral/Source/gd32vf103_can.c ****       \arg        CAN_INT_FLAG_RFF0: receive FIFO0 full interrupt flag
1010:./../../firmware/GD32VF103_standard_peripheral/Source/gd32vf103_can.c ****       \arg        CAN_INT_FLAG_RFO1: receive FIFO1 overfull interrupt flag
1011:./../../firmware/GD32VF103_standard_peripheral/Source/gd32vf103_can.c ****       \arg        CAN_INT_FLAG_RFF1: receive FIFO1 full interrupt flag
1012:./../../firmware/GD32VF103_standard_peripheral/Source/gd32vf103_can.c ****     \param[out] none
1013:./../../firmware/GD32VF103_standard_peripheral/Source/gd32vf103_can.c ****     \retval     none
1014:./../../firmware/GD32VF103_standard_peripheral/Source/gd32vf103_can.c **** */
1015:./../../firmware/GD32VF103_standard_peripheral/Source/gd32vf103_can.c **** void can_interrupt_flag_clear(uint32_t can_periph, can_interrupt_flag_enum flag)
1016:./../../firmware/GD32VF103_standard_peripheral/Source/gd32vf103_can.c **** {
 1839              		.loc 1 1016 1 is_stmt 1
 1840              		.cfi_startproc
 1841              	.LVL125:
1017:./../../firmware/GD32VF103_standard_peripheral/Source/gd32vf103_can.c ****     CAN_REG_VALS(can_periph, flag) = BIT(CAN_BIT_POS0(flag));
 1842              		.loc 1 1017 5
 1843 0000 93D7C500 		srli	a5,a1,12
 1844 0004 3E95     		add	a0,a5,a0
 1845              	.LVL126:
 1846              		.loc 1 1017 38 is_stmt 0
 1847 0006 9981     		srli	a1,a1,6
 1848              	.LVL127:
 1849 0008 8547     		li	a5,1
GAS LISTING C:\Users\Karzan\AppData\Local\Temp\ccXUorsL.s 			page 55


 1850 000a B395B700 		sll	a1,a5,a1
 1851              		.loc 1 1017 36
 1852 000e 0CC1     		sw	a1,0(a0)
1018:./../../firmware/GD32VF103_standard_peripheral/Source/gd32vf103_can.c **** }
 1853              		.loc 1 1018 1
 1854 0010 8280     		ret
 1855              		.cfi_endproc
 1856              	.LFE27:
 1858              		.text
 1859              	.Letext0:
 1860              		.file 2 "c:\\users\\karzan\\downloads\\toolchain-gd32v-v202-win\\toolchain-gd32v-v202-win\\compile
 1861              		.file 3 "c:\\users\\karzan\\downloads\\toolchain-gd32v-v202-win\\toolchain-gd32v-v202-win\\compile
 1862              		.file 4 "./../../firmware/GD32VF103_standard_peripheral/gd32vf103.h"
 1863              		.file 5 "./../../firmware/GD32VF103_standard_peripheral/Include/gd32vf103_dbg.h"
 1864              		.file 6 "./../../firmware/GD32VF103_standard_peripheral/Include/gd32vf103_rcu.h"
 1865              		.file 7 "./../../firmware/GD32VF103_standard_peripheral/Include/gd32vf103_can.h"
 1866              		.file 8 "./../../firmware/GD32VF103_standard_peripheral/system_gd32vf103.h"
GAS LISTING C:\Users\Karzan\AppData\Local\Temp\ccXUorsL.s 			page 56

