GAS LISTING C:\Users\Karzan\AppData\Local\Temp\ccEGabGh.s 			page 1


   1              		.file	"gd32vf103_fmc.c"
   2              		.option nopic
   3              		.attribute arch, "rv32i2p0_m2p0_a2p0_c2p0"
   4              		.attribute unaligned_access, 0
   5              		.attribute stack_align, 16
   6              		.text
   7              	.Ltext0:
   8              		.cfi_sections	.debug_frame
   9              		.section	.text.fmc_wscnt_set,"ax",@progbits
  10              		.align	1
  11              		.globl	fmc_wscnt_set
  13              	fmc_wscnt_set:
  14              	.LFB2:
  15              		.file 1 "./../../firmware/GD32VF103_standard_peripheral/Source/gd32vf103_fmc.c"
   1:./../../firmware/GD32VF103_standard_peripheral/Source/gd32vf103_fmc.c **** /*!
   2:./../../firmware/GD32VF103_standard_peripheral/Source/gd32vf103_fmc.c ****     \file    gd32vf103_fmc.c
   3:./../../firmware/GD32VF103_standard_peripheral/Source/gd32vf103_fmc.c ****     \brief   FMC driver
   4:./../../firmware/GD32VF103_standard_peripheral/Source/gd32vf103_fmc.c **** 
   5:./../../firmware/GD32VF103_standard_peripheral/Source/gd32vf103_fmc.c ****     \version 2019-06-05, V1.0.0, firmware for GD32VF103
   6:./../../firmware/GD32VF103_standard_peripheral/Source/gd32vf103_fmc.c ****     \version 2019-09-18, V1.0.1, firmware for GD32VF103
   7:./../../firmware/GD32VF103_standard_peripheral/Source/gd32vf103_fmc.c ****     \version 2020-02-20, V1.0.2, firmware for GD32VF103
   8:./../../firmware/GD32VF103_standard_peripheral/Source/gd32vf103_fmc.c ****     \version 2020-08-04, V1.1.0, firmware for GD32VF103
   9:./../../firmware/GD32VF103_standard_peripheral/Source/gd32vf103_fmc.c **** */
  10:./../../firmware/GD32VF103_standard_peripheral/Source/gd32vf103_fmc.c **** 
  11:./../../firmware/GD32VF103_standard_peripheral/Source/gd32vf103_fmc.c **** /*
  12:./../../firmware/GD32VF103_standard_peripheral/Source/gd32vf103_fmc.c ****     Copyright (c) 2020, GigaDevice Semiconductor Inc.
  13:./../../firmware/GD32VF103_standard_peripheral/Source/gd32vf103_fmc.c **** 
  14:./../../firmware/GD32VF103_standard_peripheral/Source/gd32vf103_fmc.c ****     Redistribution and use in source and binary forms, with or without modification,
  15:./../../firmware/GD32VF103_standard_peripheral/Source/gd32vf103_fmc.c **** are permitted provided that the following conditions are met:
  16:./../../firmware/GD32VF103_standard_peripheral/Source/gd32vf103_fmc.c **** 
  17:./../../firmware/GD32VF103_standard_peripheral/Source/gd32vf103_fmc.c ****     1. Redistributions of source code must retain the above copyright notice, this
  18:./../../firmware/GD32VF103_standard_peripheral/Source/gd32vf103_fmc.c ****        list of conditions and the following disclaimer.
  19:./../../firmware/GD32VF103_standard_peripheral/Source/gd32vf103_fmc.c ****     2. Redistributions in binary form must reproduce the above copyright notice,
  20:./../../firmware/GD32VF103_standard_peripheral/Source/gd32vf103_fmc.c ****        this list of conditions and the following disclaimer in the documentation
  21:./../../firmware/GD32VF103_standard_peripheral/Source/gd32vf103_fmc.c ****        and/or other materials provided with the distribution.
  22:./../../firmware/GD32VF103_standard_peripheral/Source/gd32vf103_fmc.c ****     3. Neither the name of the copyright holder nor the names of its contributors
  23:./../../firmware/GD32VF103_standard_peripheral/Source/gd32vf103_fmc.c ****        may be used to endorse or promote products derived from this software without
  24:./../../firmware/GD32VF103_standard_peripheral/Source/gd32vf103_fmc.c ****        specific prior written permission.
  25:./../../firmware/GD32VF103_standard_peripheral/Source/gd32vf103_fmc.c **** 
  26:./../../firmware/GD32VF103_standard_peripheral/Source/gd32vf103_fmc.c ****     THIS SOFTWARE IS PROVIDED BY THE COPYRIGHT HOLDERS AND CONTRIBUTORS "AS IS"
  27:./../../firmware/GD32VF103_standard_peripheral/Source/gd32vf103_fmc.c **** AND ANY EXPRESS OR IMPLIED WARRANTIES, INCLUDING, BUT NOT LIMITED TO, THE IMPLIED
  28:./../../firmware/GD32VF103_standard_peripheral/Source/gd32vf103_fmc.c **** WARRANTIES OF MERCHANTABILITY AND FITNESS FOR A PARTICULAR PURPOSE ARE DISCLAIMED.
  29:./../../firmware/GD32VF103_standard_peripheral/Source/gd32vf103_fmc.c **** IN NO EVENT SHALL THE COPYRIGHT HOLDER OR CONTRIBUTORS BE LIABLE FOR ANY DIRECT,
  30:./../../firmware/GD32VF103_standard_peripheral/Source/gd32vf103_fmc.c **** INDIRECT, INCIDENTAL, SPECIAL, EXEMPLARY, OR CONSEQUENTIAL DAMAGES (INCLUDING, BUT
  31:./../../firmware/GD32VF103_standard_peripheral/Source/gd32vf103_fmc.c **** NOT LIMITED TO, PROCUREMENT OF SUBSTITUTE GOODS OR SERVICES; LOSS OF USE, DATA, OR
  32:./../../firmware/GD32VF103_standard_peripheral/Source/gd32vf103_fmc.c **** PROFITS; OR BUSINESS INTERRUPTION) HOWEVER CAUSED AND ON ANY THEORY OF LIABILITY,
  33:./../../firmware/GD32VF103_standard_peripheral/Source/gd32vf103_fmc.c **** WHETHER IN CONTRACT, STRICT LIABILITY, OR TORT (INCLUDING NEGLIGENCE OR OTHERWISE)
  34:./../../firmware/GD32VF103_standard_peripheral/Source/gd32vf103_fmc.c **** ARISING IN ANY WAY OUT OF THE USE OF THIS SOFTWARE, EVEN IF ADVISED OF THE POSSIBILITY
  35:./../../firmware/GD32VF103_standard_peripheral/Source/gd32vf103_fmc.c **** OF SUCH DAMAGE.
  36:./../../firmware/GD32VF103_standard_peripheral/Source/gd32vf103_fmc.c **** */
  37:./../../firmware/GD32VF103_standard_peripheral/Source/gd32vf103_fmc.c **** 
  38:./../../firmware/GD32VF103_standard_peripheral/Source/gd32vf103_fmc.c **** #include "gd32vf103_fmc.h"
  39:./../../firmware/GD32VF103_standard_peripheral/Source/gd32vf103_fmc.c **** 
  40:./../../firmware/GD32VF103_standard_peripheral/Source/gd32vf103_fmc.c **** /*!
  41:./../../firmware/GD32VF103_standard_peripheral/Source/gd32vf103_fmc.c ****     \brief      set the FMC wait state counter
  42:./../../firmware/GD32VF103_standard_peripheral/Source/gd32vf103_fmc.c ****     \param[in]  wscnt£ºwait state counter value
  43:./../../firmware/GD32VF103_standard_peripheral/Source/gd32vf103_fmc.c ****       \arg        WS_WSCNT_0: FMC 0 wait state
GAS LISTING C:\Users\Karzan\AppData\Local\Temp\ccEGabGh.s 			page 2


  44:./../../firmware/GD32VF103_standard_peripheral/Source/gd32vf103_fmc.c ****       \arg        WS_WSCNT_1: FMC 1 wait state
  45:./../../firmware/GD32VF103_standard_peripheral/Source/gd32vf103_fmc.c ****       \arg        WS_WSCNT_2: FMC 2 wait state
  46:./../../firmware/GD32VF103_standard_peripheral/Source/gd32vf103_fmc.c ****     \param[out] none
  47:./../../firmware/GD32VF103_standard_peripheral/Source/gd32vf103_fmc.c ****     \retval     none
  48:./../../firmware/GD32VF103_standard_peripheral/Source/gd32vf103_fmc.c ****  */
  49:./../../firmware/GD32VF103_standard_peripheral/Source/gd32vf103_fmc.c **** void fmc_wscnt_set(uint32_t wscnt)
  50:./../../firmware/GD32VF103_standard_peripheral/Source/gd32vf103_fmc.c **** {
  16              		.loc 1 50 1
  17              		.cfi_startproc
  18              	.LVL0:
  51:./../../firmware/GD32VF103_standard_peripheral/Source/gd32vf103_fmc.c ****     uint32_t reg;
  19              		.loc 1 51 5
  52:./../../firmware/GD32VF103_standard_peripheral/Source/gd32vf103_fmc.c **** 
  53:./../../firmware/GD32VF103_standard_peripheral/Source/gd32vf103_fmc.c ****     reg = FMC_WS;
  20              		.loc 1 53 5
  21              		.loc 1 53 9 is_stmt 0
  22 0000 37270240 		li	a4,1073881088
  23 0004 1C43     		lw	a5,0(a4)
  24              	.LVL1:
  54:./../../firmware/GD32VF103_standard_peripheral/Source/gd32vf103_fmc.c ****     /* set the wait state counter value */
  55:./../../firmware/GD32VF103_standard_peripheral/Source/gd32vf103_fmc.c ****     reg &= ~FMC_WS_WSCNT;
  25              		.loc 1 55 5 is_stmt 1
  56:./../../firmware/GD32VF103_standard_peripheral/Source/gd32vf103_fmc.c ****     FMC_WS = (reg | wscnt);
  26              		.loc 1 56 5
  55:./../../firmware/GD32VF103_standard_peripheral/Source/gd32vf103_fmc.c ****     FMC_WS = (reg | wscnt);
  27              		.loc 1 55 9 is_stmt 0
  28 0006 E19B     		andi	a5,a5,-8
  29              	.LVL2:
  30              		.loc 1 56 19
  31 0008 5D8D     		or	a0,a5,a0
  32              	.LVL3:
  33              		.loc 1 56 12
  34 000a 08C3     		sw	a0,0(a4)
  57:./../../firmware/GD32VF103_standard_peripheral/Source/gd32vf103_fmc.c **** }
  35              		.loc 1 57 1
  36 000c 8280     		ret
  37              		.cfi_endproc
  38              	.LFE2:
  40              		.section	.text.fmc_unlock,"ax",@progbits
  41              		.align	1
  42              		.globl	fmc_unlock
  44              	fmc_unlock:
  45              	.LFB3:
  58:./../../firmware/GD32VF103_standard_peripheral/Source/gd32vf103_fmc.c **** 
  59:./../../firmware/GD32VF103_standard_peripheral/Source/gd32vf103_fmc.c **** /*!
  60:./../../firmware/GD32VF103_standard_peripheral/Source/gd32vf103_fmc.c ****     \brief      unlock the main FMC operation
  61:./../../firmware/GD32VF103_standard_peripheral/Source/gd32vf103_fmc.c ****     \param[in]  none
  62:./../../firmware/GD32VF103_standard_peripheral/Source/gd32vf103_fmc.c ****     \param[out] none
  63:./../../firmware/GD32VF103_standard_peripheral/Source/gd32vf103_fmc.c ****     \retval     none
  64:./../../firmware/GD32VF103_standard_peripheral/Source/gd32vf103_fmc.c ****  */
  65:./../../firmware/GD32VF103_standard_peripheral/Source/gd32vf103_fmc.c **** void fmc_unlock(void)
  66:./../../firmware/GD32VF103_standard_peripheral/Source/gd32vf103_fmc.c **** {
  46              		.loc 1 66 1 is_stmt 1
  47              		.cfi_startproc
  67:./../../firmware/GD32VF103_standard_peripheral/Source/gd32vf103_fmc.c ****     if((RESET != (FMC_CTL & FMC_CTL_LK))){
  48              		.loc 1 67 5
  49              		.loc 1 67 19 is_stmt 0
GAS LISTING C:\Users\Karzan\AppData\Local\Temp\ccEGabGh.s 			page 3


  50 0000 B7270240 		li	a5,1073881088
  51 0004 984B     		lw	a4,16(a5)
  52              		.loc 1 67 27
  53 0006 13770708 		andi	a4,a4,128
  54              		.loc 1 67 7
  55 000a 19CB     		beq	a4,zero,.L2
  68:./../../firmware/GD32VF103_standard_peripheral/Source/gd32vf103_fmc.c ****         /* write the FMC unlock key */
  69:./../../firmware/GD32VF103_standard_peripheral/Source/gd32vf103_fmc.c ****         FMC_KEY = UNLOCK_KEY0;
  56              		.loc 1 69 9 is_stmt 1
  57              		.loc 1 69 17 is_stmt 0
  58 000c 37076745 		li	a4,1164378112
  59 0010 13073712 		addi	a4,a4,291
  60 0014 D8C3     		sw	a4,4(a5)
  70:./../../firmware/GD32VF103_standard_peripheral/Source/gd32vf103_fmc.c ****         FMC_KEY = UNLOCK_KEY1;
  61              		.loc 1 70 9 is_stmt 1
  62              		.loc 1 70 17 is_stmt 0
  63 0016 3797EFCD 		li	a4,-839938048
  64 001a 1307B79A 		addi	a4,a4,-1621
  65 001e D8C3     		sw	a4,4(a5)
  66              	.L2:
  71:./../../firmware/GD32VF103_standard_peripheral/Source/gd32vf103_fmc.c ****     }
  72:./../../firmware/GD32VF103_standard_peripheral/Source/gd32vf103_fmc.c **** }
  67              		.loc 1 72 1
  68 0020 8280     		ret
  69              		.cfi_endproc
  70              	.LFE3:
  72              		.section	.text.fmc_lock,"ax",@progbits
  73              		.align	1
  74              		.globl	fmc_lock
  76              	fmc_lock:
  77              	.LFB4:
  73:./../../firmware/GD32VF103_standard_peripheral/Source/gd32vf103_fmc.c **** 
  74:./../../firmware/GD32VF103_standard_peripheral/Source/gd32vf103_fmc.c **** /*!
  75:./../../firmware/GD32VF103_standard_peripheral/Source/gd32vf103_fmc.c ****     \brief      lock the main FMC operation
  76:./../../firmware/GD32VF103_standard_peripheral/Source/gd32vf103_fmc.c ****     \param[in]  none
  77:./../../firmware/GD32VF103_standard_peripheral/Source/gd32vf103_fmc.c ****     \param[out] none
  78:./../../firmware/GD32VF103_standard_peripheral/Source/gd32vf103_fmc.c ****     \retval     none
  79:./../../firmware/GD32VF103_standard_peripheral/Source/gd32vf103_fmc.c ****  */
  80:./../../firmware/GD32VF103_standard_peripheral/Source/gd32vf103_fmc.c **** void fmc_lock(void)
  81:./../../firmware/GD32VF103_standard_peripheral/Source/gd32vf103_fmc.c **** {
  78              		.loc 1 81 1 is_stmt 1
  79              		.cfi_startproc
  82:./../../firmware/GD32VF103_standard_peripheral/Source/gd32vf103_fmc.c ****     /* set the LK bit */
  83:./../../firmware/GD32VF103_standard_peripheral/Source/gd32vf103_fmc.c ****     FMC_CTL |= FMC_CTL_LK;
  80              		.loc 1 83 5
  81              		.loc 1 83 13 is_stmt 0
  82 0000 37270240 		li	a4,1073881088
  83 0004 1C4B     		lw	a5,16(a4)
  84 0006 93E70708 		ori	a5,a5,128
  85 000a 1CCB     		sw	a5,16(a4)
  84:./../../firmware/GD32VF103_standard_peripheral/Source/gd32vf103_fmc.c **** }
  86              		.loc 1 84 1
  87 000c 8280     		ret
  88              		.cfi_endproc
  89              	.LFE4:
  91              		.section	.text.ob_unlock,"ax",@progbits
  92              		.align	1
GAS LISTING C:\Users\Karzan\AppData\Local\Temp\ccEGabGh.s 			page 4


  93              		.globl	ob_unlock
  95              	ob_unlock:
  96              	.LFB9:
  85:./../../firmware/GD32VF103_standard_peripheral/Source/gd32vf103_fmc.c **** 
  86:./../../firmware/GD32VF103_standard_peripheral/Source/gd32vf103_fmc.c **** 
  87:./../../firmware/GD32VF103_standard_peripheral/Source/gd32vf103_fmc.c **** /*!
  88:./../../firmware/GD32VF103_standard_peripheral/Source/gd32vf103_fmc.c ****     \brief      FMC erase page
  89:./../../firmware/GD32VF103_standard_peripheral/Source/gd32vf103_fmc.c ****     \param[in]  page_address: the page address to be erased.
  90:./../../firmware/GD32VF103_standard_peripheral/Source/gd32vf103_fmc.c ****     \param[out] none
  91:./../../firmware/GD32VF103_standard_peripheral/Source/gd32vf103_fmc.c ****     \retval     state of FMC, refer to fmc_state_enum
  92:./../../firmware/GD32VF103_standard_peripheral/Source/gd32vf103_fmc.c ****  */
  93:./../../firmware/GD32VF103_standard_peripheral/Source/gd32vf103_fmc.c **** fmc_state_enum fmc_page_erase(uint32_t page_address)
  94:./../../firmware/GD32VF103_standard_peripheral/Source/gd32vf103_fmc.c **** {
  95:./../../firmware/GD32VF103_standard_peripheral/Source/gd32vf103_fmc.c ****     fmc_state_enum fmc_state;
  96:./../../firmware/GD32VF103_standard_peripheral/Source/gd32vf103_fmc.c ****     fmc_state = fmc_ready_wait(FMC_TIMEOUT_COUNT);
  97:./../../firmware/GD32VF103_standard_peripheral/Source/gd32vf103_fmc.c ****     /* if the last operation is completed, start page erase */
  98:./../../firmware/GD32VF103_standard_peripheral/Source/gd32vf103_fmc.c ****     if (FMC_READY == fmc_state) {
  99:./../../firmware/GD32VF103_standard_peripheral/Source/gd32vf103_fmc.c ****         FMC_CTL |= FMC_CTL_PER;
 100:./../../firmware/GD32VF103_standard_peripheral/Source/gd32vf103_fmc.c ****         FMC_ADDR = page_address;
 101:./../../firmware/GD32VF103_standard_peripheral/Source/gd32vf103_fmc.c ****         FMC_CTL |= FMC_CTL_START;
 102:./../../firmware/GD32VF103_standard_peripheral/Source/gd32vf103_fmc.c ****         /* wait for the FMC ready */
 103:./../../firmware/GD32VF103_standard_peripheral/Source/gd32vf103_fmc.c ****         fmc_state = fmc_ready_wait(FMC_TIMEOUT_COUNT);
 104:./../../firmware/GD32VF103_standard_peripheral/Source/gd32vf103_fmc.c ****         /* reset the PER bit */
 105:./../../firmware/GD32VF103_standard_peripheral/Source/gd32vf103_fmc.c ****         FMC_CTL &= ~FMC_CTL_PER;
 106:./../../firmware/GD32VF103_standard_peripheral/Source/gd32vf103_fmc.c ****     }
 107:./../../firmware/GD32VF103_standard_peripheral/Source/gd32vf103_fmc.c ****     /* return the FMC state */
 108:./../../firmware/GD32VF103_standard_peripheral/Source/gd32vf103_fmc.c ****     return fmc_state;
 109:./../../firmware/GD32VF103_standard_peripheral/Source/gd32vf103_fmc.c **** }
 110:./../../firmware/GD32VF103_standard_peripheral/Source/gd32vf103_fmc.c **** 
 111:./../../firmware/GD32VF103_standard_peripheral/Source/gd32vf103_fmc.c **** /*!
 112:./../../firmware/GD32VF103_standard_peripheral/Source/gd32vf103_fmc.c ****     \brief      FMC erase whole chip
 113:./../../firmware/GD32VF103_standard_peripheral/Source/gd32vf103_fmc.c ****     \param[in]  none
 114:./../../firmware/GD32VF103_standard_peripheral/Source/gd32vf103_fmc.c ****     \param[out] none
 115:./../../firmware/GD32VF103_standard_peripheral/Source/gd32vf103_fmc.c ****     \retval     state of FMC, refer to fmc_state_enum
 116:./../../firmware/GD32VF103_standard_peripheral/Source/gd32vf103_fmc.c ****  */
 117:./../../firmware/GD32VF103_standard_peripheral/Source/gd32vf103_fmc.c **** fmc_state_enum fmc_mass_erase(void)
 118:./../../firmware/GD32VF103_standard_peripheral/Source/gd32vf103_fmc.c **** {
 119:./../../firmware/GD32VF103_standard_peripheral/Source/gd32vf103_fmc.c ****     fmc_state_enum fmc_state;
 120:./../../firmware/GD32VF103_standard_peripheral/Source/gd32vf103_fmc.c ****         fmc_state = fmc_ready_wait(FMC_TIMEOUT_COUNT);
 121:./../../firmware/GD32VF103_standard_peripheral/Source/gd32vf103_fmc.c **** 
 122:./../../firmware/GD32VF103_standard_peripheral/Source/gd32vf103_fmc.c ****         if(FMC_READY == fmc_state){
 123:./../../firmware/GD32VF103_standard_peripheral/Source/gd32vf103_fmc.c ****             /* start whole chip erase */
 124:./../../firmware/GD32VF103_standard_peripheral/Source/gd32vf103_fmc.c ****             FMC_CTL |= FMC_CTL_MER;
 125:./../../firmware/GD32VF103_standard_peripheral/Source/gd32vf103_fmc.c ****             FMC_CTL |= FMC_CTL_START;
 126:./../../firmware/GD32VF103_standard_peripheral/Source/gd32vf103_fmc.c ****             /* wait for the FMC ready */
 127:./../../firmware/GD32VF103_standard_peripheral/Source/gd32vf103_fmc.c ****             fmc_state = fmc_ready_wait(FMC_TIMEOUT_COUNT);
 128:./../../firmware/GD32VF103_standard_peripheral/Source/gd32vf103_fmc.c ****             /* reset the MER bit */
 129:./../../firmware/GD32VF103_standard_peripheral/Source/gd32vf103_fmc.c ****             FMC_CTL &= ~FMC_CTL_MER;
 130:./../../firmware/GD32VF103_standard_peripheral/Source/gd32vf103_fmc.c ****         }
 131:./../../firmware/GD32VF103_standard_peripheral/Source/gd32vf103_fmc.c ****     /* return the FMC state  */
 132:./../../firmware/GD32VF103_standard_peripheral/Source/gd32vf103_fmc.c ****     return fmc_state;
 133:./../../firmware/GD32VF103_standard_peripheral/Source/gd32vf103_fmc.c **** }
 134:./../../firmware/GD32VF103_standard_peripheral/Source/gd32vf103_fmc.c **** 
 135:./../../firmware/GD32VF103_standard_peripheral/Source/gd32vf103_fmc.c **** /*!
 136:./../../firmware/GD32VF103_standard_peripheral/Source/gd32vf103_fmc.c ****     \brief      FMC program a word at the corresponding address
 137:./../../firmware/GD32VF103_standard_peripheral/Source/gd32vf103_fmc.c ****     \param[in]  address: address to program
 138:./../../firmware/GD32VF103_standard_peripheral/Source/gd32vf103_fmc.c ****     \param[in]  data: word to program
GAS LISTING C:\Users\Karzan\AppData\Local\Temp\ccEGabGh.s 			page 5


 139:./../../firmware/GD32VF103_standard_peripheral/Source/gd32vf103_fmc.c ****     \param[out] none
 140:./../../firmware/GD32VF103_standard_peripheral/Source/gd32vf103_fmc.c ****     \retval     state of FMC, refer to fmc_state_enum
 141:./../../firmware/GD32VF103_standard_peripheral/Source/gd32vf103_fmc.c ****  */
 142:./../../firmware/GD32VF103_standard_peripheral/Source/gd32vf103_fmc.c **** fmc_state_enum fmc_word_program(uint32_t address, uint32_t data)
 143:./../../firmware/GD32VF103_standard_peripheral/Source/gd32vf103_fmc.c **** {
 144:./../../firmware/GD32VF103_standard_peripheral/Source/gd32vf103_fmc.c ****     fmc_state_enum fmc_state = FMC_READY;
 145:./../../firmware/GD32VF103_standard_peripheral/Source/gd32vf103_fmc.c ****     fmc_state = fmc_ready_wait(FMC_TIMEOUT_COUNT);
 146:./../../firmware/GD32VF103_standard_peripheral/Source/gd32vf103_fmc.c **** 
 147:./../../firmware/GD32VF103_standard_peripheral/Source/gd32vf103_fmc.c ****     if(FMC_READY == fmc_state){
 148:./../../firmware/GD32VF103_standard_peripheral/Source/gd32vf103_fmc.c ****         /* set the PG bit to start program */
 149:./../../firmware/GD32VF103_standard_peripheral/Source/gd32vf103_fmc.c ****         FMC_CTL |= FMC_CTL_PG;
 150:./../../firmware/GD32VF103_standard_peripheral/Source/gd32vf103_fmc.c ****         REG32(address) = data;
 151:./../../firmware/GD32VF103_standard_peripheral/Source/gd32vf103_fmc.c ****         /* wait for the FMC ready */
 152:./../../firmware/GD32VF103_standard_peripheral/Source/gd32vf103_fmc.c ****         fmc_state = fmc_ready_wait(FMC_TIMEOUT_COUNT);
 153:./../../firmware/GD32VF103_standard_peripheral/Source/gd32vf103_fmc.c ****         /* reset the PG bit */
 154:./../../firmware/GD32VF103_standard_peripheral/Source/gd32vf103_fmc.c ****         FMC_CTL &= ~FMC_CTL_PG;
 155:./../../firmware/GD32VF103_standard_peripheral/Source/gd32vf103_fmc.c ****     }
 156:./../../firmware/GD32VF103_standard_peripheral/Source/gd32vf103_fmc.c ****     /* return the FMC state */
 157:./../../firmware/GD32VF103_standard_peripheral/Source/gd32vf103_fmc.c ****     return fmc_state;
 158:./../../firmware/GD32VF103_standard_peripheral/Source/gd32vf103_fmc.c **** }
 159:./../../firmware/GD32VF103_standard_peripheral/Source/gd32vf103_fmc.c **** /*
 160:./../../firmware/GD32VF103_standard_peripheral/Source/gd32vf103_fmc.c ****     \brief      FMC program a half word at the corresponding address
 161:./../../firmware/GD32VF103_standard_peripheral/Source/gd32vf103_fmc.c ****     \param[in]  address: address to program
 162:./../../firmware/GD32VF103_standard_peripheral/Source/gd32vf103_fmc.c ****     \param[in]  data: halfword to program
 163:./../../firmware/GD32VF103_standard_peripheral/Source/gd32vf103_fmc.c ****     \param[out] none
 164:./../../firmware/GD32VF103_standard_peripheral/Source/gd32vf103_fmc.c ****     \retval     state of FMC, refer to fmc_state_enum
 165:./../../firmware/GD32VF103_standard_peripheral/Source/gd32vf103_fmc.c **** */
 166:./../../firmware/GD32VF103_standard_peripheral/Source/gd32vf103_fmc.c **** fmc_state_enum fmc_halfword_program(uint32_t address, uint16_t data)
 167:./../../firmware/GD32VF103_standard_peripheral/Source/gd32vf103_fmc.c **** {
 168:./../../firmware/GD32VF103_standard_peripheral/Source/gd32vf103_fmc.c ****     fmc_state_enum fmc_state = FMC_READY;
 169:./../../firmware/GD32VF103_standard_peripheral/Source/gd32vf103_fmc.c ****     fmc_state = fmc_ready_wait(FMC_TIMEOUT_COUNT);
 170:./../../firmware/GD32VF103_standard_peripheral/Source/gd32vf103_fmc.c **** 
 171:./../../firmware/GD32VF103_standard_peripheral/Source/gd32vf103_fmc.c ****     if(FMC_READY == fmc_state){
 172:./../../firmware/GD32VF103_standard_peripheral/Source/gd32vf103_fmc.c ****         /* set the PG bit to start program */
 173:./../../firmware/GD32VF103_standard_peripheral/Source/gd32vf103_fmc.c ****         FMC_CTL |= FMC_CTL_PG;
 174:./../../firmware/GD32VF103_standard_peripheral/Source/gd32vf103_fmc.c ****         REG16(address) = data;
 175:./../../firmware/GD32VF103_standard_peripheral/Source/gd32vf103_fmc.c ****         /* wait for the FMC ready */
 176:./../../firmware/GD32VF103_standard_peripheral/Source/gd32vf103_fmc.c ****         fmc_state = fmc_ready_wait(FMC_TIMEOUT_COUNT);
 177:./../../firmware/GD32VF103_standard_peripheral/Source/gd32vf103_fmc.c ****         /* reset the PG bit */
 178:./../../firmware/GD32VF103_standard_peripheral/Source/gd32vf103_fmc.c ****         FMC_CTL &= ~FMC_CTL_PG;
 179:./../../firmware/GD32VF103_standard_peripheral/Source/gd32vf103_fmc.c ****     }
 180:./../../firmware/GD32VF103_standard_peripheral/Source/gd32vf103_fmc.c ****     /* return the FMC state */
 181:./../../firmware/GD32VF103_standard_peripheral/Source/gd32vf103_fmc.c ****     return fmc_state;
 182:./../../firmware/GD32VF103_standard_peripheral/Source/gd32vf103_fmc.c **** }
 183:./../../firmware/GD32VF103_standard_peripheral/Source/gd32vf103_fmc.c **** 
 184:./../../firmware/GD32VF103_standard_peripheral/Source/gd32vf103_fmc.c **** /*!
 185:./../../firmware/GD32VF103_standard_peripheral/Source/gd32vf103_fmc.c ****     \brief      unlock the option byte operation
 186:./../../firmware/GD32VF103_standard_peripheral/Source/gd32vf103_fmc.c ****     \param[in]  none
 187:./../../firmware/GD32VF103_standard_peripheral/Source/gd32vf103_fmc.c ****     \param[out] none
 188:./../../firmware/GD32VF103_standard_peripheral/Source/gd32vf103_fmc.c ****     \retval     none
 189:./../../firmware/GD32VF103_standard_peripheral/Source/gd32vf103_fmc.c ****  */
 190:./../../firmware/GD32VF103_standard_peripheral/Source/gd32vf103_fmc.c **** void ob_unlock(void)
 191:./../../firmware/GD32VF103_standard_peripheral/Source/gd32vf103_fmc.c **** {
  97              		.loc 1 191 1 is_stmt 1
  98              		.cfi_startproc
 192:./../../firmware/GD32VF103_standard_peripheral/Source/gd32vf103_fmc.c ****     if(RESET == (FMC_CTL & FMC_CTL_OBWEN)){
  99              		.loc 1 192 5
GAS LISTING C:\Users\Karzan\AppData\Local\Temp\ccEGabGh.s 			page 6


 100              		.loc 1 192 18 is_stmt 0
 101 0000 B7270240 		li	a5,1073881088
 102 0004 984B     		lw	a4,16(a5)
 103              		.loc 1 192 26
 104 0006 13770720 		andi	a4,a4,512
 105              		.loc 1 192 7
 106 000a 19EB     		bne	a4,zero,.L9
 193:./../../firmware/GD32VF103_standard_peripheral/Source/gd32vf103_fmc.c ****         /* write the FMC key */
 194:./../../firmware/GD32VF103_standard_peripheral/Source/gd32vf103_fmc.c ****         FMC_OBKEY = UNLOCK_KEY0;
 107              		.loc 1 194 9 is_stmt 1
 108              		.loc 1 194 19 is_stmt 0
 109 000c 37076745 		li	a4,1164378112
 110 0010 13073712 		addi	a4,a4,291
 111 0014 98C7     		sw	a4,8(a5)
 195:./../../firmware/GD32VF103_standard_peripheral/Source/gd32vf103_fmc.c ****         FMC_OBKEY = UNLOCK_KEY1;
 112              		.loc 1 195 9 is_stmt 1
 113              		.loc 1 195 19 is_stmt 0
 114 0016 3797EFCD 		li	a4,-839938048
 115 001a 1307B79A 		addi	a4,a4,-1621
 116 001e 98C7     		sw	a4,8(a5)
 117              	.L9:
 196:./../../firmware/GD32VF103_standard_peripheral/Source/gd32vf103_fmc.c ****     }
 197:./../../firmware/GD32VF103_standard_peripheral/Source/gd32vf103_fmc.c **** 
 198:./../../firmware/GD32VF103_standard_peripheral/Source/gd32vf103_fmc.c ****     /* wait until OBWEN bit is set by hardware */
 199:./../../firmware/GD32VF103_standard_peripheral/Source/gd32vf103_fmc.c ****     while (RESET == (FMC_CTL & FMC_CTL_OBWEN)){
 118              		.loc 1 199 22 discriminator 1
 119 0020 37270240 		li	a4,1073881088
 120              	.L10:
 200:./../../firmware/GD32VF103_standard_peripheral/Source/gd32vf103_fmc.c ****     }
 121              		.loc 1 200 5 is_stmt 1 discriminator 1
 199:./../../firmware/GD32VF103_standard_peripheral/Source/gd32vf103_fmc.c ****     }
 122              		.loc 1 199 22 is_stmt 0 discriminator 1
 123 0024 1C4B     		lw	a5,16(a4)
 199:./../../firmware/GD32VF103_standard_peripheral/Source/gd32vf103_fmc.c ****     }
 124              		.loc 1 199 30 discriminator 1
 125 0026 93F70720 		andi	a5,a5,512
 199:./../../firmware/GD32VF103_standard_peripheral/Source/gd32vf103_fmc.c ****     }
 126              		.loc 1 199 11 discriminator 1
 127 002a EDDF     		beq	a5,zero,.L10
 201:./../../firmware/GD32VF103_standard_peripheral/Source/gd32vf103_fmc.c **** }
 128              		.loc 1 201 1
 129 002c 8280     		ret
 130              		.cfi_endproc
 131              	.LFE9:
 133              		.section	.text.ob_lock,"ax",@progbits
 134              		.align	1
 135              		.globl	ob_lock
 137              	ob_lock:
 138              	.LFB10:
 202:./../../firmware/GD32VF103_standard_peripheral/Source/gd32vf103_fmc.c **** 
 203:./../../firmware/GD32VF103_standard_peripheral/Source/gd32vf103_fmc.c **** /*!
 204:./../../firmware/GD32VF103_standard_peripheral/Source/gd32vf103_fmc.c ****     \brief      lock the option byte operation
 205:./../../firmware/GD32VF103_standard_peripheral/Source/gd32vf103_fmc.c ****     \param[in]  none
 206:./../../firmware/GD32VF103_standard_peripheral/Source/gd32vf103_fmc.c ****     \param[out] none
 207:./../../firmware/GD32VF103_standard_peripheral/Source/gd32vf103_fmc.c ****     \retval     none
 208:./../../firmware/GD32VF103_standard_peripheral/Source/gd32vf103_fmc.c ****  */
 209:./../../firmware/GD32VF103_standard_peripheral/Source/gd32vf103_fmc.c **** void ob_lock(void)
GAS LISTING C:\Users\Karzan\AppData\Local\Temp\ccEGabGh.s 			page 7


 210:./../../firmware/GD32VF103_standard_peripheral/Source/gd32vf103_fmc.c **** {
 139              		.loc 1 210 1 is_stmt 1
 140              		.cfi_startproc
 211:./../../firmware/GD32VF103_standard_peripheral/Source/gd32vf103_fmc.c ****     /* reset the OBWEN bit */
 212:./../../firmware/GD32VF103_standard_peripheral/Source/gd32vf103_fmc.c ****     FMC_CTL &= ~FMC_CTL_OBWEN;
 141              		.loc 1 212 5
 142              		.loc 1 212 13 is_stmt 0
 143 0000 37270240 		li	a4,1073881088
 144 0004 1C4B     		lw	a5,16(a4)
 145 0006 93F7F7DF 		andi	a5,a5,-513
 146 000a 1CCB     		sw	a5,16(a4)
 213:./../../firmware/GD32VF103_standard_peripheral/Source/gd32vf103_fmc.c **** }
 147              		.loc 1 213 1
 148 000c 8280     		ret
 149              		.cfi_endproc
 150              	.LFE10:
 152              		.section	.text.ob_user_get,"ax",@progbits
 153              		.align	1
 154              		.globl	ob_user_get
 156              	ob_user_get:
 157              	.LFB16:
 214:./../../firmware/GD32VF103_standard_peripheral/Source/gd32vf103_fmc.c **** 
 215:./../../firmware/GD32VF103_standard_peripheral/Source/gd32vf103_fmc.c **** /*!
 216:./../../firmware/GD32VF103_standard_peripheral/Source/gd32vf103_fmc.c ****     \brief      erase the FMC option byte
 217:./../../firmware/GD32VF103_standard_peripheral/Source/gd32vf103_fmc.c ****     unlock the FMC_CTL and option byte before calling this function
 218:./../../firmware/GD32VF103_standard_peripheral/Source/gd32vf103_fmc.c ****     \param[in]  none
 219:./../../firmware/GD32VF103_standard_peripheral/Source/gd32vf103_fmc.c ****     \param[out] none
 220:./../../firmware/GD32VF103_standard_peripheral/Source/gd32vf103_fmc.c ****     \retval     state of FMC, refer to fmc_state_enum
 221:./../../firmware/GD32VF103_standard_peripheral/Source/gd32vf103_fmc.c ****  */
 222:./../../firmware/GD32VF103_standard_peripheral/Source/gd32vf103_fmc.c **** fmc_state_enum ob_erase(void)
 223:./../../firmware/GD32VF103_standard_peripheral/Source/gd32vf103_fmc.c **** {
 224:./../../firmware/GD32VF103_standard_peripheral/Source/gd32vf103_fmc.c ****     uint16_t temp_spc = FMC_NSPC;
 225:./../../firmware/GD32VF103_standard_peripheral/Source/gd32vf103_fmc.c **** 
 226:./../../firmware/GD32VF103_standard_peripheral/Source/gd32vf103_fmc.c ****     fmc_state_enum fmc_state = fmc_ready_wait(FMC_TIMEOUT_COUNT);
 227:./../../firmware/GD32VF103_standard_peripheral/Source/gd32vf103_fmc.c **** 
 228:./../../firmware/GD32VF103_standard_peripheral/Source/gd32vf103_fmc.c ****     /* check the option byte security protection value */
 229:./../../firmware/GD32VF103_standard_peripheral/Source/gd32vf103_fmc.c ****     if(RESET != ob_spc_get()){
 230:./../../firmware/GD32VF103_standard_peripheral/Source/gd32vf103_fmc.c ****         temp_spc = FMC_USPC;
 231:./../../firmware/GD32VF103_standard_peripheral/Source/gd32vf103_fmc.c ****     }
 232:./../../firmware/GD32VF103_standard_peripheral/Source/gd32vf103_fmc.c **** 
 233:./../../firmware/GD32VF103_standard_peripheral/Source/gd32vf103_fmc.c ****     if(FMC_READY == fmc_state){
 234:./../../firmware/GD32VF103_standard_peripheral/Source/gd32vf103_fmc.c **** 
 235:./../../firmware/GD32VF103_standard_peripheral/Source/gd32vf103_fmc.c ****         /* start erase the option byte */
 236:./../../firmware/GD32VF103_standard_peripheral/Source/gd32vf103_fmc.c ****         FMC_CTL |= FMC_CTL_OBER;
 237:./../../firmware/GD32VF103_standard_peripheral/Source/gd32vf103_fmc.c ****         FMC_CTL |= FMC_CTL_START;
 238:./../../firmware/GD32VF103_standard_peripheral/Source/gd32vf103_fmc.c **** 
 239:./../../firmware/GD32VF103_standard_peripheral/Source/gd32vf103_fmc.c ****         /* wait for the FMC ready */
 240:./../../firmware/GD32VF103_standard_peripheral/Source/gd32vf103_fmc.c ****         fmc_state = fmc_ready_wait(FMC_TIMEOUT_COUNT);
 241:./../../firmware/GD32VF103_standard_peripheral/Source/gd32vf103_fmc.c **** 
 242:./../../firmware/GD32VF103_standard_peripheral/Source/gd32vf103_fmc.c ****         if(FMC_READY == fmc_state){
 243:./../../firmware/GD32VF103_standard_peripheral/Source/gd32vf103_fmc.c ****             /* reset the OBER bit */
 244:./../../firmware/GD32VF103_standard_peripheral/Source/gd32vf103_fmc.c ****             FMC_CTL &= ~FMC_CTL_OBER;
 245:./../../firmware/GD32VF103_standard_peripheral/Source/gd32vf103_fmc.c ****             /* set the OBPG bit */
 246:./../../firmware/GD32VF103_standard_peripheral/Source/gd32vf103_fmc.c ****             FMC_CTL |= FMC_CTL_OBPG;
 247:./../../firmware/GD32VF103_standard_peripheral/Source/gd32vf103_fmc.c ****             /* no security protection */
 248:./../../firmware/GD32VF103_standard_peripheral/Source/gd32vf103_fmc.c ****             OB_SPC = (uint16_t) temp_spc;
 249:./../../firmware/GD32VF103_standard_peripheral/Source/gd32vf103_fmc.c ****             /* wait for the FMC ready */
GAS LISTING C:\Users\Karzan\AppData\Local\Temp\ccEGabGh.s 			page 8


 250:./../../firmware/GD32VF103_standard_peripheral/Source/gd32vf103_fmc.c ****             fmc_state = fmc_ready_wait(FMC_TIMEOUT_COUNT);
 251:./../../firmware/GD32VF103_standard_peripheral/Source/gd32vf103_fmc.c ****             if (FMC_TOERR != fmc_state) {
 252:./../../firmware/GD32VF103_standard_peripheral/Source/gd32vf103_fmc.c ****                 /* reset the OBPG bit */
 253:./../../firmware/GD32VF103_standard_peripheral/Source/gd32vf103_fmc.c ****                 FMC_CTL &= ~FMC_CTL_OBPG;
 254:./../../firmware/GD32VF103_standard_peripheral/Source/gd32vf103_fmc.c ****             }
 255:./../../firmware/GD32VF103_standard_peripheral/Source/gd32vf103_fmc.c ****         }else{
 256:./../../firmware/GD32VF103_standard_peripheral/Source/gd32vf103_fmc.c ****             if(FMC_TOERR != fmc_state){
 257:./../../firmware/GD32VF103_standard_peripheral/Source/gd32vf103_fmc.c ****                 /* reset the OBPG bit */
 258:./../../firmware/GD32VF103_standard_peripheral/Source/gd32vf103_fmc.c ****                 FMC_CTL &= ~FMC_CTL_OBPG;
 259:./../../firmware/GD32VF103_standard_peripheral/Source/gd32vf103_fmc.c ****             }
 260:./../../firmware/GD32VF103_standard_peripheral/Source/gd32vf103_fmc.c ****         }
 261:./../../firmware/GD32VF103_standard_peripheral/Source/gd32vf103_fmc.c ****     }
 262:./../../firmware/GD32VF103_standard_peripheral/Source/gd32vf103_fmc.c ****     /* return the FMC state */
 263:./../../firmware/GD32VF103_standard_peripheral/Source/gd32vf103_fmc.c ****     return fmc_state;
 264:./../../firmware/GD32VF103_standard_peripheral/Source/gd32vf103_fmc.c **** }
 265:./../../firmware/GD32VF103_standard_peripheral/Source/gd32vf103_fmc.c **** 
 266:./../../firmware/GD32VF103_standard_peripheral/Source/gd32vf103_fmc.c **** /*!
 267:./../../firmware/GD32VF103_standard_peripheral/Source/gd32vf103_fmc.c ****     \brief      enable write protection
 268:./../../firmware/GD32VF103_standard_peripheral/Source/gd32vf103_fmc.c ****     \param[in]  ob_wp: specify sector to be write protected, set the bit to 1 if
 269:./../../firmware/GD32VF103_standard_peripheral/Source/gd32vf103_fmc.c ****     you want to protect the corresponding pages. meanwhile, sector
 270:./../../firmware/GD32VF103_standard_peripheral/Source/gd32vf103_fmc.c ****     macro could used to set specific sector write protected.
 271:./../../firmware/GD32VF103_standard_peripheral/Source/gd32vf103_fmc.c ****     one or more parameters can be selected which are shown as below:
 272:./../../firmware/GD32VF103_standard_peripheral/Source/gd32vf103_fmc.c ****       \arg        OB_WP_x(x = 0..31): write protect specify sector
 273:./../../firmware/GD32VF103_standard_peripheral/Source/gd32vf103_fmc.c ****       \arg        OB_WP_ALL: write protect all sector
 274:./../../firmware/GD32VF103_standard_peripheral/Source/gd32vf103_fmc.c ****     \param[out] none
 275:./../../firmware/GD32VF103_standard_peripheral/Source/gd32vf103_fmc.c ****     \retval     state of FMC, refer to fmc_state_enum
 276:./../../firmware/GD32VF103_standard_peripheral/Source/gd32vf103_fmc.c ****  */
 277:./../../firmware/GD32VF103_standard_peripheral/Source/gd32vf103_fmc.c **** fmc_state_enum ob_write_protection_enable(uint32_t ob_wp)
 278:./../../firmware/GD32VF103_standard_peripheral/Source/gd32vf103_fmc.c **** {
 279:./../../firmware/GD32VF103_standard_peripheral/Source/gd32vf103_fmc.c ****     uint16_t temp_wp0, temp_wp1, temp_wp2, temp_wp3;
 280:./../../firmware/GD32VF103_standard_peripheral/Source/gd32vf103_fmc.c **** 
 281:./../../firmware/GD32VF103_standard_peripheral/Source/gd32vf103_fmc.c ****     fmc_state_enum fmc_state = fmc_ready_wait(FMC_TIMEOUT_COUNT);
 282:./../../firmware/GD32VF103_standard_peripheral/Source/gd32vf103_fmc.c **** 
 283:./../../firmware/GD32VF103_standard_peripheral/Source/gd32vf103_fmc.c ****     ob_wp = (uint32_t) (~ob_wp);
 284:./../../firmware/GD32VF103_standard_peripheral/Source/gd32vf103_fmc.c ****     temp_wp0 = (uint16_t) (ob_wp & OB_WP0_WP0);
 285:./../../firmware/GD32VF103_standard_peripheral/Source/gd32vf103_fmc.c ****     temp_wp1 = (uint16_t) ((ob_wp & OB_WP1_WP1) >> 8U);
 286:./../../firmware/GD32VF103_standard_peripheral/Source/gd32vf103_fmc.c ****     temp_wp2 = (uint16_t) ((ob_wp & OB_WP2_WP2) >> 16U);
 287:./../../firmware/GD32VF103_standard_peripheral/Source/gd32vf103_fmc.c ****     temp_wp3 = (uint16_t) ((ob_wp & OB_WP3_WP3) >> 24U);
 288:./../../firmware/GD32VF103_standard_peripheral/Source/gd32vf103_fmc.c **** 
 289:./../../firmware/GD32VF103_standard_peripheral/Source/gd32vf103_fmc.c ****     if(FMC_READY == fmc_state){
 290:./../../firmware/GD32VF103_standard_peripheral/Source/gd32vf103_fmc.c **** 
 291:./../../firmware/GD32VF103_standard_peripheral/Source/gd32vf103_fmc.c ****         /* set the OBPG bit*/
 292:./../../firmware/GD32VF103_standard_peripheral/Source/gd32vf103_fmc.c ****         FMC_CTL |= FMC_CTL_OBPG;
 293:./../../firmware/GD32VF103_standard_peripheral/Source/gd32vf103_fmc.c **** 
 294:./../../firmware/GD32VF103_standard_peripheral/Source/gd32vf103_fmc.c ****         if(0xFFU != temp_wp0){
 295:./../../firmware/GD32VF103_standard_peripheral/Source/gd32vf103_fmc.c ****             OB_WP0 = temp_wp0;
 296:./../../firmware/GD32VF103_standard_peripheral/Source/gd32vf103_fmc.c **** 
 297:./../../firmware/GD32VF103_standard_peripheral/Source/gd32vf103_fmc.c ****             /* wait for the FMC ready */
 298:./../../firmware/GD32VF103_standard_peripheral/Source/gd32vf103_fmc.c ****             fmc_state = fmc_ready_wait(FMC_TIMEOUT_COUNT);
 299:./../../firmware/GD32VF103_standard_peripheral/Source/gd32vf103_fmc.c ****         }
 300:./../../firmware/GD32VF103_standard_peripheral/Source/gd32vf103_fmc.c ****         if((FMC_READY == fmc_state) && (0xFFU != temp_wp1)){
 301:./../../firmware/GD32VF103_standard_peripheral/Source/gd32vf103_fmc.c ****             OB_WP1 = temp_wp1;
 302:./../../firmware/GD32VF103_standard_peripheral/Source/gd32vf103_fmc.c **** 
 303:./../../firmware/GD32VF103_standard_peripheral/Source/gd32vf103_fmc.c ****             /* wait for the FMC ready */
 304:./../../firmware/GD32VF103_standard_peripheral/Source/gd32vf103_fmc.c ****             fmc_state = fmc_ready_wait(FMC_TIMEOUT_COUNT);
 305:./../../firmware/GD32VF103_standard_peripheral/Source/gd32vf103_fmc.c ****         }
 306:./../../firmware/GD32VF103_standard_peripheral/Source/gd32vf103_fmc.c ****         if((FMC_READY == fmc_state) && (0xFFU != temp_wp2)){
GAS LISTING C:\Users\Karzan\AppData\Local\Temp\ccEGabGh.s 			page 9


 307:./../../firmware/GD32VF103_standard_peripheral/Source/gd32vf103_fmc.c ****             OB_WP2 = temp_wp2;
 308:./../../firmware/GD32VF103_standard_peripheral/Source/gd32vf103_fmc.c **** 
 309:./../../firmware/GD32VF103_standard_peripheral/Source/gd32vf103_fmc.c ****             /* wait for the FMC ready */
 310:./../../firmware/GD32VF103_standard_peripheral/Source/gd32vf103_fmc.c ****             fmc_state = fmc_ready_wait(FMC_TIMEOUT_COUNT);
 311:./../../firmware/GD32VF103_standard_peripheral/Source/gd32vf103_fmc.c ****         }
 312:./../../firmware/GD32VF103_standard_peripheral/Source/gd32vf103_fmc.c ****         if((FMC_READY == fmc_state) && (0xFFU != temp_wp3)){
 313:./../../firmware/GD32VF103_standard_peripheral/Source/gd32vf103_fmc.c ****             OB_WP3 = temp_wp3;
 314:./../../firmware/GD32VF103_standard_peripheral/Source/gd32vf103_fmc.c **** 
 315:./../../firmware/GD32VF103_standard_peripheral/Source/gd32vf103_fmc.c ****             /* wait for the FMC ready */
 316:./../../firmware/GD32VF103_standard_peripheral/Source/gd32vf103_fmc.c ****             fmc_state = fmc_ready_wait(FMC_TIMEOUT_COUNT);
 317:./../../firmware/GD32VF103_standard_peripheral/Source/gd32vf103_fmc.c ****         }
 318:./../../firmware/GD32VF103_standard_peripheral/Source/gd32vf103_fmc.c ****         if(FMC_TOERR != fmc_state){
 319:./../../firmware/GD32VF103_standard_peripheral/Source/gd32vf103_fmc.c ****             /* reset the OBPG bit */
 320:./../../firmware/GD32VF103_standard_peripheral/Source/gd32vf103_fmc.c ****             FMC_CTL &= ~FMC_CTL_OBPG;
 321:./../../firmware/GD32VF103_standard_peripheral/Source/gd32vf103_fmc.c ****         }
 322:./../../firmware/GD32VF103_standard_peripheral/Source/gd32vf103_fmc.c ****     }
 323:./../../firmware/GD32VF103_standard_peripheral/Source/gd32vf103_fmc.c ****     /* return the FMC state */
 324:./../../firmware/GD32VF103_standard_peripheral/Source/gd32vf103_fmc.c ****     return fmc_state;
 325:./../../firmware/GD32VF103_standard_peripheral/Source/gd32vf103_fmc.c **** }
 326:./../../firmware/GD32VF103_standard_peripheral/Source/gd32vf103_fmc.c **** 
 327:./../../firmware/GD32VF103_standard_peripheral/Source/gd32vf103_fmc.c **** /*!
 328:./../../firmware/GD32VF103_standard_peripheral/Source/gd32vf103_fmc.c ****     \brief      configure security protection
 329:./../../firmware/GD32VF103_standard_peripheral/Source/gd32vf103_fmc.c ****     \param[in]  ob_spc: specify security protection
 330:./../../firmware/GD32VF103_standard_peripheral/Source/gd32vf103_fmc.c ****     only one parameter can be selected which is shown as below:
 331:./../../firmware/GD32VF103_standard_peripheral/Source/gd32vf103_fmc.c ****       \arg        FMC_NSPC: no security protection
 332:./../../firmware/GD32VF103_standard_peripheral/Source/gd32vf103_fmc.c ****       \arg        FMC_USPC: under security protection
 333:./../../firmware/GD32VF103_standard_peripheral/Source/gd32vf103_fmc.c ****     \param[out] none
 334:./../../firmware/GD32VF103_standard_peripheral/Source/gd32vf103_fmc.c ****     \retval     state of FMC, refer to fmc_state_enum
 335:./../../firmware/GD32VF103_standard_peripheral/Source/gd32vf103_fmc.c ****  */
 336:./../../firmware/GD32VF103_standard_peripheral/Source/gd32vf103_fmc.c **** fmc_state_enum ob_security_protection_config(uint8_t ob_spc)
 337:./../../firmware/GD32VF103_standard_peripheral/Source/gd32vf103_fmc.c **** {
 338:./../../firmware/GD32VF103_standard_peripheral/Source/gd32vf103_fmc.c ****     fmc_state_enum fmc_state = fmc_ready_wait(FMC_TIMEOUT_COUNT);
 339:./../../firmware/GD32VF103_standard_peripheral/Source/gd32vf103_fmc.c **** 
 340:./../../firmware/GD32VF103_standard_peripheral/Source/gd32vf103_fmc.c ****     if(FMC_READY == fmc_state){
 341:./../../firmware/GD32VF103_standard_peripheral/Source/gd32vf103_fmc.c ****         FMC_CTL |= FMC_CTL_OBER;
 342:./../../firmware/GD32VF103_standard_peripheral/Source/gd32vf103_fmc.c ****         FMC_CTL |= FMC_CTL_START;
 343:./../../firmware/GD32VF103_standard_peripheral/Source/gd32vf103_fmc.c **** 
 344:./../../firmware/GD32VF103_standard_peripheral/Source/gd32vf103_fmc.c ****         /* wait for the FMC ready */
 345:./../../firmware/GD32VF103_standard_peripheral/Source/gd32vf103_fmc.c ****         fmc_state = fmc_ready_wait(FMC_TIMEOUT_COUNT);
 346:./../../firmware/GD32VF103_standard_peripheral/Source/gd32vf103_fmc.c **** 
 347:./../../firmware/GD32VF103_standard_peripheral/Source/gd32vf103_fmc.c ****         if(FMC_READY == fmc_state){
 348:./../../firmware/GD32VF103_standard_peripheral/Source/gd32vf103_fmc.c ****             /* reset the OBER bit */
 349:./../../firmware/GD32VF103_standard_peripheral/Source/gd32vf103_fmc.c ****             FMC_CTL &= ~FMC_CTL_OBER;
 350:./../../firmware/GD32VF103_standard_peripheral/Source/gd32vf103_fmc.c **** 
 351:./../../firmware/GD32VF103_standard_peripheral/Source/gd32vf103_fmc.c ****             /* start the option byte program */
 352:./../../firmware/GD32VF103_standard_peripheral/Source/gd32vf103_fmc.c ****             FMC_CTL |= FMC_CTL_OBPG;
 353:./../../firmware/GD32VF103_standard_peripheral/Source/gd32vf103_fmc.c **** 
 354:./../../firmware/GD32VF103_standard_peripheral/Source/gd32vf103_fmc.c ****             OB_SPC = (uint16_t) ob_spc;
 355:./../../firmware/GD32VF103_standard_peripheral/Source/gd32vf103_fmc.c **** 
 356:./../../firmware/GD32VF103_standard_peripheral/Source/gd32vf103_fmc.c ****             /* wait for the FMC ready */
 357:./../../firmware/GD32VF103_standard_peripheral/Source/gd32vf103_fmc.c ****             fmc_state = fmc_ready_wait(FMC_TIMEOUT_COUNT);
 358:./../../firmware/GD32VF103_standard_peripheral/Source/gd32vf103_fmc.c **** 
 359:./../../firmware/GD32VF103_standard_peripheral/Source/gd32vf103_fmc.c ****             if (FMC_TOERR != fmc_state) {
 360:./../../firmware/GD32VF103_standard_peripheral/Source/gd32vf103_fmc.c ****                 /* reset the OBPG bit */
 361:./../../firmware/GD32VF103_standard_peripheral/Source/gd32vf103_fmc.c ****                 FMC_CTL &= ~FMC_CTL_OBPG;
 362:./../../firmware/GD32VF103_standard_peripheral/Source/gd32vf103_fmc.c ****             }
 363:./../../firmware/GD32VF103_standard_peripheral/Source/gd32vf103_fmc.c ****         }else{
GAS LISTING C:\Users\Karzan\AppData\Local\Temp\ccEGabGh.s 			page 10


 364:./../../firmware/GD32VF103_standard_peripheral/Source/gd32vf103_fmc.c ****             if (FMC_TOERR != fmc_state) {
 365:./../../firmware/GD32VF103_standard_peripheral/Source/gd32vf103_fmc.c ****                 /* reset the OBER bit */
 366:./../../firmware/GD32VF103_standard_peripheral/Source/gd32vf103_fmc.c ****                 FMC_CTL &= ~FMC_CTL_OBER;
 367:./../../firmware/GD32VF103_standard_peripheral/Source/gd32vf103_fmc.c ****             }
 368:./../../firmware/GD32VF103_standard_peripheral/Source/gd32vf103_fmc.c ****         }
 369:./../../firmware/GD32VF103_standard_peripheral/Source/gd32vf103_fmc.c ****     }
 370:./../../firmware/GD32VF103_standard_peripheral/Source/gd32vf103_fmc.c ****     /* return the FMC state */
 371:./../../firmware/GD32VF103_standard_peripheral/Source/gd32vf103_fmc.c ****     return fmc_state;
 372:./../../firmware/GD32VF103_standard_peripheral/Source/gd32vf103_fmc.c **** }
 373:./../../firmware/GD32VF103_standard_peripheral/Source/gd32vf103_fmc.c **** 
 374:./../../firmware/GD32VF103_standard_peripheral/Source/gd32vf103_fmc.c **** /*!
 375:./../../firmware/GD32VF103_standard_peripheral/Source/gd32vf103_fmc.c ****     \brief      program the FMC user option byte
 376:./../../firmware/GD32VF103_standard_peripheral/Source/gd32vf103_fmc.c ****     \param[in]  ob_fwdgt: option byte watchdog value
 377:./../../firmware/GD32VF103_standard_peripheral/Source/gd32vf103_fmc.c ****       \arg        OB_FWDGT_SW: software free watchdog
 378:./../../firmware/GD32VF103_standard_peripheral/Source/gd32vf103_fmc.c ****       \arg        OB_FWDGT_HW: hardware free watchdog
 379:./../../firmware/GD32VF103_standard_peripheral/Source/gd32vf103_fmc.c ****     \param[in]  ob_deepsleep: option byte deepsleep reset value
 380:./../../firmware/GD32VF103_standard_peripheral/Source/gd32vf103_fmc.c ****       \arg        OB_DEEPSLEEP_NRST: no reset when entering deepsleep mode
 381:./../../firmware/GD32VF103_standard_peripheral/Source/gd32vf103_fmc.c ****       \arg        OB_DEEPSLEEP_RST: generate a reset instead of entering deepsleep mode
 382:./../../firmware/GD32VF103_standard_peripheral/Source/gd32vf103_fmc.c ****     \param[in]  ob_stdby:option byte standby reset value
 383:./../../firmware/GD32VF103_standard_peripheral/Source/gd32vf103_fmc.c ****       \arg        OB_STDBY_NRST: no reset when entering standby mode
 384:./../../firmware/GD32VF103_standard_peripheral/Source/gd32vf103_fmc.c ****       \arg        OB_STDBY_RST: generate a reset instead of entering standby mode
 385:./../../firmware/GD32VF103_standard_peripheral/Source/gd32vf103_fmc.c ****     \param[in]  ob_boot: specifies the option byte boot bank value
 386:./../../firmware/GD32VF103_standard_peripheral/Source/gd32vf103_fmc.c ****       \arg        OB_BOOT_B0: boot from bank0
 387:./../../firmware/GD32VF103_standard_peripheral/Source/gd32vf103_fmc.c ****     \param[out] none
 388:./../../firmware/GD32VF103_standard_peripheral/Source/gd32vf103_fmc.c ****     \retval     state of FMC, refer to fmc_state_enum
 389:./../../firmware/GD32VF103_standard_peripheral/Source/gd32vf103_fmc.c ****  */
 390:./../../firmware/GD32VF103_standard_peripheral/Source/gd32vf103_fmc.c **** fmc_state_enum ob_user_write(uint8_t ob_fwdgt, uint8_t ob_deepsleep, uint8_t ob_stdby, uint8_t ob_b
 391:./../../firmware/GD32VF103_standard_peripheral/Source/gd32vf103_fmc.c **** {
 392:./../../firmware/GD32VF103_standard_peripheral/Source/gd32vf103_fmc.c ****     fmc_state_enum fmc_state = FMC_READY;
 393:./../../firmware/GD32VF103_standard_peripheral/Source/gd32vf103_fmc.c ****     uint8_t temp;
 394:./../../firmware/GD32VF103_standard_peripheral/Source/gd32vf103_fmc.c **** 
 395:./../../firmware/GD32VF103_standard_peripheral/Source/gd32vf103_fmc.c ****     /* wait for the FMC ready */
 396:./../../firmware/GD32VF103_standard_peripheral/Source/gd32vf103_fmc.c ****     fmc_state = fmc_ready_wait(FMC_TIMEOUT_COUNT);
 397:./../../firmware/GD32VF103_standard_peripheral/Source/gd32vf103_fmc.c **** 
 398:./../../firmware/GD32VF103_standard_peripheral/Source/gd32vf103_fmc.c ****     if(FMC_READY == fmc_state){
 399:./../../firmware/GD32VF103_standard_peripheral/Source/gd32vf103_fmc.c ****         /* set the OBPG bit*/
 400:./../../firmware/GD32VF103_standard_peripheral/Source/gd32vf103_fmc.c ****         FMC_CTL |= FMC_CTL_OBPG;
 401:./../../firmware/GD32VF103_standard_peripheral/Source/gd32vf103_fmc.c **** 
 402:./../../firmware/GD32VF103_standard_peripheral/Source/gd32vf103_fmc.c ****         temp = ((uint8_t)((uint8_t)((uint8_t)(ob_boot | ob_fwdgt) | ob_deepsleep) | ob_stdby) | OB_
 403:./../../firmware/GD32VF103_standard_peripheral/Source/gd32vf103_fmc.c ****         OB_USER = (uint16_t) temp;
 404:./../../firmware/GD32VF103_standard_peripheral/Source/gd32vf103_fmc.c **** 
 405:./../../firmware/GD32VF103_standard_peripheral/Source/gd32vf103_fmc.c ****         /* wait for the FMC ready */
 406:./../../firmware/GD32VF103_standard_peripheral/Source/gd32vf103_fmc.c ****         fmc_state = fmc_ready_wait(FMC_TIMEOUT_COUNT);
 407:./../../firmware/GD32VF103_standard_peripheral/Source/gd32vf103_fmc.c **** 
 408:./../../firmware/GD32VF103_standard_peripheral/Source/gd32vf103_fmc.c ****         if(FMC_TOERR != fmc_state){
 409:./../../firmware/GD32VF103_standard_peripheral/Source/gd32vf103_fmc.c ****             /* reset the OBPG bit */
 410:./../../firmware/GD32VF103_standard_peripheral/Source/gd32vf103_fmc.c ****             FMC_CTL &= ~FMC_CTL_OBPG;
 411:./../../firmware/GD32VF103_standard_peripheral/Source/gd32vf103_fmc.c ****         }
 412:./../../firmware/GD32VF103_standard_peripheral/Source/gd32vf103_fmc.c ****     }
 413:./../../firmware/GD32VF103_standard_peripheral/Source/gd32vf103_fmc.c ****     /* return the FMC state */
 414:./../../firmware/GD32VF103_standard_peripheral/Source/gd32vf103_fmc.c ****     return fmc_state;
 415:./../../firmware/GD32VF103_standard_peripheral/Source/gd32vf103_fmc.c **** }
 416:./../../firmware/GD32VF103_standard_peripheral/Source/gd32vf103_fmc.c **** 
 417:./../../firmware/GD32VF103_standard_peripheral/Source/gd32vf103_fmc.c **** /*!
 418:./../../firmware/GD32VF103_standard_peripheral/Source/gd32vf103_fmc.c ****     \brief      program the FMC data option byte
 419:./../../firmware/GD32VF103_standard_peripheral/Source/gd32vf103_fmc.c ****     \param[in]  address: the option bytes address to be programmed
 420:./../../firmware/GD32VF103_standard_peripheral/Source/gd32vf103_fmc.c ****     \param[in]  data: the byte to be programmed
GAS LISTING C:\Users\Karzan\AppData\Local\Temp\ccEGabGh.s 			page 11


 421:./../../firmware/GD32VF103_standard_peripheral/Source/gd32vf103_fmc.c ****     \param[out] none
 422:./../../firmware/GD32VF103_standard_peripheral/Source/gd32vf103_fmc.c ****     \retval     state of FMC, refer to fmc_state_enum
 423:./../../firmware/GD32VF103_standard_peripheral/Source/gd32vf103_fmc.c ****  */
 424:./../../firmware/GD32VF103_standard_peripheral/Source/gd32vf103_fmc.c **** fmc_state_enum ob_data_program(uint32_t address, uint8_t data)
 425:./../../firmware/GD32VF103_standard_peripheral/Source/gd32vf103_fmc.c **** {
 426:./../../firmware/GD32VF103_standard_peripheral/Source/gd32vf103_fmc.c ****     fmc_state_enum fmc_state = fmc_ready_wait(FMC_TIMEOUT_COUNT);
 427:./../../firmware/GD32VF103_standard_peripheral/Source/gd32vf103_fmc.c **** 
 428:./../../firmware/GD32VF103_standard_peripheral/Source/gd32vf103_fmc.c ****     if(FMC_READY == fmc_state){
 429:./../../firmware/GD32VF103_standard_peripheral/Source/gd32vf103_fmc.c ****         /* set the OBPG bit */
 430:./../../firmware/GD32VF103_standard_peripheral/Source/gd32vf103_fmc.c ****         FMC_CTL |= FMC_CTL_OBPG;
 431:./../../firmware/GD32VF103_standard_peripheral/Source/gd32vf103_fmc.c ****         REG16(address) = data;
 432:./../../firmware/GD32VF103_standard_peripheral/Source/gd32vf103_fmc.c **** 
 433:./../../firmware/GD32VF103_standard_peripheral/Source/gd32vf103_fmc.c ****         /* wait for the FMC ready */
 434:./../../firmware/GD32VF103_standard_peripheral/Source/gd32vf103_fmc.c ****         fmc_state = fmc_ready_wait(FMC_TIMEOUT_COUNT);
 435:./../../firmware/GD32VF103_standard_peripheral/Source/gd32vf103_fmc.c **** 
 436:./../../firmware/GD32VF103_standard_peripheral/Source/gd32vf103_fmc.c ****         if(FMC_TOERR != fmc_state){
 437:./../../firmware/GD32VF103_standard_peripheral/Source/gd32vf103_fmc.c ****             /* reset the OBPG bit */
 438:./../../firmware/GD32VF103_standard_peripheral/Source/gd32vf103_fmc.c ****             FMC_CTL &= ~FMC_CTL_OBPG;
 439:./../../firmware/GD32VF103_standard_peripheral/Source/gd32vf103_fmc.c ****         }
 440:./../../firmware/GD32VF103_standard_peripheral/Source/gd32vf103_fmc.c ****     }
 441:./../../firmware/GD32VF103_standard_peripheral/Source/gd32vf103_fmc.c ****     /* return the FMC state */
 442:./../../firmware/GD32VF103_standard_peripheral/Source/gd32vf103_fmc.c ****     return fmc_state;
 443:./../../firmware/GD32VF103_standard_peripheral/Source/gd32vf103_fmc.c **** }
 444:./../../firmware/GD32VF103_standard_peripheral/Source/gd32vf103_fmc.c **** 
 445:./../../firmware/GD32VF103_standard_peripheral/Source/gd32vf103_fmc.c **** /*!
 446:./../../firmware/GD32VF103_standard_peripheral/Source/gd32vf103_fmc.c ****     \brief      get OB_USER in register FMC_OBSTAT
 447:./../../firmware/GD32VF103_standard_peripheral/Source/gd32vf103_fmc.c ****     \param[in]  none
 448:./../../firmware/GD32VF103_standard_peripheral/Source/gd32vf103_fmc.c ****     \param[out] none
 449:./../../firmware/GD32VF103_standard_peripheral/Source/gd32vf103_fmc.c ****     \retval     the FMC user option byte values
 450:./../../firmware/GD32VF103_standard_peripheral/Source/gd32vf103_fmc.c ****  */
 451:./../../firmware/GD32VF103_standard_peripheral/Source/gd32vf103_fmc.c **** uint8_t ob_user_get(void)
 452:./../../firmware/GD32VF103_standard_peripheral/Source/gd32vf103_fmc.c **** {
 158              		.loc 1 452 1 is_stmt 1
 159              		.cfi_startproc
 453:./../../firmware/GD32VF103_standard_peripheral/Source/gd32vf103_fmc.c ****     /* return the FMC user option byte value */
 454:./../../firmware/GD32VF103_standard_peripheral/Source/gd32vf103_fmc.c ****     return (uint8_t) (FMC_OBSTAT >> 2U);
 160              		.loc 1 454 5
 161              		.loc 1 454 23 is_stmt 0
 162 0000 B7270240 		li	a5,1073881088
 163 0004 C84F     		lw	a0,28(a5)
 164              		.loc 1 454 34
 165 0006 0981     		srli	a0,a0,2
 455:./../../firmware/GD32VF103_standard_peripheral/Source/gd32vf103_fmc.c **** }
 166              		.loc 1 455 1
 167 0008 1375F50F 		andi	a0,a0,0xff
 168 000c 8280     		ret
 169              		.cfi_endproc
 170              	.LFE16:
 172              		.section	.text.ob_data_get,"ax",@progbits
 173              		.align	1
 174              		.globl	ob_data_get
 176              	ob_data_get:
 177              	.LFB17:
 456:./../../firmware/GD32VF103_standard_peripheral/Source/gd32vf103_fmc.c **** 
 457:./../../firmware/GD32VF103_standard_peripheral/Source/gd32vf103_fmc.c **** /*!
 458:./../../firmware/GD32VF103_standard_peripheral/Source/gd32vf103_fmc.c ****     \brief      get OB_DATA in register FMC_OBSTAT
 459:./../../firmware/GD32VF103_standard_peripheral/Source/gd32vf103_fmc.c ****     \param[in]  none
GAS LISTING C:\Users\Karzan\AppData\Local\Temp\ccEGabGh.s 			page 12


 460:./../../firmware/GD32VF103_standard_peripheral/Source/gd32vf103_fmc.c ****     \param[out] none
 461:./../../firmware/GD32VF103_standard_peripheral/Source/gd32vf103_fmc.c ****     \retval     ob_data
 462:./../../firmware/GD32VF103_standard_peripheral/Source/gd32vf103_fmc.c ****  */
 463:./../../firmware/GD32VF103_standard_peripheral/Source/gd32vf103_fmc.c **** uint16_t ob_data_get(void)
 464:./../../firmware/GD32VF103_standard_peripheral/Source/gd32vf103_fmc.c **** {
 178              		.loc 1 464 1 is_stmt 1
 179              		.cfi_startproc
 465:./../../firmware/GD32VF103_standard_peripheral/Source/gd32vf103_fmc.c ****     return (uint16_t) (FMC_OBSTAT >> 10U);
 180              		.loc 1 465 5
 181              		.loc 1 465 24 is_stmt 0
 182 0000 B7270240 		li	a5,1073881088
 183 0004 C84F     		lw	a0,28(a5)
 184              		.loc 1 465 35
 185 0006 2981     		srli	a0,a0,10
 466:./../../firmware/GD32VF103_standard_peripheral/Source/gd32vf103_fmc.c **** }
 186              		.loc 1 466 1
 187 0008 4205     		slli	a0,a0,16
 188 000a 4181     		srli	a0,a0,16
 189 000c 8280     		ret
 190              		.cfi_endproc
 191              	.LFE17:
 193              		.section	.text.ob_write_protection_get,"ax",@progbits
 194              		.align	1
 195              		.globl	ob_write_protection_get
 197              	ob_write_protection_get:
 198              	.LFB18:
 467:./../../firmware/GD32VF103_standard_peripheral/Source/gd32vf103_fmc.c **** 
 468:./../../firmware/GD32VF103_standard_peripheral/Source/gd32vf103_fmc.c **** /*!
 469:./../../firmware/GD32VF103_standard_peripheral/Source/gd32vf103_fmc.c ****     \brief      get the FMC option byte write protection
 470:./../../firmware/GD32VF103_standard_peripheral/Source/gd32vf103_fmc.c ****     \param[in]  none
 471:./../../firmware/GD32VF103_standard_peripheral/Source/gd32vf103_fmc.c ****     \param[out] none
 472:./../../firmware/GD32VF103_standard_peripheral/Source/gd32vf103_fmc.c ****     \retval     the FMC write protection option byte value
 473:./../../firmware/GD32VF103_standard_peripheral/Source/gd32vf103_fmc.c ****  */
 474:./../../firmware/GD32VF103_standard_peripheral/Source/gd32vf103_fmc.c **** uint32_t ob_write_protection_get(void)
 475:./../../firmware/GD32VF103_standard_peripheral/Source/gd32vf103_fmc.c **** {
 199              		.loc 1 475 1 is_stmt 1
 200              		.cfi_startproc
 476:./../../firmware/GD32VF103_standard_peripheral/Source/gd32vf103_fmc.c ****     /* return the FMC write protection option byte value */
 477:./../../firmware/GD32VF103_standard_peripheral/Source/gd32vf103_fmc.c ****     return FMC_WP;
 201              		.loc 1 477 5
 202              		.loc 1 477 12 is_stmt 0
 203 0000 B7270240 		li	a5,1073881088
 204 0004 8853     		lw	a0,32(a5)
 478:./../../firmware/GD32VF103_standard_peripheral/Source/gd32vf103_fmc.c **** }
 205              		.loc 1 478 1
 206 0006 8280     		ret
 207              		.cfi_endproc
 208              	.LFE18:
 210              		.section	.text.ob_spc_get,"ax",@progbits
 211              		.align	1
 212              		.globl	ob_spc_get
 214              	ob_spc_get:
 215              	.LFB19:
 479:./../../firmware/GD32VF103_standard_peripheral/Source/gd32vf103_fmc.c **** 
 480:./../../firmware/GD32VF103_standard_peripheral/Source/gd32vf103_fmc.c **** /*!
 481:./../../firmware/GD32VF103_standard_peripheral/Source/gd32vf103_fmc.c ****     \brief      get FMC option byte security protection state
 482:./../../firmware/GD32VF103_standard_peripheral/Source/gd32vf103_fmc.c ****     \param[in]  none
GAS LISTING C:\Users\Karzan\AppData\Local\Temp\ccEGabGh.s 			page 13


 483:./../../firmware/GD32VF103_standard_peripheral/Source/gd32vf103_fmc.c ****     \param[out] none
 484:./../../firmware/GD32VF103_standard_peripheral/Source/gd32vf103_fmc.c ****     \retval     FlagStatus: SET or RESET
 485:./../../firmware/GD32VF103_standard_peripheral/Source/gd32vf103_fmc.c ****  */
 486:./../../firmware/GD32VF103_standard_peripheral/Source/gd32vf103_fmc.c **** FlagStatus ob_spc_get(void)
 487:./../../firmware/GD32VF103_standard_peripheral/Source/gd32vf103_fmc.c **** {
 216              		.loc 1 487 1 is_stmt 1
 217              		.cfi_startproc
 488:./../../firmware/GD32VF103_standard_peripheral/Source/gd32vf103_fmc.c ****     FlagStatus spc_state = RESET;
 218              		.loc 1 488 5
 219              	.LVL4:
 489:./../../firmware/GD32VF103_standard_peripheral/Source/gd32vf103_fmc.c **** 
 490:./../../firmware/GD32VF103_standard_peripheral/Source/gd32vf103_fmc.c ****     if(RESET != (FMC_OBSTAT & FMC_OBSTAT_SPC)){
 220              		.loc 1 490 5
 221              		.loc 1 490 18 is_stmt 0
 222 0000 B7270240 		li	a5,1073881088
 223 0004 C84F     		lw	a0,28(a5)
 224              	.LVL5:
 491:./../../firmware/GD32VF103_standard_peripheral/Source/gd32vf103_fmc.c ****         spc_state = SET;
 492:./../../firmware/GD32VF103_standard_peripheral/Source/gd32vf103_fmc.c ****     }else{
 493:./../../firmware/GD32VF103_standard_peripheral/Source/gd32vf103_fmc.c ****         spc_state = RESET;
 494:./../../firmware/GD32VF103_standard_peripheral/Source/gd32vf103_fmc.c ****     }
 495:./../../firmware/GD32VF103_standard_peripheral/Source/gd32vf103_fmc.c ****     return spc_state;
 225              		.loc 1 495 5 is_stmt 1
 490:./../../firmware/GD32VF103_standard_peripheral/Source/gd32vf103_fmc.c ****         spc_state = SET;
 226              		.loc 1 490 7 is_stmt 0
 227 0006 0581     		srli	a0,a0,1
 228              	.LVL6:
 496:./../../firmware/GD32VF103_standard_peripheral/Source/gd32vf103_fmc.c **** }
 229              		.loc 1 496 1
 230 0008 0589     		andi	a0,a0,1
 231 000a 8280     		ret
 232              		.cfi_endproc
 233              	.LFE19:
 235              		.section	.text.fmc_interrupt_enable,"ax",@progbits
 236              		.align	1
 237              		.globl	fmc_interrupt_enable
 239              	fmc_interrupt_enable:
 240              	.LFB20:
 497:./../../firmware/GD32VF103_standard_peripheral/Source/gd32vf103_fmc.c **** 
 498:./../../firmware/GD32VF103_standard_peripheral/Source/gd32vf103_fmc.c **** /*!
 499:./../../firmware/GD32VF103_standard_peripheral/Source/gd32vf103_fmc.c ****     \brief      enable FMC interrupt
 500:./../../firmware/GD32VF103_standard_peripheral/Source/gd32vf103_fmc.c ****     \param[in]  interrupt: the FMC interrupt source
 501:./../../firmware/GD32VF103_standard_peripheral/Source/gd32vf103_fmc.c ****     only one parameter can be selected which is shown as below:
 502:./../../firmware/GD32VF103_standard_peripheral/Source/gd32vf103_fmc.c ****       \arg        FMC_INT_END: enable FMC end of program interrupt
 503:./../../firmware/GD32VF103_standard_peripheral/Source/gd32vf103_fmc.c ****       \arg        FMC_INT_ERR: enable FMC error interrupt
 504:./../../firmware/GD32VF103_standard_peripheral/Source/gd32vf103_fmc.c ****     \param[out] none
 505:./../../firmware/GD32VF103_standard_peripheral/Source/gd32vf103_fmc.c ****     \retval     none
 506:./../../firmware/GD32VF103_standard_peripheral/Source/gd32vf103_fmc.c ****  */
 507:./../../firmware/GD32VF103_standard_peripheral/Source/gd32vf103_fmc.c **** void fmc_interrupt_enable(fmc_int_enum interrupt)
 508:./../../firmware/GD32VF103_standard_peripheral/Source/gd32vf103_fmc.c **** {
 241              		.loc 1 508 1 is_stmt 1
 242              		.cfi_startproc
 243              	.LVL7:
 509:./../../firmware/GD32VF103_standard_peripheral/Source/gd32vf103_fmc.c ****     FMC_CTL |= (uint32_t)interrupt;
 244              		.loc 1 509 5
 245              		.loc 1 509 13 is_stmt 0
 246 0000 37270240 		li	a4,1073881088
GAS LISTING C:\Users\Karzan\AppData\Local\Temp\ccEGabGh.s 			page 14


 247 0004 1C4B     		lw	a5,16(a4)
 248 0006 5D8D     		or	a0,a5,a0
 249              	.LVL8:
 250 0008 08CB     		sw	a0,16(a4)
 510:./../../firmware/GD32VF103_standard_peripheral/Source/gd32vf103_fmc.c **** }
 251              		.loc 1 510 1
 252 000a 8280     		ret
 253              		.cfi_endproc
 254              	.LFE20:
 256              		.section	.text.fmc_interrupt_disable,"ax",@progbits
 257              		.align	1
 258              		.globl	fmc_interrupt_disable
 260              	fmc_interrupt_disable:
 261              	.LFB21:
 511:./../../firmware/GD32VF103_standard_peripheral/Source/gd32vf103_fmc.c **** 
 512:./../../firmware/GD32VF103_standard_peripheral/Source/gd32vf103_fmc.c **** /*!
 513:./../../firmware/GD32VF103_standard_peripheral/Source/gd32vf103_fmc.c ****     \brief      disable FMC interrupt
 514:./../../firmware/GD32VF103_standard_peripheral/Source/gd32vf103_fmc.c ****     \param[in]  interrupt: the FMC interrupt source
 515:./../../firmware/GD32VF103_standard_peripheral/Source/gd32vf103_fmc.c ****     only one parameter can be selected which is shown as below:
 516:./../../firmware/GD32VF103_standard_peripheral/Source/gd32vf103_fmc.c ****       \arg        FMC_INT_END: enable FMC end of program interrupt
 517:./../../firmware/GD32VF103_standard_peripheral/Source/gd32vf103_fmc.c ****       \arg        FMC_INT_ERR: enable FMC error interrupt
 518:./../../firmware/GD32VF103_standard_peripheral/Source/gd32vf103_fmc.c ****     \param[out] none
 519:./../../firmware/GD32VF103_standard_peripheral/Source/gd32vf103_fmc.c ****     \retval     none
 520:./../../firmware/GD32VF103_standard_peripheral/Source/gd32vf103_fmc.c ****  */
 521:./../../firmware/GD32VF103_standard_peripheral/Source/gd32vf103_fmc.c **** void fmc_interrupt_disable(fmc_int_enum interrupt)
 522:./../../firmware/GD32VF103_standard_peripheral/Source/gd32vf103_fmc.c **** {
 262              		.loc 1 522 1 is_stmt 1
 263              		.cfi_startproc
 264              	.LVL9:
 523:./../../firmware/GD32VF103_standard_peripheral/Source/gd32vf103_fmc.c ****     FMC_CTL &= ~(uint32_t)interrupt;
 265              		.loc 1 523 5
 266              		.loc 1 523 13 is_stmt 0
 267 0000 B7270240 		li	a5,1073881088
 268 0004 984B     		lw	a4,16(a5)
 269              		.loc 1 523 16
 270 0006 1345F5FF 		not	a0,a0
 271              	.LVL10:
 272              		.loc 1 523 13
 273 000a 798D     		and	a0,a0,a4
 274              	.LVL11:
 275 000c 88CB     		sw	a0,16(a5)
 524:./../../firmware/GD32VF103_standard_peripheral/Source/gd32vf103_fmc.c **** }
 276              		.loc 1 524 1
 277 000e 8280     		ret
 278              		.cfi_endproc
 279              	.LFE21:
 281              		.section	.text.fmc_flag_get,"ax",@progbits
 282              		.align	1
 283              		.globl	fmc_flag_get
 285              	fmc_flag_get:
 286              	.LFB22:
 525:./../../firmware/GD32VF103_standard_peripheral/Source/gd32vf103_fmc.c **** 
 526:./../../firmware/GD32VF103_standard_peripheral/Source/gd32vf103_fmc.c **** /*!
 527:./../../firmware/GD32VF103_standard_peripheral/Source/gd32vf103_fmc.c ****     \brief      check flag is set or not
 528:./../../firmware/GD32VF103_standard_peripheral/Source/gd32vf103_fmc.c ****     \param[in]  flag: check FMC flag
 529:./../../firmware/GD32VF103_standard_peripheral/Source/gd32vf103_fmc.c ****     only one parameter can be selected which is shown as below:
 530:./../../firmware/GD32VF103_standard_peripheral/Source/gd32vf103_fmc.c ****       \arg        FMC_FLAG_BUSY: FMC busy flag
GAS LISTING C:\Users\Karzan\AppData\Local\Temp\ccEGabGh.s 			page 15


 531:./../../firmware/GD32VF103_standard_peripheral/Source/gd32vf103_fmc.c ****       \arg        FMC_FLAG_PGERR: FMC operation error flag
 532:./../../firmware/GD32VF103_standard_peripheral/Source/gd32vf103_fmc.c ****       \arg        FMC_FLAG_WPERR: FMC erase/program protection error flag
 533:./../../firmware/GD32VF103_standard_peripheral/Source/gd32vf103_fmc.c ****       \arg        FMC_FLAG_END: FMC end of operation flag
 534:./../../firmware/GD32VF103_standard_peripheral/Source/gd32vf103_fmc.c ****     \param[out] none
 535:./../../firmware/GD32VF103_standard_peripheral/Source/gd32vf103_fmc.c ****     \retval     FlagStatus: SET or RESET
 536:./../../firmware/GD32VF103_standard_peripheral/Source/gd32vf103_fmc.c ****  */
 537:./../../firmware/GD32VF103_standard_peripheral/Source/gd32vf103_fmc.c **** FlagStatus fmc_flag_get(fmc_flag_enum flag)
 538:./../../firmware/GD32VF103_standard_peripheral/Source/gd32vf103_fmc.c **** {
 287              		.loc 1 538 1 is_stmt 1
 288              		.cfi_startproc
 289              	.LVL12:
 539:./../../firmware/GD32VF103_standard_peripheral/Source/gd32vf103_fmc.c ****     FlagStatus status = RESET;
 290              		.loc 1 539 5
 540:./../../firmware/GD32VF103_standard_peripheral/Source/gd32vf103_fmc.c **** 
 541:./../../firmware/GD32VF103_standard_peripheral/Source/gd32vf103_fmc.c ****     if(FMC_STAT & flag){
 291              		.loc 1 541 5
 292              		.loc 1 541 8 is_stmt 0
 293 0000 B7270240 		li	a5,1073881088
 294 0004 DC47     		lw	a5,12(a5)
 295              	.LVL13:
 542:./../../firmware/GD32VF103_standard_peripheral/Source/gd32vf103_fmc.c ****         status = SET;
 543:./../../firmware/GD32VF103_standard_peripheral/Source/gd32vf103_fmc.c ****     }
 544:./../../firmware/GD32VF103_standard_peripheral/Source/gd32vf103_fmc.c ****     /* return the state of corresponding FMC flag */
 545:./../../firmware/GD32VF103_standard_peripheral/Source/gd32vf103_fmc.c ****     return status;
 296              		.loc 1 545 5 is_stmt 1
 541:./../../firmware/GD32VF103_standard_peripheral/Source/gd32vf103_fmc.c ****         status = SET;
 297              		.loc 1 541 17 is_stmt 0
 298 0006 7D8D     		and	a0,a5,a0
 299              	.LVL14:
 546:./../../firmware/GD32VF103_standard_peripheral/Source/gd32vf103_fmc.c **** }
 300              		.loc 1 546 1
 301 0008 3335A000 		snez	a0,a0
 302 000c 8280     		ret
 303              		.cfi_endproc
 304              	.LFE22:
 306              		.section	.text.fmc_flag_clear,"ax",@progbits
 307              		.align	1
 308              		.globl	fmc_flag_clear
 310              	fmc_flag_clear:
 311              	.LFB23:
 547:./../../firmware/GD32VF103_standard_peripheral/Source/gd32vf103_fmc.c **** 
 548:./../../firmware/GD32VF103_standard_peripheral/Source/gd32vf103_fmc.c **** /*!
 549:./../../firmware/GD32VF103_standard_peripheral/Source/gd32vf103_fmc.c ****  \brief      clear the FMC flag
 550:./../../firmware/GD32VF103_standard_peripheral/Source/gd32vf103_fmc.c ****  \param[in]  flag: clear FMC flag
 551:./../../firmware/GD32VF103_standard_peripheral/Source/gd32vf103_fmc.c ****  only one parameter can be selected which is shown as below:
 552:./../../firmware/GD32VF103_standard_peripheral/Source/gd32vf103_fmc.c ****  \arg        FMC_FLAG_PGERR: FMC operation error flag
 553:./../../firmware/GD32VF103_standard_peripheral/Source/gd32vf103_fmc.c ****  \arg        FMC_FLAG_WPERR: FMC erase/program protection error flag
 554:./../../firmware/GD32VF103_standard_peripheral/Source/gd32vf103_fmc.c ****  \arg        FMC_FLAG_END: FMC end of operation flag
 555:./../../firmware/GD32VF103_standard_peripheral/Source/gd32vf103_fmc.c ****  \param[out] none
 556:./../../firmware/GD32VF103_standard_peripheral/Source/gd32vf103_fmc.c ****  \retval     none
 557:./../../firmware/GD32VF103_standard_peripheral/Source/gd32vf103_fmc.c ****  */
 558:./../../firmware/GD32VF103_standard_peripheral/Source/gd32vf103_fmc.c **** void fmc_flag_clear(fmc_flag_enum flag)
 559:./../../firmware/GD32VF103_standard_peripheral/Source/gd32vf103_fmc.c **** {
 312              		.loc 1 559 1 is_stmt 1
 313              		.cfi_startproc
 314              	.LVL15:
 560:./../../firmware/GD32VF103_standard_peripheral/Source/gd32vf103_fmc.c ****     /* clear the flags */
GAS LISTING C:\Users\Karzan\AppData\Local\Temp\ccEGabGh.s 			page 16


 561:./../../firmware/GD32VF103_standard_peripheral/Source/gd32vf103_fmc.c ****     FMC_STAT = flag;
 315              		.loc 1 561 5
 316              		.loc 1 561 14 is_stmt 0
 317 0000 B7270240 		li	a5,1073881088
 318 0004 C8C7     		sw	a0,12(a5)
 562:./../../firmware/GD32VF103_standard_peripheral/Source/gd32vf103_fmc.c **** }
 319              		.loc 1 562 1
 320 0006 8280     		ret
 321              		.cfi_endproc
 322              	.LFE23:
 324              		.section	.text.fmc_interrupt_flag_get,"ax",@progbits
 325              		.align	1
 326              		.globl	fmc_interrupt_flag_get
 328              	fmc_interrupt_flag_get:
 329              	.LFB24:
 563:./../../firmware/GD32VF103_standard_peripheral/Source/gd32vf103_fmc.c **** 
 564:./../../firmware/GD32VF103_standard_peripheral/Source/gd32vf103_fmc.c **** /*!
 565:./../../firmware/GD32VF103_standard_peripheral/Source/gd32vf103_fmc.c ****     \brief      get FMC interrupt flag state
 566:./../../firmware/GD32VF103_standard_peripheral/Source/gd32vf103_fmc.c ****     \param[in]  flag: FMC interrupt flags, refer to fmc_interrupt_flag_enum
 567:./../../firmware/GD32VF103_standard_peripheral/Source/gd32vf103_fmc.c ****     only one parameter can be selected which is shown as below:
 568:./../../firmware/GD32VF103_standard_peripheral/Source/gd32vf103_fmc.c ****       \arg        FMC_INT_FLAG_PGERR: FMC operation error interrupt flag
 569:./../../firmware/GD32VF103_standard_peripheral/Source/gd32vf103_fmc.c ****       \arg        FMC_INT_FLAG_WPERR: FMC erase/program protection error interrupt flag
 570:./../../firmware/GD32VF103_standard_peripheral/Source/gd32vf103_fmc.c ****       \arg        FMC_INT_FLAG_END: FMC end of operation interrupt flag
 571:./../../firmware/GD32VF103_standard_peripheral/Source/gd32vf103_fmc.c ****     \param[out] none
 572:./../../firmware/GD32VF103_standard_peripheral/Source/gd32vf103_fmc.c ****     \retval     FlagStatus: SET or RESET
 573:./../../firmware/GD32VF103_standard_peripheral/Source/gd32vf103_fmc.c ****  */
 574:./../../firmware/GD32VF103_standard_peripheral/Source/gd32vf103_fmc.c **** FlagStatus fmc_interrupt_flag_get(fmc_interrupt_flag_enum flag)
 575:./../../firmware/GD32VF103_standard_peripheral/Source/gd32vf103_fmc.c **** {
 330              		.loc 1 575 1 is_stmt 1
 331              		.cfi_startproc
 332              	.LVL16:
 576:./../../firmware/GD32VF103_standard_peripheral/Source/gd32vf103_fmc.c ****     FlagStatus status = RESET;
 333              		.loc 1 576 5
 577:./../../firmware/GD32VF103_standard_peripheral/Source/gd32vf103_fmc.c **** 
 578:./../../firmware/GD32VF103_standard_peripheral/Source/gd32vf103_fmc.c ****     if(FMC_STAT & flag){
 334              		.loc 1 578 5
 335              		.loc 1 578 8 is_stmt 0
 336 0000 B7270240 		li	a5,1073881088
 337 0004 DC47     		lw	a5,12(a5)
 338              	.LVL17:
 579:./../../firmware/GD32VF103_standard_peripheral/Source/gd32vf103_fmc.c ****         status = SET;
 580:./../../firmware/GD32VF103_standard_peripheral/Source/gd32vf103_fmc.c ****     }
 581:./../../firmware/GD32VF103_standard_peripheral/Source/gd32vf103_fmc.c ****     /* return the state of corresponding FMC flag */
 582:./../../firmware/GD32VF103_standard_peripheral/Source/gd32vf103_fmc.c ****     return status;
 339              		.loc 1 582 5 is_stmt 1
 578:./../../firmware/GD32VF103_standard_peripheral/Source/gd32vf103_fmc.c ****         status = SET;
 340              		.loc 1 578 17 is_stmt 0
 341 0006 7D8D     		and	a0,a5,a0
 342              	.LVL18:
 583:./../../firmware/GD32VF103_standard_peripheral/Source/gd32vf103_fmc.c **** }
 343              		.loc 1 583 1
 344 0008 3335A000 		snez	a0,a0
 345 000c 8280     		ret
 346              		.cfi_endproc
 347              	.LFE24:
 349              		.section	.text.fmc_interrupt_flag_clear,"ax",@progbits
 350              		.align	1
GAS LISTING C:\Users\Karzan\AppData\Local\Temp\ccEGabGh.s 			page 17


 351              		.globl	fmc_interrupt_flag_clear
 353              	fmc_interrupt_flag_clear:
 354              	.LFB25:
 584:./../../firmware/GD32VF103_standard_peripheral/Source/gd32vf103_fmc.c **** 
 585:./../../firmware/GD32VF103_standard_peripheral/Source/gd32vf103_fmc.c **** /*!
 586:./../../firmware/GD32VF103_standard_peripheral/Source/gd32vf103_fmc.c ****     \brief      clear FMC interrupt flag state
 587:./../../firmware/GD32VF103_standard_peripheral/Source/gd32vf103_fmc.c ****     \param[in]  flag: FMC interrupt flags, refer to can_interrupt_flag_enum
 588:./../../firmware/GD32VF103_standard_peripheral/Source/gd32vf103_fmc.c ****     only one parameter can be selected which is shown as below:
 589:./../../firmware/GD32VF103_standard_peripheral/Source/gd32vf103_fmc.c ****       \arg        FMC_INT_FLAG_PGERR: FMC operation error interrupt flag
 590:./../../firmware/GD32VF103_standard_peripheral/Source/gd32vf103_fmc.c ****       \arg        FMC_INT_FLAG_WPERR: FMC erase/program protection error interrupt flag
 591:./../../firmware/GD32VF103_standard_peripheral/Source/gd32vf103_fmc.c ****       \arg        FMC_INT_FLAG_END: FMC end of operation interrupt flag
 592:./../../firmware/GD32VF103_standard_peripheral/Source/gd32vf103_fmc.c ****      \param[out] none
 593:./../../firmware/GD32VF103_standard_peripheral/Source/gd32vf103_fmc.c ****      \retval     none
 594:./../../firmware/GD32VF103_standard_peripheral/Source/gd32vf103_fmc.c ****  */
 595:./../../firmware/GD32VF103_standard_peripheral/Source/gd32vf103_fmc.c **** void fmc_interrupt_flag_clear(fmc_interrupt_flag_enum flag)
 596:./../../firmware/GD32VF103_standard_peripheral/Source/gd32vf103_fmc.c **** {
 355              		.loc 1 596 1 is_stmt 1
 356              		.cfi_startproc
 357              	.LVL19:
 597:./../../firmware/GD32VF103_standard_peripheral/Source/gd32vf103_fmc.c ****     /* clear the flags */
 598:./../../firmware/GD32VF103_standard_peripheral/Source/gd32vf103_fmc.c ****     FMC_STAT = flag;
 358              		.loc 1 598 5
 359              		.loc 1 598 14 is_stmt 0
 360 0000 B7270240 		li	a5,1073881088
 361 0004 C8C7     		sw	a0,12(a5)
 599:./../../firmware/GD32VF103_standard_peripheral/Source/gd32vf103_fmc.c **** }
 362              		.loc 1 599 1
 363 0006 8280     		ret
 364              		.cfi_endproc
 365              	.LFE25:
 367              		.section	.text.fmc_state_get,"ax",@progbits
 368              		.align	1
 369              		.globl	fmc_state_get
 371              	fmc_state_get:
 372              	.LFB26:
 600:./../../firmware/GD32VF103_standard_peripheral/Source/gd32vf103_fmc.c **** 
 601:./../../firmware/GD32VF103_standard_peripheral/Source/gd32vf103_fmc.c **** /*!
 602:./../../firmware/GD32VF103_standard_peripheral/Source/gd32vf103_fmc.c ****     \brief      get the FMC state
 603:./../../firmware/GD32VF103_standard_peripheral/Source/gd32vf103_fmc.c ****     \param[in]  none
 604:./../../firmware/GD32VF103_standard_peripheral/Source/gd32vf103_fmc.c ****     \param[out] none
 605:./../../firmware/GD32VF103_standard_peripheral/Source/gd32vf103_fmc.c ****     \retval     state of FMC, refer to fmc_state_enum
 606:./../../firmware/GD32VF103_standard_peripheral/Source/gd32vf103_fmc.c ****  */
 607:./../../firmware/GD32VF103_standard_peripheral/Source/gd32vf103_fmc.c **** fmc_state_enum fmc_state_get(void)
 608:./../../firmware/GD32VF103_standard_peripheral/Source/gd32vf103_fmc.c **** {
 373              		.loc 1 608 1 is_stmt 1
 374              		.cfi_startproc
 609:./../../firmware/GD32VF103_standard_peripheral/Source/gd32vf103_fmc.c ****     fmc_state_enum fmc_state = FMC_READY;
 375              		.loc 1 609 5
 376              	.LVL20:
 610:./../../firmware/GD32VF103_standard_peripheral/Source/gd32vf103_fmc.c **** 
 611:./../../firmware/GD32VF103_standard_peripheral/Source/gd32vf103_fmc.c ****     if((uint32_t) 0x00U != (FMC_STAT & FMC_STAT_BUSY)){
 377              		.loc 1 611 5
 378              		.loc 1 611 29 is_stmt 0
 379 0000 B7270240 		li	a5,1073881088
 380 0004 C847     		lw	a0,12(a5)
 381              		.loc 1 611 38
 382 0006 0589     		andi	a0,a0,1
GAS LISTING C:\Users\Karzan\AppData\Local\Temp\ccEGabGh.s 			page 18


 383              		.loc 1 611 7
 384 0008 09E9     		bne	a0,zero,.L24
 612:./../../firmware/GD32VF103_standard_peripheral/Source/gd32vf103_fmc.c ****         fmc_state = FMC_BUSY;
 613:./../../firmware/GD32VF103_standard_peripheral/Source/gd32vf103_fmc.c ****     }else{
 614:./../../firmware/GD32VF103_standard_peripheral/Source/gd32vf103_fmc.c ****         if((uint32_t) 0x00U != (FMC_STAT & FMC_STAT_WPERR)){
 385              		.loc 1 614 9 is_stmt 1
 386              		.loc 1 614 33 is_stmt 0
 387 000a D847     		lw	a4,12(a5)
 615:./../../firmware/GD32VF103_standard_peripheral/Source/gd32vf103_fmc.c ****             fmc_state = FMC_WPERR;
 388              		.loc 1 615 23
 389 000c 0D45     		li	a0,3
 614:./../../firmware/GD32VF103_standard_peripheral/Source/gd32vf103_fmc.c ****             fmc_state = FMC_WPERR;
 390              		.loc 1 614 42
 391 000e 418B     		andi	a4,a4,16
 614:./../../firmware/GD32VF103_standard_peripheral/Source/gd32vf103_fmc.c ****             fmc_state = FMC_WPERR;
 392              		.loc 1 614 11
 393 0010 09E7     		bne	a4,zero,.L24
 394              	.LBB4:
 395              	.LBB5:
 616:./../../firmware/GD32VF103_standard_peripheral/Source/gd32vf103_fmc.c ****         }else{
 617:./../../firmware/GD32VF103_standard_peripheral/Source/gd32vf103_fmc.c ****             if((uint32_t) 0x00U != (FMC_STAT & (FMC_STAT_PGERR))){
 396              		.loc 1 617 13 is_stmt 1
 397              		.loc 1 617 37 is_stmt 0
 398 0012 C847     		lw	a0,12(a5)
 399              		.loc 1 617 46
 400 0014 1189     		andi	a0,a0,4
 401              		.loc 1 617 15
 402 0016 11C1     		beq	a0,zero,.L24
 618:./../../firmware/GD32VF103_standard_peripheral/Source/gd32vf103_fmc.c ****                 fmc_state = FMC_PGERR;
 403              		.loc 1 618 27
 404 0018 0945     		li	a0,2
 405              	.L24:
 406              	.LBE5:
 407              	.LBE4:
 619:./../../firmware/GD32VF103_standard_peripheral/Source/gd32vf103_fmc.c ****             }
 620:./../../firmware/GD32VF103_standard_peripheral/Source/gd32vf103_fmc.c ****         }
 621:./../../firmware/GD32VF103_standard_peripheral/Source/gd32vf103_fmc.c ****     }
 622:./../../firmware/GD32VF103_standard_peripheral/Source/gd32vf103_fmc.c ****     /* return the FMC state */
 623:./../../firmware/GD32VF103_standard_peripheral/Source/gd32vf103_fmc.c ****     return fmc_state;
 624:./../../firmware/GD32VF103_standard_peripheral/Source/gd32vf103_fmc.c **** }
 408              		.loc 1 624 1
 409 001a 8280     		ret
 410              		.cfi_endproc
 411              	.LFE26:
 413              		.section	.text.fmc_ready_wait,"ax",@progbits
 414              		.align	1
 415              		.globl	fmc_ready_wait
 417              	fmc_ready_wait:
 418              	.LFB27:
 625:./../../firmware/GD32VF103_standard_peripheral/Source/gd32vf103_fmc.c **** 
 626:./../../firmware/GD32VF103_standard_peripheral/Source/gd32vf103_fmc.c **** /*!
 627:./../../firmware/GD32VF103_standard_peripheral/Source/gd32vf103_fmc.c ****     \brief      check whether FMC is ready or not
 628:./../../firmware/GD32VF103_standard_peripheral/Source/gd32vf103_fmc.c ****     \param[in]  timeout: count of loop
 629:./../../firmware/GD32VF103_standard_peripheral/Source/gd32vf103_fmc.c ****     \param[out] none
 630:./../../firmware/GD32VF103_standard_peripheral/Source/gd32vf103_fmc.c ****     \retval     state of FMC, refer to fmc_state_enum
 631:./../../firmware/GD32VF103_standard_peripheral/Source/gd32vf103_fmc.c ****  */
 632:./../../firmware/GD32VF103_standard_peripheral/Source/gd32vf103_fmc.c **** fmc_state_enum fmc_ready_wait(uint32_t timeout)
GAS LISTING C:\Users\Karzan\AppData\Local\Temp\ccEGabGh.s 			page 19


 633:./../../firmware/GD32VF103_standard_peripheral/Source/gd32vf103_fmc.c **** {
 419              		.loc 1 633 1 is_stmt 1
 420              		.cfi_startproc
 421              	.LVL21:
 634:./../../firmware/GD32VF103_standard_peripheral/Source/gd32vf103_fmc.c ****     fmc_state_enum fmc_state = FMC_BUSY;
 422              		.loc 1 634 5
 633:./../../firmware/GD32VF103_standard_peripheral/Source/gd32vf103_fmc.c ****     fmc_state_enum fmc_state = FMC_BUSY;
 423              		.loc 1 633 1 is_stmt 0
 424 0000 4111     		addi	sp,sp,-16
 425              	.LCFI0:
 426              		.cfi_def_cfa_offset 16
 427 0002 22C4     		sw	s0,8(sp)
 428 0004 26C2     		sw	s1,4(sp)
 429 0006 06C6     		sw	ra,12(sp)
 430              		.cfi_offset 8, -8
 431              		.cfi_offset 9, -12
 432              		.cfi_offset 1, -4
 633:./../../firmware/GD32VF103_standard_peripheral/Source/gd32vf103_fmc.c ****     fmc_state_enum fmc_state = FMC_BUSY;
 433              		.loc 1 633 1
 434 0008 2A84     		mv	s0,a0
 635:./../../firmware/GD32VF103_standard_peripheral/Source/gd32vf103_fmc.c **** 
 636:./../../firmware/GD32VF103_standard_peripheral/Source/gd32vf103_fmc.c ****     /* wait for FMC ready */
 637:./../../firmware/GD32VF103_standard_peripheral/Source/gd32vf103_fmc.c ****     do{
 638:./../../firmware/GD32VF103_standard_peripheral/Source/gd32vf103_fmc.c ****         /* get FMC state */
 639:./../../firmware/GD32VF103_standard_peripheral/Source/gd32vf103_fmc.c ****         fmc_state = fmc_state_get();
 640:./../../firmware/GD32VF103_standard_peripheral/Source/gd32vf103_fmc.c ****         timeout--;
 641:./../../firmware/GD32VF103_standard_peripheral/Source/gd32vf103_fmc.c ****     }while((FMC_BUSY == fmc_state) && (0x00U != timeout));
 435              		.loc 1 641 5
 436 000a 8544     		li	s1,1
 437              	.LVL22:
 438              	.L32:
 637:./../../firmware/GD32VF103_standard_peripheral/Source/gd32vf103_fmc.c ****         /* get FMC state */
 439              		.loc 1 637 5 is_stmt 1 discriminator 2
 639:./../../firmware/GD32VF103_standard_peripheral/Source/gd32vf103_fmc.c ****         timeout--;
 440              		.loc 1 639 9 discriminator 2
 639:./../../firmware/GD32VF103_standard_peripheral/Source/gd32vf103_fmc.c ****         timeout--;
 441              		.loc 1 639 21 is_stmt 0 discriminator 2
 442 000c 97000000 		call	fmc_state_get
 442      E7800000 
 443              	.LVL23:
 640:./../../firmware/GD32VF103_standard_peripheral/Source/gd32vf103_fmc.c ****     }while((FMC_BUSY == fmc_state) && (0x00U != timeout));
 444              		.loc 1 640 9 is_stmt 1 discriminator 2
 640:./../../firmware/GD32VF103_standard_peripheral/Source/gd32vf103_fmc.c ****     }while((FMC_BUSY == fmc_state) && (0x00U != timeout));
 445              		.loc 1 640 16 is_stmt 0 discriminator 2
 446 0014 7D14     		addi	s0,s0,-1
 447              	.LVL24:
 448              		.loc 1 641 5 discriminator 2
 449 0016 63149500 		bne	a0,s1,.L30
 450              		.loc 1 641 36 discriminator 1
 451 001a 6DF8     		bne	s0,zero,.L32
 642:./../../firmware/GD32VF103_standard_peripheral/Source/gd32vf103_fmc.c **** 
 643:./../../firmware/GD32VF103_standard_peripheral/Source/gd32vf103_fmc.c ****     if(FMC_BUSY == fmc_state){
 644:./../../firmware/GD32VF103_standard_peripheral/Source/gd32vf103_fmc.c ****         fmc_state = FMC_TOERR;
 452              		.loc 1 644 19
 453 001c 1145     		li	a0,4
 454              	.LVL25:
 645:./../../firmware/GD32VF103_standard_peripheral/Source/gd32vf103_fmc.c ****     }
GAS LISTING C:\Users\Karzan\AppData\Local\Temp\ccEGabGh.s 			page 20


 646:./../../firmware/GD32VF103_standard_peripheral/Source/gd32vf103_fmc.c ****     /* return the FMC state */
 647:./../../firmware/GD32VF103_standard_peripheral/Source/gd32vf103_fmc.c ****     return fmc_state;
 455              		.loc 1 647 5 is_stmt 1
 456              	.L30:
 648:./../../firmware/GD32VF103_standard_peripheral/Source/gd32vf103_fmc.c **** }
 457              		.loc 1 648 1 is_stmt 0
 458 001e B240     		lw	ra,12(sp)
 459              		.cfi_restore 1
 460 0020 2244     		lw	s0,8(sp)
 461              		.cfi_restore 8
 462              	.LVL26:
 463 0022 9244     		lw	s1,4(sp)
 464              		.cfi_restore 9
 465 0024 4101     		addi	sp,sp,16
 466              	.LCFI1:
 467              		.cfi_def_cfa_offset 0
 468 0026 8280     		jr	ra
 469              		.cfi_endproc
 470              	.LFE27:
 472              		.section	.text.fmc_page_erase,"ax",@progbits
 473              		.align	1
 474              		.globl	fmc_page_erase
 476              	fmc_page_erase:
 477              	.LFB5:
  94:./../../firmware/GD32VF103_standard_peripheral/Source/gd32vf103_fmc.c ****     fmc_state_enum fmc_state;
 478              		.loc 1 94 1 is_stmt 1
 479              		.cfi_startproc
 480              	.LVL27:
  95:./../../firmware/GD32VF103_standard_peripheral/Source/gd32vf103_fmc.c ****     fmc_state = fmc_ready_wait(FMC_TIMEOUT_COUNT);
 481              		.loc 1 95 5
  96:./../../firmware/GD32VF103_standard_peripheral/Source/gd32vf103_fmc.c ****     /* if the last operation is completed, start page erase */
 482              		.loc 1 96 5
  94:./../../firmware/GD32VF103_standard_peripheral/Source/gd32vf103_fmc.c ****     fmc_state_enum fmc_state;
 483              		.loc 1 94 1 is_stmt 0
 484 0000 4111     		addi	sp,sp,-16
 485              	.LCFI2:
 486              		.cfi_def_cfa_offset 16
 487 0002 26C2     		sw	s1,4(sp)
 488              		.cfi_offset 9, -12
 489 0004 AA84     		mv	s1,a0
  96:./../../firmware/GD32VF103_standard_peripheral/Source/gd32vf103_fmc.c ****     /* if the last operation is completed, start page erase */
 490              		.loc 1 96 17
 491 0006 37050F00 		li	a0,983040
 492              	.LVL28:
  94:./../../firmware/GD32VF103_standard_peripheral/Source/gd32vf103_fmc.c ****     fmc_state_enum fmc_state;
 493              		.loc 1 94 1
 494 000a 06C6     		sw	ra,12(sp)
 495 000c 22C4     		sw	s0,8(sp)
 496              		.cfi_offset 1, -4
 497              		.cfi_offset 8, -8
  96:./../../firmware/GD32VF103_standard_peripheral/Source/gd32vf103_fmc.c ****     /* if the last operation is completed, start page erase */
 498              		.loc 1 96 17
 499 000e 97000000 		call	fmc_ready_wait
 499      E7800000 
 500              	.LVL29:
  98:./../../firmware/GD32VF103_standard_peripheral/Source/gd32vf103_fmc.c ****         FMC_CTL |= FMC_CTL_PER;
 501              		.loc 1 98 5 is_stmt 1
GAS LISTING C:\Users\Karzan\AppData\Local\Temp\ccEGabGh.s 			page 21


  98:./../../firmware/GD32VF103_standard_peripheral/Source/gd32vf103_fmc.c ****         FMC_CTL |= FMC_CTL_PER;
 502              		.loc 1 98 8 is_stmt 0
 503 0016 0DE5     		bne	a0,zero,.L35
  99:./../../firmware/GD32VF103_standard_peripheral/Source/gd32vf103_fmc.c ****         FMC_ADDR = page_address;
 504              		.loc 1 99 9 is_stmt 1
  99:./../../firmware/GD32VF103_standard_peripheral/Source/gd32vf103_fmc.c ****         FMC_ADDR = page_address;
 505              		.loc 1 99 17 is_stmt 0
 506 0018 37240240 		li	s0,1073881088
 507 001c 1C48     		lw	a5,16(s0)
 103:./../../firmware/GD32VF103_standard_peripheral/Source/gd32vf103_fmc.c ****         /* reset the PER bit */
 508              		.loc 1 103 21
 509 001e 37050F00 		li	a0,983040
 510              	.LVL30:
  99:./../../firmware/GD32VF103_standard_peripheral/Source/gd32vf103_fmc.c ****         FMC_ADDR = page_address;
 511              		.loc 1 99 17
 512 0022 93E72700 		ori	a5,a5,2
 513 0026 1CC8     		sw	a5,16(s0)
 100:./../../firmware/GD32VF103_standard_peripheral/Source/gd32vf103_fmc.c ****         FMC_CTL |= FMC_CTL_START;
 514              		.loc 1 100 9 is_stmt 1
 100:./../../firmware/GD32VF103_standard_peripheral/Source/gd32vf103_fmc.c ****         FMC_CTL |= FMC_CTL_START;
 515              		.loc 1 100 18 is_stmt 0
 516 0028 44C8     		sw	s1,20(s0)
 101:./../../firmware/GD32VF103_standard_peripheral/Source/gd32vf103_fmc.c ****         /* wait for the FMC ready */
 517              		.loc 1 101 9 is_stmt 1
 101:./../../firmware/GD32VF103_standard_peripheral/Source/gd32vf103_fmc.c ****         /* wait for the FMC ready */
 518              		.loc 1 101 17 is_stmt 0
 519 002a 1C48     		lw	a5,16(s0)
 520 002c 93E70704 		ori	a5,a5,64
 521 0030 1CC8     		sw	a5,16(s0)
 103:./../../firmware/GD32VF103_standard_peripheral/Source/gd32vf103_fmc.c ****         /* reset the PER bit */
 522              		.loc 1 103 9 is_stmt 1
 103:./../../firmware/GD32VF103_standard_peripheral/Source/gd32vf103_fmc.c ****         /* reset the PER bit */
 523              		.loc 1 103 21 is_stmt 0
 524 0032 97000000 		call	fmc_ready_wait
 524      E7800000 
 525              	.LVL31:
 105:./../../firmware/GD32VF103_standard_peripheral/Source/gd32vf103_fmc.c ****     }
 526              		.loc 1 105 9 is_stmt 1
 105:./../../firmware/GD32VF103_standard_peripheral/Source/gd32vf103_fmc.c ****     }
 527              		.loc 1 105 17 is_stmt 0
 528 003a 1C48     		lw	a5,16(s0)
 529 003c F59B     		andi	a5,a5,-3
 530 003e 1CC8     		sw	a5,16(s0)
 108:./../../firmware/GD32VF103_standard_peripheral/Source/gd32vf103_fmc.c **** }
 531              		.loc 1 108 5 is_stmt 1
 532              	.L35:
 109:./../../firmware/GD32VF103_standard_peripheral/Source/gd32vf103_fmc.c **** 
 533              		.loc 1 109 1 is_stmt 0
 534 0040 B240     		lw	ra,12(sp)
 535              		.cfi_restore 1
 536 0042 2244     		lw	s0,8(sp)
 537              		.cfi_restore 8
 538 0044 9244     		lw	s1,4(sp)
 539              		.cfi_restore 9
 540              	.LVL32:
 541 0046 4101     		addi	sp,sp,16
 542              	.LCFI3:
GAS LISTING C:\Users\Karzan\AppData\Local\Temp\ccEGabGh.s 			page 22


 543              		.cfi_def_cfa_offset 0
 544 0048 8280     		jr	ra
 545              		.cfi_endproc
 546              	.LFE5:
 548              		.section	.text.fmc_mass_erase,"ax",@progbits
 549              		.align	1
 550              		.globl	fmc_mass_erase
 552              	fmc_mass_erase:
 553              	.LFB6:
 118:./../../firmware/GD32VF103_standard_peripheral/Source/gd32vf103_fmc.c ****     fmc_state_enum fmc_state;
 554              		.loc 1 118 1 is_stmt 1
 555              		.cfi_startproc
 119:./../../firmware/GD32VF103_standard_peripheral/Source/gd32vf103_fmc.c ****         fmc_state = fmc_ready_wait(FMC_TIMEOUT_COUNT);
 556              		.loc 1 119 5
 120:./../../firmware/GD32VF103_standard_peripheral/Source/gd32vf103_fmc.c **** 
 557              		.loc 1 120 9
 118:./../../firmware/GD32VF103_standard_peripheral/Source/gd32vf103_fmc.c ****     fmc_state_enum fmc_state;
 558              		.loc 1 118 1 is_stmt 0
 559 0000 4111     		addi	sp,sp,-16
 560              	.LCFI4:
 561              		.cfi_def_cfa_offset 16
 120:./../../firmware/GD32VF103_standard_peripheral/Source/gd32vf103_fmc.c **** 
 562              		.loc 1 120 21
 563 0002 37050F00 		li	a0,983040
 118:./../../firmware/GD32VF103_standard_peripheral/Source/gd32vf103_fmc.c ****     fmc_state_enum fmc_state;
 564              		.loc 1 118 1
 565 0006 06C6     		sw	ra,12(sp)
 566 0008 22C4     		sw	s0,8(sp)
 567              		.cfi_offset 1, -4
 568              		.cfi_offset 8, -8
 120:./../../firmware/GD32VF103_standard_peripheral/Source/gd32vf103_fmc.c **** 
 569              		.loc 1 120 21
 570 000a 97000000 		call	fmc_ready_wait
 570      E7800000 
 571              	.LVL33:
 122:./../../firmware/GD32VF103_standard_peripheral/Source/gd32vf103_fmc.c ****             /* start whole chip erase */
 572              		.loc 1 122 9 is_stmt 1
 122:./../../firmware/GD32VF103_standard_peripheral/Source/gd32vf103_fmc.c ****             /* start whole chip erase */
 573              		.loc 1 122 11 is_stmt 0
 574 0012 05E5     		bne	a0,zero,.L38
 124:./../../firmware/GD32VF103_standard_peripheral/Source/gd32vf103_fmc.c ****             FMC_CTL |= FMC_CTL_START;
 575              		.loc 1 124 13 is_stmt 1
 124:./../../firmware/GD32VF103_standard_peripheral/Source/gd32vf103_fmc.c ****             FMC_CTL |= FMC_CTL_START;
 576              		.loc 1 124 21 is_stmt 0
 577 0014 37240240 		li	s0,1073881088
 578 0018 1C48     		lw	a5,16(s0)
 127:./../../firmware/GD32VF103_standard_peripheral/Source/gd32vf103_fmc.c ****             /* reset the MER bit */
 579              		.loc 1 127 25
 580 001a 37050F00 		li	a0,983040
 581              	.LVL34:
 124:./../../firmware/GD32VF103_standard_peripheral/Source/gd32vf103_fmc.c ****             FMC_CTL |= FMC_CTL_START;
 582              		.loc 1 124 21
 583 001e 93E74700 		ori	a5,a5,4
 584 0022 1CC8     		sw	a5,16(s0)
 125:./../../firmware/GD32VF103_standard_peripheral/Source/gd32vf103_fmc.c ****             /* wait for the FMC ready */
 585              		.loc 1 125 13 is_stmt 1
 125:./../../firmware/GD32VF103_standard_peripheral/Source/gd32vf103_fmc.c ****             /* wait for the FMC ready */
GAS LISTING C:\Users\Karzan\AppData\Local\Temp\ccEGabGh.s 			page 23


 586              		.loc 1 125 21 is_stmt 0
 587 0024 1C48     		lw	a5,16(s0)
 588 0026 93E70704 		ori	a5,a5,64
 589 002a 1CC8     		sw	a5,16(s0)
 127:./../../firmware/GD32VF103_standard_peripheral/Source/gd32vf103_fmc.c ****             /* reset the MER bit */
 590              		.loc 1 127 13 is_stmt 1
 127:./../../firmware/GD32VF103_standard_peripheral/Source/gd32vf103_fmc.c ****             /* reset the MER bit */
 591              		.loc 1 127 25 is_stmt 0
 592 002c 97000000 		call	fmc_ready_wait
 592      E7800000 
 593              	.LVL35:
 129:./../../firmware/GD32VF103_standard_peripheral/Source/gd32vf103_fmc.c ****         }
 594              		.loc 1 129 13 is_stmt 1
 129:./../../firmware/GD32VF103_standard_peripheral/Source/gd32vf103_fmc.c ****         }
 595              		.loc 1 129 21 is_stmt 0
 596 0034 1C48     		lw	a5,16(s0)
 597 0036 ED9B     		andi	a5,a5,-5
 598 0038 1CC8     		sw	a5,16(s0)
 132:./../../firmware/GD32VF103_standard_peripheral/Source/gd32vf103_fmc.c **** }
 599              		.loc 1 132 5 is_stmt 1
 600              	.L38:
 133:./../../firmware/GD32VF103_standard_peripheral/Source/gd32vf103_fmc.c **** 
 601              		.loc 1 133 1 is_stmt 0
 602 003a B240     		lw	ra,12(sp)
 603              		.cfi_restore 1
 604 003c 2244     		lw	s0,8(sp)
 605              		.cfi_restore 8
 606 003e 4101     		addi	sp,sp,16
 607              	.LCFI5:
 608              		.cfi_def_cfa_offset 0
 609 0040 8280     		jr	ra
 610              		.cfi_endproc
 611              	.LFE6:
 613              		.section	.text.fmc_word_program,"ax",@progbits
 614              		.align	1
 615              		.globl	fmc_word_program
 617              	fmc_word_program:
 618              	.LFB7:
 143:./../../firmware/GD32VF103_standard_peripheral/Source/gd32vf103_fmc.c ****     fmc_state_enum fmc_state = FMC_READY;
 619              		.loc 1 143 1 is_stmt 1
 620              		.cfi_startproc
 621              	.LVL36:
 144:./../../firmware/GD32VF103_standard_peripheral/Source/gd32vf103_fmc.c ****     fmc_state = fmc_ready_wait(FMC_TIMEOUT_COUNT);
 622              		.loc 1 144 5
 145:./../../firmware/GD32VF103_standard_peripheral/Source/gd32vf103_fmc.c **** 
 623              		.loc 1 145 5
 143:./../../firmware/GD32VF103_standard_peripheral/Source/gd32vf103_fmc.c ****     fmc_state_enum fmc_state = FMC_READY;
 624              		.loc 1 143 1 is_stmt 0
 625 0000 0111     		addi	sp,sp,-32
 626              	.LCFI6:
 627              		.cfi_def_cfa_offset 32
 628 0002 26CA     		sw	s1,20(sp)
 629              		.cfi_offset 9, -12
 630 0004 AA84     		mv	s1,a0
 145:./../../firmware/GD32VF103_standard_peripheral/Source/gd32vf103_fmc.c **** 
 631              		.loc 1 145 17
 632 0006 37050F00 		li	a0,983040
GAS LISTING C:\Users\Karzan\AppData\Local\Temp\ccEGabGh.s 			page 24


 633              	.LVL37:
 143:./../../firmware/GD32VF103_standard_peripheral/Source/gd32vf103_fmc.c ****     fmc_state_enum fmc_state = FMC_READY;
 634              		.loc 1 143 1
 635 000a 2EC6     		sw	a1,12(sp)
 636 000c 06CE     		sw	ra,28(sp)
 637 000e 22CC     		sw	s0,24(sp)
 638              		.cfi_offset 1, -4
 639              		.cfi_offset 8, -8
 145:./../../firmware/GD32VF103_standard_peripheral/Source/gd32vf103_fmc.c **** 
 640              		.loc 1 145 17
 641 0010 97000000 		call	fmc_ready_wait
 641      E7800000 
 642              	.LVL38:
 147:./../../firmware/GD32VF103_standard_peripheral/Source/gd32vf103_fmc.c ****         /* set the PG bit to start program */
 643              		.loc 1 147 5 is_stmt 1
 147:./../../firmware/GD32VF103_standard_peripheral/Source/gd32vf103_fmc.c ****         /* set the PG bit to start program */
 644              		.loc 1 147 7 is_stmt 0
 645 0018 B245     		lw	a1,12(sp)
 646 001a 0DE1     		bne	a0,zero,.L41
 149:./../../firmware/GD32VF103_standard_peripheral/Source/gd32vf103_fmc.c ****         REG32(address) = data;
 647              		.loc 1 149 9 is_stmt 1
 149:./../../firmware/GD32VF103_standard_peripheral/Source/gd32vf103_fmc.c ****         REG32(address) = data;
 648              		.loc 1 149 17 is_stmt 0
 649 001c 37240240 		li	s0,1073881088
 650 0020 1C48     		lw	a5,16(s0)
 152:./../../firmware/GD32VF103_standard_peripheral/Source/gd32vf103_fmc.c ****         /* reset the PG bit */
 651              		.loc 1 152 21
 652 0022 37050F00 		li	a0,983040
 653              	.LVL39:
 149:./../../firmware/GD32VF103_standard_peripheral/Source/gd32vf103_fmc.c ****         REG32(address) = data;
 654              		.loc 1 149 17
 655 0026 93E71700 		ori	a5,a5,1
 656 002a 1CC8     		sw	a5,16(s0)
 150:./../../firmware/GD32VF103_standard_peripheral/Source/gd32vf103_fmc.c ****         /* wait for the FMC ready */
 657              		.loc 1 150 9 is_stmt 1
 150:./../../firmware/GD32VF103_standard_peripheral/Source/gd32vf103_fmc.c ****         /* wait for the FMC ready */
 658              		.loc 1 150 24 is_stmt 0
 659 002c 8CC0     		sw	a1,0(s1)
 152:./../../firmware/GD32VF103_standard_peripheral/Source/gd32vf103_fmc.c ****         /* reset the PG bit */
 660              		.loc 1 152 9 is_stmt 1
 152:./../../firmware/GD32VF103_standard_peripheral/Source/gd32vf103_fmc.c ****         /* reset the PG bit */
 661              		.loc 1 152 21 is_stmt 0
 662 002e 97000000 		call	fmc_ready_wait
 662      E7800000 
 663              	.LVL40:
 154:./../../firmware/GD32VF103_standard_peripheral/Source/gd32vf103_fmc.c ****     }
 664              		.loc 1 154 9 is_stmt 1
 154:./../../firmware/GD32VF103_standard_peripheral/Source/gd32vf103_fmc.c ****     }
 665              		.loc 1 154 17 is_stmt 0
 666 0036 1C48     		lw	a5,16(s0)
 667 0038 F99B     		andi	a5,a5,-2
 668 003a 1CC8     		sw	a5,16(s0)
 157:./../../firmware/GD32VF103_standard_peripheral/Source/gd32vf103_fmc.c **** }
 669              		.loc 1 157 5 is_stmt 1
 670              	.L41:
 158:./../../firmware/GD32VF103_standard_peripheral/Source/gd32vf103_fmc.c **** /*
 671              		.loc 1 158 1 is_stmt 0
GAS LISTING C:\Users\Karzan\AppData\Local\Temp\ccEGabGh.s 			page 25


 672 003c F240     		lw	ra,28(sp)
 673              		.cfi_restore 1
 674 003e 6244     		lw	s0,24(sp)
 675              		.cfi_restore 8
 676 0040 D244     		lw	s1,20(sp)
 677              		.cfi_restore 9
 678              	.LVL41:
 679 0042 0561     		addi	sp,sp,32
 680              	.LCFI7:
 681              		.cfi_def_cfa_offset 0
 682              	.LVL42:
 683 0044 8280     		jr	ra
 684              		.cfi_endproc
 685              	.LFE7:
 687              		.section	.text.fmc_halfword_program,"ax",@progbits
 688              		.align	1
 689              		.globl	fmc_halfword_program
 691              	fmc_halfword_program:
 692              	.LFB8:
 167:./../../firmware/GD32VF103_standard_peripheral/Source/gd32vf103_fmc.c ****     fmc_state_enum fmc_state = FMC_READY;
 693              		.loc 1 167 1 is_stmt 1
 694              		.cfi_startproc
 695              	.LVL43:
 168:./../../firmware/GD32VF103_standard_peripheral/Source/gd32vf103_fmc.c ****     fmc_state = fmc_ready_wait(FMC_TIMEOUT_COUNT);
 696              		.loc 1 168 5
 169:./../../firmware/GD32VF103_standard_peripheral/Source/gd32vf103_fmc.c **** 
 697              		.loc 1 169 5
 167:./../../firmware/GD32VF103_standard_peripheral/Source/gd32vf103_fmc.c ****     fmc_state_enum fmc_state = FMC_READY;
 698              		.loc 1 167 1 is_stmt 0
 699 0000 0111     		addi	sp,sp,-32
 700              	.LCFI8:
 701              		.cfi_def_cfa_offset 32
 702 0002 26CA     		sw	s1,20(sp)
 703              		.cfi_offset 9, -12
 704 0004 AA84     		mv	s1,a0
 169:./../../firmware/GD32VF103_standard_peripheral/Source/gd32vf103_fmc.c **** 
 705              		.loc 1 169 17
 706 0006 37050F00 		li	a0,983040
 707              	.LVL44:
 167:./../../firmware/GD32VF103_standard_peripheral/Source/gd32vf103_fmc.c ****     fmc_state_enum fmc_state = FMC_READY;
 708              		.loc 1 167 1
 709 000a 2EC6     		sw	a1,12(sp)
 710 000c 06CE     		sw	ra,28(sp)
 711 000e 22CC     		sw	s0,24(sp)
 712              		.cfi_offset 1, -4
 713              		.cfi_offset 8, -8
 169:./../../firmware/GD32VF103_standard_peripheral/Source/gd32vf103_fmc.c **** 
 714              		.loc 1 169 17
 715 0010 97000000 		call	fmc_ready_wait
 715      E7800000 
 716              	.LVL45:
 171:./../../firmware/GD32VF103_standard_peripheral/Source/gd32vf103_fmc.c ****         /* set the PG bit to start program */
 717              		.loc 1 171 5 is_stmt 1
 171:./../../firmware/GD32VF103_standard_peripheral/Source/gd32vf103_fmc.c ****         /* set the PG bit to start program */
 718              		.loc 1 171 7 is_stmt 0
 719 0018 B245     		lw	a1,12(sp)
 720 001a 15E1     		bne	a0,zero,.L44
GAS LISTING C:\Users\Karzan\AppData\Local\Temp\ccEGabGh.s 			page 26


 173:./../../firmware/GD32VF103_standard_peripheral/Source/gd32vf103_fmc.c ****         REG16(address) = data;
 721              		.loc 1 173 9 is_stmt 1
 173:./../../firmware/GD32VF103_standard_peripheral/Source/gd32vf103_fmc.c ****         REG16(address) = data;
 722              		.loc 1 173 17 is_stmt 0
 723 001c 37240240 		li	s0,1073881088
 724 0020 1C48     		lw	a5,16(s0)
 176:./../../firmware/GD32VF103_standard_peripheral/Source/gd32vf103_fmc.c ****         /* reset the PG bit */
 725              		.loc 1 176 21
 726 0022 37050F00 		li	a0,983040
 727              	.LVL46:
 173:./../../firmware/GD32VF103_standard_peripheral/Source/gd32vf103_fmc.c ****         REG16(address) = data;
 728              		.loc 1 173 17
 729 0026 93E71700 		ori	a5,a5,1
 730 002a 1CC8     		sw	a5,16(s0)
 174:./../../firmware/GD32VF103_standard_peripheral/Source/gd32vf103_fmc.c ****         /* wait for the FMC ready */
 731              		.loc 1 174 9 is_stmt 1
 174:./../../firmware/GD32VF103_standard_peripheral/Source/gd32vf103_fmc.c ****         /* wait for the FMC ready */
 732              		.loc 1 174 24 is_stmt 0
 733 002c 2390B400 		sh	a1,0(s1)
 176:./../../firmware/GD32VF103_standard_peripheral/Source/gd32vf103_fmc.c ****         /* reset the PG bit */
 734              		.loc 1 176 9 is_stmt 1
 176:./../../firmware/GD32VF103_standard_peripheral/Source/gd32vf103_fmc.c ****         /* reset the PG bit */
 735              		.loc 1 176 21 is_stmt 0
 736 0030 97000000 		call	fmc_ready_wait
 736      E7800000 
 737              	.LVL47:
 178:./../../firmware/GD32VF103_standard_peripheral/Source/gd32vf103_fmc.c ****     }
 738              		.loc 1 178 9 is_stmt 1
 178:./../../firmware/GD32VF103_standard_peripheral/Source/gd32vf103_fmc.c ****     }
 739              		.loc 1 178 17 is_stmt 0
 740 0038 1C48     		lw	a5,16(s0)
 741 003a F99B     		andi	a5,a5,-2
 742 003c 1CC8     		sw	a5,16(s0)
 181:./../../firmware/GD32VF103_standard_peripheral/Source/gd32vf103_fmc.c **** }
 743              		.loc 1 181 5 is_stmt 1
 744              	.L44:
 182:./../../firmware/GD32VF103_standard_peripheral/Source/gd32vf103_fmc.c **** 
 745              		.loc 1 182 1 is_stmt 0
 746 003e F240     		lw	ra,28(sp)
 747              		.cfi_restore 1
 748 0040 6244     		lw	s0,24(sp)
 749              		.cfi_restore 8
 750 0042 D244     		lw	s1,20(sp)
 751              		.cfi_restore 9
 752              	.LVL48:
 753 0044 0561     		addi	sp,sp,32
 754              	.LCFI9:
 755              		.cfi_def_cfa_offset 0
 756 0046 8280     		jr	ra
 757              		.cfi_endproc
 758              	.LFE8:
 760              		.section	.text.ob_erase,"ax",@progbits
 761              		.align	1
 762              		.globl	ob_erase
 764              	ob_erase:
 765              	.LFB11:
 223:./../../firmware/GD32VF103_standard_peripheral/Source/gd32vf103_fmc.c ****     uint16_t temp_spc = FMC_NSPC;
GAS LISTING C:\Users\Karzan\AppData\Local\Temp\ccEGabGh.s 			page 27


 766              		.loc 1 223 1 is_stmt 1
 767              		.cfi_startproc
 224:./../../firmware/GD32VF103_standard_peripheral/Source/gd32vf103_fmc.c **** 
 768              		.loc 1 224 5
 769              	.LVL49:
 226:./../../firmware/GD32VF103_standard_peripheral/Source/gd32vf103_fmc.c **** 
 770              		.loc 1 226 5
 223:./../../firmware/GD32VF103_standard_peripheral/Source/gd32vf103_fmc.c ****     uint16_t temp_spc = FMC_NSPC;
 771              		.loc 1 223 1 is_stmt 0
 772 0000 4111     		addi	sp,sp,-16
 773              	.LCFI10:
 774              		.cfi_def_cfa_offset 16
 226:./../../firmware/GD32VF103_standard_peripheral/Source/gd32vf103_fmc.c **** 
 775              		.loc 1 226 32
 776 0002 37050F00 		li	a0,983040
 223:./../../firmware/GD32VF103_standard_peripheral/Source/gd32vf103_fmc.c ****     uint16_t temp_spc = FMC_NSPC;
 777              		.loc 1 223 1
 778 0006 06C6     		sw	ra,12(sp)
 779 0008 26C2     		sw	s1,4(sp)
 780 000a 4AC0     		sw	s2,0(sp)
 781 000c 22C4     		sw	s0,8(sp)
 782              		.cfi_offset 1, -4
 783              		.cfi_offset 9, -12
 784              		.cfi_offset 18, -16
 785              		.cfi_offset 8, -8
 226:./../../firmware/GD32VF103_standard_peripheral/Source/gd32vf103_fmc.c **** 
 786              		.loc 1 226 32
 787 000e 97000000 		call	fmc_ready_wait
 787      E7800000 
 788              	.LVL50:
 789 0016 AA84     		mv	s1,a0
 790              	.LVL51:
 229:./../../firmware/GD32VF103_standard_peripheral/Source/gd32vf103_fmc.c ****         temp_spc = FMC_USPC;
 791              		.loc 1 229 5 is_stmt 1
 229:./../../firmware/GD32VF103_standard_peripheral/Source/gd32vf103_fmc.c ****         temp_spc = FMC_USPC;
 792              		.loc 1 229 17 is_stmt 0
 793 0018 97000000 		call	ob_spc_get
 793      E7800000 
 794              	.LVL52:
 230:./../../firmware/GD32VF103_standard_peripheral/Source/gd32vf103_fmc.c ****     }
 795              		.loc 1 230 18
 796 0020 1309B00B 		li	s2,187
 229:./../../firmware/GD32VF103_standard_peripheral/Source/gd32vf103_fmc.c ****         temp_spc = FMC_USPC;
 797              		.loc 1 229 7
 798 0024 19E1     		bne	a0,zero,.L48
 799 0026 1309500A 		li	s2,165
 800              	.L48:
 801              	.LVL53:
 233:./../../firmware/GD32VF103_standard_peripheral/Source/gd32vf103_fmc.c **** 
 802              		.loc 1 233 5 is_stmt 1
 233:./../../firmware/GD32VF103_standard_peripheral/Source/gd32vf103_fmc.c **** 
 803              		.loc 1 233 7 is_stmt 0
 804 002a A1EC     		bne	s1,zero,.L47
 236:./../../firmware/GD32VF103_standard_peripheral/Source/gd32vf103_fmc.c ****         FMC_CTL |= FMC_CTL_START;
 805              		.loc 1 236 9 is_stmt 1
 236:./../../firmware/GD32VF103_standard_peripheral/Source/gd32vf103_fmc.c ****         FMC_CTL |= FMC_CTL_START;
 806              		.loc 1 236 17 is_stmt 0
GAS LISTING C:\Users\Karzan\AppData\Local\Temp\ccEGabGh.s 			page 28


 807 002c 37240240 		li	s0,1073881088
 808 0030 1C48     		lw	a5,16(s0)
 240:./../../firmware/GD32VF103_standard_peripheral/Source/gd32vf103_fmc.c **** 
 809              		.loc 1 240 21
 810 0032 37050F00 		li	a0,983040
 236:./../../firmware/GD32VF103_standard_peripheral/Source/gd32vf103_fmc.c ****         FMC_CTL |= FMC_CTL_START;
 811              		.loc 1 236 17
 812 0036 93E70702 		ori	a5,a5,32
 813 003a 1CC8     		sw	a5,16(s0)
 237:./../../firmware/GD32VF103_standard_peripheral/Source/gd32vf103_fmc.c **** 
 814              		.loc 1 237 9 is_stmt 1
 237:./../../firmware/GD32VF103_standard_peripheral/Source/gd32vf103_fmc.c **** 
 815              		.loc 1 237 17 is_stmt 0
 816 003c 1C48     		lw	a5,16(s0)
 817 003e 93E70704 		ori	a5,a5,64
 818 0042 1CC8     		sw	a5,16(s0)
 240:./../../firmware/GD32VF103_standard_peripheral/Source/gd32vf103_fmc.c **** 
 819              		.loc 1 240 9 is_stmt 1
 240:./../../firmware/GD32VF103_standard_peripheral/Source/gd32vf103_fmc.c **** 
 820              		.loc 1 240 21 is_stmt 0
 821 0044 97000000 		call	fmc_ready_wait
 821      E7800000 
 822              	.LVL54:
 823 004c AA84     		mv	s1,a0
 824              	.LVL55:
 242:./../../firmware/GD32VF103_standard_peripheral/Source/gd32vf103_fmc.c ****             /* reset the OBER bit */
 825              		.loc 1 242 9 is_stmt 1
 242:./../../firmware/GD32VF103_standard_peripheral/Source/gd32vf103_fmc.c ****             /* reset the OBER bit */
 826              		.loc 1 242 11 is_stmt 0
 827 004e 05E5     		bne	a0,zero,.L50
 244:./../../firmware/GD32VF103_standard_peripheral/Source/gd32vf103_fmc.c ****             /* set the OBPG bit */
 828              		.loc 1 244 13 is_stmt 1
 244:./../../firmware/GD32VF103_standard_peripheral/Source/gd32vf103_fmc.c ****             /* set the OBPG bit */
 829              		.loc 1 244 21 is_stmt 0
 830 0050 1C48     		lw	a5,16(s0)
 250:./../../firmware/GD32VF103_standard_peripheral/Source/gd32vf103_fmc.c ****             if (FMC_TOERR != fmc_state) {
 831              		.loc 1 250 25
 832 0052 37050F00 		li	a0,983040
 244:./../../firmware/GD32VF103_standard_peripheral/Source/gd32vf103_fmc.c ****             /* set the OBPG bit */
 833              		.loc 1 244 21
 834 0056 93F7F7FD 		andi	a5,a5,-33
 835 005a 1CC8     		sw	a5,16(s0)
 246:./../../firmware/GD32VF103_standard_peripheral/Source/gd32vf103_fmc.c ****             /* no security protection */
 836              		.loc 1 246 13 is_stmt 1
 246:./../../firmware/GD32VF103_standard_peripheral/Source/gd32vf103_fmc.c ****             /* no security protection */
 837              		.loc 1 246 21 is_stmt 0
 838 005c 1C48     		lw	a5,16(s0)
 839 005e 93E70701 		ori	a5,a5,16
 840 0062 1CC8     		sw	a5,16(s0)
 248:./../../firmware/GD32VF103_standard_peripheral/Source/gd32vf103_fmc.c ****             /* wait for the FMC ready */
 841              		.loc 1 248 13 is_stmt 1
 248:./../../firmware/GD32VF103_standard_peripheral/Source/gd32vf103_fmc.c ****             /* wait for the FMC ready */
 842              		.loc 1 248 20 is_stmt 0
 843 0064 B7070020 		li	a5,536870912
 844 0068 23902781 		sh	s2,-2048(a5)
 250:./../../firmware/GD32VF103_standard_peripheral/Source/gd32vf103_fmc.c ****             if (FMC_TOERR != fmc_state) {
 845              		.loc 1 250 13 is_stmt 1
GAS LISTING C:\Users\Karzan\AppData\Local\Temp\ccEGabGh.s 			page 29


 250:./../../firmware/GD32VF103_standard_peripheral/Source/gd32vf103_fmc.c ****             if (FMC_TOERR != fmc_state) {
 846              		.loc 1 250 25 is_stmt 0
 847 006c 97000000 		call	fmc_ready_wait
 847      E7800000 
 848              	.LVL56:
 849 0074 AA84     		mv	s1,a0
 850              	.LVL57:
 251:./../../firmware/GD32VF103_standard_peripheral/Source/gd32vf103_fmc.c ****                 /* reset the OBPG bit */
 851              		.loc 1 251 13 is_stmt 1
 852              	.L50:
 256:./../../firmware/GD32VF103_standard_peripheral/Source/gd32vf103_fmc.c ****                 /* reset the OBPG bit */
 853              		.loc 1 256 13
 256:./../../firmware/GD32VF103_standard_peripheral/Source/gd32vf103_fmc.c ****                 /* reset the OBPG bit */
 854              		.loc 1 256 15 is_stmt 0
 855 0076 9147     		li	a5,4
 856 0078 6385F400 		beq	s1,a5,.L47
 258:./../../firmware/GD32VF103_standard_peripheral/Source/gd32vf103_fmc.c ****             }
 857              		.loc 1 258 17 is_stmt 1
 258:./../../firmware/GD32VF103_standard_peripheral/Source/gd32vf103_fmc.c ****             }
 858              		.loc 1 258 25 is_stmt 0
 859 007c 1C48     		lw	a5,16(s0)
 860 007e BD9B     		andi	a5,a5,-17
 861 0080 1CC8     		sw	a5,16(s0)
 263:./../../firmware/GD32VF103_standard_peripheral/Source/gd32vf103_fmc.c **** }
 862              		.loc 1 263 5 is_stmt 1
 863              	.L47:
 264:./../../firmware/GD32VF103_standard_peripheral/Source/gd32vf103_fmc.c **** 
 864              		.loc 1 264 1 is_stmt 0
 865 0082 B240     		lw	ra,12(sp)
 866              		.cfi_restore 1
 867 0084 2244     		lw	s0,8(sp)
 868              		.cfi_restore 8
 869 0086 2685     		mv	a0,s1
 870 0088 0249     		lw	s2,0(sp)
 871              		.cfi_restore 18
 872              	.LVL58:
 873 008a 9244     		lw	s1,4(sp)
 874              		.cfi_restore 9
 875              	.LVL59:
 876 008c 4101     		addi	sp,sp,16
 877              	.LCFI11:
 878              		.cfi_def_cfa_offset 0
 879 008e 8280     		jr	ra
 880              		.cfi_endproc
 881              	.LFE11:
 883              		.section	.text.ob_write_protection_enable,"ax",@progbits
 884              		.align	1
 885              		.globl	ob_write_protection_enable
 887              	ob_write_protection_enable:
 888              	.LFB12:
 278:./../../firmware/GD32VF103_standard_peripheral/Source/gd32vf103_fmc.c ****     uint16_t temp_wp0, temp_wp1, temp_wp2, temp_wp3;
 889              		.loc 1 278 1 is_stmt 1
 890              		.cfi_startproc
 891              	.LVL60:
 279:./../../firmware/GD32VF103_standard_peripheral/Source/gd32vf103_fmc.c **** 
 892              		.loc 1 279 5
 281:./../../firmware/GD32VF103_standard_peripheral/Source/gd32vf103_fmc.c **** 
GAS LISTING C:\Users\Karzan\AppData\Local\Temp\ccEGabGh.s 			page 30


 893              		.loc 1 281 5
 278:./../../firmware/GD32VF103_standard_peripheral/Source/gd32vf103_fmc.c ****     uint16_t temp_wp0, temp_wp1, temp_wp2, temp_wp3;
 894              		.loc 1 278 1 is_stmt 0
 895 0000 4111     		addi	sp,sp,-16
 896              	.LCFI12:
 897              		.cfi_def_cfa_offset 16
 898 0002 22C4     		sw	s0,8(sp)
 899              		.cfi_offset 8, -8
 900 0004 2A84     		mv	s0,a0
 281:./../../firmware/GD32VF103_standard_peripheral/Source/gd32vf103_fmc.c **** 
 901              		.loc 1 281 32
 902 0006 37050F00 		li	a0,983040
 903              	.LVL61:
 278:./../../firmware/GD32VF103_standard_peripheral/Source/gd32vf103_fmc.c ****     uint16_t temp_wp0, temp_wp1, temp_wp2, temp_wp3;
 904              		.loc 1 278 1
 905 000a 06C6     		sw	ra,12(sp)
 906              		.cfi_offset 1, -4
 281:./../../firmware/GD32VF103_standard_peripheral/Source/gd32vf103_fmc.c **** 
 907              		.loc 1 281 32
 908 000c 97000000 		call	fmc_ready_wait
 908      E7800000 
 909              	.LVL62:
 283:./../../firmware/GD32VF103_standard_peripheral/Source/gd32vf103_fmc.c ****     temp_wp0 = (uint16_t) (ob_wp & OB_WP0_WP0);
 910              		.loc 1 283 5 is_stmt 1
 284:./../../firmware/GD32VF103_standard_peripheral/Source/gd32vf103_fmc.c ****     temp_wp1 = (uint16_t) ((ob_wp & OB_WP1_WP1) >> 8U);
 911              		.loc 1 284 5
 285:./../../firmware/GD32VF103_standard_peripheral/Source/gd32vf103_fmc.c ****     temp_wp2 = (uint16_t) ((ob_wp & OB_WP2_WP2) >> 16U);
 912              		.loc 1 285 5
 286:./../../firmware/GD32VF103_standard_peripheral/Source/gd32vf103_fmc.c ****     temp_wp3 = (uint16_t) ((ob_wp & OB_WP3_WP3) >> 24U);
 913              		.loc 1 286 5
 287:./../../firmware/GD32VF103_standard_peripheral/Source/gd32vf103_fmc.c **** 
 914              		.loc 1 287 5
 289:./../../firmware/GD32VF103_standard_peripheral/Source/gd32vf103_fmc.c **** 
 915              		.loc 1 289 5
 289:./../../firmware/GD32VF103_standard_peripheral/Source/gd32vf103_fmc.c **** 
 916              		.loc 1 289 7 is_stmt 0
 917 0014 5DE9     		bne	a0,zero,.L57
 292:./../../firmware/GD32VF103_standard_peripheral/Source/gd32vf103_fmc.c **** 
 918              		.loc 1 292 17
 919 0016 B7260240 		li	a3,1073881088
 920 001a 9C4A     		lw	a5,16(a3)
 283:./../../firmware/GD32VF103_standard_peripheral/Source/gd32vf103_fmc.c ****     temp_wp0 = (uint16_t) (ob_wp & OB_WP0_WP0);
 921              		.loc 1 283 11
 922 001c 1344F4FF 		not	s0,s0
 923              	.LVL63:
 284:./../../firmware/GD32VF103_standard_peripheral/Source/gd32vf103_fmc.c ****     temp_wp1 = (uint16_t) ((ob_wp & OB_WP1_WP1) >> 8U);
 924              		.loc 1 284 14
 925 0020 1377F40F 		andi	a4,s0,0xff
 292:./../../firmware/GD32VF103_standard_peripheral/Source/gd32vf103_fmc.c **** 
 926              		.loc 1 292 9 is_stmt 1
 292:./../../firmware/GD32VF103_standard_peripheral/Source/gd32vf103_fmc.c **** 
 927              		.loc 1 292 17 is_stmt 0
 928 0024 93E70701 		ori	a5,a5,16
 929 0028 9CCA     		sw	a5,16(a3)
 294:./../../firmware/GD32VF103_standard_peripheral/Source/gd32vf103_fmc.c ****             OB_WP0 = temp_wp0;
 930              		.loc 1 294 9 is_stmt 1
 294:./../../firmware/GD32VF103_standard_peripheral/Source/gd32vf103_fmc.c ****             OB_WP0 = temp_wp0;
GAS LISTING C:\Users\Karzan\AppData\Local\Temp\ccEGabGh.s 			page 31


 931              		.loc 1 294 11 is_stmt 0
 932 002a 9307F00F 		li	a5,255
 933 002e 631BF706 		bne	a4,a5,.L59
 934              	.LVL64:
 935              	.L62:
 285:./../../firmware/GD32VF103_standard_peripheral/Source/gd32vf103_fmc.c ****     temp_wp2 = (uint16_t) ((ob_wp & OB_WP2_WP2) >> 16U);
 936              		.loc 1 285 49
 937 0032 93578400 		srli	a5,s0,8
 285:./../../firmware/GD32VF103_standard_peripheral/Source/gd32vf103_fmc.c ****     temp_wp2 = (uint16_t) ((ob_wp & OB_WP2_WP2) >> 16U);
 938              		.loc 1 285 14
 939 0036 93F7F70F 		andi	a5,a5,0xff
 300:./../../firmware/GD32VF103_standard_peripheral/Source/gd32vf103_fmc.c ****             OB_WP1 = temp_wp1;
 940              		.loc 1 300 37
 941 003a 1307F00F 		li	a4,255
 942 003e 638DE700 		beq	a5,a4,.L61
 301:./../../firmware/GD32VF103_standard_peripheral/Source/gd32vf103_fmc.c **** 
 943              		.loc 1 301 13 is_stmt 1
 301:./../../firmware/GD32VF103_standard_peripheral/Source/gd32vf103_fmc.c **** 
 944              		.loc 1 301 20 is_stmt 0
 945 0042 37070020 		li	a4,536870912
 946 0046 2315F780 		sh	a5,-2038(a4)
 304:./../../firmware/GD32VF103_standard_peripheral/Source/gd32vf103_fmc.c ****         }
 947              		.loc 1 304 13 is_stmt 1
 304:./../../firmware/GD32VF103_standard_peripheral/Source/gd32vf103_fmc.c ****         }
 948              		.loc 1 304 25 is_stmt 0
 949 004a 37050F00 		li	a0,983040
 950 004e 97000000 		call	fmc_ready_wait
 950      E7800000 
 951              	.LVL65:
 306:./../../firmware/GD32VF103_standard_peripheral/Source/gd32vf103_fmc.c ****             OB_WP2 = temp_wp2;
 952              		.loc 1 306 9 is_stmt 1
 306:./../../firmware/GD32VF103_standard_peripheral/Source/gd32vf103_fmc.c ****             OB_WP2 = temp_wp2;
 953              		.loc 1 306 11 is_stmt 0
 954 0056 35E1     		bne	a0,zero,.L63
 955              	.LVL66:
 956              	.L61:
 286:./../../firmware/GD32VF103_standard_peripheral/Source/gd32vf103_fmc.c ****     temp_wp3 = (uint16_t) ((ob_wp & OB_WP3_WP3) >> 24U);
 957              		.loc 1 286 49
 958 0058 93570401 		srli	a5,s0,16
 286:./../../firmware/GD32VF103_standard_peripheral/Source/gd32vf103_fmc.c ****     temp_wp3 = (uint16_t) ((ob_wp & OB_WP3_WP3) >> 24U);
 959              		.loc 1 286 14
 960 005c 93F7F70F 		andi	a5,a5,0xff
 306:./../../firmware/GD32VF103_standard_peripheral/Source/gd32vf103_fmc.c ****             OB_WP2 = temp_wp2;
 961              		.loc 1 306 37
 962 0060 1307F00F 		li	a4,255
 963 0064 638DE700 		beq	a5,a4,.L65
 307:./../../firmware/GD32VF103_standard_peripheral/Source/gd32vf103_fmc.c **** 
 964              		.loc 1 307 13 is_stmt 1
 307:./../../firmware/GD32VF103_standard_peripheral/Source/gd32vf103_fmc.c **** 
 965              		.loc 1 307 20 is_stmt 0
 966 0068 37070020 		li	a4,536870912
 967 006c 2316F780 		sh	a5,-2036(a4)
 310:./../../firmware/GD32VF103_standard_peripheral/Source/gd32vf103_fmc.c ****         }
 968              		.loc 1 310 13 is_stmt 1
 310:./../../firmware/GD32VF103_standard_peripheral/Source/gd32vf103_fmc.c ****         }
 969              		.loc 1 310 25 is_stmt 0
 970 0070 37050F00 		li	a0,983040
GAS LISTING C:\Users\Karzan\AppData\Local\Temp\ccEGabGh.s 			page 32


 971 0074 97000000 		call	fmc_ready_wait
 971      E7800000 
 972              	.LVL67:
 312:./../../firmware/GD32VF103_standard_peripheral/Source/gd32vf103_fmc.c ****             OB_WP3 = temp_wp3;
 973              		.loc 1 312 9 is_stmt 1
 312:./../../firmware/GD32VF103_standard_peripheral/Source/gd32vf103_fmc.c ****             OB_WP3 = temp_wp3;
 974              		.loc 1 312 11 is_stmt 0
 975 007c 1DED     		bne	a0,zero,.L63
 976              	.LVL68:
 977              	.L65:
 287:./../../firmware/GD32VF103_standard_peripheral/Source/gd32vf103_fmc.c **** 
 978              		.loc 1 287 49
 979 007e 6180     		srli	s0,s0,24
 980              	.LVL69:
 312:./../../firmware/GD32VF103_standard_peripheral/Source/gd32vf103_fmc.c ****             OB_WP3 = temp_wp3;
 981              		.loc 1 312 37
 982 0080 9307F00F 		li	a5,255
 983 0084 0145     		li	a0,0
 984 0086 630DF402 		beq	s0,a5,.L67
 313:./../../firmware/GD32VF103_standard_peripheral/Source/gd32vf103_fmc.c **** 
 985              		.loc 1 313 13 is_stmt 1
 287:./../../firmware/GD32VF103_standard_peripheral/Source/gd32vf103_fmc.c **** 
 986              		.loc 1 287 14 is_stmt 0
 987 008a 4204     		slli	s0,s0,16
 988 008c 4180     		srli	s0,s0,16
 313:./../../firmware/GD32VF103_standard_peripheral/Source/gd32vf103_fmc.c **** 
 989              		.loc 1 313 20
 990 008e B7070020 		li	a5,536870912
 991 0092 23978780 		sh	s0,-2034(a5)
 316:./../../firmware/GD32VF103_standard_peripheral/Source/gd32vf103_fmc.c ****         }
 992              		.loc 1 316 13 is_stmt 1
 316:./../../firmware/GD32VF103_standard_peripheral/Source/gd32vf103_fmc.c ****         }
 993              		.loc 1 316 25 is_stmt 0
 994 0096 37050F00 		li	a0,983040
 995 009a 97000000 		call	fmc_ready_wait
 995      E7800000 
 996              	.LVL70:
 997 00a2 21A8     		j	.L63
 998              	.LVL71:
 999              	.L59:
 295:./../../firmware/GD32VF103_standard_peripheral/Source/gd32vf103_fmc.c **** 
 1000              		.loc 1 295 13 is_stmt 1
 295:./../../firmware/GD32VF103_standard_peripheral/Source/gd32vf103_fmc.c **** 
 1001              		.loc 1 295 20 is_stmt 0
 1002 00a4 B7070020 		li	a5,536870912
 1003 00a8 2394E780 		sh	a4,-2040(a5)
 298:./../../firmware/GD32VF103_standard_peripheral/Source/gd32vf103_fmc.c ****         }
 1004              		.loc 1 298 13 is_stmt 1
 298:./../../firmware/GD32VF103_standard_peripheral/Source/gd32vf103_fmc.c ****         }
 1005              		.loc 1 298 25 is_stmt 0
 1006 00ac 37050F00 		li	a0,983040
 1007              	.LVL72:
 1008 00b0 97000000 		call	fmc_ready_wait
 1008      E7800000 
 1009              	.LVL73:
 300:./../../firmware/GD32VF103_standard_peripheral/Source/gd32vf103_fmc.c ****             OB_WP1 = temp_wp1;
 1010              		.loc 1 300 9 is_stmt 1
GAS LISTING C:\Users\Karzan\AppData\Local\Temp\ccEGabGh.s 			page 33


 300:./../../firmware/GD32VF103_standard_peripheral/Source/gd32vf103_fmc.c ****             OB_WP1 = temp_wp1;
 1011              		.loc 1 300 11 is_stmt 0
 1012 00b8 2DDD     		beq	a0,zero,.L62
 1013              	.LVL74:
 1014              	.L63:
 318:./../../firmware/GD32VF103_standard_peripheral/Source/gd32vf103_fmc.c ****             /* reset the OBPG bit */
 1015              		.loc 1 318 9 is_stmt 1
 318:./../../firmware/GD32VF103_standard_peripheral/Source/gd32vf103_fmc.c ****             /* reset the OBPG bit */
 1016              		.loc 1 318 11 is_stmt 0
 1017 00ba 9147     		li	a5,4
 1018 00bc 6307F500 		beq	a0,a5,.L57
 1019              	.LVL75:
 1020              	.L67:
 320:./../../firmware/GD32VF103_standard_peripheral/Source/gd32vf103_fmc.c ****         }
 1021              		.loc 1 320 13 is_stmt 1
 320:./../../firmware/GD32VF103_standard_peripheral/Source/gd32vf103_fmc.c ****         }
 1022              		.loc 1 320 21 is_stmt 0
 1023 00c0 37270240 		li	a4,1073881088
 1024 00c4 1C4B     		lw	a5,16(a4)
 1025 00c6 BD9B     		andi	a5,a5,-17
 1026 00c8 1CCB     		sw	a5,16(a4)
 1027              	.L57:
 325:./../../firmware/GD32VF103_standard_peripheral/Source/gd32vf103_fmc.c **** 
 1028              		.loc 1 325 1
 1029 00ca B240     		lw	ra,12(sp)
 1030              		.cfi_restore 1
 1031 00cc 2244     		lw	s0,8(sp)
 1032              		.cfi_restore 8
 1033 00ce 4101     		addi	sp,sp,16
 1034              	.LCFI13:
 1035              		.cfi_def_cfa_offset 0
 1036 00d0 8280     		jr	ra
 1037              		.cfi_endproc
 1038              	.LFE12:
 1040              		.section	.text.ob_security_protection_config,"ax",@progbits
 1041              		.align	1
 1042              		.globl	ob_security_protection_config
 1044              	ob_security_protection_config:
 1045              	.LFB13:
 337:./../../firmware/GD32VF103_standard_peripheral/Source/gd32vf103_fmc.c ****     fmc_state_enum fmc_state = fmc_ready_wait(FMC_TIMEOUT_COUNT);
 1046              		.loc 1 337 1 is_stmt 1
 1047              		.cfi_startproc
 1048              	.LVL76:
 338:./../../firmware/GD32VF103_standard_peripheral/Source/gd32vf103_fmc.c **** 
 1049              		.loc 1 338 5
 337:./../../firmware/GD32VF103_standard_peripheral/Source/gd32vf103_fmc.c ****     fmc_state_enum fmc_state = fmc_ready_wait(FMC_TIMEOUT_COUNT);
 1050              		.loc 1 337 1 is_stmt 0
 1051 0000 4111     		addi	sp,sp,-16
 1052              	.LCFI14:
 1053              		.cfi_def_cfa_offset 16
 1054 0002 26C2     		sw	s1,4(sp)
 1055              		.cfi_offset 9, -12
 1056 0004 AA84     		mv	s1,a0
 338:./../../firmware/GD32VF103_standard_peripheral/Source/gd32vf103_fmc.c **** 
 1057              		.loc 1 338 32
 1058 0006 37050F00 		li	a0,983040
 1059              	.LVL77:
GAS LISTING C:\Users\Karzan\AppData\Local\Temp\ccEGabGh.s 			page 34


 337:./../../firmware/GD32VF103_standard_peripheral/Source/gd32vf103_fmc.c ****     fmc_state_enum fmc_state = fmc_ready_wait(FMC_TIMEOUT_COUNT);
 1060              		.loc 1 337 1
 1061 000a 06C6     		sw	ra,12(sp)
 1062 000c 22C4     		sw	s0,8(sp)
 1063              		.cfi_offset 1, -4
 1064              		.cfi_offset 8, -8
 338:./../../firmware/GD32VF103_standard_peripheral/Source/gd32vf103_fmc.c **** 
 1065              		.loc 1 338 32
 1066 000e 97000000 		call	fmc_ready_wait
 1066      E7800000 
 1067              	.LVL78:
 340:./../../firmware/GD32VF103_standard_peripheral/Source/gd32vf103_fmc.c ****         FMC_CTL |= FMC_CTL_OBER;
 1068              		.loc 1 340 5 is_stmt 1
 340:./../../firmware/GD32VF103_standard_peripheral/Source/gd32vf103_fmc.c ****         FMC_CTL |= FMC_CTL_OBER;
 1069              		.loc 1 340 7 is_stmt 0
 1070 0016 21ED     		bne	a0,zero,.L79
 341:./../../firmware/GD32VF103_standard_peripheral/Source/gd32vf103_fmc.c ****         FMC_CTL |= FMC_CTL_START;
 1071              		.loc 1 341 9 is_stmt 1
 341:./../../firmware/GD32VF103_standard_peripheral/Source/gd32vf103_fmc.c ****         FMC_CTL |= FMC_CTL_START;
 1072              		.loc 1 341 17 is_stmt 0
 1073 0018 37240240 		li	s0,1073881088
 1074 001c 1C48     		lw	a5,16(s0)
 345:./../../firmware/GD32VF103_standard_peripheral/Source/gd32vf103_fmc.c **** 
 1075              		.loc 1 345 21
 1076 001e 37050F00 		li	a0,983040
 1077              	.LVL79:
 341:./../../firmware/GD32VF103_standard_peripheral/Source/gd32vf103_fmc.c ****         FMC_CTL |= FMC_CTL_START;
 1078              		.loc 1 341 17
 1079 0022 93E70702 		ori	a5,a5,32
 1080 0026 1CC8     		sw	a5,16(s0)
 342:./../../firmware/GD32VF103_standard_peripheral/Source/gd32vf103_fmc.c **** 
 1081              		.loc 1 342 9 is_stmt 1
 342:./../../firmware/GD32VF103_standard_peripheral/Source/gd32vf103_fmc.c **** 
 1082              		.loc 1 342 17 is_stmt 0
 1083 0028 1C48     		lw	a5,16(s0)
 1084 002a 93E70704 		ori	a5,a5,64
 1085 002e 1CC8     		sw	a5,16(s0)
 345:./../../firmware/GD32VF103_standard_peripheral/Source/gd32vf103_fmc.c **** 
 1086              		.loc 1 345 9 is_stmt 1
 345:./../../firmware/GD32VF103_standard_peripheral/Source/gd32vf103_fmc.c **** 
 1087              		.loc 1 345 21 is_stmt 0
 1088 0030 97000000 		call	fmc_ready_wait
 1088      E7800000 
 1089              	.LVL80:
 347:./../../firmware/GD32VF103_standard_peripheral/Source/gd32vf103_fmc.c ****             /* reset the OBER bit */
 1090              		.loc 1 347 9 is_stmt 1
 347:./../../firmware/GD32VF103_standard_peripheral/Source/gd32vf103_fmc.c ****             /* reset the OBER bit */
 1091              		.loc 1 347 11 is_stmt 0
 1092 0038 21E1     		bne	a0,zero,.L81
 349:./../../firmware/GD32VF103_standard_peripheral/Source/gd32vf103_fmc.c **** 
 1093              		.loc 1 349 13 is_stmt 1
 349:./../../firmware/GD32VF103_standard_peripheral/Source/gd32vf103_fmc.c **** 
 1094              		.loc 1 349 21 is_stmt 0
 1095 003a 1C48     		lw	a5,16(s0)
 354:./../../firmware/GD32VF103_standard_peripheral/Source/gd32vf103_fmc.c **** 
 1096              		.loc 1 354 22
 1097 003c C204     		slli	s1,s1,16
GAS LISTING C:\Users\Karzan\AppData\Local\Temp\ccEGabGh.s 			page 35


 1098 003e C180     		srli	s1,s1,16
 349:./../../firmware/GD32VF103_standard_peripheral/Source/gd32vf103_fmc.c **** 
 1099              		.loc 1 349 21
 1100 0040 93F7F7FD 		andi	a5,a5,-33
 1101 0044 1CC8     		sw	a5,16(s0)
 352:./../../firmware/GD32VF103_standard_peripheral/Source/gd32vf103_fmc.c **** 
 1102              		.loc 1 352 13 is_stmt 1
 352:./../../firmware/GD32VF103_standard_peripheral/Source/gd32vf103_fmc.c **** 
 1103              		.loc 1 352 21 is_stmt 0
 1104 0046 1C48     		lw	a5,16(s0)
 357:./../../firmware/GD32VF103_standard_peripheral/Source/gd32vf103_fmc.c **** 
 1105              		.loc 1 357 25
 1106 0048 37050F00 		li	a0,983040
 1107              	.LVL81:
 352:./../../firmware/GD32VF103_standard_peripheral/Source/gd32vf103_fmc.c **** 
 1108              		.loc 1 352 21
 1109 004c 93E70701 		ori	a5,a5,16
 1110 0050 1CC8     		sw	a5,16(s0)
 354:./../../firmware/GD32VF103_standard_peripheral/Source/gd32vf103_fmc.c **** 
 1111              		.loc 1 354 13 is_stmt 1
 354:./../../firmware/GD32VF103_standard_peripheral/Source/gd32vf103_fmc.c **** 
 1112              		.loc 1 354 20 is_stmt 0
 1113 0052 B7070020 		li	a5,536870912
 1114 0056 23909780 		sh	s1,-2048(a5)
 357:./../../firmware/GD32VF103_standard_peripheral/Source/gd32vf103_fmc.c **** 
 1115              		.loc 1 357 13 is_stmt 1
 357:./../../firmware/GD32VF103_standard_peripheral/Source/gd32vf103_fmc.c **** 
 1116              		.loc 1 357 25 is_stmt 0
 1117 005a 97000000 		call	fmc_ready_wait
 1117      E7800000 
 1118              	.LVL82:
 359:./../../firmware/GD32VF103_standard_peripheral/Source/gd32vf103_fmc.c ****                 /* reset the OBPG bit */
 1119              		.loc 1 359 13 is_stmt 1
 359:./../../firmware/GD32VF103_standard_peripheral/Source/gd32vf103_fmc.c ****                 /* reset the OBPG bit */
 1120              		.loc 1 359 16 is_stmt 0
 1121 0062 9147     		li	a5,4
 1122 0064 6305F500 		beq	a0,a5,.L79
 361:./../../firmware/GD32VF103_standard_peripheral/Source/gd32vf103_fmc.c ****             }
 1123              		.loc 1 361 17 is_stmt 1
 361:./../../firmware/GD32VF103_standard_peripheral/Source/gd32vf103_fmc.c ****             }
 1124              		.loc 1 361 25 is_stmt 0
 1125 0068 1C48     		lw	a5,16(s0)
 1126 006a BD9B     		andi	a5,a5,-17
 1127              	.L83:
 366:./../../firmware/GD32VF103_standard_peripheral/Source/gd32vf103_fmc.c ****             }
 1128              		.loc 1 366 25
 1129 006c 1CC8     		sw	a5,16(s0)
 371:./../../firmware/GD32VF103_standard_peripheral/Source/gd32vf103_fmc.c **** }
 1130              		.loc 1 371 5 is_stmt 1
 1131              	.L79:
 372:./../../firmware/GD32VF103_standard_peripheral/Source/gd32vf103_fmc.c **** 
 1132              		.loc 1 372 1 is_stmt 0
 1133 006e B240     		lw	ra,12(sp)
 1134              		.cfi_remember_state
 1135              		.cfi_restore 1
 1136 0070 2244     		lw	s0,8(sp)
 1137              		.cfi_restore 8
GAS LISTING C:\Users\Karzan\AppData\Local\Temp\ccEGabGh.s 			page 36


 1138 0072 9244     		lw	s1,4(sp)
 1139              		.cfi_restore 9
 1140 0074 4101     		addi	sp,sp,16
 1141              	.LCFI15:
 1142              		.cfi_def_cfa_offset 0
 1143 0076 8280     		jr	ra
 1144              	.L81:
 1145              	.LCFI16:
 1146              		.cfi_restore_state
 364:./../../firmware/GD32VF103_standard_peripheral/Source/gd32vf103_fmc.c ****                 /* reset the OBER bit */
 1147              		.loc 1 364 13 is_stmt 1
 364:./../../firmware/GD32VF103_standard_peripheral/Source/gd32vf103_fmc.c ****                 /* reset the OBER bit */
 1148              		.loc 1 364 16 is_stmt 0
 1149 0078 9147     		li	a5,4
 1150 007a E30AF5FE 		beq	a0,a5,.L79
 366:./../../firmware/GD32VF103_standard_peripheral/Source/gd32vf103_fmc.c ****             }
 1151              		.loc 1 366 17 is_stmt 1
 366:./../../firmware/GD32VF103_standard_peripheral/Source/gd32vf103_fmc.c ****             }
 1152              		.loc 1 366 25 is_stmt 0
 1153 007e 1C48     		lw	a5,16(s0)
 1154 0080 93F7F7FD 		andi	a5,a5,-33
 1155 0084 E5B7     		j	.L83
 1156              		.cfi_endproc
 1157              	.LFE13:
 1159              		.section	.text.ob_user_write,"ax",@progbits
 1160              		.align	1
 1161              		.globl	ob_user_write
 1163              	ob_user_write:
 1164              	.LFB14:
 391:./../../firmware/GD32VF103_standard_peripheral/Source/gd32vf103_fmc.c ****     fmc_state_enum fmc_state = FMC_READY;
 1165              		.loc 1 391 1 is_stmt 1
 1166              		.cfi_startproc
 1167              	.LVL83:
 392:./../../firmware/GD32VF103_standard_peripheral/Source/gd32vf103_fmc.c ****     uint8_t temp;
 1168              		.loc 1 392 5
 393:./../../firmware/GD32VF103_standard_peripheral/Source/gd32vf103_fmc.c **** 
 1169              		.loc 1 393 5
 396:./../../firmware/GD32VF103_standard_peripheral/Source/gd32vf103_fmc.c **** 
 1170              		.loc 1 396 5
 391:./../../firmware/GD32VF103_standard_peripheral/Source/gd32vf103_fmc.c ****     fmc_state_enum fmc_state = FMC_READY;
 1171              		.loc 1 391 1 is_stmt 0
 1172 0000 7971     		addi	sp,sp,-48
 1173              	.LCFI17:
 1174              		.cfi_def_cfa_offset 48
 1175 0002 22D4     		sw	s0,40(sp)
 1176              		.cfi_offset 8, -8
 1177 0004 2A84     		mv	s0,a0
 396:./../../firmware/GD32VF103_standard_peripheral/Source/gd32vf103_fmc.c **** 
 1178              		.loc 1 396 17
 1179 0006 37050F00 		li	a0,983040
 1180              	.LVL84:
 391:./../../firmware/GD32VF103_standard_peripheral/Source/gd32vf103_fmc.c ****     fmc_state_enum fmc_state = FMC_READY;
 1181              		.loc 1 391 1
 1182 000a 4AD0     		sw	s2,32(sp)
 1183 000c 4ECE     		sw	s3,28(sp)
 1184 000e 32C6     		sw	a2,12(sp)
 1185 0010 06D6     		sw	ra,44(sp)
GAS LISTING C:\Users\Karzan\AppData\Local\Temp\ccEGabGh.s 			page 37


 1186 0012 26D2     		sw	s1,36(sp)
 1187              		.cfi_offset 18, -16
 1188              		.cfi_offset 19, -20
 1189              		.cfi_offset 1, -4
 1190              		.cfi_offset 9, -12
 391:./../../firmware/GD32VF103_standard_peripheral/Source/gd32vf103_fmc.c ****     fmc_state_enum fmc_state = FMC_READY;
 1191              		.loc 1 391 1
 1192 0014 2E89     		mv	s2,a1
 1193 0016 B689     		mv	s3,a3
 396:./../../firmware/GD32VF103_standard_peripheral/Source/gd32vf103_fmc.c **** 
 1194              		.loc 1 396 17
 1195 0018 97000000 		call	fmc_ready_wait
 1195      E7800000 
 1196              	.LVL85:
 398:./../../firmware/GD32VF103_standard_peripheral/Source/gd32vf103_fmc.c ****         /* set the OBPG bit*/
 1197              		.loc 1 398 5 is_stmt 1
 398:./../../firmware/GD32VF103_standard_peripheral/Source/gd32vf103_fmc.c ****         /* set the OBPG bit*/
 1198              		.loc 1 398 7 is_stmt 0
 1199 0020 3246     		lw	a2,12(sp)
 1200 0022 29E1     		bne	a0,zero,.L84
 400:./../../firmware/GD32VF103_standard_peripheral/Source/gd32vf103_fmc.c **** 
 1201              		.loc 1 400 9 is_stmt 1
 400:./../../firmware/GD32VF103_standard_peripheral/Source/gd32vf103_fmc.c **** 
 1202              		.loc 1 400 17 is_stmt 0
 1203 0024 B7240240 		li	s1,1073881088
 1204 0028 9C48     		lw	a5,16(s1)
 402:./../../firmware/GD32VF103_standard_peripheral/Source/gd32vf103_fmc.c ****         OB_USER = (uint16_t) temp;
 1205              		.loc 1 402 17
 1206 002a B3E9C900 		or	s3,s3,a2
 1207 002e 33693901 		or	s2,s2,s3
 1208 0032 33642401 		or	s0,s0,s2
 400:./../../firmware/GD32VF103_standard_peripheral/Source/gd32vf103_fmc.c **** 
 1209              		.loc 1 400 17
 1210 0036 93E70701 		ori	a5,a5,16
 402:./../../firmware/GD32VF103_standard_peripheral/Source/gd32vf103_fmc.c ****         OB_USER = (uint16_t) temp;
 1211              		.loc 1 402 14
 1212 003a 136404FF 		ori	s0,s0,-16
 400:./../../firmware/GD32VF103_standard_peripheral/Source/gd32vf103_fmc.c **** 
 1213              		.loc 1 400 17
 1214 003e 9CC8     		sw	a5,16(s1)
 402:./../../firmware/GD32VF103_standard_peripheral/Source/gd32vf103_fmc.c ****         OB_USER = (uint16_t) temp;
 1215              		.loc 1 402 9 is_stmt 1
 403:./../../firmware/GD32VF103_standard_peripheral/Source/gd32vf103_fmc.c **** 
 1216              		.loc 1 403 9
 403:./../../firmware/GD32VF103_standard_peripheral/Source/gd32vf103_fmc.c **** 
 1217              		.loc 1 403 19 is_stmt 0
 1218 0040 1374F40F 		andi	s0,s0,0xff
 403:./../../firmware/GD32VF103_standard_peripheral/Source/gd32vf103_fmc.c **** 
 1219              		.loc 1 403 17
 1220 0044 B7070020 		li	a5,536870912
 1221 0048 23918780 		sh	s0,-2046(a5)
 406:./../../firmware/GD32VF103_standard_peripheral/Source/gd32vf103_fmc.c **** 
 1222              		.loc 1 406 9 is_stmt 1
 406:./../../firmware/GD32VF103_standard_peripheral/Source/gd32vf103_fmc.c **** 
 1223              		.loc 1 406 21 is_stmt 0
 1224 004c 37050F00 		li	a0,983040
 1225              	.LVL86:
GAS LISTING C:\Users\Karzan\AppData\Local\Temp\ccEGabGh.s 			page 38


 1226 0050 97000000 		call	fmc_ready_wait
 1226      E7800000 
 1227              	.LVL87:
 408:./../../firmware/GD32VF103_standard_peripheral/Source/gd32vf103_fmc.c ****             /* reset the OBPG bit */
 1228              		.loc 1 408 9 is_stmt 1
 408:./../../firmware/GD32VF103_standard_peripheral/Source/gd32vf103_fmc.c ****             /* reset the OBPG bit */
 1229              		.loc 1 408 11 is_stmt 0
 1230 0058 9147     		li	a5,4
 1231 005a 6305F500 		beq	a0,a5,.L84
 410:./../../firmware/GD32VF103_standard_peripheral/Source/gd32vf103_fmc.c ****         }
 1232              		.loc 1 410 13 is_stmt 1
 410:./../../firmware/GD32VF103_standard_peripheral/Source/gd32vf103_fmc.c ****         }
 1233              		.loc 1 410 21 is_stmt 0
 1234 005e 9C48     		lw	a5,16(s1)
 1235 0060 BD9B     		andi	a5,a5,-17
 1236 0062 9CC8     		sw	a5,16(s1)
 414:./../../firmware/GD32VF103_standard_peripheral/Source/gd32vf103_fmc.c **** }
 1237              		.loc 1 414 5 is_stmt 1
 1238              	.L84:
 415:./../../firmware/GD32VF103_standard_peripheral/Source/gd32vf103_fmc.c **** 
 1239              		.loc 1 415 1 is_stmt 0
 1240 0064 B250     		lw	ra,44(sp)
 1241              		.cfi_restore 1
 1242 0066 2254     		lw	s0,40(sp)
 1243              		.cfi_restore 8
 1244 0068 9254     		lw	s1,36(sp)
 1245              		.cfi_restore 9
 1246 006a 0259     		lw	s2,32(sp)
 1247              		.cfi_restore 18
 1248 006c F249     		lw	s3,28(sp)
 1249              		.cfi_restore 19
 1250 006e 4561     		addi	sp,sp,48
 1251              	.LCFI18:
 1252              		.cfi_def_cfa_offset 0
 1253 0070 8280     		jr	ra
 1254              		.cfi_endproc
 1255              	.LFE14:
 1257              		.section	.text.ob_data_program,"ax",@progbits
 1258              		.align	1
 1259              		.globl	ob_data_program
 1261              	ob_data_program:
 1262              	.LFB15:
 425:./../../firmware/GD32VF103_standard_peripheral/Source/gd32vf103_fmc.c ****     fmc_state_enum fmc_state = fmc_ready_wait(FMC_TIMEOUT_COUNT);
 1263              		.loc 1 425 1 is_stmt 1
 1264              		.cfi_startproc
 1265              	.LVL88:
 426:./../../firmware/GD32VF103_standard_peripheral/Source/gd32vf103_fmc.c **** 
 1266              		.loc 1 426 5
 425:./../../firmware/GD32VF103_standard_peripheral/Source/gd32vf103_fmc.c ****     fmc_state_enum fmc_state = fmc_ready_wait(FMC_TIMEOUT_COUNT);
 1267              		.loc 1 425 1 is_stmt 0
 1268 0000 0111     		addi	sp,sp,-32
 1269              	.LCFI19:
 1270              		.cfi_def_cfa_offset 32
 1271 0002 26CA     		sw	s1,20(sp)
 1272              		.cfi_offset 9, -12
 1273 0004 AA84     		mv	s1,a0
 426:./../../firmware/GD32VF103_standard_peripheral/Source/gd32vf103_fmc.c **** 
GAS LISTING C:\Users\Karzan\AppData\Local\Temp\ccEGabGh.s 			page 39


 1274              		.loc 1 426 32
 1275 0006 37050F00 		li	a0,983040
 1276              	.LVL89:
 425:./../../firmware/GD32VF103_standard_peripheral/Source/gd32vf103_fmc.c ****     fmc_state_enum fmc_state = fmc_ready_wait(FMC_TIMEOUT_COUNT);
 1277              		.loc 1 425 1
 1278 000a 2EC6     		sw	a1,12(sp)
 1279 000c 06CE     		sw	ra,28(sp)
 1280 000e 22CC     		sw	s0,24(sp)
 1281              		.cfi_offset 1, -4
 1282              		.cfi_offset 8, -8
 426:./../../firmware/GD32VF103_standard_peripheral/Source/gd32vf103_fmc.c **** 
 1283              		.loc 1 426 32
 1284 0010 97000000 		call	fmc_ready_wait
 1284      E7800000 
 1285              	.LVL90:
 428:./../../firmware/GD32VF103_standard_peripheral/Source/gd32vf103_fmc.c ****         /* set the OBPG bit */
 1286              		.loc 1 428 5 is_stmt 1
 428:./../../firmware/GD32VF103_standard_peripheral/Source/gd32vf103_fmc.c ****         /* set the OBPG bit */
 1287              		.loc 1 428 7 is_stmt 0
 1288 0018 B245     		lw	a1,12(sp)
 1289 001a 1DE5     		bne	a0,zero,.L87
 430:./../../firmware/GD32VF103_standard_peripheral/Source/gd32vf103_fmc.c ****         REG16(address) = data;
 1290              		.loc 1 430 9 is_stmt 1
 430:./../../firmware/GD32VF103_standard_peripheral/Source/gd32vf103_fmc.c ****         REG16(address) = data;
 1291              		.loc 1 430 17 is_stmt 0
 1292 001c 37240240 		li	s0,1073881088
 1293 0020 1C48     		lw	a5,16(s0)
 431:./../../firmware/GD32VF103_standard_peripheral/Source/gd32vf103_fmc.c **** 
 1294              		.loc 1 431 24
 1295 0022 C205     		slli	a1,a1,16
 1296 0024 C181     		srli	a1,a1,16
 430:./../../firmware/GD32VF103_standard_peripheral/Source/gd32vf103_fmc.c ****         REG16(address) = data;
 1297              		.loc 1 430 17
 1298 0026 93E70701 		ori	a5,a5,16
 1299 002a 1CC8     		sw	a5,16(s0)
 431:./../../firmware/GD32VF103_standard_peripheral/Source/gd32vf103_fmc.c **** 
 1300              		.loc 1 431 9 is_stmt 1
 431:./../../firmware/GD32VF103_standard_peripheral/Source/gd32vf103_fmc.c **** 
 1301              		.loc 1 431 24 is_stmt 0
 1302 002c 2390B400 		sh	a1,0(s1)
 434:./../../firmware/GD32VF103_standard_peripheral/Source/gd32vf103_fmc.c **** 
 1303              		.loc 1 434 9 is_stmt 1
 434:./../../firmware/GD32VF103_standard_peripheral/Source/gd32vf103_fmc.c **** 
 1304              		.loc 1 434 21 is_stmt 0
 1305 0030 37050F00 		li	a0,983040
 1306              	.LVL91:
 1307 0034 97000000 		call	fmc_ready_wait
 1307      E7800000 
 1308              	.LVL92:
 436:./../../firmware/GD32VF103_standard_peripheral/Source/gd32vf103_fmc.c ****             /* reset the OBPG bit */
 1309              		.loc 1 436 9 is_stmt 1
 436:./../../firmware/GD32VF103_standard_peripheral/Source/gd32vf103_fmc.c ****             /* reset the OBPG bit */
 1310              		.loc 1 436 11 is_stmt 0
 1311 003c 9147     		li	a5,4
 1312 003e 6305F500 		beq	a0,a5,.L87
 438:./../../firmware/GD32VF103_standard_peripheral/Source/gd32vf103_fmc.c ****         }
 1313              		.loc 1 438 13 is_stmt 1
GAS LISTING C:\Users\Karzan\AppData\Local\Temp\ccEGabGh.s 			page 40


 438:./../../firmware/GD32VF103_standard_peripheral/Source/gd32vf103_fmc.c ****         }
 1314              		.loc 1 438 21 is_stmt 0
 1315 0042 1C48     		lw	a5,16(s0)
 1316 0044 BD9B     		andi	a5,a5,-17
 1317 0046 1CC8     		sw	a5,16(s0)
 442:./../../firmware/GD32VF103_standard_peripheral/Source/gd32vf103_fmc.c **** }
 1318              		.loc 1 442 5 is_stmt 1
 1319              	.L87:
 443:./../../firmware/GD32VF103_standard_peripheral/Source/gd32vf103_fmc.c **** 
 1320              		.loc 1 443 1 is_stmt 0
 1321 0048 F240     		lw	ra,28(sp)
 1322              		.cfi_restore 1
 1323 004a 6244     		lw	s0,24(sp)
 1324              		.cfi_restore 8
 1325 004c D244     		lw	s1,20(sp)
 1326              		.cfi_restore 9
 1327              	.LVL93:
 1328 004e 0561     		addi	sp,sp,32
 1329              	.LCFI20:
 1330              		.cfi_def_cfa_offset 0
 1331 0050 8280     		jr	ra
 1332              		.cfi_endproc
 1333              	.LFE15:
 1335              		.text
 1336              	.Letext0:
 1337              		.file 2 "c:\\users\\karzan\\downloads\\toolchain-gd32v-v202-win\\toolchain-gd32v-v202-win\\compile
 1338              		.file 3 "c:\\users\\karzan\\downloads\\toolchain-gd32v-v202-win\\toolchain-gd32v-v202-win\\compile
 1339              		.file 4 "./../../firmware/GD32VF103_standard_peripheral/gd32vf103.h"
 1340              		.file 5 "./../../firmware/GD32VF103_standard_peripheral/Include/gd32vf103_fmc.h"
 1341              		.file 6 "./../../firmware/GD32VF103_standard_peripheral/system_gd32vf103.h"
GAS LISTING C:\Users\Karzan\AppData\Local\Temp\ccEGabGh.s 			page 41

