GAS LISTING C:\Users\Karzan\AppData\Local\Temp\ccadEQk2.s 			page 1


   1              		.file	"gd32vf103_exti.c"
   2              		.option nopic
   3              		.attribute arch, "rv32i2p0_m2p0_a2p0_c2p0"
   4              		.attribute unaligned_access, 0
   5              		.attribute stack_align, 16
   6              		.text
   7              	.Ltext0:
   8              		.cfi_sections	.debug_frame
   9              		.section	.text.exti_deinit,"ax",@progbits
  10              		.align	1
  11              		.globl	exti_deinit
  13              	exti_deinit:
  14              	.LFB2:
  15              		.file 1 "./../../firmware/GD32VF103_standard_peripheral/Source/gd32vf103_exti.c"
   1:./../../firmware/GD32VF103_standard_peripheral/Source/gd32vf103_exti.c **** /*!
   2:./../../firmware/GD32VF103_standard_peripheral/Source/gd32vf103_exti.c ****     \file    gd32vf103_exti.c
   3:./../../firmware/GD32VF103_standard_peripheral/Source/gd32vf103_exti.c ****     \brief   EXTI driver
   4:./../../firmware/GD32VF103_standard_peripheral/Source/gd32vf103_exti.c **** 
   5:./../../firmware/GD32VF103_standard_peripheral/Source/gd32vf103_exti.c ****     \version 2019-06-05, V1.0.0, firmware for GD32VF103
   6:./../../firmware/GD32VF103_standard_peripheral/Source/gd32vf103_exti.c ****     \version 2020-08-04, V1.1.0, firmware for GD32VF103
   7:./../../firmware/GD32VF103_standard_peripheral/Source/gd32vf103_exti.c **** */
   8:./../../firmware/GD32VF103_standard_peripheral/Source/gd32vf103_exti.c **** 
   9:./../../firmware/GD32VF103_standard_peripheral/Source/gd32vf103_exti.c **** /*
  10:./../../firmware/GD32VF103_standard_peripheral/Source/gd32vf103_exti.c ****     Copyright (c) 2020, GigaDevice Semiconductor Inc.
  11:./../../firmware/GD32VF103_standard_peripheral/Source/gd32vf103_exti.c **** 
  12:./../../firmware/GD32VF103_standard_peripheral/Source/gd32vf103_exti.c ****     Redistribution and use in source and binary forms, with or without modification,
  13:./../../firmware/GD32VF103_standard_peripheral/Source/gd32vf103_exti.c **** are permitted provided that the following conditions are met:
  14:./../../firmware/GD32VF103_standard_peripheral/Source/gd32vf103_exti.c **** 
  15:./../../firmware/GD32VF103_standard_peripheral/Source/gd32vf103_exti.c ****     1. Redistributions of source code must retain the above copyright notice, this
  16:./../../firmware/GD32VF103_standard_peripheral/Source/gd32vf103_exti.c ****        list of conditions and the following disclaimer.
  17:./../../firmware/GD32VF103_standard_peripheral/Source/gd32vf103_exti.c ****     2. Redistributions in binary form must reproduce the above copyright notice,
  18:./../../firmware/GD32VF103_standard_peripheral/Source/gd32vf103_exti.c ****        this list of conditions and the following disclaimer in the documentation
  19:./../../firmware/GD32VF103_standard_peripheral/Source/gd32vf103_exti.c ****        and/or other materials provided with the distribution.
  20:./../../firmware/GD32VF103_standard_peripheral/Source/gd32vf103_exti.c ****     3. Neither the name of the copyright holder nor the names of its contributors
  21:./../../firmware/GD32VF103_standard_peripheral/Source/gd32vf103_exti.c ****        may be used to endorse or promote products derived from this software without
  22:./../../firmware/GD32VF103_standard_peripheral/Source/gd32vf103_exti.c ****        specific prior written permission.
  23:./../../firmware/GD32VF103_standard_peripheral/Source/gd32vf103_exti.c **** 
  24:./../../firmware/GD32VF103_standard_peripheral/Source/gd32vf103_exti.c ****     THIS SOFTWARE IS PROVIDED BY THE COPYRIGHT HOLDERS AND CONTRIBUTORS "AS IS"
  25:./../../firmware/GD32VF103_standard_peripheral/Source/gd32vf103_exti.c **** AND ANY EXPRESS OR IMPLIED WARRANTIES, INCLUDING, BUT NOT LIMITED TO, THE IMPLIED
  26:./../../firmware/GD32VF103_standard_peripheral/Source/gd32vf103_exti.c **** WARRANTIES OF MERCHANTABILITY AND FITNESS FOR A PARTICULAR PURPOSE ARE DISCLAIMED.
  27:./../../firmware/GD32VF103_standard_peripheral/Source/gd32vf103_exti.c **** IN NO EVENT SHALL THE COPYRIGHT HOLDER OR CONTRIBUTORS BE LIABLE FOR ANY DIRECT,
  28:./../../firmware/GD32VF103_standard_peripheral/Source/gd32vf103_exti.c **** INDIRECT, INCIDENTAL, SPECIAL, EXEMPLARY, OR CONSEQUENTIAL DAMAGES (INCLUDING, BUT
  29:./../../firmware/GD32VF103_standard_peripheral/Source/gd32vf103_exti.c **** NOT LIMITED TO, PROCUREMENT OF SUBSTITUTE GOODS OR SERVICES; LOSS OF USE, DATA, OR
  30:./../../firmware/GD32VF103_standard_peripheral/Source/gd32vf103_exti.c **** PROFITS; OR BUSINESS INTERRUPTION) HOWEVER CAUSED AND ON ANY THEORY OF LIABILITY,
  31:./../../firmware/GD32VF103_standard_peripheral/Source/gd32vf103_exti.c **** WHETHER IN CONTRACT, STRICT LIABILITY, OR TORT (INCLUDING NEGLIGENCE OR OTHERWISE)
  32:./../../firmware/GD32VF103_standard_peripheral/Source/gd32vf103_exti.c **** ARISING IN ANY WAY OUT OF THE USE OF THIS SOFTWARE, EVEN IF ADVISED OF THE POSSIBILITY
  33:./../../firmware/GD32VF103_standard_peripheral/Source/gd32vf103_exti.c **** OF SUCH DAMAGE.
  34:./../../firmware/GD32VF103_standard_peripheral/Source/gd32vf103_exti.c **** */
  35:./../../firmware/GD32VF103_standard_peripheral/Source/gd32vf103_exti.c **** 
  36:./../../firmware/GD32VF103_standard_peripheral/Source/gd32vf103_exti.c **** #include "gd32vf103_exti.h"
  37:./../../firmware/GD32VF103_standard_peripheral/Source/gd32vf103_exti.c **** 
  38:./../../firmware/GD32VF103_standard_peripheral/Source/gd32vf103_exti.c **** #define EXTI_REG_RESET_VALUE            ((uint32_t)0x00000000U)
  39:./../../firmware/GD32VF103_standard_peripheral/Source/gd32vf103_exti.c **** 
  40:./../../firmware/GD32VF103_standard_peripheral/Source/gd32vf103_exti.c **** /*!
  41:./../../firmware/GD32VF103_standard_peripheral/Source/gd32vf103_exti.c ****  \brief      deinitialize the EXTI
  42:./../../firmware/GD32VF103_standard_peripheral/Source/gd32vf103_exti.c ****  \param[in]  none
  43:./../../firmware/GD32VF103_standard_peripheral/Source/gd32vf103_exti.c ****  \param[out] none
GAS LISTING C:\Users\Karzan\AppData\Local\Temp\ccadEQk2.s 			page 2


  44:./../../firmware/GD32VF103_standard_peripheral/Source/gd32vf103_exti.c ****  \retval     none
  45:./../../firmware/GD32VF103_standard_peripheral/Source/gd32vf103_exti.c ****  */
  46:./../../firmware/GD32VF103_standard_peripheral/Source/gd32vf103_exti.c **** void exti_deinit(void)
  47:./../../firmware/GD32VF103_standard_peripheral/Source/gd32vf103_exti.c **** {
  16              		.loc 1 47 1
  17              		.cfi_startproc
  48:./../../firmware/GD32VF103_standard_peripheral/Source/gd32vf103_exti.c ****     /* reset the value of all the EXTI registers */
  49:./../../firmware/GD32VF103_standard_peripheral/Source/gd32vf103_exti.c ****     EXTI_INTEN = EXTI_REG_RESET_VALUE;
  18              		.loc 1 49 5
  19              		.loc 1 49 16 is_stmt 0
  20 0000 B7070140 		li	a5,1073807360
  21 0004 23A00740 		sw	zero,1024(a5)
  50:./../../firmware/GD32VF103_standard_peripheral/Source/gd32vf103_exti.c ****     EXTI_EVEN  = EXTI_REG_RESET_VALUE;
  22              		.loc 1 50 5 is_stmt 1
  23              		.loc 1 50 16 is_stmt 0
  24 0008 23A20740 		sw	zero,1028(a5)
  51:./../../firmware/GD32VF103_standard_peripheral/Source/gd32vf103_exti.c ****     EXTI_RTEN  = EXTI_REG_RESET_VALUE;
  25              		.loc 1 51 5 is_stmt 1
  26              		.loc 1 51 16 is_stmt 0
  27 000c 23A40740 		sw	zero,1032(a5)
  52:./../../firmware/GD32VF103_standard_peripheral/Source/gd32vf103_exti.c ****     EXTI_FTEN  = EXTI_REG_RESET_VALUE;
  28              		.loc 1 52 5 is_stmt 1
  29              		.loc 1 52 16 is_stmt 0
  30 0010 23A60740 		sw	zero,1036(a5)
  53:./../../firmware/GD32VF103_standard_peripheral/Source/gd32vf103_exti.c ****     EXTI_SWIEV = EXTI_REG_RESET_VALUE;
  31              		.loc 1 53 5 is_stmt 1
  32              		.loc 1 53 16 is_stmt 0
  33 0014 23A80740 		sw	zero,1040(a5)
  54:./../../firmware/GD32VF103_standard_peripheral/Source/gd32vf103_exti.c **** }
  34              		.loc 1 54 1
  35 0018 8280     		ret
  36              		.cfi_endproc
  37              	.LFE2:
  39              		.section	.text.exti_init,"ax",@progbits
  40              		.align	1
  41              		.globl	exti_init
  43              	exti_init:
  44              	.LFB3:
  55:./../../firmware/GD32VF103_standard_peripheral/Source/gd32vf103_exti.c **** 
  56:./../../firmware/GD32VF103_standard_peripheral/Source/gd32vf103_exti.c **** /*!
  57:./../../firmware/GD32VF103_standard_peripheral/Source/gd32vf103_exti.c ****     \brief      initialize the EXTI
  58:./../../firmware/GD32VF103_standard_peripheral/Source/gd32vf103_exti.c ****     \param[in]  linex: EXTI line number, refer to exti_line_enum
  59:./../../firmware/GD32VF103_standard_peripheral/Source/gd32vf103_exti.c ****                 only one parameter can be selected which is shown as below:
  60:./../../firmware/GD32VF103_standard_peripheral/Source/gd32vf103_exti.c ****       \arg        EXTI_x (x=0..18): EXTI line x
  61:./../../firmware/GD32VF103_standard_peripheral/Source/gd32vf103_exti.c ****     \param[in]  mode: interrupt or event mode, refer to exti_mode_enum
  62:./../../firmware/GD32VF103_standard_peripheral/Source/gd32vf103_exti.c ****                 only one parameter can be selected which is shown as below:
  63:./../../firmware/GD32VF103_standard_peripheral/Source/gd32vf103_exti.c ****       \arg        EXTI_INTERRUPT: interrupt mode
  64:./../../firmware/GD32VF103_standard_peripheral/Source/gd32vf103_exti.c ****       \arg        EXTI_EVENT: event mode
  65:./../../firmware/GD32VF103_standard_peripheral/Source/gd32vf103_exti.c ****     \param[in]  trig_type: trigger type, refer to exti_trig_type_enum
  66:./../../firmware/GD32VF103_standard_peripheral/Source/gd32vf103_exti.c ****                 only one parameter can be selected which is shown as below:
  67:./../../firmware/GD32VF103_standard_peripheral/Source/gd32vf103_exti.c ****       \arg        EXTI_TRIG_RISING: rising edge trigger
  68:./../../firmware/GD32VF103_standard_peripheral/Source/gd32vf103_exti.c ****       \arg        EXTI_TRIG_FALLING: falling edge trigger
  69:./../../firmware/GD32VF103_standard_peripheral/Source/gd32vf103_exti.c ****       \arg        EXTI_TRIG_BOTH: rising edge and falling edge trigger
  70:./../../firmware/GD32VF103_standard_peripheral/Source/gd32vf103_exti.c ****       \arg        EXTI_TRIG_NONE: without rising edge or falling edge trigger
  71:./../../firmware/GD32VF103_standard_peripheral/Source/gd32vf103_exti.c ****     \param[out] none
  72:./../../firmware/GD32VF103_standard_peripheral/Source/gd32vf103_exti.c ****     \retval     none
  73:./../../firmware/GD32VF103_standard_peripheral/Source/gd32vf103_exti.c ****  */
GAS LISTING C:\Users\Karzan\AppData\Local\Temp\ccadEQk2.s 			page 3


  74:./../../firmware/GD32VF103_standard_peripheral/Source/gd32vf103_exti.c **** void exti_init(exti_line_enum linex, exti_mode_enum mode, exti_trig_type_enum trig_type)
  75:./../../firmware/GD32VF103_standard_peripheral/Source/gd32vf103_exti.c **** {
  45              		.loc 1 75 1 is_stmt 1
  46              		.cfi_startproc
  47              	.LVL0:
  76:./../../firmware/GD32VF103_standard_peripheral/Source/gd32vf103_exti.c ****     /* reset the EXTI line x */
  77:./../../firmware/GD32VF103_standard_peripheral/Source/gd32vf103_exti.c ****     EXTI_INTEN &= ~(uint32_t) linex;
  48              		.loc 1 77 5
  49              		.loc 1 77 16 is_stmt 0
  50 0000 B7070140 		li	a5,1073807360
  51 0004 83A60740 		lw	a3,1024(a5)
  52              		.loc 1 77 19
  53 0008 1347F5FF 		not	a4,a0
  54              		.loc 1 77 16
  55 000c F98E     		and	a3,a3,a4
  56 000e 23A0D740 		sw	a3,1024(a5)
  78:./../../firmware/GD32VF103_standard_peripheral/Source/gd32vf103_exti.c ****     EXTI_EVEN &= ~(uint32_t) linex;
  57              		.loc 1 78 5 is_stmt 1
  58              		.loc 1 78 15 is_stmt 0
  59 0012 83A64740 		lw	a3,1028(a5)
  60 0016 F98E     		and	a3,a4,a3
  61 0018 23A2D740 		sw	a3,1028(a5)
  79:./../../firmware/GD32VF103_standard_peripheral/Source/gd32vf103_exti.c ****     EXTI_RTEN &= ~(uint32_t) linex;
  62              		.loc 1 79 5 is_stmt 1
  63              		.loc 1 79 15 is_stmt 0
  64 001c 83A68740 		lw	a3,1032(a5)
  65 0020 F98E     		and	a3,a4,a3
  66 0022 23A4D740 		sw	a3,1032(a5)
  80:./../../firmware/GD32VF103_standard_peripheral/Source/gd32vf103_exti.c ****     EXTI_FTEN &= ~(uint32_t) linex;
  67              		.loc 1 80 5 is_stmt 1
  68              		.loc 1 80 15 is_stmt 0
  69 0026 83A6C740 		lw	a3,1036(a5)
  70 002a F98E     		and	a3,a4,a3
  71 002c 23A6D740 		sw	a3,1036(a5)
  81:./../../firmware/GD32VF103_standard_peripheral/Source/gd32vf103_exti.c **** 
  82:./../../firmware/GD32VF103_standard_peripheral/Source/gd32vf103_exti.c ****     /* set the EXTI mode and enable the interrupts or events from EXTI line x */
  83:./../../firmware/GD32VF103_standard_peripheral/Source/gd32vf103_exti.c ****     switch (mode) {
  72              		.loc 1 83 5 is_stmt 1
  73 0030 81CD     		beq	a1,zero,.L3
  74 0032 8546     		li	a3,1
  75 0034 6380D502 		beq	a1,a3,.L4
  76              	.L5:
  84:./../../firmware/GD32VF103_standard_peripheral/Source/gd32vf103_exti.c ****     case EXTI_INTERRUPT:
  85:./../../firmware/GD32VF103_standard_peripheral/Source/gd32vf103_exti.c ****         EXTI_INTEN |= (uint32_t) linex;
  86:./../../firmware/GD32VF103_standard_peripheral/Source/gd32vf103_exti.c ****         break;
  87:./../../firmware/GD32VF103_standard_peripheral/Source/gd32vf103_exti.c ****     case EXTI_EVENT:
  88:./../../firmware/GD32VF103_standard_peripheral/Source/gd32vf103_exti.c ****         EXTI_EVEN |= (uint32_t) linex;
  89:./../../firmware/GD32VF103_standard_peripheral/Source/gd32vf103_exti.c ****         break;
  90:./../../firmware/GD32VF103_standard_peripheral/Source/gd32vf103_exti.c ****     default:
  91:./../../firmware/GD32VF103_standard_peripheral/Source/gd32vf103_exti.c ****         break;
  92:./../../firmware/GD32VF103_standard_peripheral/Source/gd32vf103_exti.c ****     }
  93:./../../firmware/GD32VF103_standard_peripheral/Source/gd32vf103_exti.c **** 
  94:./../../firmware/GD32VF103_standard_peripheral/Source/gd32vf103_exti.c ****     /* set the EXTI trigger type */
  95:./../../firmware/GD32VF103_standard_peripheral/Source/gd32vf103_exti.c ****     switch (trig_type) {
  77              		.loc 1 95 5
  78 0038 8547     		li	a5,1
  79 003a 6300F604 		beq	a2,a5,.L6
GAS LISTING C:\Users\Karzan\AppData\Local\Temp\ccadEQk2.s 			page 4


  80 003e 0DC2     		beq	a2,zero,.L7
  81 0040 8947     		li	a5,2
  82 0042 6309F604 		beq	a2,a5,.L8
  83 0046 8280     		ret
  84              	.L3:
  85:./../../firmware/GD32VF103_standard_peripheral/Source/gd32vf103_exti.c ****         break;
  85              		.loc 1 85 9
  85:./../../firmware/GD32VF103_standard_peripheral/Source/gd32vf103_exti.c ****         break;
  86              		.loc 1 85 20 is_stmt 0
  87 0048 83A60740 		lw	a3,1024(a5)
  88 004c C98E     		or	a3,a3,a0
  89 004e 23A0D740 		sw	a3,1024(a5)
  86:./../../firmware/GD32VF103_standard_peripheral/Source/gd32vf103_exti.c ****     case EXTI_EVENT:
  90              		.loc 1 86 9 is_stmt 1
  91 0052 DDB7     		j	.L5
  92              	.L4:
  88:./../../firmware/GD32VF103_standard_peripheral/Source/gd32vf103_exti.c ****         break;
  93              		.loc 1 88 9
  88:./../../firmware/GD32VF103_standard_peripheral/Source/gd32vf103_exti.c ****         break;
  94              		.loc 1 88 19 is_stmt 0
  95 0054 83A64740 		lw	a3,1028(a5)
  96 0058 C98E     		or	a3,a3,a0
  97 005a 23A2D740 		sw	a3,1028(a5)
  89:./../../firmware/GD32VF103_standard_peripheral/Source/gd32vf103_exti.c ****     default:
  98              		.loc 1 89 9 is_stmt 1
  99 005e E9BF     		j	.L5
 100              	.L7:
  96:./../../firmware/GD32VF103_standard_peripheral/Source/gd32vf103_exti.c ****     case EXTI_TRIG_RISING:
  97:./../../firmware/GD32VF103_standard_peripheral/Source/gd32vf103_exti.c ****         EXTI_RTEN |= (uint32_t) linex;
 101              		.loc 1 97 9
 102              		.loc 1 97 19 is_stmt 0
 103 0060 B7070140 		li	a5,1073807360
 104 0064 83A68740 		lw	a3,1032(a5)
 105 0068 558D     		or	a0,a3,a0
 106              	.LVL1:
 107 006a 23A4A740 		sw	a0,1032(a5)
  98:./../../firmware/GD32VF103_standard_peripheral/Source/gd32vf103_exti.c ****         EXTI_FTEN &= ~(uint32_t) linex;
 108              		.loc 1 98 9 is_stmt 1
 109              		.loc 1 98 19 is_stmt 0
 110 006e 83A6C740 		lw	a3,1036(a5)
 111 0072 758F     		and	a4,a4,a3
 112              	.LVL2:
 113 0074 23A6E740 		sw	a4,1036(a5)
  99:./../../firmware/GD32VF103_standard_peripheral/Source/gd32vf103_exti.c ****         break;
 114              		.loc 1 99 9 is_stmt 1
 115 0078 8280     		ret
 116              	.LVL3:
 117              	.L6:
 100:./../../firmware/GD32VF103_standard_peripheral/Source/gd32vf103_exti.c ****     case EXTI_TRIG_FALLING:
 101:./../../firmware/GD32VF103_standard_peripheral/Source/gd32vf103_exti.c ****         EXTI_RTEN &= ~(uint32_t) linex;
 118              		.loc 1 101 9
 119              		.loc 1 101 19 is_stmt 0
 120 007a B7070140 		li	a5,1073807360
 121 007e 83A68740 		lw	a3,1032(a5)
 122 0082 758F     		and	a4,a4,a3
 123              	.L10:
 102:./../../firmware/GD32VF103_standard_peripheral/Source/gd32vf103_exti.c ****         EXTI_FTEN |= (uint32_t) linex;
GAS LISTING C:\Users\Karzan\AppData\Local\Temp\ccadEQk2.s 			page 5


 103:./../../firmware/GD32VF103_standard_peripheral/Source/gd32vf103_exti.c ****         break;
 104:./../../firmware/GD32VF103_standard_peripheral/Source/gd32vf103_exti.c ****     case EXTI_TRIG_BOTH:
 105:./../../firmware/GD32VF103_standard_peripheral/Source/gd32vf103_exti.c ****         EXTI_RTEN |= (uint32_t) linex;
 124              		.loc 1 105 19
 125 0084 23A4E740 		sw	a4,1032(a5)
 106:./../../firmware/GD32VF103_standard_peripheral/Source/gd32vf103_exti.c ****         EXTI_FTEN |= (uint32_t) linex;
 126              		.loc 1 106 9 is_stmt 1
 127              		.loc 1 106 19 is_stmt 0
 128 0088 03A7C740 		lw	a4,1036(a5)
 129 008c 598D     		or	a0,a4,a0
 130              	.LVL4:
 131 008e 23A6A740 		sw	a0,1036(a5)
 107:./../../firmware/GD32VF103_standard_peripheral/Source/gd32vf103_exti.c ****         break;
 132              		.loc 1 107 9 is_stmt 1
 108:./../../firmware/GD32VF103_standard_peripheral/Source/gd32vf103_exti.c ****     case EXTI_TRIG_NONE:
 109:./../../firmware/GD32VF103_standard_peripheral/Source/gd32vf103_exti.c ****     default:
 110:./../../firmware/GD32VF103_standard_peripheral/Source/gd32vf103_exti.c ****         break;
 111:./../../firmware/GD32VF103_standard_peripheral/Source/gd32vf103_exti.c ****     }
 112:./../../firmware/GD32VF103_standard_peripheral/Source/gd32vf103_exti.c **** }
 133              		.loc 1 112 1 is_stmt 0
 134 0092 8280     		ret
 135              	.LVL5:
 136              	.L8:
 105:./../../firmware/GD32VF103_standard_peripheral/Source/gd32vf103_exti.c ****         EXTI_FTEN |= (uint32_t) linex;
 137              		.loc 1 105 9 is_stmt 1
 105:./../../firmware/GD32VF103_standard_peripheral/Source/gd32vf103_exti.c ****         EXTI_FTEN |= (uint32_t) linex;
 138              		.loc 1 105 19 is_stmt 0
 139 0094 B7070140 		li	a5,1073807360
 140 0098 03A78740 		lw	a4,1032(a5)
 141 009c 498F     		or	a4,a4,a0
 142 009e DDB7     		j	.L10
 143              		.cfi_endproc
 144              	.LFE3:
 146              		.section	.text.exti_interrupt_enable,"ax",@progbits
 147              		.align	1
 148              		.globl	exti_interrupt_enable
 150              	exti_interrupt_enable:
 151              	.LFB4:
 113:./../../firmware/GD32VF103_standard_peripheral/Source/gd32vf103_exti.c **** 
 114:./../../firmware/GD32VF103_standard_peripheral/Source/gd32vf103_exti.c **** /*!
 115:./../../firmware/GD32VF103_standard_peripheral/Source/gd32vf103_exti.c ****     \brief      enable the interrupts from EXTI line x
 116:./../../firmware/GD32VF103_standard_peripheral/Source/gd32vf103_exti.c ****     \param[in]  linex: EXTI line number, refer to exti_line_enum
 117:./../../firmware/GD32VF103_standard_peripheral/Source/gd32vf103_exti.c ****                 only one parameter can be selected which is shown as below:
 118:./../../firmware/GD32VF103_standard_peripheral/Source/gd32vf103_exti.c ****       \arg        EXTI_x (x=0..18): EXTI line x
 119:./../../firmware/GD32VF103_standard_peripheral/Source/gd32vf103_exti.c ****     \param[out] none
 120:./../../firmware/GD32VF103_standard_peripheral/Source/gd32vf103_exti.c ****     \retval     none
 121:./../../firmware/GD32VF103_standard_peripheral/Source/gd32vf103_exti.c **** */
 122:./../../firmware/GD32VF103_standard_peripheral/Source/gd32vf103_exti.c **** void exti_interrupt_enable(exti_line_enum linex)
 123:./../../firmware/GD32VF103_standard_peripheral/Source/gd32vf103_exti.c **** {
 152              		.loc 1 123 1 is_stmt 1
 153              		.cfi_startproc
 154              	.LVL6:
 124:./../../firmware/GD32VF103_standard_peripheral/Source/gd32vf103_exti.c ****     EXTI_INTEN |= (uint32_t) linex;
 155              		.loc 1 124 5
 156              		.loc 1 124 16 is_stmt 0
 157 0000 37070140 		li	a4,1073807360
 158 0004 83270740 		lw	a5,1024(a4)
GAS LISTING C:\Users\Karzan\AppData\Local\Temp\ccadEQk2.s 			page 6


 159 0008 5D8D     		or	a0,a5,a0
 160              	.LVL7:
 161 000a 2320A740 		sw	a0,1024(a4)
 125:./../../firmware/GD32VF103_standard_peripheral/Source/gd32vf103_exti.c **** }
 162              		.loc 1 125 1
 163 000e 8280     		ret
 164              		.cfi_endproc
 165              	.LFE4:
 167              		.section	.text.exti_event_enable,"ax",@progbits
 168              		.align	1
 169              		.globl	exti_event_enable
 171              	exti_event_enable:
 172              	.LFB5:
 126:./../../firmware/GD32VF103_standard_peripheral/Source/gd32vf103_exti.c **** 
 127:./../../firmware/GD32VF103_standard_peripheral/Source/gd32vf103_exti.c **** /*!
 128:./../../firmware/GD32VF103_standard_peripheral/Source/gd32vf103_exti.c ****     \brief      enable the events from EXTI line x
 129:./../../firmware/GD32VF103_standard_peripheral/Source/gd32vf103_exti.c ****     \param[in]  linex: EXTI line number, refer to exti_line_enum
 130:./../../firmware/GD32VF103_standard_peripheral/Source/gd32vf103_exti.c ****                 only one parameter can be selected which is shown as below:
 131:./../../firmware/GD32VF103_standard_peripheral/Source/gd32vf103_exti.c ****       \arg        EXTI_x (x=0..18): EXTI line x
 132:./../../firmware/GD32VF103_standard_peripheral/Source/gd32vf103_exti.c ****     \param[out] none
 133:./../../firmware/GD32VF103_standard_peripheral/Source/gd32vf103_exti.c ****     \retval     none
 134:./../../firmware/GD32VF103_standard_peripheral/Source/gd32vf103_exti.c **** */
 135:./../../firmware/GD32VF103_standard_peripheral/Source/gd32vf103_exti.c **** void exti_event_enable(exti_line_enum linex)
 136:./../../firmware/GD32VF103_standard_peripheral/Source/gd32vf103_exti.c **** {
 173              		.loc 1 136 1 is_stmt 1
 174              		.cfi_startproc
 175              	.LVL8:
 137:./../../firmware/GD32VF103_standard_peripheral/Source/gd32vf103_exti.c ****     EXTI_EVEN |= (uint32_t) linex;
 176              		.loc 1 137 5
 177              		.loc 1 137 15 is_stmt 0
 178 0000 37070140 		li	a4,1073807360
 179 0004 83274740 		lw	a5,1028(a4)
 180 0008 5D8D     		or	a0,a5,a0
 181              	.LVL9:
 182 000a 2322A740 		sw	a0,1028(a4)
 138:./../../firmware/GD32VF103_standard_peripheral/Source/gd32vf103_exti.c **** }
 183              		.loc 1 138 1
 184 000e 8280     		ret
 185              		.cfi_endproc
 186              	.LFE5:
 188              		.section	.text.exti_interrupt_disable,"ax",@progbits
 189              		.align	1
 190              		.globl	exti_interrupt_disable
 192              	exti_interrupt_disable:
 193              	.LFB6:
 139:./../../firmware/GD32VF103_standard_peripheral/Source/gd32vf103_exti.c **** 
 140:./../../firmware/GD32VF103_standard_peripheral/Source/gd32vf103_exti.c **** /*!
 141:./../../firmware/GD32VF103_standard_peripheral/Source/gd32vf103_exti.c ****     \brief      disable the interrupt from EXTI line x
 142:./../../firmware/GD32VF103_standard_peripheral/Source/gd32vf103_exti.c ****     \param[in]  linex: EXTI line number, refer to exti_line_enum
 143:./../../firmware/GD32VF103_standard_peripheral/Source/gd32vf103_exti.c ****                 only one parameter can be selected which is shown as below:
 144:./../../firmware/GD32VF103_standard_peripheral/Source/gd32vf103_exti.c ****       \arg        EXTI_x (x=0..18): EXTI line x
 145:./../../firmware/GD32VF103_standard_peripheral/Source/gd32vf103_exti.c ****     \param[out] none
 146:./../../firmware/GD32VF103_standard_peripheral/Source/gd32vf103_exti.c ****     \retval     none
 147:./../../firmware/GD32VF103_standard_peripheral/Source/gd32vf103_exti.c **** */
 148:./../../firmware/GD32VF103_standard_peripheral/Source/gd32vf103_exti.c **** void exti_interrupt_disable(exti_line_enum linex)
 149:./../../firmware/GD32VF103_standard_peripheral/Source/gd32vf103_exti.c **** {
 194              		.loc 1 149 1 is_stmt 1
GAS LISTING C:\Users\Karzan\AppData\Local\Temp\ccadEQk2.s 			page 7


 195              		.cfi_startproc
 196              	.LVL10:
 150:./../../firmware/GD32VF103_standard_peripheral/Source/gd32vf103_exti.c ****     EXTI_INTEN &= ~(uint32_t) linex;
 197              		.loc 1 150 5
 198              		.loc 1 150 16 is_stmt 0
 199 0000 B7070140 		li	a5,1073807360
 200 0004 03A70740 		lw	a4,1024(a5)
 201              		.loc 1 150 19
 202 0008 1345F5FF 		not	a0,a0
 203              	.LVL11:
 204              		.loc 1 150 16
 205 000c 798D     		and	a0,a0,a4
 206              	.LVL12:
 207 000e 23A0A740 		sw	a0,1024(a5)
 151:./../../firmware/GD32VF103_standard_peripheral/Source/gd32vf103_exti.c **** }
 208              		.loc 1 151 1
 209 0012 8280     		ret
 210              		.cfi_endproc
 211              	.LFE6:
 213              		.section	.text.exti_event_disable,"ax",@progbits
 214              		.align	1
 215              		.globl	exti_event_disable
 217              	exti_event_disable:
 218              	.LFB7:
 152:./../../firmware/GD32VF103_standard_peripheral/Source/gd32vf103_exti.c **** 
 153:./../../firmware/GD32VF103_standard_peripheral/Source/gd32vf103_exti.c **** /*!
 154:./../../firmware/GD32VF103_standard_peripheral/Source/gd32vf103_exti.c ****     \brief      disable the events from EXTI line x
 155:./../../firmware/GD32VF103_standard_peripheral/Source/gd32vf103_exti.c ****     \param[in]  linex: EXTI line number, refer to exti_line_enum
 156:./../../firmware/GD32VF103_standard_peripheral/Source/gd32vf103_exti.c ****                 only one parameter can be selected which is shown as below:
 157:./../../firmware/GD32VF103_standard_peripheral/Source/gd32vf103_exti.c ****       \arg        EXTI_x (x=0..18): EXTI line x
 158:./../../firmware/GD32VF103_standard_peripheral/Source/gd32vf103_exti.c ****     \param[out] none
 159:./../../firmware/GD32VF103_standard_peripheral/Source/gd32vf103_exti.c ****     \retval     none
 160:./../../firmware/GD32VF103_standard_peripheral/Source/gd32vf103_exti.c **** */
 161:./../../firmware/GD32VF103_standard_peripheral/Source/gd32vf103_exti.c **** void exti_event_disable(exti_line_enum linex)
 162:./../../firmware/GD32VF103_standard_peripheral/Source/gd32vf103_exti.c **** {
 219              		.loc 1 162 1 is_stmt 1
 220              		.cfi_startproc
 221              	.LVL13:
 163:./../../firmware/GD32VF103_standard_peripheral/Source/gd32vf103_exti.c ****     EXTI_EVEN &= ~(uint32_t) linex;
 222              		.loc 1 163 5
 223              		.loc 1 163 15 is_stmt 0
 224 0000 B7070140 		li	a5,1073807360
 225 0004 03A74740 		lw	a4,1028(a5)
 226              		.loc 1 163 18
 227 0008 1345F5FF 		not	a0,a0
 228              	.LVL14:
 229              		.loc 1 163 15
 230 000c 798D     		and	a0,a0,a4
 231              	.LVL15:
 232 000e 23A2A740 		sw	a0,1028(a5)
 164:./../../firmware/GD32VF103_standard_peripheral/Source/gd32vf103_exti.c **** }
 233              		.loc 1 164 1
 234 0012 8280     		ret
 235              		.cfi_endproc
 236              	.LFE7:
 238              		.section	.text.exti_flag_get,"ax",@progbits
 239              		.align	1
GAS LISTING C:\Users\Karzan\AppData\Local\Temp\ccadEQk2.s 			page 8


 240              		.globl	exti_flag_get
 242              	exti_flag_get:
 243              	.LFB8:
 165:./../../firmware/GD32VF103_standard_peripheral/Source/gd32vf103_exti.c **** 
 166:./../../firmware/GD32VF103_standard_peripheral/Source/gd32vf103_exti.c **** /*!
 167:./../../firmware/GD32VF103_standard_peripheral/Source/gd32vf103_exti.c ****     \brief      get EXTI lines flag
 168:./../../firmware/GD32VF103_standard_peripheral/Source/gd32vf103_exti.c ****     \param[in]  linex: EXTI line number, refer to exti_line_enum
 169:./../../firmware/GD32VF103_standard_peripheral/Source/gd32vf103_exti.c ****                 only one parameter can be selected which is shown as below:
 170:./../../firmware/GD32VF103_standard_peripheral/Source/gd32vf103_exti.c ****       \arg        EXTI_x (x=0..18): EXTI line x
 171:./../../firmware/GD32VF103_standard_peripheral/Source/gd32vf103_exti.c ****     \param[out] none
 172:./../../firmware/GD32VF103_standard_peripheral/Source/gd32vf103_exti.c ****     \retval     FlagStatus: status of flag (RESET or SET)
 173:./../../firmware/GD32VF103_standard_peripheral/Source/gd32vf103_exti.c **** */
 174:./../../firmware/GD32VF103_standard_peripheral/Source/gd32vf103_exti.c **** FlagStatus exti_flag_get(exti_line_enum linex)
 175:./../../firmware/GD32VF103_standard_peripheral/Source/gd32vf103_exti.c **** {
 244              		.loc 1 175 1 is_stmt 1
 245              		.cfi_startproc
 246              	.LVL16:
 176:./../../firmware/GD32VF103_standard_peripheral/Source/gd32vf103_exti.c ****     if (RESET != (EXTI_PD & (uint32_t) linex)) {
 247              		.loc 1 176 5
 248              		.loc 1 176 19 is_stmt 0
 249 0000 B7070140 		li	a5,1073807360
 250 0004 83A74741 		lw	a5,1044(a5)
 251              		.loc 1 176 27
 252 0008 7D8D     		and	a0,a5,a0
 253              	.LVL17:
 177:./../../firmware/GD32VF103_standard_peripheral/Source/gd32vf103_exti.c ****         return SET;
 178:./../../firmware/GD32VF103_standard_peripheral/Source/gd32vf103_exti.c ****     } else {
 179:./../../firmware/GD32VF103_standard_peripheral/Source/gd32vf103_exti.c ****         return RESET;
 180:./../../firmware/GD32VF103_standard_peripheral/Source/gd32vf103_exti.c ****     }
 181:./../../firmware/GD32VF103_standard_peripheral/Source/gd32vf103_exti.c **** }
 254              		.loc 1 181 1
 255 000a 3335A000 		snez	a0,a0
 256 000e 8280     		ret
 257              		.cfi_endproc
 258              	.LFE8:
 260              		.section	.text.exti_flag_clear,"ax",@progbits
 261              		.align	1
 262              		.globl	exti_flag_clear
 264              	exti_flag_clear:
 265              	.LFB9:
 182:./../../firmware/GD32VF103_standard_peripheral/Source/gd32vf103_exti.c **** 
 183:./../../firmware/GD32VF103_standard_peripheral/Source/gd32vf103_exti.c **** /*!
 184:./../../firmware/GD32VF103_standard_peripheral/Source/gd32vf103_exti.c ****     \brief      clear EXTI lines pending flag
 185:./../../firmware/GD32VF103_standard_peripheral/Source/gd32vf103_exti.c ****     \param[in]  linex: EXTI line number, refer to exti_line_enum
 186:./../../firmware/GD32VF103_standard_peripheral/Source/gd32vf103_exti.c ****                 only one parameter can be selected which is shown as below:
 187:./../../firmware/GD32VF103_standard_peripheral/Source/gd32vf103_exti.c ****       \arg        EXTI_x (x=0..18): EXTI line x
 188:./../../firmware/GD32VF103_standard_peripheral/Source/gd32vf103_exti.c ****     \param[out] none
 189:./../../firmware/GD32VF103_standard_peripheral/Source/gd32vf103_exti.c ****     \retval     none
 190:./../../firmware/GD32VF103_standard_peripheral/Source/gd32vf103_exti.c **** */
 191:./../../firmware/GD32VF103_standard_peripheral/Source/gd32vf103_exti.c **** void exti_flag_clear(exti_line_enum linex)
 192:./../../firmware/GD32VF103_standard_peripheral/Source/gd32vf103_exti.c **** {
 266              		.loc 1 192 1 is_stmt 1
 267              		.cfi_startproc
 268              	.LVL18:
 193:./../../firmware/GD32VF103_standard_peripheral/Source/gd32vf103_exti.c ****     EXTI_PD = (uint32_t) linex;
 269              		.loc 1 193 5
 270              		.loc 1 193 13 is_stmt 0
GAS LISTING C:\Users\Karzan\AppData\Local\Temp\ccadEQk2.s 			page 9


 271 0000 B7070140 		li	a5,1073807360
 272 0004 23AAA740 		sw	a0,1044(a5)
 194:./../../firmware/GD32VF103_standard_peripheral/Source/gd32vf103_exti.c **** }
 273              		.loc 1 194 1
 274 0008 8280     		ret
 275              		.cfi_endproc
 276              	.LFE9:
 278              		.section	.text.exti_interrupt_flag_get,"ax",@progbits
 279              		.align	1
 280              		.globl	exti_interrupt_flag_get
 282              	exti_interrupt_flag_get:
 283              	.LFB10:
 195:./../../firmware/GD32VF103_standard_peripheral/Source/gd32vf103_exti.c **** 
 196:./../../firmware/GD32VF103_standard_peripheral/Source/gd32vf103_exti.c **** /*!
 197:./../../firmware/GD32VF103_standard_peripheral/Source/gd32vf103_exti.c ****     \brief      get EXTI lines flag when the interrupt flag is set
 198:./../../firmware/GD32VF103_standard_peripheral/Source/gd32vf103_exti.c ****     \param[in]  linex: EXTI line number, refer to exti_line_enum
 199:./../../firmware/GD32VF103_standard_peripheral/Source/gd32vf103_exti.c ****                 only one parameter can be selected which is shown as below:
 200:./../../firmware/GD32VF103_standard_peripheral/Source/gd32vf103_exti.c ****       \arg        EXTI_x (x=0..18): EXTI line x
 201:./../../firmware/GD32VF103_standard_peripheral/Source/gd32vf103_exti.c ****     \param[out] none
 202:./../../firmware/GD32VF103_standard_peripheral/Source/gd32vf103_exti.c ****     \retval     FlagStatus: status of flag (RESET or SET)
 203:./../../firmware/GD32VF103_standard_peripheral/Source/gd32vf103_exti.c **** */
 204:./../../firmware/GD32VF103_standard_peripheral/Source/gd32vf103_exti.c **** FlagStatus exti_interrupt_flag_get(exti_line_enum linex)
 205:./../../firmware/GD32VF103_standard_peripheral/Source/gd32vf103_exti.c **** {
 284              		.loc 1 205 1 is_stmt 1
 285              		.cfi_startproc
 286              	.LVL19:
 206:./../../firmware/GD32VF103_standard_peripheral/Source/gd32vf103_exti.c ****     uint32_t flag_left, flag_right;
 287              		.loc 1 206 5
 207:./../../firmware/GD32VF103_standard_peripheral/Source/gd32vf103_exti.c **** 
 208:./../../firmware/GD32VF103_standard_peripheral/Source/gd32vf103_exti.c ****     flag_left = EXTI_PD & (uint32_t) linex;
 288              		.loc 1 208 5
 289              		.loc 1 208 17 is_stmt 0
 290 0000 B7060140 		li	a3,1073807360
 291 0004 83A74641 		lw	a5,1044(a3)
 205:./../../firmware/GD32VF103_standard_peripheral/Source/gd32vf103_exti.c ****     uint32_t flag_left, flag_right;
 292              		.loc 1 205 1
 293 0008 2A87     		mv	a4,a0
 294              		.loc 1 208 15
 295 000a 7D8D     		and	a0,a5,a0
 296              	.LVL20:
 209:./../../firmware/GD32VF103_standard_peripheral/Source/gd32vf103_exti.c ****     flag_right = EXTI_INTEN & (uint32_t) linex;
 297              		.loc 1 209 5 is_stmt 1
 298              		.loc 1 209 18 is_stmt 0
 299 000c 83A70640 		lw	a5,1024(a3)
 300              	.LVL21:
 210:./../../firmware/GD32VF103_standard_peripheral/Source/gd32vf103_exti.c **** 
 211:./../../firmware/GD32VF103_standard_peripheral/Source/gd32vf103_exti.c ****     if ((RESET != flag_left) && (RESET != flag_right)) {
 301              		.loc 1 211 5 is_stmt 1
 302              		.loc 1 211 8 is_stmt 0
 303 0010 09C5     		beq	a0,zero,.L17
 209:./../../firmware/GD32VF103_standard_peripheral/Source/gd32vf103_exti.c ****     flag_right = EXTI_INTEN & (uint32_t) linex;
 304              		.loc 1 209 16 discriminator 1
 305 0012 33F5E700 		and	a0,a5,a4
 306              	.LVL22:
 307              		.loc 1 211 30 discriminator 1
 308 0016 3335A000 		snez	a0,a0
 309              	.LVL23:
GAS LISTING C:\Users\Karzan\AppData\Local\Temp\ccadEQk2.s 			page 10


 310              	.L17:
 212:./../../firmware/GD32VF103_standard_peripheral/Source/gd32vf103_exti.c ****         return SET;
 213:./../../firmware/GD32VF103_standard_peripheral/Source/gd32vf103_exti.c ****     } else {
 214:./../../firmware/GD32VF103_standard_peripheral/Source/gd32vf103_exti.c ****         return RESET;
 215:./../../firmware/GD32VF103_standard_peripheral/Source/gd32vf103_exti.c ****     }
 216:./../../firmware/GD32VF103_standard_peripheral/Source/gd32vf103_exti.c **** }
 311              		.loc 1 216 1
 312 001a 8280     		ret
 313              		.cfi_endproc
 314              	.LFE10:
 316              		.section	.text.exti_interrupt_flag_clear,"ax",@progbits
 317              		.align	1
 318              		.globl	exti_interrupt_flag_clear
 320              	exti_interrupt_flag_clear:
 321              	.LFB15:
 322              		.cfi_startproc
 323 0000 B7070140 		li	a5,1073807360
 324 0004 23AAA740 		sw	a0,1044(a5)
 325 0008 8280     		ret
 326              		.cfi_endproc
 327              	.LFE15:
 329              		.section	.text.exti_software_interrupt_enable,"ax",@progbits
 330              		.align	1
 331              		.globl	exti_software_interrupt_enable
 333              	exti_software_interrupt_enable:
 334              	.LFB12:
 217:./../../firmware/GD32VF103_standard_peripheral/Source/gd32vf103_exti.c **** 
 218:./../../firmware/GD32VF103_standard_peripheral/Source/gd32vf103_exti.c **** /*!
 219:./../../firmware/GD32VF103_standard_peripheral/Source/gd32vf103_exti.c ****     \brief      clear EXTI lines pending flag
 220:./../../firmware/GD32VF103_standard_peripheral/Source/gd32vf103_exti.c ****     \param[in]  linex: EXTI line number, refer to exti_line_enum
 221:./../../firmware/GD32VF103_standard_peripheral/Source/gd32vf103_exti.c ****                 only one parameter can be selected which is shown as below:
 222:./../../firmware/GD32VF103_standard_peripheral/Source/gd32vf103_exti.c ****       \arg        EXTI_x (x=0..18): EXTI line x
 223:./../../firmware/GD32VF103_standard_peripheral/Source/gd32vf103_exti.c ****     \param[out] none
 224:./../../firmware/GD32VF103_standard_peripheral/Source/gd32vf103_exti.c ****     \retval     none
 225:./../../firmware/GD32VF103_standard_peripheral/Source/gd32vf103_exti.c **** */
 226:./../../firmware/GD32VF103_standard_peripheral/Source/gd32vf103_exti.c **** void exti_interrupt_flag_clear(exti_line_enum linex)
 227:./../../firmware/GD32VF103_standard_peripheral/Source/gd32vf103_exti.c **** {
 228:./../../firmware/GD32VF103_standard_peripheral/Source/gd32vf103_exti.c ****     EXTI_PD = (uint32_t) linex;
 229:./../../firmware/GD32VF103_standard_peripheral/Source/gd32vf103_exti.c **** }
 230:./../../firmware/GD32VF103_standard_peripheral/Source/gd32vf103_exti.c **** 
 231:./../../firmware/GD32VF103_standard_peripheral/Source/gd32vf103_exti.c **** /*!
 232:./../../firmware/GD32VF103_standard_peripheral/Source/gd32vf103_exti.c ****     \brief      enable EXTI software interrupt event
 233:./../../firmware/GD32VF103_standard_peripheral/Source/gd32vf103_exti.c ****     \param[in]  linex: EXTI line number, refer to exti_line_enum
 234:./../../firmware/GD32VF103_standard_peripheral/Source/gd32vf103_exti.c ****                 only one parameter can be selected which is shown as below:
 235:./../../firmware/GD32VF103_standard_peripheral/Source/gd32vf103_exti.c ****       \arg        EXTI_x (x=0..18): EXTI line x
 236:./../../firmware/GD32VF103_standard_peripheral/Source/gd32vf103_exti.c ****     \param[out] none
 237:./../../firmware/GD32VF103_standard_peripheral/Source/gd32vf103_exti.c ****     \retval     none
 238:./../../firmware/GD32VF103_standard_peripheral/Source/gd32vf103_exti.c **** */
 239:./../../firmware/GD32VF103_standard_peripheral/Source/gd32vf103_exti.c **** void exti_software_interrupt_enable(exti_line_enum linex)
 240:./../../firmware/GD32VF103_standard_peripheral/Source/gd32vf103_exti.c **** {
 335              		.loc 1 240 1 is_stmt 1
 336              		.cfi_startproc
 337              	.LVL24:
 241:./../../firmware/GD32VF103_standard_peripheral/Source/gd32vf103_exti.c ****     EXTI_SWIEV |= (uint32_t) linex;
 338              		.loc 1 241 5
 339              		.loc 1 241 16 is_stmt 0
 340 0000 37070140 		li	a4,1073807360
GAS LISTING C:\Users\Karzan\AppData\Local\Temp\ccadEQk2.s 			page 11


 341 0004 83270741 		lw	a5,1040(a4)
 342 0008 5D8D     		or	a0,a5,a0
 343              	.LVL25:
 344 000a 2328A740 		sw	a0,1040(a4)
 242:./../../firmware/GD32VF103_standard_peripheral/Source/gd32vf103_exti.c **** }
 345              		.loc 1 242 1
 346 000e 8280     		ret
 347              		.cfi_endproc
 348              	.LFE12:
 350              		.section	.text.exti_software_interrupt_disable,"ax",@progbits
 351              		.align	1
 352              		.globl	exti_software_interrupt_disable
 354              	exti_software_interrupt_disable:
 355              	.LFB13:
 243:./../../firmware/GD32VF103_standard_peripheral/Source/gd32vf103_exti.c **** 
 244:./../../firmware/GD32VF103_standard_peripheral/Source/gd32vf103_exti.c **** /*!
 245:./../../firmware/GD32VF103_standard_peripheral/Source/gd32vf103_exti.c ****     \brief      disable EXTI software interrupt event
 246:./../../firmware/GD32VF103_standard_peripheral/Source/gd32vf103_exti.c ****     \param[in]  linex: EXTI line number, refer to exti_line_enum
 247:./../../firmware/GD32VF103_standard_peripheral/Source/gd32vf103_exti.c ****                 only one parameter can be selected which is shown as below:
 248:./../../firmware/GD32VF103_standard_peripheral/Source/gd32vf103_exti.c ****       \arg        EXTI_x (x=0..18): EXTI line x
 249:./../../firmware/GD32VF103_standard_peripheral/Source/gd32vf103_exti.c ****     \param[out] none
 250:./../../firmware/GD32VF103_standard_peripheral/Source/gd32vf103_exti.c ****     \retval     none
 251:./../../firmware/GD32VF103_standard_peripheral/Source/gd32vf103_exti.c **** */
 252:./../../firmware/GD32VF103_standard_peripheral/Source/gd32vf103_exti.c **** void exti_software_interrupt_disable(exti_line_enum linex)
 253:./../../firmware/GD32VF103_standard_peripheral/Source/gd32vf103_exti.c **** {
 356              		.loc 1 253 1 is_stmt 1
 357              		.cfi_startproc
 358              	.LVL26:
 254:./../../firmware/GD32VF103_standard_peripheral/Source/gd32vf103_exti.c ****     EXTI_SWIEV &= ~(uint32_t) linex;
 359              		.loc 1 254 5
 360              		.loc 1 254 16 is_stmt 0
 361 0000 B7070140 		li	a5,1073807360
 362 0004 03A70741 		lw	a4,1040(a5)
 363              		.loc 1 254 19
 364 0008 1345F5FF 		not	a0,a0
 365              	.LVL27:
 366              		.loc 1 254 16
 367 000c 798D     		and	a0,a0,a4
 368              	.LVL28:
 369 000e 23A8A740 		sw	a0,1040(a5)
 255:./../../firmware/GD32VF103_standard_peripheral/Source/gd32vf103_exti.c **** }
 370              		.loc 1 255 1
 371 0012 8280     		ret
 372              		.cfi_endproc
 373              	.LFE13:
 375              		.text
 376              	.Letext0:
 377              		.file 2 "c:\\users\\karzan\\downloads\\toolchain-gd32v-v202-win\\toolchain-gd32v-v202-win\\compile
 378              		.file 3 "c:\\users\\karzan\\downloads\\toolchain-gd32v-v202-win\\toolchain-gd32v-v202-win\\compile
 379              		.file 4 "./../../firmware/GD32VF103_standard_peripheral/gd32vf103.h"
 380              		.file 5 "./../../firmware/GD32VF103_standard_peripheral/Include/gd32vf103_exti.h"
 381              		.file 6 "./../../firmware/GD32VF103_standard_peripheral/system_gd32vf103.h"
GAS LISTING C:\Users\Karzan\AppData\Local\Temp\ccadEQk2.s 			page 12


DEFINED SYMBOLS
                            *ABS*:0000000000000000 gd32vf103_exti.c
C:\Users\Karzan\AppData\Local\Temp\ccadEQk2.s:13     .text.exti_deinit:0000000000000000 exti_deinit
C:\Users\Karzan\AppData\Local\Temp\ccadEQk2.s:17     .text.exti_deinit:0000000000000000 .L0 
C:\Users\Karzan\AppData\Local\Temp\ccadEQk2.s:18     .text.exti_deinit:0000000000000000 .L0 
C:\Users\Karzan\AppData\Local\Temp\ccadEQk2.s:19     .text.exti_deinit:0000000000000000 .L0 
C:\Users\Karzan\AppData\Local\Temp\ccadEQk2.s:20     .text.exti_deinit:0000000000000000 .L0 
C:\Users\Karzan\AppData\Local\Temp\ccadEQk2.s:23     .text.exti_deinit:0000000000000008 .L0 
C:\Users\Karzan\AppData\Local\Temp\ccadEQk2.s:24     .text.exti_deinit:0000000000000008 .L0 
C:\Users\Karzan\AppData\Local\Temp\ccadEQk2.s:26     .text.exti_deinit:000000000000000c .L0 
C:\Users\Karzan\AppData\Local\Temp\ccadEQk2.s:27     .text.exti_deinit:000000000000000c .L0 
C:\Users\Karzan\AppData\Local\Temp\ccadEQk2.s:29     .text.exti_deinit:0000000000000010 .L0 
C:\Users\Karzan\AppData\Local\Temp\ccadEQk2.s:30     .text.exti_deinit:0000000000000010 .L0 
C:\Users\Karzan\AppData\Local\Temp\ccadEQk2.s:32     .text.exti_deinit:0000000000000014 .L0 
C:\Users\Karzan\AppData\Local\Temp\ccadEQk2.s:33     .text.exti_deinit:0000000000000014 .L0 
C:\Users\Karzan\AppData\Local\Temp\ccadEQk2.s:35     .text.exti_deinit:0000000000000018 .L0 
C:\Users\Karzan\AppData\Local\Temp\ccadEQk2.s:36     .text.exti_deinit:000000000000001a .L0 
C:\Users\Karzan\AppData\Local\Temp\ccadEQk2.s:43     .text.exti_init:0000000000000000 exti_init
C:\Users\Karzan\AppData\Local\Temp\ccadEQk2.s:46     .text.exti_init:0000000000000000 .L0 
C:\Users\Karzan\AppData\Local\Temp\ccadEQk2.s:48     .text.exti_init:0000000000000000 .L0 
C:\Users\Karzan\AppData\Local\Temp\ccadEQk2.s:49     .text.exti_init:0000000000000000 .L0 
C:\Users\Karzan\AppData\Local\Temp\ccadEQk2.s:50     .text.exti_init:0000000000000000 .L0 
C:\Users\Karzan\AppData\Local\Temp\ccadEQk2.s:53     .text.exti_init:0000000000000008 .L0 
C:\Users\Karzan\AppData\Local\Temp\ccadEQk2.s:55     .text.exti_init:000000000000000c .L0 
C:\Users\Karzan\AppData\Local\Temp\ccadEQk2.s:58     .text.exti_init:0000000000000012 .L0 
C:\Users\Karzan\AppData\Local\Temp\ccadEQk2.s:59     .text.exti_init:0000000000000012 .L0 
C:\Users\Karzan\AppData\Local\Temp\ccadEQk2.s:63     .text.exti_init:000000000000001c .L0 
C:\Users\Karzan\AppData\Local\Temp\ccadEQk2.s:64     .text.exti_init:000000000000001c .L0 
C:\Users\Karzan\AppData\Local\Temp\ccadEQk2.s:68     .text.exti_init:0000000000000026 .L0 
C:\Users\Karzan\AppData\Local\Temp\ccadEQk2.s:69     .text.exti_init:0000000000000026 .L0 
C:\Users\Karzan\AppData\Local\Temp\ccadEQk2.s:73     .text.exti_init:0000000000000030 .L0 
C:\Users\Karzan\AppData\Local\Temp\ccadEQk2.s:78     .text.exti_init:0000000000000038 .L0 
C:\Users\Karzan\AppData\Local\Temp\ccadEQk2.s:86     .text.exti_init:0000000000000048 .L0 
C:\Users\Karzan\AppData\Local\Temp\ccadEQk2.s:87     .text.exti_init:0000000000000048 .L0 
C:\Users\Karzan\AppData\Local\Temp\ccadEQk2.s:91     .text.exti_init:0000000000000052 .L0 
C:\Users\Karzan\AppData\Local\Temp\ccadEQk2.s:94     .text.exti_init:0000000000000054 .L0 
C:\Users\Karzan\AppData\Local\Temp\ccadEQk2.s:95     .text.exti_init:0000000000000054 .L0 
C:\Users\Karzan\AppData\Local\Temp\ccadEQk2.s:99     .text.exti_init:000000000000005e .L0 
C:\Users\Karzan\AppData\Local\Temp\ccadEQk2.s:102    .text.exti_init:0000000000000060 .L0 
C:\Users\Karzan\AppData\Local\Temp\ccadEQk2.s:103    .text.exti_init:0000000000000060 .L0 
C:\Users\Karzan\AppData\Local\Temp\ccadEQk2.s:109    .text.exti_init:000000000000006e .L0 
C:\Users\Karzan\AppData\Local\Temp\ccadEQk2.s:110    .text.exti_init:000000000000006e .L0 
C:\Users\Karzan\AppData\Local\Temp\ccadEQk2.s:115    .text.exti_init:0000000000000078 .L0 
C:\Users\Karzan\AppData\Local\Temp\ccadEQk2.s:119    .text.exti_init:000000000000007a .L0 
C:\Users\Karzan\AppData\Local\Temp\ccadEQk2.s:120    .text.exti_init:000000000000007a .L0 
C:\Users\Karzan\AppData\Local\Temp\ccadEQk2.s:125    .text.exti_init:0000000000000084 .L0 
C:\Users\Karzan\AppData\Local\Temp\ccadEQk2.s:127    .text.exti_init:0000000000000088 .L0 
C:\Users\Karzan\AppData\Local\Temp\ccadEQk2.s:128    .text.exti_init:0000000000000088 .L0 
C:\Users\Karzan\AppData\Local\Temp\ccadEQk2.s:133    .text.exti_init:0000000000000092 .L0 
C:\Users\Karzan\AppData\Local\Temp\ccadEQk2.s:134    .text.exti_init:0000000000000092 .L0 
C:\Users\Karzan\AppData\Local\Temp\ccadEQk2.s:138    .text.exti_init:0000000000000094 .L0 
C:\Users\Karzan\AppData\Local\Temp\ccadEQk2.s:139    .text.exti_init:0000000000000094 .L0 
C:\Users\Karzan\AppData\Local\Temp\ccadEQk2.s:143    .text.exti_init:00000000000000a0 .L0 
C:\Users\Karzan\AppData\Local\Temp\ccadEQk2.s:150    .text.exti_interrupt_enable:0000000000000000 exti_interrupt_enable
C:\Users\Karzan\AppData\Local\Temp\ccadEQk2.s:153    .text.exti_interrupt_enable:0000000000000000 .L0 
C:\Users\Karzan\AppData\Local\Temp\ccadEQk2.s:155    .text.exti_interrupt_enable:0000000000000000 .L0 
C:\Users\Karzan\AppData\Local\Temp\ccadEQk2.s:156    .text.exti_interrupt_enable:0000000000000000 .L0 
GAS LISTING C:\Users\Karzan\AppData\Local\Temp\ccadEQk2.s 			page 13


C:\Users\Karzan\AppData\Local\Temp\ccadEQk2.s:157    .text.exti_interrupt_enable:0000000000000000 .L0 
C:\Users\Karzan\AppData\Local\Temp\ccadEQk2.s:163    .text.exti_interrupt_enable:000000000000000e .L0 
C:\Users\Karzan\AppData\Local\Temp\ccadEQk2.s:164    .text.exti_interrupt_enable:0000000000000010 .L0 
C:\Users\Karzan\AppData\Local\Temp\ccadEQk2.s:171    .text.exti_event_enable:0000000000000000 exti_event_enable
C:\Users\Karzan\AppData\Local\Temp\ccadEQk2.s:174    .text.exti_event_enable:0000000000000000 .L0 
C:\Users\Karzan\AppData\Local\Temp\ccadEQk2.s:176    .text.exti_event_enable:0000000000000000 .L0 
C:\Users\Karzan\AppData\Local\Temp\ccadEQk2.s:177    .text.exti_event_enable:0000000000000000 .L0 
C:\Users\Karzan\AppData\Local\Temp\ccadEQk2.s:178    .text.exti_event_enable:0000000000000000 .L0 
C:\Users\Karzan\AppData\Local\Temp\ccadEQk2.s:184    .text.exti_event_enable:000000000000000e .L0 
C:\Users\Karzan\AppData\Local\Temp\ccadEQk2.s:185    .text.exti_event_enable:0000000000000010 .L0 
C:\Users\Karzan\AppData\Local\Temp\ccadEQk2.s:192    .text.exti_interrupt_disable:0000000000000000 exti_interrupt_disable
C:\Users\Karzan\AppData\Local\Temp\ccadEQk2.s:195    .text.exti_interrupt_disable:0000000000000000 .L0 
C:\Users\Karzan\AppData\Local\Temp\ccadEQk2.s:197    .text.exti_interrupt_disable:0000000000000000 .L0 
C:\Users\Karzan\AppData\Local\Temp\ccadEQk2.s:198    .text.exti_interrupt_disable:0000000000000000 .L0 
C:\Users\Karzan\AppData\Local\Temp\ccadEQk2.s:199    .text.exti_interrupt_disable:0000000000000000 .L0 
C:\Users\Karzan\AppData\Local\Temp\ccadEQk2.s:202    .text.exti_interrupt_disable:0000000000000008 .L0 
C:\Users\Karzan\AppData\Local\Temp\ccadEQk2.s:205    .text.exti_interrupt_disable:000000000000000c .L0 
C:\Users\Karzan\AppData\Local\Temp\ccadEQk2.s:209    .text.exti_interrupt_disable:0000000000000012 .L0 
C:\Users\Karzan\AppData\Local\Temp\ccadEQk2.s:210    .text.exti_interrupt_disable:0000000000000014 .L0 
C:\Users\Karzan\AppData\Local\Temp\ccadEQk2.s:217    .text.exti_event_disable:0000000000000000 exti_event_disable
C:\Users\Karzan\AppData\Local\Temp\ccadEQk2.s:220    .text.exti_event_disable:0000000000000000 .L0 
C:\Users\Karzan\AppData\Local\Temp\ccadEQk2.s:222    .text.exti_event_disable:0000000000000000 .L0 
C:\Users\Karzan\AppData\Local\Temp\ccadEQk2.s:223    .text.exti_event_disable:0000000000000000 .L0 
C:\Users\Karzan\AppData\Local\Temp\ccadEQk2.s:224    .text.exti_event_disable:0000000000000000 .L0 
C:\Users\Karzan\AppData\Local\Temp\ccadEQk2.s:227    .text.exti_event_disable:0000000000000008 .L0 
C:\Users\Karzan\AppData\Local\Temp\ccadEQk2.s:230    .text.exti_event_disable:000000000000000c .L0 
C:\Users\Karzan\AppData\Local\Temp\ccadEQk2.s:234    .text.exti_event_disable:0000000000000012 .L0 
C:\Users\Karzan\AppData\Local\Temp\ccadEQk2.s:235    .text.exti_event_disable:0000000000000014 .L0 
C:\Users\Karzan\AppData\Local\Temp\ccadEQk2.s:242    .text.exti_flag_get:0000000000000000 exti_flag_get
C:\Users\Karzan\AppData\Local\Temp\ccadEQk2.s:245    .text.exti_flag_get:0000000000000000 .L0 
C:\Users\Karzan\AppData\Local\Temp\ccadEQk2.s:247    .text.exti_flag_get:0000000000000000 .L0 
C:\Users\Karzan\AppData\Local\Temp\ccadEQk2.s:248    .text.exti_flag_get:0000000000000000 .L0 
C:\Users\Karzan\AppData\Local\Temp\ccadEQk2.s:249    .text.exti_flag_get:0000000000000000 .L0 
C:\Users\Karzan\AppData\Local\Temp\ccadEQk2.s:252    .text.exti_flag_get:0000000000000008 .L0 
C:\Users\Karzan\AppData\Local\Temp\ccadEQk2.s:255    .text.exti_flag_get:000000000000000a .L0 
C:\Users\Karzan\AppData\Local\Temp\ccadEQk2.s:257    .text.exti_flag_get:0000000000000010 .L0 
C:\Users\Karzan\AppData\Local\Temp\ccadEQk2.s:264    .text.exti_flag_clear:0000000000000000 exti_flag_clear
C:\Users\Karzan\AppData\Local\Temp\ccadEQk2.s:267    .text.exti_flag_clear:0000000000000000 .L0 
C:\Users\Karzan\AppData\Local\Temp\ccadEQk2.s:269    .text.exti_flag_clear:0000000000000000 .L0 
C:\Users\Karzan\AppData\Local\Temp\ccadEQk2.s:270    .text.exti_flag_clear:0000000000000000 .L0 
C:\Users\Karzan\AppData\Local\Temp\ccadEQk2.s:271    .text.exti_flag_clear:0000000000000000 .L0 
C:\Users\Karzan\AppData\Local\Temp\ccadEQk2.s:274    .text.exti_flag_clear:0000000000000008 .L0 
C:\Users\Karzan\AppData\Local\Temp\ccadEQk2.s:275    .text.exti_flag_clear:000000000000000a .L0 
C:\Users\Karzan\AppData\Local\Temp\ccadEQk2.s:282    .text.exti_interrupt_flag_get:0000000000000000 exti_interrupt_flag_get
C:\Users\Karzan\AppData\Local\Temp\ccadEQk2.s:285    .text.exti_interrupt_flag_get:0000000000000000 .L0 
C:\Users\Karzan\AppData\Local\Temp\ccadEQk2.s:287    .text.exti_interrupt_flag_get:0000000000000000 .L0 
C:\Users\Karzan\AppData\Local\Temp\ccadEQk2.s:288    .text.exti_interrupt_flag_get:0000000000000000 .L0 
C:\Users\Karzan\AppData\Local\Temp\ccadEQk2.s:289    .text.exti_interrupt_flag_get:0000000000000000 .L0 
C:\Users\Karzan\AppData\Local\Temp\ccadEQk2.s:290    .text.exti_interrupt_flag_get:0000000000000000 .L0 
C:\Users\Karzan\AppData\Local\Temp\ccadEQk2.s:293    .text.exti_interrupt_flag_get:0000000000000008 .L0 
C:\Users\Karzan\AppData\Local\Temp\ccadEQk2.s:295    .text.exti_interrupt_flag_get:000000000000000a .L0 
C:\Users\Karzan\AppData\Local\Temp\ccadEQk2.s:298    .text.exti_interrupt_flag_get:000000000000000c .L0 
C:\Users\Karzan\AppData\Local\Temp\ccadEQk2.s:299    .text.exti_interrupt_flag_get:000000000000000c .L0 
C:\Users\Karzan\AppData\Local\Temp\ccadEQk2.s:302    .text.exti_interrupt_flag_get:0000000000000010 .L0 
C:\Users\Karzan\AppData\Local\Temp\ccadEQk2.s:303    .text.exti_interrupt_flag_get:0000000000000010 .L0 
C:\Users\Karzan\AppData\Local\Temp\ccadEQk2.s:305    .text.exti_interrupt_flag_get:0000000000000012 .L0 
C:\Users\Karzan\AppData\Local\Temp\ccadEQk2.s:308    .text.exti_interrupt_flag_get:0000000000000016 .L0 
GAS LISTING C:\Users\Karzan\AppData\Local\Temp\ccadEQk2.s 			page 14


C:\Users\Karzan\AppData\Local\Temp\ccadEQk2.s:312    .text.exti_interrupt_flag_get:000000000000001a .L0 
C:\Users\Karzan\AppData\Local\Temp\ccadEQk2.s:313    .text.exti_interrupt_flag_get:000000000000001c .L0 
C:\Users\Karzan\AppData\Local\Temp\ccadEQk2.s:320    .text.exti_interrupt_flag_clear:0000000000000000 exti_interrupt_flag_clear
C:\Users\Karzan\AppData\Local\Temp\ccadEQk2.s:322    .text.exti_interrupt_flag_clear:0000000000000000 .L0 
C:\Users\Karzan\AppData\Local\Temp\ccadEQk2.s:326    .text.exti_interrupt_flag_clear:000000000000000a .L0 
C:\Users\Karzan\AppData\Local\Temp\ccadEQk2.s:333    .text.exti_software_interrupt_enable:0000000000000000 exti_software_interrupt_enable
C:\Users\Karzan\AppData\Local\Temp\ccadEQk2.s:336    .text.exti_software_interrupt_enable:0000000000000000 .L0 
C:\Users\Karzan\AppData\Local\Temp\ccadEQk2.s:338    .text.exti_software_interrupt_enable:0000000000000000 .L0 
C:\Users\Karzan\AppData\Local\Temp\ccadEQk2.s:339    .text.exti_software_interrupt_enable:0000000000000000 .L0 
C:\Users\Karzan\AppData\Local\Temp\ccadEQk2.s:340    .text.exti_software_interrupt_enable:0000000000000000 .L0 
C:\Users\Karzan\AppData\Local\Temp\ccadEQk2.s:346    .text.exti_software_interrupt_enable:000000000000000e .L0 
C:\Users\Karzan\AppData\Local\Temp\ccadEQk2.s:347    .text.exti_software_interrupt_enable:0000000000000010 .L0 
C:\Users\Karzan\AppData\Local\Temp\ccadEQk2.s:354    .text.exti_software_interrupt_disable:0000000000000000 exti_software_interrupt_disable
C:\Users\Karzan\AppData\Local\Temp\ccadEQk2.s:357    .text.exti_software_interrupt_disable:0000000000000000 .L0 
C:\Users\Karzan\AppData\Local\Temp\ccadEQk2.s:359    .text.exti_software_interrupt_disable:0000000000000000 .L0 
C:\Users\Karzan\AppData\Local\Temp\ccadEQk2.s:360    .text.exti_software_interrupt_disable:0000000000000000 .L0 
C:\Users\Karzan\AppData\Local\Temp\ccadEQk2.s:361    .text.exti_software_interrupt_disable:0000000000000000 .L0 
C:\Users\Karzan\AppData\Local\Temp\ccadEQk2.s:364    .text.exti_software_interrupt_disable:0000000000000008 .L0 
C:\Users\Karzan\AppData\Local\Temp\ccadEQk2.s:367    .text.exti_software_interrupt_disable:000000000000000c .L0 
C:\Users\Karzan\AppData\Local\Temp\ccadEQk2.s:371    .text.exti_software_interrupt_disable:0000000000000012 .L0 
C:\Users\Karzan\AppData\Local\Temp\ccadEQk2.s:372    .text.exti_software_interrupt_disable:0000000000000014 .L0 
C:\Users\Karzan\AppData\Local\Temp\ccadEQk2.s:39     .text.exti_deinit:000000000000001a .L0 
C:\Users\Karzan\AppData\Local\Temp\ccadEQk2.s:146    .text.exti_init:00000000000000a0 .L0 
C:\Users\Karzan\AppData\Local\Temp\ccadEQk2.s:167    .text.exti_interrupt_enable:0000000000000010 .L0 
C:\Users\Karzan\AppData\Local\Temp\ccadEQk2.s:188    .text.exti_event_enable:0000000000000010 .L0 
C:\Users\Karzan\AppData\Local\Temp\ccadEQk2.s:213    .text.exti_interrupt_disable:0000000000000014 .L0 
C:\Users\Karzan\AppData\Local\Temp\ccadEQk2.s:238    .text.exti_event_disable:0000000000000014 .L0 
C:\Users\Karzan\AppData\Local\Temp\ccadEQk2.s:260    .text.exti_flag_get:0000000000000010 .L0 
C:\Users\Karzan\AppData\Local\Temp\ccadEQk2.s:278    .text.exti_flag_clear:000000000000000a .L0 
C:\Users\Karzan\AppData\Local\Temp\ccadEQk2.s:316    .text.exti_interrupt_flag_get:000000000000001c .L0 
C:\Users\Karzan\AppData\Local\Temp\ccadEQk2.s:350    .text.exti_software_interrupt_enable:0000000000000010 .L0 
C:\Users\Karzan\AppData\Local\Temp\ccadEQk2.s:375    .text.exti_software_interrupt_disable:0000000000000014 .L0 
                     .debug_frame:0000000000000000 .L0 
C:\Users\Karzan\AppData\Local\Temp\ccadEQk2.s:84     .text.exti_init:0000000000000048 .L3
C:\Users\Karzan\AppData\Local\Temp\ccadEQk2.s:92     .text.exti_init:0000000000000054 .L4
C:\Users\Karzan\AppData\Local\Temp\ccadEQk2.s:117    .text.exti_init:000000000000007a .L6
C:\Users\Karzan\AppData\Local\Temp\ccadEQk2.s:100    .text.exti_init:0000000000000060 .L7
C:\Users\Karzan\AppData\Local\Temp\ccadEQk2.s:136    .text.exti_init:0000000000000094 .L8
C:\Users\Karzan\AppData\Local\Temp\ccadEQk2.s:76     .text.exti_init:0000000000000038 .L5
C:\Users\Karzan\AppData\Local\Temp\ccadEQk2.s:123    .text.exti_init:0000000000000084 .L10
C:\Users\Karzan\AppData\Local\Temp\ccadEQk2.s:310    .text.exti_interrupt_flag_get:000000000000001a .L17
C:\Users\Karzan\AppData\Local\Temp\ccadEQk2.s:891    .debug_abbrev:0000000000000000 .Ldebug_abbrev0
C:\Users\Karzan\AppData\Local\Temp\ccadEQk2.s:1499   .debug_str:0000000000000013 .LASF56
C:\Users\Karzan\AppData\Local\Temp\ccadEQk2.s:1599   .debug_str:000000000000033e .LASF57
C:\Users\Karzan\AppData\Local\Temp\ccadEQk2.s:1565   .debug_str:0000000000000229 .LASF58
C:\Users\Karzan\AppData\Local\Temp\ccadEQk2.s:1469   .debug_ranges:0000000000000000 .Ldebug_ranges0
C:\Users\Karzan\AppData\Local\Temp\ccadEQk2.s:1495   .debug_line:0000000000000000 .Ldebug_line0
C:\Users\Karzan\AppData\Local\Temp\ccadEQk2.s:1563   .debug_str:000000000000021c .LASF0
C:\Users\Karzan\AppData\Local\Temp\ccadEQk2.s:1515   .debug_str:00000000000000f0 .LASF1
C:\Users\Karzan\AppData\Local\Temp\ccadEQk2.s:1541   .debug_str:00000000000001bc .LASF2
C:\Users\Karzan\AppData\Local\Temp\ccadEQk2.s:1505   .debug_str:00000000000000ab .LASF3
C:\Users\Karzan\AppData\Local\Temp\ccadEQk2.s:1593   .debug_str:0000000000000309 .LASF4
C:\Users\Karzan\AppData\Local\Temp\ccadEQk2.s:1529   .debug_str:000000000000016b .LASF5
C:\Users\Karzan\AppData\Local\Temp\ccadEQk2.s:1501   .debug_str:000000000000009b .LASF9
C:\Users\Karzan\AppData\Local\Temp\ccadEQk2.s:1603   .debug_str:00000000000003a5 .LASF6
C:\Users\Karzan\AppData\Local\Temp\ccadEQk2.s:1523   .debug_str:0000000000000135 .LASF7
C:\Users\Karzan\AppData\Local\Temp\ccadEQk2.s:1525   .debug_str:0000000000000143 .LASF8
GAS LISTING C:\Users\Karzan\AppData\Local\Temp\ccadEQk2.s 			page 15


C:\Users\Karzan\AppData\Local\Temp\ccadEQk2.s:1513   .debug_str:00000000000000e7 .LASF10
C:\Users\Karzan\AppData\Local\Temp\ccadEQk2.s:1595   .debug_str:000000000000031c .LASF59
C:\Users\Karzan\AppData\Local\Temp\ccadEQk2.s:1613   .debug_str:00000000000003fa .LASF11
C:\Users\Karzan\AppData\Local\Temp\ccadEQk2.s:1621   .debug_str:000000000000042b .LASF12
C:\Users\Karzan\AppData\Local\Temp\ccadEQk2.s:1537   .debug_str:00000000000001a4 .LASF13
C:\Users\Karzan\AppData\Local\Temp\ccadEQk2.s:1567   .debug_str:000000000000028f .LASF14
C:\Users\Karzan\AppData\Local\Temp\ccadEQk2.s:1569   .debug_str:0000000000000296 .LASF15
C:\Users\Karzan\AppData\Local\Temp\ccadEQk2.s:1571   .debug_str:000000000000029d .LASF16
C:\Users\Karzan\AppData\Local\Temp\ccadEQk2.s:1573   .debug_str:00000000000002a4 .LASF17
C:\Users\Karzan\AppData\Local\Temp\ccadEQk2.s:1575   .debug_str:00000000000002ab .LASF18
C:\Users\Karzan\AppData\Local\Temp\ccadEQk2.s:1577   .debug_str:00000000000002b2 .LASF19
C:\Users\Karzan\AppData\Local\Temp\ccadEQk2.s:1579   .debug_str:00000000000002b9 .LASF20
C:\Users\Karzan\AppData\Local\Temp\ccadEQk2.s:1581   .debug_str:00000000000002c0 .LASF21
C:\Users\Karzan\AppData\Local\Temp\ccadEQk2.s:1583   .debug_str:00000000000002c7 .LASF22
C:\Users\Karzan\AppData\Local\Temp\ccadEQk2.s:1585   .debug_str:00000000000002ce .LASF23
C:\Users\Karzan\AppData\Local\Temp\ccadEQk2.s:1545   .debug_str:00000000000001d4 .LASF24
C:\Users\Karzan\AppData\Local\Temp\ccadEQk2.s:1547   .debug_str:00000000000001dc .LASF25
C:\Users\Karzan\AppData\Local\Temp\ccadEQk2.s:1549   .debug_str:00000000000001e4 .LASF26
C:\Users\Karzan\AppData\Local\Temp\ccadEQk2.s:1551   .debug_str:00000000000001ec .LASF27
C:\Users\Karzan\AppData\Local\Temp\ccadEQk2.s:1553   .debug_str:00000000000001f4 .LASF28
C:\Users\Karzan\AppData\Local\Temp\ccadEQk2.s:1555   .debug_str:00000000000001fc .LASF29
C:\Users\Karzan\AppData\Local\Temp\ccadEQk2.s:1557   .debug_str:0000000000000204 .LASF30
C:\Users\Karzan\AppData\Local\Temp\ccadEQk2.s:1559   .debug_str:000000000000020c .LASF31
C:\Users\Karzan\AppData\Local\Temp\ccadEQk2.s:1561   .debug_str:0000000000000214 .LASF32
C:\Users\Karzan\AppData\Local\Temp\ccadEQk2.s:1605   .debug_str:00000000000003b7 .LASF33
C:\Users\Karzan\AppData\Local\Temp\ccadEQk2.s:1531   .debug_str:0000000000000174 .LASF34
C:\Users\Karzan\AppData\Local\Temp\ccadEQk2.s:1607   .debug_str:00000000000003c6 .LASF35
C:\Users\Karzan\AppData\Local\Temp\ccadEQk2.s:1535   .debug_str:0000000000000195 .LASF36
C:\Users\Karzan\AppData\Local\Temp\ccadEQk2.s:1527   .debug_str:000000000000015a .LASF37
C:\Users\Karzan\AppData\Local\Temp\ccadEQk2.s:1597   .debug_str:000000000000032c .LASF38
C:\Users\Karzan\AppData\Local\Temp\ccadEQk2.s:1519   .debug_str:0000000000000110 .LASF39
C:\Users\Karzan\AppData\Local\Temp\ccadEQk2.s:1611   .debug_str:00000000000003eb .LASF40
C:\Users\Karzan\AppData\Local\Temp\ccadEQk2.s:1517   .debug_str:00000000000000fc .LASF41
C:\Users\Karzan\AppData\Local\Temp\ccadEQk2.s:1601   .debug_str:0000000000000385 .LASF42
C:\Users\Karzan\AppData\Local\Temp\ccadEQk2.s:355    .text.exti_software_interrupt_disable:0000000000000000 .LFB13
C:\Users\Karzan\AppData\Local\Temp\ccadEQk2.s:373    .text.exti_software_interrupt_disable:0000000000000014 .LFE13
C:\Users\Karzan\AppData\Local\Temp\ccadEQk2.s:1615   .debug_str:0000000000000400 .LASF44
C:\Users\Karzan\AppData\Local\Temp\ccadEQk2.s:1238   .debug_loc:0000000000000000 .LLST10
C:\Users\Karzan\AppData\Local\Temp\ccadEQk2.s:1591   .debug_str:00000000000002ea .LASF43
C:\Users\Karzan\AppData\Local\Temp\ccadEQk2.s:334    .text.exti_software_interrupt_enable:0000000000000000 .LFB12
C:\Users\Karzan\AppData\Local\Temp\ccadEQk2.s:348    .text.exti_software_interrupt_enable:0000000000000010 .LFE12
C:\Users\Karzan\AppData\Local\Temp\ccadEQk2.s:1259   .debug_loc:000000000000002f .LLST9
C:\Users\Karzan\AppData\Local\Temp\ccadEQk2.s:1609   .debug_str:00000000000003d1 .LASF60
C:\Users\Karzan\AppData\Local\Temp\ccadEQk2.s:1511   .debug_str:00000000000000cf .LASF47
C:\Users\Karzan\AppData\Local\Temp\ccadEQk2.s:283    .text.exti_interrupt_flag_get:0000000000000000 .LFB10
C:\Users\Karzan\AppData\Local\Temp\ccadEQk2.s:314    .text.exti_interrupt_flag_get:000000000000001c .LFE10
C:\Users\Karzan\AppData\Local\Temp\ccadEQk2.s:1273   .debug_loc:0000000000000050 .LLST6
C:\Users\Karzan\AppData\Local\Temp\ccadEQk2.s:1587   .debug_str:00000000000002d5 .LASF45
C:\Users\Karzan\AppData\Local\Temp\ccadEQk2.s:1284   .debug_loc:000000000000006e .LLST7
C:\Users\Karzan\AppData\Local\Temp\ccadEQk2.s:1589   .debug_str:00000000000002df .LASF46
C:\Users\Karzan\AppData\Local\Temp\ccadEQk2.s:1291   .debug_loc:0000000000000081 .LLST8
C:\Users\Karzan\AppData\Local\Temp\ccadEQk2.s:1507   .debug_str:00000000000000b5 .LASF61
C:\Users\Karzan\AppData\Local\Temp\ccadEQk2.s:1617   .debug_str:0000000000000406 .LASF48
C:\Users\Karzan\AppData\Local\Temp\ccadEQk2.s:243    .text.exti_flag_get:0000000000000000 .LFB8
C:\Users\Karzan\AppData\Local\Temp\ccadEQk2.s:258    .text.exti_flag_get:0000000000000010 .LFE8
C:\Users\Karzan\AppData\Local\Temp\ccadEQk2.s:1316   .debug_loc:00000000000000b4 .LLST5
C:\Users\Karzan\AppData\Local\Temp\ccadEQk2.s:1497   .debug_str:0000000000000000 .LASF49
GAS LISTING C:\Users\Karzan\AppData\Local\Temp\ccadEQk2.s 			page 16


C:\Users\Karzan\AppData\Local\Temp\ccadEQk2.s:218    .text.exti_event_disable:0000000000000000 .LFB7
C:\Users\Karzan\AppData\Local\Temp\ccadEQk2.s:236    .text.exti_event_disable:0000000000000014 .LFE7
C:\Users\Karzan\AppData\Local\Temp\ccadEQk2.s:1330   .debug_loc:00000000000000d5 .LLST4
C:\Users\Karzan\AppData\Local\Temp\ccadEQk2.s:1619   .debug_str:0000000000000414 .LASF50
C:\Users\Karzan\AppData\Local\Temp\ccadEQk2.s:193    .text.exti_interrupt_disable:0000000000000000 .LFB6
C:\Users\Karzan\AppData\Local\Temp\ccadEQk2.s:211    .text.exti_interrupt_disable:0000000000000014 .LFE6
C:\Users\Karzan\AppData\Local\Temp\ccadEQk2.s:1351   .debug_loc:0000000000000104 .LLST3
C:\Users\Karzan\AppData\Local\Temp\ccadEQk2.s:1533   .debug_str:0000000000000183 .LASF51
C:\Users\Karzan\AppData\Local\Temp\ccadEQk2.s:172    .text.exti_event_enable:0000000000000000 .LFB5
C:\Users\Karzan\AppData\Local\Temp\ccadEQk2.s:186    .text.exti_event_enable:0000000000000010 .LFE5
C:\Users\Karzan\AppData\Local\Temp\ccadEQk2.s:1372   .debug_loc:0000000000000133 .LLST2
C:\Users\Karzan\AppData\Local\Temp\ccadEQk2.s:1521   .debug_str:000000000000011f .LASF52
C:\Users\Karzan\AppData\Local\Temp\ccadEQk2.s:151    .text.exti_interrupt_enable:0000000000000000 .LFB4
C:\Users\Karzan\AppData\Local\Temp\ccadEQk2.s:165    .text.exti_interrupt_enable:0000000000000010 .LFE4
C:\Users\Karzan\AppData\Local\Temp\ccadEQk2.s:1386   .debug_loc:0000000000000154 .LLST1
C:\Users\Karzan\AppData\Local\Temp\ccadEQk2.s:1543   .debug_str:00000000000001ca .LASF53
C:\Users\Karzan\AppData\Local\Temp\ccadEQk2.s:44     .text.exti_init:0000000000000000 .LFB3
C:\Users\Karzan\AppData\Local\Temp\ccadEQk2.s:144    .text.exti_init:00000000000000a0 .LFE3
C:\Users\Karzan\AppData\Local\Temp\ccadEQk2.s:1400   .debug_loc:0000000000000175 .LLST0
C:\Users\Karzan\AppData\Local\Temp\ccadEQk2.s:1503   .debug_str:00000000000000a6 .LASF54
C:\Users\Karzan\AppData\Local\Temp\ccadEQk2.s:1509   .debug_str:00000000000000c5 .LASF55
C:\Users\Karzan\AppData\Local\Temp\ccadEQk2.s:1539   .debug_str:00000000000001b0 .LASF62
C:\Users\Karzan\AppData\Local\Temp\ccadEQk2.s:14     .text.exti_deinit:0000000000000000 .LFB2
C:\Users\Karzan\AppData\Local\Temp\ccadEQk2.s:37     .text.exti_deinit:000000000000001a .LFE2
C:\Users\Karzan\AppData\Local\Temp\ccadEQk2.s:265    .text.exti_flag_clear:0000000000000000 .LFB9
C:\Users\Karzan\AppData\Local\Temp\ccadEQk2.s:276    .text.exti_flag_clear:000000000000000a .LFE9
C:\Users\Karzan\AppData\Local\Temp\ccadEQk2.s:358    .text.exti_software_interrupt_disable:0000000000000000 .LVL26
C:\Users\Karzan\AppData\Local\Temp\ccadEQk2.s:365    .text.exti_software_interrupt_disable:000000000000000c .LVL27
C:\Users\Karzan\AppData\Local\Temp\ccadEQk2.s:368    .text.exti_software_interrupt_disable:000000000000000e .LVL28
C:\Users\Karzan\AppData\Local\Temp\ccadEQk2.s:337    .text.exti_software_interrupt_enable:0000000000000000 .LVL24
C:\Users\Karzan\AppData\Local\Temp\ccadEQk2.s:343    .text.exti_software_interrupt_enable:000000000000000a .LVL25
C:\Users\Karzan\AppData\Local\Temp\ccadEQk2.s:286    .text.exti_interrupt_flag_get:0000000000000000 .LVL19
C:\Users\Karzan\AppData\Local\Temp\ccadEQk2.s:296    .text.exti_interrupt_flag_get:000000000000000c .LVL20
C:\Users\Karzan\AppData\Local\Temp\ccadEQk2.s:306    .text.exti_interrupt_flag_get:0000000000000016 .LVL22
C:\Users\Karzan\AppData\Local\Temp\ccadEQk2.s:300    .text.exti_interrupt_flag_get:0000000000000010 .LVL21
C:\Users\Karzan\AppData\Local\Temp\ccadEQk2.s:309    .text.exti_interrupt_flag_get:000000000000001a .LVL23
C:\Users\Karzan\AppData\Local\Temp\ccadEQk2.s:246    .text.exti_flag_get:0000000000000000 .LVL16
C:\Users\Karzan\AppData\Local\Temp\ccadEQk2.s:253    .text.exti_flag_get:000000000000000a .LVL17
C:\Users\Karzan\AppData\Local\Temp\ccadEQk2.s:221    .text.exti_event_disable:0000000000000000 .LVL13
C:\Users\Karzan\AppData\Local\Temp\ccadEQk2.s:228    .text.exti_event_disable:000000000000000c .LVL14
C:\Users\Karzan\AppData\Local\Temp\ccadEQk2.s:231    .text.exti_event_disable:000000000000000e .LVL15
C:\Users\Karzan\AppData\Local\Temp\ccadEQk2.s:196    .text.exti_interrupt_disable:0000000000000000 .LVL10
C:\Users\Karzan\AppData\Local\Temp\ccadEQk2.s:203    .text.exti_interrupt_disable:000000000000000c .LVL11
C:\Users\Karzan\AppData\Local\Temp\ccadEQk2.s:206    .text.exti_interrupt_disable:000000000000000e .LVL12
C:\Users\Karzan\AppData\Local\Temp\ccadEQk2.s:175    .text.exti_event_enable:0000000000000000 .LVL8
C:\Users\Karzan\AppData\Local\Temp\ccadEQk2.s:181    .text.exti_event_enable:000000000000000a .LVL9
C:\Users\Karzan\AppData\Local\Temp\ccadEQk2.s:154    .text.exti_interrupt_enable:0000000000000000 .LVL6
C:\Users\Karzan\AppData\Local\Temp\ccadEQk2.s:160    .text.exti_interrupt_enable:000000000000000a .LVL7
C:\Users\Karzan\AppData\Local\Temp\ccadEQk2.s:47     .text.exti_init:0000000000000000 .LVL0
C:\Users\Karzan\AppData\Local\Temp\ccadEQk2.s:106    .text.exti_init:000000000000006a .LVL1
C:\Users\Karzan\AppData\Local\Temp\ccadEQk2.s:112    .text.exti_init:0000000000000074 .LVL2
C:\Users\Karzan\AppData\Local\Temp\ccadEQk2.s:116    .text.exti_init:000000000000007a .LVL3
C:\Users\Karzan\AppData\Local\Temp\ccadEQk2.s:130    .text.exti_init:000000000000008e .LVL4
C:\Users\Karzan\AppData\Local\Temp\ccadEQk2.s:135    .text.exti_init:0000000000000094 .LVL5
C:\Users\Karzan\AppData\Local\Temp\ccadEQk2.s:383    .debug_info:0000000000000000 .Ldebug_info0

NO UNDEFINED SYMBOLS
GAS LISTING C:\Users\Karzan\AppData\Local\Temp\ccadEQk2.s 			page 17


