GAS LISTING C:\Users\Karzan\AppData\Local\Temp\ccc8gDRh.s 			page 1


   1              		.file	"gd32vf103_spi.c"
   2              		.option nopic
   3              		.attribute arch, "rv32i2p0_m2p0_a2p0_c2p0"
   4              		.attribute unaligned_access, 0
   5              		.attribute stack_align, 16
   6              		.text
   7              	.Ltext0:
   8              		.cfi_sections	.debug_frame
   9              		.section	.text.spi_i2s_deinit,"ax",@progbits
  10              		.align	1
  11              		.globl	spi_i2s_deinit
  13              	spi_i2s_deinit:
  14              	.LFB2:
  15              		.file 1 "./../../firmware/GD32VF103_standard_peripheral/Source/gd32vf103_spi.c"
   1:./../../firmware/GD32VF103_standard_peripheral/Source/gd32vf103_spi.c **** /*!
   2:./../../firmware/GD32VF103_standard_peripheral/Source/gd32vf103_spi.c ****     \file    gd32vf103_spi.c
   3:./../../firmware/GD32VF103_standard_peripheral/Source/gd32vf103_spi.c ****     \brief   SPI driver
   4:./../../firmware/GD32VF103_standard_peripheral/Source/gd32vf103_spi.c **** 
   5:./../../firmware/GD32VF103_standard_peripheral/Source/gd32vf103_spi.c ****     \version 2019-06-05, V1.0.0, firmware for GD32VF103
   6:./../../firmware/GD32VF103_standard_peripheral/Source/gd32vf103_spi.c ****     \version 2020-08-04, V1.1.0, firmware for GD32VF103
   7:./../../firmware/GD32VF103_standard_peripheral/Source/gd32vf103_spi.c **** */
   8:./../../firmware/GD32VF103_standard_peripheral/Source/gd32vf103_spi.c **** 
   9:./../../firmware/GD32VF103_standard_peripheral/Source/gd32vf103_spi.c **** /*
  10:./../../firmware/GD32VF103_standard_peripheral/Source/gd32vf103_spi.c ****     Copyright (c) 2020, GigaDevice Semiconductor Inc.
  11:./../../firmware/GD32VF103_standard_peripheral/Source/gd32vf103_spi.c **** 
  12:./../../firmware/GD32VF103_standard_peripheral/Source/gd32vf103_spi.c ****     Redistribution and use in source and binary forms, with or without modification, 
  13:./../../firmware/GD32VF103_standard_peripheral/Source/gd32vf103_spi.c **** are permitted provided that the following conditions are met:
  14:./../../firmware/GD32VF103_standard_peripheral/Source/gd32vf103_spi.c **** 
  15:./../../firmware/GD32VF103_standard_peripheral/Source/gd32vf103_spi.c ****     1. Redistributions of source code must retain the above copyright notice, this 
  16:./../../firmware/GD32VF103_standard_peripheral/Source/gd32vf103_spi.c ****        list of conditions and the following disclaimer.
  17:./../../firmware/GD32VF103_standard_peripheral/Source/gd32vf103_spi.c ****     2. Redistributions in binary form must reproduce the above copyright notice, 
  18:./../../firmware/GD32VF103_standard_peripheral/Source/gd32vf103_spi.c ****        this list of conditions and the following disclaimer in the documentation 
  19:./../../firmware/GD32VF103_standard_peripheral/Source/gd32vf103_spi.c ****        and/or other materials provided with the distribution.
  20:./../../firmware/GD32VF103_standard_peripheral/Source/gd32vf103_spi.c ****     3. Neither the name of the copyright holder nor the names of its contributors 
  21:./../../firmware/GD32VF103_standard_peripheral/Source/gd32vf103_spi.c ****        may be used to endorse or promote products derived from this software without 
  22:./../../firmware/GD32VF103_standard_peripheral/Source/gd32vf103_spi.c ****        specific prior written permission.
  23:./../../firmware/GD32VF103_standard_peripheral/Source/gd32vf103_spi.c **** 
  24:./../../firmware/GD32VF103_standard_peripheral/Source/gd32vf103_spi.c ****     THIS SOFTWARE IS PROVIDED BY THE COPYRIGHT HOLDERS AND CONTRIBUTORS "AS IS" 
  25:./../../firmware/GD32VF103_standard_peripheral/Source/gd32vf103_spi.c **** AND ANY EXPRESS OR IMPLIED WARRANTIES, INCLUDING, BUT NOT LIMITED TO, THE IMPLIED 
  26:./../../firmware/GD32VF103_standard_peripheral/Source/gd32vf103_spi.c **** WARRANTIES OF MERCHANTABILITY AND FITNESS FOR A PARTICULAR PURPOSE ARE DISCLAIMED. 
  27:./../../firmware/GD32VF103_standard_peripheral/Source/gd32vf103_spi.c **** IN NO EVENT SHALL THE COPYRIGHT HOLDER OR CONTRIBUTORS BE LIABLE FOR ANY DIRECT, 
  28:./../../firmware/GD32VF103_standard_peripheral/Source/gd32vf103_spi.c **** INDIRECT, INCIDENTAL, SPECIAL, EXEMPLARY, OR CONSEQUENTIAL DAMAGES (INCLUDING, BUT 
  29:./../../firmware/GD32VF103_standard_peripheral/Source/gd32vf103_spi.c **** NOT LIMITED TO, PROCUREMENT OF SUBSTITUTE GOODS OR SERVICES; LOSS OF USE, DATA, OR 
  30:./../../firmware/GD32VF103_standard_peripheral/Source/gd32vf103_spi.c **** PROFITS; OR BUSINESS INTERRUPTION) HOWEVER CAUSED AND ON ANY THEORY OF LIABILITY, 
  31:./../../firmware/GD32VF103_standard_peripheral/Source/gd32vf103_spi.c **** WHETHER IN CONTRACT, STRICT LIABILITY, OR TORT (INCLUDING NEGLIGENCE OR OTHERWISE) 
  32:./../../firmware/GD32VF103_standard_peripheral/Source/gd32vf103_spi.c **** ARISING IN ANY WAY OUT OF THE USE OF THIS SOFTWARE, EVEN IF ADVISED OF THE POSSIBILITY 
  33:./../../firmware/GD32VF103_standard_peripheral/Source/gd32vf103_spi.c **** OF SUCH DAMAGE.
  34:./../../firmware/GD32VF103_standard_peripheral/Source/gd32vf103_spi.c **** */
  35:./../../firmware/GD32VF103_standard_peripheral/Source/gd32vf103_spi.c **** 
  36:./../../firmware/GD32VF103_standard_peripheral/Source/gd32vf103_spi.c **** #include "gd32vf103_spi.h"
  37:./../../firmware/GD32VF103_standard_peripheral/Source/gd32vf103_spi.c **** 
  38:./../../firmware/GD32VF103_standard_peripheral/Source/gd32vf103_spi.c **** /* SPI/I2S parameter initialization mask */
  39:./../../firmware/GD32VF103_standard_peripheral/Source/gd32vf103_spi.c **** #define SPI_INIT_MASK                   ((uint32_t)0x00003040U)  /*!< SPI parameter initialization 
  40:./../../firmware/GD32VF103_standard_peripheral/Source/gd32vf103_spi.c **** #define I2S_INIT_MASK                   ((uint32_t)0x0000F047U)  /*!< I2S parameter initialization 
  41:./../../firmware/GD32VF103_standard_peripheral/Source/gd32vf103_spi.c **** 
  42:./../../firmware/GD32VF103_standard_peripheral/Source/gd32vf103_spi.c **** /* I2S clock source selection, multiplication and division mask */
  43:./../../firmware/GD32VF103_standard_peripheral/Source/gd32vf103_spi.c **** #define I2S1_CLOCK_SEL                  ((uint32_t)0x00020000U)  /* I2S1 clock source selection */
GAS LISTING C:\Users\Karzan\AppData\Local\Temp\ccc8gDRh.s 			page 2


  44:./../../firmware/GD32VF103_standard_peripheral/Source/gd32vf103_spi.c **** #define I2S2_CLOCK_SEL                  ((uint32_t)0x00040000U)  /* I2S2 clock source selection */
  45:./../../firmware/GD32VF103_standard_peripheral/Source/gd32vf103_spi.c **** #define I2S_CLOCK_MUL_MASK              ((uint32_t)0x0000F000U)  /* I2S clock multiplication mask *
  46:./../../firmware/GD32VF103_standard_peripheral/Source/gd32vf103_spi.c **** #define I2S_CLOCK_DIV_MASK              ((uint32_t)0x000000F0U)  /* I2S clock division mask */
  47:./../../firmware/GD32VF103_standard_peripheral/Source/gd32vf103_spi.c **** 
  48:./../../firmware/GD32VF103_standard_peripheral/Source/gd32vf103_spi.c **** /* default value and offset */
  49:./../../firmware/GD32VF103_standard_peripheral/Source/gd32vf103_spi.c **** #define SPI_I2SPSC_DEFAULT_VALUE        ((uint32_t)0x00000002U)  /* default value of SPI_I2SPSC reg
  50:./../../firmware/GD32VF103_standard_peripheral/Source/gd32vf103_spi.c **** #define RCU_CFG1_PREDV1_OFFSET          4U                       /* PREDV1 offset in RCU_CFG1 */
  51:./../../firmware/GD32VF103_standard_peripheral/Source/gd32vf103_spi.c **** #define RCU_CFG1_PLL2MF_OFFSET          12U                      /* PLL2MF offset in RCU_CFG1 */
  52:./../../firmware/GD32VF103_standard_peripheral/Source/gd32vf103_spi.c **** 
  53:./../../firmware/GD32VF103_standard_peripheral/Source/gd32vf103_spi.c **** /*!
  54:./../../firmware/GD32VF103_standard_peripheral/Source/gd32vf103_spi.c ****     \brief      reset SPI and I2S 
  55:./../../firmware/GD32VF103_standard_peripheral/Source/gd32vf103_spi.c ****     \param[in]  spi_periph: SPIx(x=0,1,2)
  56:./../../firmware/GD32VF103_standard_peripheral/Source/gd32vf103_spi.c ****     \param[out] none
  57:./../../firmware/GD32VF103_standard_peripheral/Source/gd32vf103_spi.c ****     \retval     none
  58:./../../firmware/GD32VF103_standard_peripheral/Source/gd32vf103_spi.c **** */
  59:./../../firmware/GD32VF103_standard_peripheral/Source/gd32vf103_spi.c **** void spi_i2s_deinit(uint32_t spi_periph)
  60:./../../firmware/GD32VF103_standard_peripheral/Source/gd32vf103_spi.c **** {
  16              		.loc 1 60 1
  17              		.cfi_startproc
  18              	.LVL0:
  61:./../../firmware/GD32VF103_standard_peripheral/Source/gd32vf103_spi.c ****     switch(spi_periph){
  19              		.loc 1 61 5
  60:./../../firmware/GD32VF103_standard_peripheral/Source/gd32vf103_spi.c ****     switch(spi_periph){
  20              		.loc 1 60 1 is_stmt 0
  21 0000 4111     		addi	sp,sp,-16
  22              	.LCFI0:
  23              		.cfi_def_cfa_offset 16
  24              		.loc 1 61 5
  25 0002 B7470040 		li	a5,1073758208
  60:./../../firmware/GD32VF103_standard_peripheral/Source/gd32vf103_spi.c ****     switch(spi_periph){
  26              		.loc 1 60 1
  27 0006 06C6     		sw	ra,12(sp)
  28              		.cfi_offset 1, -4
  29              		.loc 1 61 5
  30 0008 138707C0 		addi	a4,a5,-1024
  31 000c 6301E504 		beq	a0,a4,.L2
  32 0010 37370140 		li	a4,1073819648
  33 0014 630FE500 		beq	a0,a4,.L3
  34 0018 93870780 		addi	a5,a5,-2048
  35 001c 6312F504 		bne	a0,a5,.L6
  62:./../../firmware/GD32VF103_standard_peripheral/Source/gd32vf103_spi.c ****     case SPI0:
  63:./../../firmware/GD32VF103_standard_peripheral/Source/gd32vf103_spi.c ****         /* reset SPI0 */
  64:./../../firmware/GD32VF103_standard_peripheral/Source/gd32vf103_spi.c ****         rcu_periph_reset_enable(RCU_SPI0RST);
  65:./../../firmware/GD32VF103_standard_peripheral/Source/gd32vf103_spi.c ****         rcu_periph_reset_disable(RCU_SPI0RST);
  66:./../../firmware/GD32VF103_standard_peripheral/Source/gd32vf103_spi.c ****         break;
  67:./../../firmware/GD32VF103_standard_peripheral/Source/gd32vf103_spi.c ****     case SPI1:
  68:./../../firmware/GD32VF103_standard_peripheral/Source/gd32vf103_spi.c ****         /* reset SPI1 and I2S1 */
  69:./../../firmware/GD32VF103_standard_peripheral/Source/gd32vf103_spi.c ****         rcu_periph_reset_enable(RCU_SPI1RST);
  36              		.loc 1 69 9 is_stmt 1
  37 0020 1305E040 		li	a0,1038
  38              	.LVL1:
  39 0024 97000000 		call	rcu_periph_reset_enable
  39      E7800000 
  40              	.LVL2:
  70:./../../firmware/GD32VF103_standard_peripheral/Source/gd32vf103_spi.c ****         rcu_periph_reset_disable(RCU_SPI1RST);
  41              		.loc 1 70 9
  42 002c 1305E040 		li	a0,1038
GAS LISTING C:\Users\Karzan\AppData\Local\Temp\ccc8gDRh.s 			page 3


  43 0030 09A8     		j	.L8
  44              	.LVL3:
  45              	.L3:
  64:./../../firmware/GD32VF103_standard_peripheral/Source/gd32vf103_spi.c ****         rcu_periph_reset_disable(RCU_SPI0RST);
  46              		.loc 1 64 9
  47 0032 1305C030 		li	a0,780
  48              	.LVL4:
  49 0036 97000000 		call	rcu_periph_reset_enable
  49      E7800000 
  50              	.LVL5:
  65:./../../firmware/GD32VF103_standard_peripheral/Source/gd32vf103_spi.c ****         break;
  51              		.loc 1 65 9
  52 003e 1305C030 		li	a0,780
  53              	.L8:
  71:./../../firmware/GD32VF103_standard_peripheral/Source/gd32vf103_spi.c ****         break;
  72:./../../firmware/GD32VF103_standard_peripheral/Source/gd32vf103_spi.c ****     case SPI2:
  73:./../../firmware/GD32VF103_standard_peripheral/Source/gd32vf103_spi.c ****         /* reset SPI2 and I2S2 */
  74:./../../firmware/GD32VF103_standard_peripheral/Source/gd32vf103_spi.c ****         rcu_periph_reset_enable(RCU_SPI2RST);
  75:./../../firmware/GD32VF103_standard_peripheral/Source/gd32vf103_spi.c ****         rcu_periph_reset_disable(RCU_SPI2RST);
  76:./../../firmware/GD32VF103_standard_peripheral/Source/gd32vf103_spi.c ****         break;
  77:./../../firmware/GD32VF103_standard_peripheral/Source/gd32vf103_spi.c ****     default :
  78:./../../firmware/GD32VF103_standard_peripheral/Source/gd32vf103_spi.c ****         break;
  79:./../../firmware/GD32VF103_standard_peripheral/Source/gd32vf103_spi.c ****     }
  80:./../../firmware/GD32VF103_standard_peripheral/Source/gd32vf103_spi.c **** }
  54              		.loc 1 80 1 is_stmt 0
  55 0042 B240     		lw	ra,12(sp)
  56              		.cfi_remember_state
  57              		.cfi_restore 1
  58 0044 4101     		addi	sp,sp,16
  59              	.LCFI1:
  60              		.cfi_def_cfa_offset 0
  75:./../../firmware/GD32VF103_standard_peripheral/Source/gd32vf103_spi.c ****         break;
  61              		.loc 1 75 9
  62 0046 17030000 		tail	rcu_periph_reset_disable
  62      67000300 
  63              	.LVL6:
  64              	.L2:
  65              	.LCFI2:
  66              		.cfi_restore_state
  74:./../../firmware/GD32VF103_standard_peripheral/Source/gd32vf103_spi.c ****         rcu_periph_reset_disable(RCU_SPI2RST);
  67              		.loc 1 74 9 is_stmt 1
  68 004e 1305F040 		li	a0,1039
  69              	.LVL7:
  70 0052 97000000 		call	rcu_periph_reset_enable
  70      E7800000 
  71              	.LVL8:
  75:./../../firmware/GD32VF103_standard_peripheral/Source/gd32vf103_spi.c ****         break;
  72              		.loc 1 75 9
  73 005a 1305F040 		li	a0,1039
  74 005e D5B7     		j	.L8
  75              	.LVL9:
  76              	.L6:
  77              		.loc 1 80 1 is_stmt 0
  78 0060 B240     		lw	ra,12(sp)
  79              		.cfi_restore 1
  80 0062 4101     		addi	sp,sp,16
  81              	.LCFI3:
GAS LISTING C:\Users\Karzan\AppData\Local\Temp\ccc8gDRh.s 			page 4


  82              		.cfi_def_cfa_offset 0
  83 0064 8280     		jr	ra
  84              		.cfi_endproc
  85              	.LFE2:
  87              		.section	.text.spi_struct_para_init,"ax",@progbits
  88              		.align	1
  89              		.globl	spi_struct_para_init
  91              	spi_struct_para_init:
  92              	.LFB3:
  81:./../../firmware/GD32VF103_standard_peripheral/Source/gd32vf103_spi.c **** 
  82:./../../firmware/GD32VF103_standard_peripheral/Source/gd32vf103_spi.c **** /*!
  83:./../../firmware/GD32VF103_standard_peripheral/Source/gd32vf103_spi.c ****     \brief      initialize the parameters of SPI struct with the default values
  84:./../../firmware/GD32VF103_standard_peripheral/Source/gd32vf103_spi.c ****     \param[in]  spi_struct: SPI parameter stuct
  85:./../../firmware/GD32VF103_standard_peripheral/Source/gd32vf103_spi.c ****     \param[out] none
  86:./../../firmware/GD32VF103_standard_peripheral/Source/gd32vf103_spi.c ****     \retval     none
  87:./../../firmware/GD32VF103_standard_peripheral/Source/gd32vf103_spi.c **** */
  88:./../../firmware/GD32VF103_standard_peripheral/Source/gd32vf103_spi.c **** void spi_struct_para_init(spi_parameter_struct* spi_struct)
  89:./../../firmware/GD32VF103_standard_peripheral/Source/gd32vf103_spi.c **** {
  93              		.loc 1 89 1 is_stmt 1
  94              		.cfi_startproc
  95              	.LVL10:
  90:./../../firmware/GD32VF103_standard_peripheral/Source/gd32vf103_spi.c ****     /* set the SPI struct with the default values */
  91:./../../firmware/GD32VF103_standard_peripheral/Source/gd32vf103_spi.c ****     spi_struct->device_mode = SPI_SLAVE;
  96              		.loc 1 91 5
  97              		.loc 1 91 29 is_stmt 0
  98 0000 23200500 		sw	zero,0(a0)
  92:./../../firmware/GD32VF103_standard_peripheral/Source/gd32vf103_spi.c ****     spi_struct->trans_mode = SPI_TRANSMODE_FULLDUPLEX;
  99              		.loc 1 92 5 is_stmt 1
 100              		.loc 1 92 28 is_stmt 0
 101 0004 23220500 		sw	zero,4(a0)
  93:./../../firmware/GD32VF103_standard_peripheral/Source/gd32vf103_spi.c ****     spi_struct->frame_size = SPI_FRAMESIZE_8BIT;
 102              		.loc 1 93 5 is_stmt 1
 103              		.loc 1 93 28 is_stmt 0
 104 0008 23240500 		sw	zero,8(a0)
  94:./../../firmware/GD32VF103_standard_peripheral/Source/gd32vf103_spi.c ****     spi_struct->nss = SPI_NSS_HARD;
 105              		.loc 1 94 5 is_stmt 1
 106              		.loc 1 94 21 is_stmt 0
 107 000c 23260500 		sw	zero,12(a0)
  95:./../../firmware/GD32VF103_standard_peripheral/Source/gd32vf103_spi.c ****     spi_struct->clock_polarity_phase = SPI_CK_PL_LOW_PH_1EDGE;
 108              		.loc 1 95 5 is_stmt 1
 109              		.loc 1 95 38 is_stmt 0
 110 0010 232A0500 		sw	zero,20(a0)
  96:./../../firmware/GD32VF103_standard_peripheral/Source/gd32vf103_spi.c ****     spi_struct->prescale = SPI_PSC_2;
 111              		.loc 1 96 5 is_stmt 1
 112              		.loc 1 96 26 is_stmt 0
 113 0014 232C0500 		sw	zero,24(a0)
  97:./../../firmware/GD32VF103_standard_peripheral/Source/gd32vf103_spi.c **** }
 114              		.loc 1 97 1
 115 0018 8280     		ret
 116              		.cfi_endproc
 117              	.LFE3:
 119              		.section	.text.spi_init,"ax",@progbits
 120              		.align	1
 121              		.globl	spi_init
 123              	spi_init:
 124              	.LFB4:
  98:./../../firmware/GD32VF103_standard_peripheral/Source/gd32vf103_spi.c **** 
GAS LISTING C:\Users\Karzan\AppData\Local\Temp\ccc8gDRh.s 			page 5


  99:./../../firmware/GD32VF103_standard_peripheral/Source/gd32vf103_spi.c **** /*!
 100:./../../firmware/GD32VF103_standard_peripheral/Source/gd32vf103_spi.c ****     \brief      initialize SPI parameter
 101:./../../firmware/GD32VF103_standard_peripheral/Source/gd32vf103_spi.c ****     \param[in]  spi_periph: SPIx(x=0,1,2)
 102:./../../firmware/GD32VF103_standard_peripheral/Source/gd32vf103_spi.c ****     \param[in]  spi_struct: SPI parameter initialization stuct members of the structure 
 103:./../../firmware/GD32VF103_standard_peripheral/Source/gd32vf103_spi.c ****                             and the member values are shown as below:
 104:./../../firmware/GD32VF103_standard_peripheral/Source/gd32vf103_spi.c ****                   device_mode: SPI_MASTER, SPI_SLAVE
 105:./../../firmware/GD32VF103_standard_peripheral/Source/gd32vf103_spi.c ****                   trans_mode: SPI_TRANSMODE_FULLDUPLEX, SPI_TRANSMODE_RECEIVEONLY,
 106:./../../firmware/GD32VF103_standard_peripheral/Source/gd32vf103_spi.c ****                               SPI_TRANSMODE_BDRECEIVE, SPI_TRANSMODE_BDTRANSMIT
 107:./../../firmware/GD32VF103_standard_peripheral/Source/gd32vf103_spi.c ****                   frame_size: SPI_FRAMESIZE_16BIT, SPI_FRAMESIZE_8BIT
 108:./../../firmware/GD32VF103_standard_peripheral/Source/gd32vf103_spi.c ****                   nss: SPI_NSS_SOFT, SPI_NSS_HARD
 109:./../../firmware/GD32VF103_standard_peripheral/Source/gd32vf103_spi.c ****                   endian: SPI_ENDIAN_MSB, SPI_ENDIAN_LSB
 110:./../../firmware/GD32VF103_standard_peripheral/Source/gd32vf103_spi.c ****                   clock_polarity_phase: SPI_CK_PL_LOW_PH_1EDGE, SPI_CK_PL_HIGH_PH_1EDGE
 111:./../../firmware/GD32VF103_standard_peripheral/Source/gd32vf103_spi.c ****                                         SPI_CK_PL_LOW_PH_2EDGE, SPI_CK_PL_HIGH_PH_2EDGE
 112:./../../firmware/GD32VF103_standard_peripheral/Source/gd32vf103_spi.c ****                   prescale: SPI_PSC_n (n=2,4,8,16,32,64,128,256)
 113:./../../firmware/GD32VF103_standard_peripheral/Source/gd32vf103_spi.c ****     \param[out] none
 114:./../../firmware/GD32VF103_standard_peripheral/Source/gd32vf103_spi.c ****     \retval     none
 115:./../../firmware/GD32VF103_standard_peripheral/Source/gd32vf103_spi.c **** */
 116:./../../firmware/GD32VF103_standard_peripheral/Source/gd32vf103_spi.c **** void spi_init(uint32_t spi_periph, spi_parameter_struct* spi_struct)
 117:./../../firmware/GD32VF103_standard_peripheral/Source/gd32vf103_spi.c **** {   
 125              		.loc 1 117 1 is_stmt 1
 126              		.cfi_startproc
 127              	.LVL11:
 118:./../../firmware/GD32VF103_standard_peripheral/Source/gd32vf103_spi.c ****     uint32_t reg = 0U;
 128              		.loc 1 118 5
 119:./../../firmware/GD32VF103_standard_peripheral/Source/gd32vf103_spi.c ****     reg = SPI_CTL0(spi_periph);
 129              		.loc 1 119 5
 130              		.loc 1 119 9 is_stmt 0
 131 0000 1C41     		lw	a5,0(a0)
 132              	.LVL12:
 120:./../../firmware/GD32VF103_standard_peripheral/Source/gd32vf103_spi.c ****     reg &= SPI_INIT_MASK;
 133              		.loc 1 120 5 is_stmt 1
 134              		.loc 1 120 9 is_stmt 0
 135 0002 0D67     		li	a4,12288
 136 0004 13070704 		addi	a4,a4,64
 121:./../../firmware/GD32VF103_standard_peripheral/Source/gd32vf103_spi.c **** 
 122:./../../firmware/GD32VF103_standard_peripheral/Source/gd32vf103_spi.c ****     /* select SPI as master or slave */
 123:./../../firmware/GD32VF103_standard_peripheral/Source/gd32vf103_spi.c ****     reg |= spi_struct->device_mode;
 124:./../../firmware/GD32VF103_standard_peripheral/Source/gd32vf103_spi.c ****     /* select SPI transfer mode */
 125:./../../firmware/GD32VF103_standard_peripheral/Source/gd32vf103_spi.c ****     reg |= spi_struct->trans_mode;
 126:./../../firmware/GD32VF103_standard_peripheral/Source/gd32vf103_spi.c ****     /* select SPI frame size */
 127:./../../firmware/GD32VF103_standard_peripheral/Source/gd32vf103_spi.c ****     reg |= spi_struct->frame_size;
 128:./../../firmware/GD32VF103_standard_peripheral/Source/gd32vf103_spi.c ****     /* select SPI NSS use hardware or software */
 129:./../../firmware/GD32VF103_standard_peripheral/Source/gd32vf103_spi.c ****     reg |= spi_struct->nss;
 130:./../../firmware/GD32VF103_standard_peripheral/Source/gd32vf103_spi.c ****     /* select SPI LSB or MSB */
 131:./../../firmware/GD32VF103_standard_peripheral/Source/gd32vf103_spi.c ****     reg |= spi_struct->endian;
 132:./../../firmware/GD32VF103_standard_peripheral/Source/gd32vf103_spi.c ****     /* select SPI polarity and phase */
 133:./../../firmware/GD32VF103_standard_peripheral/Source/gd32vf103_spi.c ****     reg |= spi_struct->clock_polarity_phase;
 134:./../../firmware/GD32VF103_standard_peripheral/Source/gd32vf103_spi.c ****     /* select SPI prescale to adjust transmit speed */
 135:./../../firmware/GD32VF103_standard_peripheral/Source/gd32vf103_spi.c ****     reg |= spi_struct->prescale;
 137              		.loc 1 135 9
 138 0008 D441     		lw	a3,4(a1)
 120:./../../firmware/GD32VF103_standard_peripheral/Source/gd32vf103_spi.c ****     reg &= SPI_INIT_MASK;
 139              		.loc 1 120 9
 140 000a 7D8F     		and	a4,a5,a4
 141              	.LVL13:
 123:./../../firmware/GD32VF103_standard_peripheral/Source/gd32vf103_spi.c ****     /* select SPI transfer mode */
 142              		.loc 1 123 5 is_stmt 1
GAS LISTING C:\Users\Karzan\AppData\Local\Temp\ccc8gDRh.s 			page 6


 125:./../../firmware/GD32VF103_standard_peripheral/Source/gd32vf103_spi.c ****     /* select SPI frame size */
 143              		.loc 1 125 5
 127:./../../firmware/GD32VF103_standard_peripheral/Source/gd32vf103_spi.c ****     /* select SPI NSS use hardware or software */
 144              		.loc 1 127 5
 129:./../../firmware/GD32VF103_standard_peripheral/Source/gd32vf103_spi.c ****     /* select SPI LSB or MSB */
 145              		.loc 1 129 5
 131:./../../firmware/GD32VF103_standard_peripheral/Source/gd32vf103_spi.c ****     /* select SPI polarity and phase */
 146              		.loc 1 131 5
 133:./../../firmware/GD32VF103_standard_peripheral/Source/gd32vf103_spi.c ****     /* select SPI prescale to adjust transmit speed */
 147              		.loc 1 133 5
 148              		.loc 1 135 5
 149              		.loc 1 135 9 is_stmt 0
 150 000c 9C41     		lw	a5,0(a1)
 151 000e D58F     		or	a5,a5,a3
 152 0010 9445     		lw	a3,8(a1)
 153              	.LVL14:
 154 0012 D58F     		or	a5,a5,a3
 155 0014 D445     		lw	a3,12(a1)
 156 0016 D58F     		or	a5,a5,a3
 157 0018 9449     		lw	a3,16(a1)
 158 001a D58F     		or	a5,a5,a3
 159 001c D449     		lw	a3,20(a1)
 160 001e D58F     		or	a5,a5,a3
 161 0020 944D     		lw	a3,24(a1)
 162 0022 D58F     		or	a5,a5,a3
 163 0024 D98F     		or	a5,a5,a4
 164              	.LVL15:
 136:./../../firmware/GD32VF103_standard_peripheral/Source/gd32vf103_spi.c **** 
 137:./../../firmware/GD32VF103_standard_peripheral/Source/gd32vf103_spi.c ****     /* write to SPI_CTL0 register */
 138:./../../firmware/GD32VF103_standard_peripheral/Source/gd32vf103_spi.c ****     SPI_CTL0(spi_periph) = (uint32_t)reg;
 165              		.loc 1 138 5 is_stmt 1
 166              		.loc 1 138 26 is_stmt 0
 167 0026 1CC1     		sw	a5,0(a0)
 139:./../../firmware/GD32VF103_standard_peripheral/Source/gd32vf103_spi.c **** 
 140:./../../firmware/GD32VF103_standard_peripheral/Source/gd32vf103_spi.c ****     SPI_I2SCTL(spi_periph) &= (uint32_t)(~SPI_I2SCTL_I2SSEL);
 168              		.loc 1 140 5 is_stmt 1
 169              		.loc 1 140 28 is_stmt 0
 170 0028 5C4D     		lw	a5,28(a0)
 171              	.LVL16:
 172 002a 7D77     		li	a4,-4096
 173 002c 1307F77F 		addi	a4,a4,2047
 174 0030 F98F     		and	a5,a5,a4
 175 0032 5CCD     		sw	a5,28(a0)
 176              	.LVL17:
 141:./../../firmware/GD32VF103_standard_peripheral/Source/gd32vf103_spi.c **** }
 177              		.loc 1 141 1
 178 0034 8280     		ret
 179              		.cfi_endproc
 180              	.LFE4:
 182              		.section	.text.spi_enable,"ax",@progbits
 183              		.align	1
 184              		.globl	spi_enable
 186              	spi_enable:
 187              	.LFB5:
 142:./../../firmware/GD32VF103_standard_peripheral/Source/gd32vf103_spi.c **** 
 143:./../../firmware/GD32VF103_standard_peripheral/Source/gd32vf103_spi.c **** /*!
 144:./../../firmware/GD32VF103_standard_peripheral/Source/gd32vf103_spi.c ****     \brief      enable SPI
GAS LISTING C:\Users\Karzan\AppData\Local\Temp\ccc8gDRh.s 			page 7


 145:./../../firmware/GD32VF103_standard_peripheral/Source/gd32vf103_spi.c ****     \param[in]  spi_periph: SPIx(x=0,1,2)
 146:./../../firmware/GD32VF103_standard_peripheral/Source/gd32vf103_spi.c ****     \param[out] none
 147:./../../firmware/GD32VF103_standard_peripheral/Source/gd32vf103_spi.c ****     \retval     none
 148:./../../firmware/GD32VF103_standard_peripheral/Source/gd32vf103_spi.c **** */
 149:./../../firmware/GD32VF103_standard_peripheral/Source/gd32vf103_spi.c **** void spi_enable(uint32_t spi_periph)
 150:./../../firmware/GD32VF103_standard_peripheral/Source/gd32vf103_spi.c **** {
 188              		.loc 1 150 1 is_stmt 1
 189              		.cfi_startproc
 190              	.LVL18:
 151:./../../firmware/GD32VF103_standard_peripheral/Source/gd32vf103_spi.c ****     SPI_CTL0(spi_periph) |= (uint32_t)SPI_CTL0_SPIEN;
 191              		.loc 1 151 5
 192              		.loc 1 151 26 is_stmt 0
 193 0000 1C41     		lw	a5,0(a0)
 194 0002 93E70704 		ori	a5,a5,64
 195 0006 1CC1     		sw	a5,0(a0)
 152:./../../firmware/GD32VF103_standard_peripheral/Source/gd32vf103_spi.c **** }
 196              		.loc 1 152 1
 197 0008 8280     		ret
 198              		.cfi_endproc
 199              	.LFE5:
 201              		.section	.text.spi_disable,"ax",@progbits
 202              		.align	1
 203              		.globl	spi_disable
 205              	spi_disable:
 206              	.LFB6:
 153:./../../firmware/GD32VF103_standard_peripheral/Source/gd32vf103_spi.c **** 
 154:./../../firmware/GD32VF103_standard_peripheral/Source/gd32vf103_spi.c **** /*!
 155:./../../firmware/GD32VF103_standard_peripheral/Source/gd32vf103_spi.c ****     \brief      disable SPI 
 156:./../../firmware/GD32VF103_standard_peripheral/Source/gd32vf103_spi.c ****     \param[in]  spi_periph: SPIx(x=0,1,2)
 157:./../../firmware/GD32VF103_standard_peripheral/Source/gd32vf103_spi.c ****     \param[out] none
 158:./../../firmware/GD32VF103_standard_peripheral/Source/gd32vf103_spi.c ****     \retval     none
 159:./../../firmware/GD32VF103_standard_peripheral/Source/gd32vf103_spi.c **** */
 160:./../../firmware/GD32VF103_standard_peripheral/Source/gd32vf103_spi.c **** void spi_disable(uint32_t spi_periph)
 161:./../../firmware/GD32VF103_standard_peripheral/Source/gd32vf103_spi.c **** {
 207              		.loc 1 161 1 is_stmt 1
 208              		.cfi_startproc
 209              	.LVL19:
 162:./../../firmware/GD32VF103_standard_peripheral/Source/gd32vf103_spi.c ****     SPI_CTL0(spi_periph) &= (uint32_t)(~SPI_CTL0_SPIEN);
 210              		.loc 1 162 5
 211              		.loc 1 162 26 is_stmt 0
 212 0000 1C41     		lw	a5,0(a0)
 213 0002 93F7F7FB 		andi	a5,a5,-65
 214 0006 1CC1     		sw	a5,0(a0)
 163:./../../firmware/GD32VF103_standard_peripheral/Source/gd32vf103_spi.c **** }
 215              		.loc 1 163 1
 216 0008 8280     		ret
 217              		.cfi_endproc
 218              	.LFE6:
 220              		.section	.text.i2s_init,"ax",@progbits
 221              		.align	1
 222              		.globl	i2s_init
 224              	i2s_init:
 225              	.LFB7:
 164:./../../firmware/GD32VF103_standard_peripheral/Source/gd32vf103_spi.c **** 
 165:./../../firmware/GD32VF103_standard_peripheral/Source/gd32vf103_spi.c **** /*!
 166:./../../firmware/GD32VF103_standard_peripheral/Source/gd32vf103_spi.c ****     \brief      initialize I2S parameter 
 167:./../../firmware/GD32VF103_standard_peripheral/Source/gd32vf103_spi.c ****     \param[in]  spi_periph: SPIx(x=1,2)
GAS LISTING C:\Users\Karzan\AppData\Local\Temp\ccc8gDRh.s 			page 8


 168:./../../firmware/GD32VF103_standard_peripheral/Source/gd32vf103_spi.c ****     \param[in]  mode: I2S operation mode
 169:./../../firmware/GD32VF103_standard_peripheral/Source/gd32vf103_spi.c ****                 only one parameter can be selected which is shown as below:
 170:./../../firmware/GD32VF103_standard_peripheral/Source/gd32vf103_spi.c ****       \arg        I2S_MODE_SLAVETX: I2S slave transmit mode
 171:./../../firmware/GD32VF103_standard_peripheral/Source/gd32vf103_spi.c ****       \arg        I2S_MODE_SLAVERX: I2S slave receive mode
 172:./../../firmware/GD32VF103_standard_peripheral/Source/gd32vf103_spi.c ****       \arg        I2S_MODE_MASTERTX: I2S master transmit mode
 173:./../../firmware/GD32VF103_standard_peripheral/Source/gd32vf103_spi.c ****       \arg        I2S_MODE_MASTERRX: I2S master receive mode
 174:./../../firmware/GD32VF103_standard_peripheral/Source/gd32vf103_spi.c ****     \param[in]  standard: I2S standard
 175:./../../firmware/GD32VF103_standard_peripheral/Source/gd32vf103_spi.c ****                 only one parameter can be selected which is shown as below:
 176:./../../firmware/GD32VF103_standard_peripheral/Source/gd32vf103_spi.c ****       \arg        I2S_STD_PHILLIPS: I2S phillips standard
 177:./../../firmware/GD32VF103_standard_peripheral/Source/gd32vf103_spi.c ****       \arg        I2S_STD_MSB: I2S MSB standard
 178:./../../firmware/GD32VF103_standard_peripheral/Source/gd32vf103_spi.c ****       \arg        I2S_STD_LSB: I2S LSB standard
 179:./../../firmware/GD32VF103_standard_peripheral/Source/gd32vf103_spi.c ****       \arg        I2S_STD_PCMSHORT: I2S PCM short standard
 180:./../../firmware/GD32VF103_standard_peripheral/Source/gd32vf103_spi.c ****       \arg        I2S_STD_PCMLONG: I2S PCM long standard
 181:./../../firmware/GD32VF103_standard_peripheral/Source/gd32vf103_spi.c ****     \param[in]  ckpl: I2S idle state clock polarity
 182:./../../firmware/GD32VF103_standard_peripheral/Source/gd32vf103_spi.c ****                 only one parameter can be selected which is shown as below:
 183:./../../firmware/GD32VF103_standard_peripheral/Source/gd32vf103_spi.c ****       \arg        I2S_CKPL_LOW: I2S clock polarity low level
 184:./../../firmware/GD32VF103_standard_peripheral/Source/gd32vf103_spi.c ****       \arg        I2S_CKPL_HIGH: I2S clock polarity high level
 185:./../../firmware/GD32VF103_standard_peripheral/Source/gd32vf103_spi.c ****     \param[out] none
 186:./../../firmware/GD32VF103_standard_peripheral/Source/gd32vf103_spi.c ****     \retval     none
 187:./../../firmware/GD32VF103_standard_peripheral/Source/gd32vf103_spi.c **** */
 188:./../../firmware/GD32VF103_standard_peripheral/Source/gd32vf103_spi.c **** void i2s_init(uint32_t spi_periph, uint32_t mode, uint32_t standard, uint32_t ckpl)
 189:./../../firmware/GD32VF103_standard_peripheral/Source/gd32vf103_spi.c **** {
 226              		.loc 1 189 1 is_stmt 1
 227              		.cfi_startproc
 228              	.LVL20:
 190:./../../firmware/GD32VF103_standard_peripheral/Source/gd32vf103_spi.c ****     uint32_t reg = 0U;
 229              		.loc 1 190 5
 191:./../../firmware/GD32VF103_standard_peripheral/Source/gd32vf103_spi.c ****     reg = SPI_I2SCTL(spi_periph);
 230              		.loc 1 191 5
 231              		.loc 1 191 9 is_stmt 0
 232 0000 5C4D     		lw	a5,28(a0)
 233              	.LVL21:
 192:./../../firmware/GD32VF103_standard_peripheral/Source/gd32vf103_spi.c ****     reg &= I2S_INIT_MASK;
 234              		.loc 1 192 5 is_stmt 1
 193:./../../firmware/GD32VF103_standard_peripheral/Source/gd32vf103_spi.c **** 
 194:./../../firmware/GD32VF103_standard_peripheral/Source/gd32vf103_spi.c ****     /* enable I2S mode */
 195:./../../firmware/GD32VF103_standard_peripheral/Source/gd32vf103_spi.c ****     reg |= (uint32_t)SPI_I2SCTL_I2SSEL; 
 235              		.loc 1 195 5
 196:./../../firmware/GD32VF103_standard_peripheral/Source/gd32vf103_spi.c ****     /* select I2S mode */
 197:./../../firmware/GD32VF103_standard_peripheral/Source/gd32vf103_spi.c ****     reg |= (uint32_t)mode;
 236              		.loc 1 197 5
 198:./../../firmware/GD32VF103_standard_peripheral/Source/gd32vf103_spi.c ****     /* select I2S standard */
 199:./../../firmware/GD32VF103_standard_peripheral/Source/gd32vf103_spi.c ****     reg |= (uint32_t)standard;
 237              		.loc 1 199 5
 192:./../../firmware/GD32VF103_standard_peripheral/Source/gd32vf103_spi.c **** 
 238              		.loc 1 192 9 is_stmt 0
 239 0002 3D67     		li	a4,61440
 240 0004 13077704 		addi	a4,a4,71
 241 0008 F98F     		and	a5,a5,a4
 242              	.LVL22:
 243 000a DD8E     		or	a3,a5,a3
 244              	.LVL23:
 245 000c D18E     		or	a3,a3,a2
 246 000e CD8E     		or	a3,a3,a1
 200:./../../firmware/GD32VF103_standard_peripheral/Source/gd32vf103_spi.c ****     /* select I2S polarity */
 201:./../../firmware/GD32VF103_standard_peripheral/Source/gd32vf103_spi.c ****     reg |= (uint32_t)ckpl;
 247              		.loc 1 201 5 is_stmt 1
GAS LISTING C:\Users\Karzan\AppData\Local\Temp\ccc8gDRh.s 			page 9


 248              		.loc 1 201 9 is_stmt 0
 249 0010 8565     		li	a1,4096
 250              	.LVL24:
 251 0012 93850580 		addi	a1,a1,-2048
 252 0016 CD8E     		or	a3,a3,a1
 253              	.LVL25:
 202:./../../firmware/GD32VF103_standard_peripheral/Source/gd32vf103_spi.c **** 
 203:./../../firmware/GD32VF103_standard_peripheral/Source/gd32vf103_spi.c ****     /* write to SPI_I2SCTL register */
 204:./../../firmware/GD32VF103_standard_peripheral/Source/gd32vf103_spi.c ****     SPI_I2SCTL(spi_periph) = (uint32_t)reg;
 254              		.loc 1 204 5 is_stmt 1
 255              		.loc 1 204 28 is_stmt 0
 256 0018 54CD     		sw	a3,28(a0)
 205:./../../firmware/GD32VF103_standard_peripheral/Source/gd32vf103_spi.c **** }
 257              		.loc 1 205 1
 258 001a 8280     		ret
 259              		.cfi_endproc
 260              	.LFE7:
 262              		.section	.text.i2s_psc_config,"ax",@progbits
 263              		.align	1
 264              		.globl	i2s_psc_config
 266              	i2s_psc_config:
 267              	.LFB8:
 206:./../../firmware/GD32VF103_standard_peripheral/Source/gd32vf103_spi.c **** 
 207:./../../firmware/GD32VF103_standard_peripheral/Source/gd32vf103_spi.c **** /*!
 208:./../../firmware/GD32VF103_standard_peripheral/Source/gd32vf103_spi.c ****     \brief      configure I2S prescaler 
 209:./../../firmware/GD32VF103_standard_peripheral/Source/gd32vf103_spi.c ****     \param[in]  spi_periph: SPIx(x=1,2)
 210:./../../firmware/GD32VF103_standard_peripheral/Source/gd32vf103_spi.c ****     \param[in]  audiosample: I2S audio sample rate
 211:./../../firmware/GD32VF103_standard_peripheral/Source/gd32vf103_spi.c ****                 only one parameter can be selected which is shown as below:
 212:./../../firmware/GD32VF103_standard_peripheral/Source/gd32vf103_spi.c ****       \arg        I2S_AUDIOSAMPLE_8K: audio sample rate is 8KHz
 213:./../../firmware/GD32VF103_standard_peripheral/Source/gd32vf103_spi.c ****       \arg        I2S_AUDIOSAMPLE_11K: audio sample rate is 11KHz
 214:./../../firmware/GD32VF103_standard_peripheral/Source/gd32vf103_spi.c ****       \arg        I2S_AUDIOSAMPLE_16K: audio sample rate is 16KHz
 215:./../../firmware/GD32VF103_standard_peripheral/Source/gd32vf103_spi.c ****       \arg        I2S_AUDIOSAMPLE_22K: audio sample rate is 22KHz
 216:./../../firmware/GD32VF103_standard_peripheral/Source/gd32vf103_spi.c ****       \arg        I2S_AUDIOSAMPLE_32K: audio sample rate is 32KHz
 217:./../../firmware/GD32VF103_standard_peripheral/Source/gd32vf103_spi.c ****       \arg        I2S_AUDIOSAMPLE_44K: audio sample rate is 44KHz
 218:./../../firmware/GD32VF103_standard_peripheral/Source/gd32vf103_spi.c ****       \arg        I2S_AUDIOSAMPLE_48K: audio sample rate is 48KHz
 219:./../../firmware/GD32VF103_standard_peripheral/Source/gd32vf103_spi.c ****       \arg        I2S_AUDIOSAMPLE_96K: audio sample rate is 96KHz
 220:./../../firmware/GD32VF103_standard_peripheral/Source/gd32vf103_spi.c ****       \arg        I2S_AUDIOSAMPLE_192K: audio sample rate is 192KHz
 221:./../../firmware/GD32VF103_standard_peripheral/Source/gd32vf103_spi.c ****     \param[in]  frameformat: I2S data length and channel length
 222:./../../firmware/GD32VF103_standard_peripheral/Source/gd32vf103_spi.c ****                 only one parameter can be selected which is shown as below:
 223:./../../firmware/GD32VF103_standard_peripheral/Source/gd32vf103_spi.c ****       \arg        I2S_FRAMEFORMAT_DT16B_CH16B: I2S data length is 16 bit and channel length is 16 b
 224:./../../firmware/GD32VF103_standard_peripheral/Source/gd32vf103_spi.c ****       \arg        I2S_FRAMEFORMAT_DT16B_CH32B: I2S data length is 16 bit and channel length is 32 b
 225:./../../firmware/GD32VF103_standard_peripheral/Source/gd32vf103_spi.c ****       \arg        I2S_FRAMEFORMAT_DT24B_CH32B: I2S data length is 24 bit and channel length is 32 b
 226:./../../firmware/GD32VF103_standard_peripheral/Source/gd32vf103_spi.c ****       \arg        I2S_FRAMEFORMAT_DT32B_CH32B: I2S data length is 32 bit and channel length is 32 b
 227:./../../firmware/GD32VF103_standard_peripheral/Source/gd32vf103_spi.c ****     \param[in]  mckout: I2S master clock output
 228:./../../firmware/GD32VF103_standard_peripheral/Source/gd32vf103_spi.c ****                 only one parameter can be selected which is shown as below:
 229:./../../firmware/GD32VF103_standard_peripheral/Source/gd32vf103_spi.c ****       \arg        I2S_MCKOUT_ENABLE: I2S master clock output enable
 230:./../../firmware/GD32VF103_standard_peripheral/Source/gd32vf103_spi.c ****       \arg        I2S_MCKOUT_DISABLE: I2S master clock output disable
 231:./../../firmware/GD32VF103_standard_peripheral/Source/gd32vf103_spi.c ****     \param[out] none
 232:./../../firmware/GD32VF103_standard_peripheral/Source/gd32vf103_spi.c ****     \retval     none
 233:./../../firmware/GD32VF103_standard_peripheral/Source/gd32vf103_spi.c **** */
 234:./../../firmware/GD32VF103_standard_peripheral/Source/gd32vf103_spi.c **** void i2s_psc_config(uint32_t spi_periph, uint32_t audiosample, uint32_t frameformat, uint32_t mckou
 235:./../../firmware/GD32VF103_standard_peripheral/Source/gd32vf103_spi.c **** {
 268              		.loc 1 235 1 is_stmt 1
 269              		.cfi_startproc
 270              	.LVL26:
 236:./../../firmware/GD32VF103_standard_peripheral/Source/gd32vf103_spi.c ****     uint32_t i2sdiv = 2U, i2sof = 0U;
 271              		.loc 1 236 5
GAS LISTING C:\Users\Karzan\AppData\Local\Temp\ccc8gDRh.s 			page 10


 237:./../../firmware/GD32VF103_standard_peripheral/Source/gd32vf103_spi.c ****     uint32_t clks = 0U;
 272              		.loc 1 237 5
 238:./../../firmware/GD32VF103_standard_peripheral/Source/gd32vf103_spi.c ****     uint32_t i2sclock = 0U;
 273              		.loc 1 238 5
 239:./../../firmware/GD32VF103_standard_peripheral/Source/gd32vf103_spi.c **** 
 240:./../../firmware/GD32VF103_standard_peripheral/Source/gd32vf103_spi.c ****     /* deinit SPI_I2SPSC register */
 241:./../../firmware/GD32VF103_standard_peripheral/Source/gd32vf103_spi.c ****     SPI_I2SPSC(spi_periph) = SPI_I2SPSC_DEFAULT_VALUE;
 274              		.loc 1 241 5
 235:./../../firmware/GD32VF103_standard_peripheral/Source/gd32vf103_spi.c ****     uint32_t i2sdiv = 2U, i2sof = 0U;
 275              		.loc 1 235 1 is_stmt 0
 276 0000 0111     		addi	sp,sp,-32
 277              	.LCFI4:
 278              		.cfi_def_cfa_offset 32
 279 0002 22CC     		sw	s0,24(sp)
 280 0004 26CA     		sw	s1,20(sp)
 281 0006 06CE     		sw	ra,28(sp)
 282              		.cfi_offset 8, -8
 283              		.cfi_offset 9, -12
 284              		.cfi_offset 1, -4
 285              		.loc 1 241 28
 286 0008 8947     		li	a5,2
 242:./../../firmware/GD32VF103_standard_peripheral/Source/gd32vf103_spi.c **** 
 243:./../../firmware/GD32VF103_standard_peripheral/Source/gd32vf103_spi.c ****     /* get the I2S clock source */
 244:./../../firmware/GD32VF103_standard_peripheral/Source/gd32vf103_spi.c ****     if(SPI1 == ((uint32_t)spi_periph)){
 287              		.loc 1 244 7
 288 000a 37470040 		li	a4,1073758208
 241:./../../firmware/GD32VF103_standard_peripheral/Source/gd32vf103_spi.c **** 
 289              		.loc 1 241 28
 290 000e 1CD1     		sw	a5,32(a0)
 291              		.loc 1 244 5 is_stmt 1
 292              		.loc 1 244 7 is_stmt 0
 293 0010 13070780 		addi	a4,a4,-2048
 235:./../../firmware/GD32VF103_standard_peripheral/Source/gd32vf103_spi.c ****     uint32_t i2sdiv = 2U, i2sof = 0U;
 294              		.loc 1 235 1
 295 0014 2E84     		mv	s0,a1
 296 0016 AA84     		mv	s1,a0
 245:./../../firmware/GD32VF103_standard_peripheral/Source/gd32vf103_spi.c ****         /* I2S1 clock source selection */
 246:./../../firmware/GD32VF103_standard_peripheral/Source/gd32vf103_spi.c ****         clks = I2S1_CLOCK_SEL;
 247:./../../firmware/GD32VF103_standard_peripheral/Source/gd32vf103_spi.c ****     }else{
 248:./../../firmware/GD32VF103_standard_peripheral/Source/gd32vf103_spi.c ****         /* I2S2 clock source selection */
 249:./../../firmware/GD32VF103_standard_peripheral/Source/gd32vf103_spi.c ****         clks = I2S2_CLOCK_SEL;
 297              		.loc 1 249 14
 298 0018 B7050400 		li	a1,262144
 299              	.LVL27:
 244:./../../firmware/GD32VF103_standard_peripheral/Source/gd32vf103_spi.c ****         /* I2S1 clock source selection */
 300              		.loc 1 244 7
 301 001c 6314E500 		bne	a0,a4,.L15
 302 0020 B7050200 		li	a1,131072
 303              	.L15:
 304              	.LVL28:
 250:./../../firmware/GD32VF103_standard_peripheral/Source/gd32vf103_spi.c ****     }
 251:./../../firmware/GD32VF103_standard_peripheral/Source/gd32vf103_spi.c ****     
 252:./../../firmware/GD32VF103_standard_peripheral/Source/gd32vf103_spi.c ****     if(0U != (RCU_CFG1 & clks)){
 305              		.loc 1 252 5 is_stmt 1
 306              		.loc 1 252 15 is_stmt 0
 307 0024 37170240 		li	a4,1073876992
 308 0028 5C57     		lw	a5,44(a4)
GAS LISTING C:\Users\Karzan\AppData\Local\Temp\ccc8gDRh.s 			page 11


 309              		.loc 1 252 24
 310 002a ED8F     		and	a5,a5,a1
 311              		.loc 1 252 7
 312 002c C1CB     		beq	a5,zero,.L16
 253:./../../firmware/GD32VF103_standard_peripheral/Source/gd32vf103_spi.c ****         /* get RCU PLL2 clock multiplication factor */
 254:./../../firmware/GD32VF103_standard_peripheral/Source/gd32vf103_spi.c ****         clks = (uint32_t)((RCU_CFG1 & I2S_CLOCK_MUL_MASK) >> RCU_CFG1_PLL2MF_OFFSET);
 313              		.loc 1 254 9 is_stmt 1
 314              		.loc 1 254 28 is_stmt 0
 315 002e 4857     		lw	a0,44(a4)
 316              	.LVL29:
 255:./../../firmware/GD32VF103_standard_peripheral/Source/gd32vf103_spi.c ****         
 256:./../../firmware/GD32VF103_standard_peripheral/Source/gd32vf103_spi.c ****         if((clks > 5U) && (clks < 15U)){
 317              		.loc 1 256 11
 318 0030 2147     		li	a4,8
 254:./../../firmware/GD32VF103_standard_peripheral/Source/gd32vf103_spi.c ****         
 319              		.loc 1 254 16
 320 0032 3181     		srli	a0,a0,12
 254:./../../firmware/GD32VF103_standard_peripheral/Source/gd32vf103_spi.c ****         
 321              		.loc 1 254 14
 322 0034 9377F500 		andi	a5,a0,15
 323              	.LVL30:
 324              		.loc 1 256 9 is_stmt 1
 325              		.loc 1 256 24 is_stmt 0
 326 0038 9385A7FF 		addi	a1,a5,-6
 327              		.loc 1 256 11
 328 003c 636BB706 		bgtu	a1,a4,.L17
 257:./../../firmware/GD32VF103_standard_peripheral/Source/gd32vf103_spi.c ****             /* multiplier is between 8 and 16 */
 258:./../../firmware/GD32VF103_standard_peripheral/Source/gd32vf103_spi.c ****             clks += 2U;
 329              		.loc 1 258 13 is_stmt 1
 330              		.loc 1 258 18 is_stmt 0
 331 0040 8907     		addi	a5,a5,2
 332              	.LVL31:
 333              	.L18:
 259:./../../firmware/GD32VF103_standard_peripheral/Source/gd32vf103_spi.c ****         }else{
 260:./../../firmware/GD32VF103_standard_peripheral/Source/gd32vf103_spi.c ****             if(15U == clks){
 261:./../../firmware/GD32VF103_standard_peripheral/Source/gd32vf103_spi.c ****                 /* multiplier is 20 */
 262:./../../firmware/GD32VF103_standard_peripheral/Source/gd32vf103_spi.c ****                 clks = 20U;
 263:./../../firmware/GD32VF103_standard_peripheral/Source/gd32vf103_spi.c ****             }
 264:./../../firmware/GD32VF103_standard_peripheral/Source/gd32vf103_spi.c ****         }
 265:./../../firmware/GD32VF103_standard_peripheral/Source/gd32vf103_spi.c **** 
 266:./../../firmware/GD32VF103_standard_peripheral/Source/gd32vf103_spi.c ****         /* get the PREDV1 value */
 267:./../../firmware/GD32VF103_standard_peripheral/Source/gd32vf103_spi.c ****         i2sclock = (uint32_t)(((RCU_CFG1 & I2S_CLOCK_DIV_MASK) >>  RCU_CFG1_PREDV1_OFFSET) + 1U);
 334              		.loc 1 267 9 is_stmt 1
 335              		.loc 1 267 33 is_stmt 0
 336 0042 37170240 		li	a4,1073876992
 337 0046 4857     		lw	a0,44(a4)
 338              	.LVL32:
 268:./../../firmware/GD32VF103_standard_peripheral/Source/gd32vf103_spi.c ****         /* calculate I2S clock based on PLL2 and PREDV1 */
 269:./../../firmware/GD32VF103_standard_peripheral/Source/gd32vf103_spi.c ****         i2sclock = (uint32_t)((HXTAL_VALUE / i2sclock) * clks * 2U);
 339              		.loc 1 269 9 is_stmt 1
 267:./../../firmware/GD32VF103_standard_peripheral/Source/gd32vf103_spi.c ****         /* calculate I2S clock based on PLL2 and PREDV1 */
 340              		.loc 1 267 64 is_stmt 0
 341 0048 1181     		srli	a0,a0,4
 342              	.LVL33:
 343 004a 3D89     		andi	a0,a0,15
 267:./../../firmware/GD32VF103_standard_peripheral/Source/gd32vf103_spi.c ****         /* calculate I2S clock based on PLL2 and PREDV1 */
 344              		.loc 1 267 18
GAS LISTING C:\Users\Karzan\AppData\Local\Temp\ccc8gDRh.s 			page 12


 345 004c 13071500 		addi	a4,a0,1
 346              	.LVL34:
 347              		.loc 1 269 44
 348 0050 37157A00 		li	a0,7999488
 349 0054 13050520 		addi	a0,a0,512
 350 0058 3355E502 		divu	a0,a0,a4
 351 005c 3305F502 		mul	a0,a0,a5
 352              		.loc 1 269 18
 353 0060 0605     		slli	a0,a0,1
 354              	.LVL35:
 355              	.L19:
 270:./../../firmware/GD32VF103_standard_peripheral/Source/gd32vf103_spi.c ****     }else{
 271:./../../firmware/GD32VF103_standard_peripheral/Source/gd32vf103_spi.c ****         /* get system clock */
 272:./../../firmware/GD32VF103_standard_peripheral/Source/gd32vf103_spi.c ****         i2sclock = rcu_clock_freq_get(CK_SYS);
 273:./../../firmware/GD32VF103_standard_peripheral/Source/gd32vf103_spi.c ****     }
 274:./../../firmware/GD32VF103_standard_peripheral/Source/gd32vf103_spi.c ****     
 275:./../../firmware/GD32VF103_standard_peripheral/Source/gd32vf103_spi.c ****     /* config the prescaler depending on the mclk output state, the frame format and audio sample r
 276:./../../firmware/GD32VF103_standard_peripheral/Source/gd32vf103_spi.c ****     if(I2S_MCKOUT_ENABLE == mckout){
 356              		.loc 1 276 5 is_stmt 1
 357              		.loc 1 276 7 is_stmt 0
 358 0062 93070020 		li	a5,512
 359 0066 6395F606 		bne	a3,a5,.L20
 277:./../../firmware/GD32VF103_standard_peripheral/Source/gd32vf103_spi.c ****         clks = (uint32_t)(((i2sclock / 256U) * 10U) / audiosample);
 360              		.loc 1 277 9 is_stmt 1
 361              		.loc 1 277 38 is_stmt 0
 362 006a 2181     		srli	a0,a0,8
 363              	.LVL36:
 364              	.L28:
 278:./../../firmware/GD32VF103_standard_peripheral/Source/gd32vf103_spi.c ****     }else{
 279:./../../firmware/GD32VF103_standard_peripheral/Source/gd32vf103_spi.c ****         if(I2S_FRAMEFORMAT_DT16B_CH16B == frameformat){
 280:./../../firmware/GD32VF103_standard_peripheral/Source/gd32vf103_spi.c ****             clks = (uint32_t)(((i2sclock / 32U) *10U ) / audiosample);
 281:./../../firmware/GD32VF103_standard_peripheral/Source/gd32vf103_spi.c ****         }else{
 282:./../../firmware/GD32VF103_standard_peripheral/Source/gd32vf103_spi.c ****             clks = (uint32_t)(((i2sclock / 64U) *10U ) / audiosample);
 365              		.loc 1 282 49
 366 006c A945     		li	a1,10
 367 006e 3305B502 		mul	a0,a0,a1
 283:./../../firmware/GD32VF103_standard_peripheral/Source/gd32vf103_spi.c ****         }
 284:./../../firmware/GD32VF103_standard_peripheral/Source/gd32vf103_spi.c ****     }
 285:./../../firmware/GD32VF103_standard_peripheral/Source/gd32vf103_spi.c ****     
 286:./../../firmware/GD32VF103_standard_peripheral/Source/gd32vf103_spi.c ****     /* remove the floating point */
 287:./../../firmware/GD32VF103_standard_peripheral/Source/gd32vf103_spi.c ****     clks = (clks + 5U) / 10U;
 288:./../../firmware/GD32VF103_standard_peripheral/Source/gd32vf103_spi.c ****     i2sof  = (clks & 0x00000001U);
 289:./../../firmware/GD32VF103_standard_peripheral/Source/gd32vf103_spi.c ****     i2sdiv = ((clks - i2sof) / 2U);
 290:./../../firmware/GD32VF103_standard_peripheral/Source/gd32vf103_spi.c ****     i2sof  = (i2sof << 8U);
 291:./../../firmware/GD32VF103_standard_peripheral/Source/gd32vf103_spi.c **** 
 292:./../../firmware/GD32VF103_standard_peripheral/Source/gd32vf103_spi.c ****     /* set the default values */
 293:./../../firmware/GD32VF103_standard_peripheral/Source/gd32vf103_spi.c ****     if((i2sdiv < 2U) || (i2sdiv > 255U)){
 368              		.loc 1 293 7
 369 0072 1307D00F 		li	a4,253
 282:./../../firmware/GD32VF103_standard_peripheral/Source/gd32vf103_spi.c ****         }
 370              		.loc 1 282 18
 371 0076 33558502 		divu	a0,a0,s0
 372              	.LVL37:
 287:./../../firmware/GD32VF103_standard_peripheral/Source/gd32vf103_spi.c ****     i2sof  = (clks & 0x00000001U);
 373              		.loc 1 287 5 is_stmt 1
 287:./../../firmware/GD32VF103_standard_peripheral/Source/gd32vf103_spi.c ****     i2sof  = (clks & 0x00000001U);
 374              		.loc 1 287 10 is_stmt 0
GAS LISTING C:\Users\Karzan\AppData\Local\Temp\ccc8gDRh.s 			page 13


 375 007a 2944     		li	s0,10
 376              	.LVL38:
 287:./../../firmware/GD32VF103_standard_peripheral/Source/gd32vf103_spi.c ****     i2sof  = (clks & 0x00000001U);
 377              		.loc 1 287 18
 378 007c 1505     		addi	a0,a0,5
 379              	.LVL39:
 287:./../../firmware/GD32VF103_standard_peripheral/Source/gd32vf103_spi.c ****     i2sof  = (clks & 0x00000001U);
 380              		.loc 1 287 10
 381 007e 33558502 		divu	a0,a0,s0
 382              	.LVL40:
 288:./../../firmware/GD32VF103_standard_peripheral/Source/gd32vf103_spi.c ****     i2sdiv = ((clks - i2sof) / 2U);
 383              		.loc 1 288 5 is_stmt 1
 289:./../../firmware/GD32VF103_standard_peripheral/Source/gd32vf103_spi.c ****     i2sof  = (i2sof << 8U);
 384              		.loc 1 289 5
 289:./../../firmware/GD32VF103_standard_peripheral/Source/gd32vf103_spi.c ****     i2sof  = (i2sof << 8U);
 385              		.loc 1 289 21 is_stmt 0
 386 0082 93771500 		andi	a5,a0,1
 387              	.LVL41:
 289:./../../firmware/GD32VF103_standard_peripheral/Source/gd32vf103_spi.c ****     i2sof  = (i2sof << 8U);
 388              		.loc 1 289 12
 389 0086 0581     		srli	a0,a0,1
 390              	.LVL42:
 290:./../../firmware/GD32VF103_standard_peripheral/Source/gd32vf103_spi.c **** 
 391              		.loc 1 290 5 is_stmt 1
 392              		.loc 1 293 5
 393              		.loc 1 293 22 is_stmt 0
 394 0088 9305E5FF 		addi	a1,a0,-2
 290:./../../firmware/GD32VF103_standard_peripheral/Source/gd32vf103_spi.c **** 
 395              		.loc 1 290 12
 396 008c A207     		slli	a5,a5,8
 397              	.LVL43:
 398              		.loc 1 293 7
 399 008e 6374B700 		bleu	a1,a4,.L23
 294:./../../firmware/GD32VF103_standard_peripheral/Source/gd32vf103_spi.c ****         i2sdiv = 2U;
 295:./../../firmware/GD32VF103_standard_peripheral/Source/gd32vf103_spi.c ****         i2sof = 0U;
 400              		.loc 1 295 15
 401 0092 8147     		li	a5,0
 402              	.LVL44:
 294:./../../firmware/GD32VF103_standard_peripheral/Source/gd32vf103_spi.c ****         i2sdiv = 2U;
 403              		.loc 1 294 16
 404 0094 0945     		li	a0,2
 405              	.LVL45:
 406              	.L23:
 296:./../../firmware/GD32VF103_standard_peripheral/Source/gd32vf103_spi.c ****     }
 297:./../../firmware/GD32VF103_standard_peripheral/Source/gd32vf103_spi.c ****     /* configure SPI_I2SPSC */
 298:./../../firmware/GD32VF103_standard_peripheral/Source/gd32vf103_spi.c ****     SPI_I2SPSC(spi_periph) = (uint32_t)(i2sdiv | i2sof | mckout);
 407              		.loc 1 298 5 is_stmt 1
 408              		.loc 1 298 48 is_stmt 0
 409 0096 5D8D     		or	a0,a0,a5
 410              	.LVL46:
 411              		.loc 1 298 56
 412 0098 558D     		or	a0,a0,a3
 413              		.loc 1 298 28
 414 009a 88D0     		sw	a0,32(s1)
 299:./../../firmware/GD32VF103_standard_peripheral/Source/gd32vf103_spi.c **** 
 300:./../../firmware/GD32VF103_standard_peripheral/Source/gd32vf103_spi.c ****     /* clear SPI_I2SCTL_DTLEN and SPI_I2SCTL_CHLEN bits */
 301:./../../firmware/GD32VF103_standard_peripheral/Source/gd32vf103_spi.c ****     SPI_I2SCTL(spi_periph) &= (uint32_t)(~(SPI_I2SCTL_DTLEN | SPI_I2SCTL_CHLEN));
GAS LISTING C:\Users\Karzan\AppData\Local\Temp\ccc8gDRh.s 			page 14


 415              		.loc 1 301 5 is_stmt 1
 416              		.loc 1 301 28 is_stmt 0
 417 009c DC4C     		lw	a5,28(s1)
 418              	.LVL47:
 302:./../../firmware/GD32VF103_standard_peripheral/Source/gd32vf103_spi.c ****     /* configure data frame format */
 303:./../../firmware/GD32VF103_standard_peripheral/Source/gd32vf103_spi.c ****     SPI_I2SCTL(spi_periph) |= (uint32_t)frameformat;
 304:./../../firmware/GD32VF103_standard_peripheral/Source/gd32vf103_spi.c **** }
 419              		.loc 1 304 1
 420 009e F240     		lw	ra,28(sp)
 421              		.cfi_remember_state
 422              		.cfi_restore 1
 423 00a0 6244     		lw	s0,24(sp)
 424              		.cfi_restore 8
 301:./../../firmware/GD32VF103_standard_peripheral/Source/gd32vf103_spi.c ****     /* configure data frame format */
 425              		.loc 1 301 28
 426 00a2 E19B     		andi	a5,a5,-8
 427 00a4 DCCC     		sw	a5,28(s1)
 303:./../../firmware/GD32VF103_standard_peripheral/Source/gd32vf103_spi.c **** }
 428              		.loc 1 303 5 is_stmt 1
 303:./../../firmware/GD32VF103_standard_peripheral/Source/gd32vf103_spi.c **** }
 429              		.loc 1 303 28 is_stmt 0
 430 00a6 DC4C     		lw	a5,28(s1)
 431 00a8 5D8E     		or	a2,a5,a2
 432 00aa D0CC     		sw	a2,28(s1)
 433              		.loc 1 304 1
 434 00ac D244     		lw	s1,20(sp)
 435              		.cfi_restore 9
 436              	.LVL48:
 437 00ae 0561     		addi	sp,sp,32
 438              	.LCFI5:
 439              		.cfi_def_cfa_offset 0
 440 00b0 8280     		jr	ra
 441              	.LVL49:
 442              	.L17:
 443              	.LCFI6:
 444              		.cfi_restore_state
 260:./../../firmware/GD32VF103_standard_peripheral/Source/gd32vf103_spi.c ****                 /* multiplier is 20 */
 445              		.loc 1 260 13 is_stmt 1
 260:./../../firmware/GD32VF103_standard_peripheral/Source/gd32vf103_spi.c ****                 /* multiplier is 20 */
 446              		.loc 1 260 15 is_stmt 0
 447 00b2 3D47     		li	a4,15
 448 00b4 E397E7F8 		bne	a5,a4,.L18
 262:./../../firmware/GD32VF103_standard_peripheral/Source/gd32vf103_spi.c ****             }
 449              		.loc 1 262 22
 450 00b8 D147     		li	a5,20
 451              	.LVL50:
 452 00ba 61B7     		j	.L18
 453              	.LVL51:
 454              	.L16:
 272:./../../firmware/GD32VF103_standard_peripheral/Source/gd32vf103_spi.c ****     }
 455              		.loc 1 272 20
 456 00bc 0145     		li	a0,0
 457 00be 36C6     		sw	a3,12(sp)
 458 00c0 32C4     		sw	a2,8(sp)
 272:./../../firmware/GD32VF103_standard_peripheral/Source/gd32vf103_spi.c ****     }
 459              		.loc 1 272 9 is_stmt 1
 272:./../../firmware/GD32VF103_standard_peripheral/Source/gd32vf103_spi.c ****     }
GAS LISTING C:\Users\Karzan\AppData\Local\Temp\ccc8gDRh.s 			page 15


 460              		.loc 1 272 20 is_stmt 0
 461 00c2 97000000 		call	rcu_clock_freq_get
 461      E7800000 
 462              	.LVL52:
 463 00ca B246     		lw	a3,12(sp)
 464 00cc 2246     		lw	a2,8(sp)
 465              	.LVL53:
 466 00ce 51BF     		j	.L19
 467              	.LVL54:
 468              	.L20:
 279:./../../firmware/GD32VF103_standard_peripheral/Source/gd32vf103_spi.c ****             clks = (uint32_t)(((i2sclock / 32U) *10U ) / audiosample);
 469              		.loc 1 279 9 is_stmt 1
 279:./../../firmware/GD32VF103_standard_peripheral/Source/gd32vf103_spi.c ****             clks = (uint32_t)(((i2sclock / 32U) *10U ) / audiosample);
 470              		.loc 1 279 11 is_stmt 0
 471 00d0 19E2     		bne	a2,zero,.L22
 280:./../../firmware/GD32VF103_standard_peripheral/Source/gd32vf103_spi.c ****         }else{
 472              		.loc 1 280 13 is_stmt 1
 280:./../../firmware/GD32VF103_standard_peripheral/Source/gd32vf103_spi.c ****         }else{
 473              		.loc 1 280 42 is_stmt 0
 474 00d2 1581     		srli	a0,a0,5
 475              	.LVL55:
 476 00d4 61BF     		j	.L28
 477              	.LVL56:
 478              	.L22:
 282:./../../firmware/GD32VF103_standard_peripheral/Source/gd32vf103_spi.c ****         }
 479              		.loc 1 282 13 is_stmt 1
 282:./../../firmware/GD32VF103_standard_peripheral/Source/gd32vf103_spi.c ****         }
 480              		.loc 1 282 42 is_stmt 0
 481 00d6 1981     		srli	a0,a0,6
 482              	.LVL57:
 483 00d8 51BF     		j	.L28
 484              		.cfi_endproc
 485              	.LFE8:
 487              		.section	.text.i2s_enable,"ax",@progbits
 488              		.align	1
 489              		.globl	i2s_enable
 491              	i2s_enable:
 492              	.LFB9:
 305:./../../firmware/GD32VF103_standard_peripheral/Source/gd32vf103_spi.c **** 
 306:./../../firmware/GD32VF103_standard_peripheral/Source/gd32vf103_spi.c **** /*!
 307:./../../firmware/GD32VF103_standard_peripheral/Source/gd32vf103_spi.c ****     \brief      enable I2S 
 308:./../../firmware/GD32VF103_standard_peripheral/Source/gd32vf103_spi.c ****     \param[in]  spi_periph: SPIx(x=1,2)
 309:./../../firmware/GD32VF103_standard_peripheral/Source/gd32vf103_spi.c ****     \param[out] none
 310:./../../firmware/GD32VF103_standard_peripheral/Source/gd32vf103_spi.c ****     \retval     none
 311:./../../firmware/GD32VF103_standard_peripheral/Source/gd32vf103_spi.c **** */
 312:./../../firmware/GD32VF103_standard_peripheral/Source/gd32vf103_spi.c **** void i2s_enable(uint32_t spi_periph)
 313:./../../firmware/GD32VF103_standard_peripheral/Source/gd32vf103_spi.c **** {
 493              		.loc 1 313 1 is_stmt 1
 494              		.cfi_startproc
 495              	.LVL58:
 314:./../../firmware/GD32VF103_standard_peripheral/Source/gd32vf103_spi.c ****     SPI_I2SCTL(spi_periph) |= (uint32_t)SPI_I2SCTL_I2SEN;
 496              		.loc 1 314 5
 497              		.loc 1 314 28 is_stmt 0
 498 0000 5C4D     		lw	a5,28(a0)
 499 0002 93E70740 		ori	a5,a5,1024
 500 0006 5CCD     		sw	a5,28(a0)
 315:./../../firmware/GD32VF103_standard_peripheral/Source/gd32vf103_spi.c **** }
GAS LISTING C:\Users\Karzan\AppData\Local\Temp\ccc8gDRh.s 			page 16


 501              		.loc 1 315 1
 502 0008 8280     		ret
 503              		.cfi_endproc
 504              	.LFE9:
 506              		.section	.text.i2s_disable,"ax",@progbits
 507              		.align	1
 508              		.globl	i2s_disable
 510              	i2s_disable:
 511              	.LFB10:
 316:./../../firmware/GD32VF103_standard_peripheral/Source/gd32vf103_spi.c **** 
 317:./../../firmware/GD32VF103_standard_peripheral/Source/gd32vf103_spi.c **** /*!
 318:./../../firmware/GD32VF103_standard_peripheral/Source/gd32vf103_spi.c ****     \brief      disable I2S 
 319:./../../firmware/GD32VF103_standard_peripheral/Source/gd32vf103_spi.c ****     \param[in]  spi_periph: SPIx(x=1,2)
 320:./../../firmware/GD32VF103_standard_peripheral/Source/gd32vf103_spi.c ****     \param[out] none
 321:./../../firmware/GD32VF103_standard_peripheral/Source/gd32vf103_spi.c ****     \retval     none
 322:./../../firmware/GD32VF103_standard_peripheral/Source/gd32vf103_spi.c **** */
 323:./../../firmware/GD32VF103_standard_peripheral/Source/gd32vf103_spi.c **** void i2s_disable(uint32_t spi_periph)
 324:./../../firmware/GD32VF103_standard_peripheral/Source/gd32vf103_spi.c **** {
 512              		.loc 1 324 1 is_stmt 1
 513              		.cfi_startproc
 514              	.LVL59:
 325:./../../firmware/GD32VF103_standard_peripheral/Source/gd32vf103_spi.c ****     SPI_I2SCTL(spi_periph) &= (uint32_t)(~SPI_I2SCTL_I2SEN);
 515              		.loc 1 325 5
 516              		.loc 1 325 28 is_stmt 0
 517 0000 5C4D     		lw	a5,28(a0)
 518 0002 93F7F7BF 		andi	a5,a5,-1025
 519 0006 5CCD     		sw	a5,28(a0)
 326:./../../firmware/GD32VF103_standard_peripheral/Source/gd32vf103_spi.c **** }
 520              		.loc 1 326 1
 521 0008 8280     		ret
 522              		.cfi_endproc
 523              	.LFE10:
 525              		.section	.text.spi_nss_output_enable,"ax",@progbits
 526              		.align	1
 527              		.globl	spi_nss_output_enable
 529              	spi_nss_output_enable:
 530              	.LFB11:
 327:./../../firmware/GD32VF103_standard_peripheral/Source/gd32vf103_spi.c **** 
 328:./../../firmware/GD32VF103_standard_peripheral/Source/gd32vf103_spi.c **** /*!
 329:./../../firmware/GD32VF103_standard_peripheral/Source/gd32vf103_spi.c ****     \brief      enable SPI NSS output 
 330:./../../firmware/GD32VF103_standard_peripheral/Source/gd32vf103_spi.c ****     \param[in]  spi_periph: SPIx(x=0,1,2)
 331:./../../firmware/GD32VF103_standard_peripheral/Source/gd32vf103_spi.c ****     \param[out] none
 332:./../../firmware/GD32VF103_standard_peripheral/Source/gd32vf103_spi.c ****     \retval     none
 333:./../../firmware/GD32VF103_standard_peripheral/Source/gd32vf103_spi.c **** */
 334:./../../firmware/GD32VF103_standard_peripheral/Source/gd32vf103_spi.c **** void spi_nss_output_enable(uint32_t spi_periph)
 335:./../../firmware/GD32VF103_standard_peripheral/Source/gd32vf103_spi.c **** {
 531              		.loc 1 335 1 is_stmt 1
 532              		.cfi_startproc
 533              	.LVL60:
 336:./../../firmware/GD32VF103_standard_peripheral/Source/gd32vf103_spi.c ****     SPI_CTL1(spi_periph) |= (uint32_t)SPI_CTL1_NSSDRV;
 534              		.loc 1 336 5
 535              		.loc 1 336 26 is_stmt 0
 536 0000 5C41     		lw	a5,4(a0)
 537 0002 93E74700 		ori	a5,a5,4
 538 0006 5CC1     		sw	a5,4(a0)
 337:./../../firmware/GD32VF103_standard_peripheral/Source/gd32vf103_spi.c **** }
 539              		.loc 1 337 1
GAS LISTING C:\Users\Karzan\AppData\Local\Temp\ccc8gDRh.s 			page 17


 540 0008 8280     		ret
 541              		.cfi_endproc
 542              	.LFE11:
 544              		.section	.text.spi_nss_output_disable,"ax",@progbits
 545              		.align	1
 546              		.globl	spi_nss_output_disable
 548              	spi_nss_output_disable:
 549              	.LFB12:
 338:./../../firmware/GD32VF103_standard_peripheral/Source/gd32vf103_spi.c **** 
 339:./../../firmware/GD32VF103_standard_peripheral/Source/gd32vf103_spi.c **** /*!
 340:./../../firmware/GD32VF103_standard_peripheral/Source/gd32vf103_spi.c ****     \brief      disable SPI NSS output 
 341:./../../firmware/GD32VF103_standard_peripheral/Source/gd32vf103_spi.c ****     \param[in]  spi_periph: SPIx(x=0,1,2)
 342:./../../firmware/GD32VF103_standard_peripheral/Source/gd32vf103_spi.c ****     \param[out] none
 343:./../../firmware/GD32VF103_standard_peripheral/Source/gd32vf103_spi.c ****     \retval     none
 344:./../../firmware/GD32VF103_standard_peripheral/Source/gd32vf103_spi.c **** */
 345:./../../firmware/GD32VF103_standard_peripheral/Source/gd32vf103_spi.c **** void spi_nss_output_disable(uint32_t spi_periph)
 346:./../../firmware/GD32VF103_standard_peripheral/Source/gd32vf103_spi.c **** {
 550              		.loc 1 346 1 is_stmt 1
 551              		.cfi_startproc
 552              	.LVL61:
 347:./../../firmware/GD32VF103_standard_peripheral/Source/gd32vf103_spi.c ****     SPI_CTL1(spi_periph) &= (uint32_t)(~SPI_CTL1_NSSDRV);
 553              		.loc 1 347 5
 554              		.loc 1 347 26 is_stmt 0
 555 0000 5C41     		lw	a5,4(a0)
 556 0002 ED9B     		andi	a5,a5,-5
 557 0004 5CC1     		sw	a5,4(a0)
 348:./../../firmware/GD32VF103_standard_peripheral/Source/gd32vf103_spi.c **** }
 558              		.loc 1 348 1
 559 0006 8280     		ret
 560              		.cfi_endproc
 561              	.LFE12:
 563              		.section	.text.spi_nss_internal_high,"ax",@progbits
 564              		.align	1
 565              		.globl	spi_nss_internal_high
 567              	spi_nss_internal_high:
 568              	.LFB13:
 349:./../../firmware/GD32VF103_standard_peripheral/Source/gd32vf103_spi.c **** 
 350:./../../firmware/GD32VF103_standard_peripheral/Source/gd32vf103_spi.c **** /*!
 351:./../../firmware/GD32VF103_standard_peripheral/Source/gd32vf103_spi.c ****     \brief      SPI NSS pin high level in software mode
 352:./../../firmware/GD32VF103_standard_peripheral/Source/gd32vf103_spi.c ****     \param[in]  spi_periph: SPIx(x=0,1,2)
 353:./../../firmware/GD32VF103_standard_peripheral/Source/gd32vf103_spi.c ****     \param[out] none
 354:./../../firmware/GD32VF103_standard_peripheral/Source/gd32vf103_spi.c ****     \retval     none
 355:./../../firmware/GD32VF103_standard_peripheral/Source/gd32vf103_spi.c **** */
 356:./../../firmware/GD32VF103_standard_peripheral/Source/gd32vf103_spi.c **** void spi_nss_internal_high(uint32_t spi_periph)
 357:./../../firmware/GD32VF103_standard_peripheral/Source/gd32vf103_spi.c **** {
 569              		.loc 1 357 1 is_stmt 1
 570              		.cfi_startproc
 571              	.LVL62:
 358:./../../firmware/GD32VF103_standard_peripheral/Source/gd32vf103_spi.c ****     SPI_CTL0(spi_periph) |= (uint32_t)SPI_CTL0_SWNSS;
 572              		.loc 1 358 5
 573              		.loc 1 358 26 is_stmt 0
 574 0000 1C41     		lw	a5,0(a0)
 575 0002 93E70710 		ori	a5,a5,256
 576 0006 1CC1     		sw	a5,0(a0)
 359:./../../firmware/GD32VF103_standard_peripheral/Source/gd32vf103_spi.c **** }
 577              		.loc 1 359 1
 578 0008 8280     		ret
GAS LISTING C:\Users\Karzan\AppData\Local\Temp\ccc8gDRh.s 			page 18


 579              		.cfi_endproc
 580              	.LFE13:
 582              		.section	.text.spi_nss_internal_low,"ax",@progbits
 583              		.align	1
 584              		.globl	spi_nss_internal_low
 586              	spi_nss_internal_low:
 587              	.LFB14:
 360:./../../firmware/GD32VF103_standard_peripheral/Source/gd32vf103_spi.c **** 
 361:./../../firmware/GD32VF103_standard_peripheral/Source/gd32vf103_spi.c **** /*!
 362:./../../firmware/GD32VF103_standard_peripheral/Source/gd32vf103_spi.c ****     \brief      SPI NSS pin low level in software mode
 363:./../../firmware/GD32VF103_standard_peripheral/Source/gd32vf103_spi.c ****     \param[in]  spi_periph: SPIx(x=0,1,2)
 364:./../../firmware/GD32VF103_standard_peripheral/Source/gd32vf103_spi.c ****     \param[out] none
 365:./../../firmware/GD32VF103_standard_peripheral/Source/gd32vf103_spi.c ****     \retval     none
 366:./../../firmware/GD32VF103_standard_peripheral/Source/gd32vf103_spi.c **** */
 367:./../../firmware/GD32VF103_standard_peripheral/Source/gd32vf103_spi.c **** void spi_nss_internal_low(uint32_t spi_periph)
 368:./../../firmware/GD32VF103_standard_peripheral/Source/gd32vf103_spi.c **** {
 588              		.loc 1 368 1 is_stmt 1
 589              		.cfi_startproc
 590              	.LVL63:
 369:./../../firmware/GD32VF103_standard_peripheral/Source/gd32vf103_spi.c ****     SPI_CTL0(spi_periph) &= (uint32_t)(~SPI_CTL0_SWNSS);
 591              		.loc 1 369 5
 592              		.loc 1 369 26 is_stmt 0
 593 0000 1C41     		lw	a5,0(a0)
 594 0002 93F7F7EF 		andi	a5,a5,-257
 595 0006 1CC1     		sw	a5,0(a0)
 370:./../../firmware/GD32VF103_standard_peripheral/Source/gd32vf103_spi.c **** }
 596              		.loc 1 370 1
 597 0008 8280     		ret
 598              		.cfi_endproc
 599              	.LFE14:
 601              		.section	.text.spi_dma_enable,"ax",@progbits
 602              		.align	1
 603              		.globl	spi_dma_enable
 605              	spi_dma_enable:
 606              	.LFB15:
 371:./../../firmware/GD32VF103_standard_peripheral/Source/gd32vf103_spi.c **** 
 372:./../../firmware/GD32VF103_standard_peripheral/Source/gd32vf103_spi.c **** /*!
 373:./../../firmware/GD32VF103_standard_peripheral/Source/gd32vf103_spi.c ****     \brief      enable SPI DMA send or receive 
 374:./../../firmware/GD32VF103_standard_peripheral/Source/gd32vf103_spi.c ****     \param[in]  spi_periph: SPIx(x=0,1,2)
 375:./../../firmware/GD32VF103_standard_peripheral/Source/gd32vf103_spi.c ****     \param[in]  dma: SPI DMA mode
 376:./../../firmware/GD32VF103_standard_peripheral/Source/gd32vf103_spi.c ****                 only one parameter can be selected which is shown as below:
 377:./../../firmware/GD32VF103_standard_peripheral/Source/gd32vf103_spi.c ****       \arg        SPI_DMA_TRANSMIT: SPI transmit data using DMA
 378:./../../firmware/GD32VF103_standard_peripheral/Source/gd32vf103_spi.c ****       \arg        SPI_DMA_RECEIVE: SPI receive data using DMA
 379:./../../firmware/GD32VF103_standard_peripheral/Source/gd32vf103_spi.c ****     \param[out] none
 380:./../../firmware/GD32VF103_standard_peripheral/Source/gd32vf103_spi.c ****     \retval     none
 381:./../../firmware/GD32VF103_standard_peripheral/Source/gd32vf103_spi.c **** */
 382:./../../firmware/GD32VF103_standard_peripheral/Source/gd32vf103_spi.c **** void spi_dma_enable(uint32_t spi_periph, uint8_t dma)
 383:./../../firmware/GD32VF103_standard_peripheral/Source/gd32vf103_spi.c **** {
 607              		.loc 1 383 1 is_stmt 1
 608              		.cfi_startproc
 609              	.LVL64:
 384:./../../firmware/GD32VF103_standard_peripheral/Source/gd32vf103_spi.c ****     if(SPI_DMA_TRANSMIT == dma){
 610              		.loc 1 384 5
 385:./../../firmware/GD32VF103_standard_peripheral/Source/gd32vf103_spi.c ****         SPI_CTL1(spi_periph) |= (uint32_t)SPI_CTL1_DMATEN;
 611              		.loc 1 385 30 is_stmt 0
 612 0000 5C41     		lw	a5,4(a0)
 384:./../../firmware/GD32VF103_standard_peripheral/Source/gd32vf103_spi.c ****     if(SPI_DMA_TRANSMIT == dma){
GAS LISTING C:\Users\Karzan\AppData\Local\Temp\ccc8gDRh.s 			page 19


 613              		.loc 1 384 7
 614 0002 89E5     		bne	a1,zero,.L36
 615              		.loc 1 385 9 is_stmt 1
 616              		.loc 1 385 30 is_stmt 0
 617 0004 93E72700 		ori	a5,a5,2
 618              	.L38:
 386:./../../firmware/GD32VF103_standard_peripheral/Source/gd32vf103_spi.c ****     }else{
 387:./../../firmware/GD32VF103_standard_peripheral/Source/gd32vf103_spi.c ****         SPI_CTL1(spi_periph) |= (uint32_t)SPI_CTL1_DMAREN;
 619              		.loc 1 387 30
 620 0008 5CC1     		sw	a5,4(a0)
 388:./../../firmware/GD32VF103_standard_peripheral/Source/gd32vf103_spi.c ****     }
 389:./../../firmware/GD32VF103_standard_peripheral/Source/gd32vf103_spi.c **** }
 621              		.loc 1 389 1
 622 000a 8280     		ret
 623              	.L36:
 387:./../../firmware/GD32VF103_standard_peripheral/Source/gd32vf103_spi.c ****     }
 624              		.loc 1 387 9 is_stmt 1
 387:./../../firmware/GD32VF103_standard_peripheral/Source/gd32vf103_spi.c ****     }
 625              		.loc 1 387 30 is_stmt 0
 626 000c 93E71700 		ori	a5,a5,1
 627 0010 E5BF     		j	.L38
 628              		.cfi_endproc
 629              	.LFE15:
 631              		.section	.text.spi_dma_disable,"ax",@progbits
 632              		.align	1
 633              		.globl	spi_dma_disable
 635              	spi_dma_disable:
 636              	.LFB16:
 390:./../../firmware/GD32VF103_standard_peripheral/Source/gd32vf103_spi.c **** 
 391:./../../firmware/GD32VF103_standard_peripheral/Source/gd32vf103_spi.c **** /*!
 392:./../../firmware/GD32VF103_standard_peripheral/Source/gd32vf103_spi.c ****     \brief      disable SPI DMA send or receive 
 393:./../../firmware/GD32VF103_standard_peripheral/Source/gd32vf103_spi.c ****     \param[in]  spi_periph: SPIx(x=0,1,2)
 394:./../../firmware/GD32VF103_standard_peripheral/Source/gd32vf103_spi.c ****     \param[in]  dma: SPI DMA mode
 395:./../../firmware/GD32VF103_standard_peripheral/Source/gd32vf103_spi.c ****                 only one parameter can be selected which is shown as below:
 396:./../../firmware/GD32VF103_standard_peripheral/Source/gd32vf103_spi.c ****       \arg        SPI_DMA_TRANSMIT: SPI transmit data using DMA
 397:./../../firmware/GD32VF103_standard_peripheral/Source/gd32vf103_spi.c ****       \arg        SPI_DMA_RECEIVE: SPI receive data using DMA
 398:./../../firmware/GD32VF103_standard_peripheral/Source/gd32vf103_spi.c ****     \param[out] none
 399:./../../firmware/GD32VF103_standard_peripheral/Source/gd32vf103_spi.c ****     \retval     none
 400:./../../firmware/GD32VF103_standard_peripheral/Source/gd32vf103_spi.c **** */
 401:./../../firmware/GD32VF103_standard_peripheral/Source/gd32vf103_spi.c **** void spi_dma_disable(uint32_t spi_periph, uint8_t dma)
 402:./../../firmware/GD32VF103_standard_peripheral/Source/gd32vf103_spi.c **** {
 637              		.loc 1 402 1 is_stmt 1
 638              		.cfi_startproc
 639              	.LVL65:
 403:./../../firmware/GD32VF103_standard_peripheral/Source/gd32vf103_spi.c ****     if(SPI_DMA_TRANSMIT == dma){
 640              		.loc 1 403 5
 404:./../../firmware/GD32VF103_standard_peripheral/Source/gd32vf103_spi.c ****         SPI_CTL1(spi_periph) &= (uint32_t)(~SPI_CTL1_DMATEN);
 641              		.loc 1 404 30 is_stmt 0
 642 0000 5C41     		lw	a5,4(a0)
 403:./../../firmware/GD32VF103_standard_peripheral/Source/gd32vf103_spi.c ****     if(SPI_DMA_TRANSMIT == dma){
 643              		.loc 1 403 7
 644 0002 81E5     		bne	a1,zero,.L40
 645              		.loc 1 404 9 is_stmt 1
 646              		.loc 1 404 30 is_stmt 0
 647 0004 F59B     		andi	a5,a5,-3
 648              	.L42:
 405:./../../firmware/GD32VF103_standard_peripheral/Source/gd32vf103_spi.c ****     }else{
GAS LISTING C:\Users\Karzan\AppData\Local\Temp\ccc8gDRh.s 			page 20


 406:./../../firmware/GD32VF103_standard_peripheral/Source/gd32vf103_spi.c ****         SPI_CTL1(spi_periph) &= (uint32_t)(~SPI_CTL1_DMAREN);
 649              		.loc 1 406 30
 650 0006 5CC1     		sw	a5,4(a0)
 407:./../../firmware/GD32VF103_standard_peripheral/Source/gd32vf103_spi.c ****     }
 408:./../../firmware/GD32VF103_standard_peripheral/Source/gd32vf103_spi.c **** }
 651              		.loc 1 408 1
 652 0008 8280     		ret
 653              	.L40:
 406:./../../firmware/GD32VF103_standard_peripheral/Source/gd32vf103_spi.c ****     }
 654              		.loc 1 406 9 is_stmt 1
 406:./../../firmware/GD32VF103_standard_peripheral/Source/gd32vf103_spi.c ****     }
 655              		.loc 1 406 30 is_stmt 0
 656 000a F99B     		andi	a5,a5,-2
 657 000c EDBF     		j	.L42
 658              		.cfi_endproc
 659              	.LFE16:
 661              		.section	.text.spi_i2s_data_frame_format_config,"ax",@progbits
 662              		.align	1
 663              		.globl	spi_i2s_data_frame_format_config
 665              	spi_i2s_data_frame_format_config:
 666              	.LFB17:
 409:./../../firmware/GD32VF103_standard_peripheral/Source/gd32vf103_spi.c **** 
 410:./../../firmware/GD32VF103_standard_peripheral/Source/gd32vf103_spi.c **** /*!
 411:./../../firmware/GD32VF103_standard_peripheral/Source/gd32vf103_spi.c ****     \brief      configure SPI/I2S data frame format
 412:./../../firmware/GD32VF103_standard_peripheral/Source/gd32vf103_spi.c ****     \param[in]  spi_periph: SPIx(x=0,1,2)
 413:./../../firmware/GD32VF103_standard_peripheral/Source/gd32vf103_spi.c ****     \param[in]  frame_format: SPI frame size
 414:./../../firmware/GD32VF103_standard_peripheral/Source/gd32vf103_spi.c ****                 only one parameter can be selected which is shown as below:
 415:./../../firmware/GD32VF103_standard_peripheral/Source/gd32vf103_spi.c ****       \arg        SPI_FRAMESIZE_16BIT: SPI frame size is 16 bits
 416:./../../firmware/GD32VF103_standard_peripheral/Source/gd32vf103_spi.c ****       \arg        SPI_FRAMESIZE_8BIT: SPI frame size is 8 bits
 417:./../../firmware/GD32VF103_standard_peripheral/Source/gd32vf103_spi.c ****     \param[out] none
 418:./../../firmware/GD32VF103_standard_peripheral/Source/gd32vf103_spi.c ****     \retval     none
 419:./../../firmware/GD32VF103_standard_peripheral/Source/gd32vf103_spi.c **** */
 420:./../../firmware/GD32VF103_standard_peripheral/Source/gd32vf103_spi.c **** void spi_i2s_data_frame_format_config(uint32_t spi_periph, uint16_t frame_format)
 421:./../../firmware/GD32VF103_standard_peripheral/Source/gd32vf103_spi.c **** {
 667              		.loc 1 421 1 is_stmt 1
 668              		.cfi_startproc
 669              	.LVL66:
 422:./../../firmware/GD32VF103_standard_peripheral/Source/gd32vf103_spi.c ****     /* clear SPI_CTL0_FF16 bit */
 423:./../../firmware/GD32VF103_standard_peripheral/Source/gd32vf103_spi.c ****     SPI_CTL0(spi_periph) &= (uint32_t)(~SPI_CTL0_FF16);
 670              		.loc 1 423 5
 671              		.loc 1 423 26 is_stmt 0
 672 0000 1C41     		lw	a5,0(a0)
 673 0002 7D77     		li	a4,-4096
 674 0004 1307F77F 		addi	a4,a4,2047
 675 0008 F98F     		and	a5,a5,a4
 676 000a 1CC1     		sw	a5,0(a0)
 424:./../../firmware/GD32VF103_standard_peripheral/Source/gd32vf103_spi.c ****     /* configure SPI_CTL0_FF16 bit */
 425:./../../firmware/GD32VF103_standard_peripheral/Source/gd32vf103_spi.c ****     SPI_CTL0(spi_periph) |= (uint32_t)frame_format;
 677              		.loc 1 425 5 is_stmt 1
 678              		.loc 1 425 26 is_stmt 0
 679 000c 1C41     		lw	a5,0(a0)
 680 000e DD8D     		or	a1,a1,a5
 681              	.LVL67:
 682 0010 0CC1     		sw	a1,0(a0)
 426:./../../firmware/GD32VF103_standard_peripheral/Source/gd32vf103_spi.c **** }
 683              		.loc 1 426 1
 684 0012 8280     		ret
GAS LISTING C:\Users\Karzan\AppData\Local\Temp\ccc8gDRh.s 			page 21


 685              		.cfi_endproc
 686              	.LFE17:
 688              		.section	.text.spi_i2s_data_transmit,"ax",@progbits
 689              		.align	1
 690              		.globl	spi_i2s_data_transmit
 692              	spi_i2s_data_transmit:
 693              	.LFB18:
 427:./../../firmware/GD32VF103_standard_peripheral/Source/gd32vf103_spi.c **** 
 428:./../../firmware/GD32VF103_standard_peripheral/Source/gd32vf103_spi.c **** /*!
 429:./../../firmware/GD32VF103_standard_peripheral/Source/gd32vf103_spi.c ****     \brief      SPI transmit data
 430:./../../firmware/GD32VF103_standard_peripheral/Source/gd32vf103_spi.c ****     \param[in]  spi_periph: SPIx(x=0,1,2)
 431:./../../firmware/GD32VF103_standard_peripheral/Source/gd32vf103_spi.c ****     \param[in]  data: 16-bit data
 432:./../../firmware/GD32VF103_standard_peripheral/Source/gd32vf103_spi.c ****     \param[out] none
 433:./../../firmware/GD32VF103_standard_peripheral/Source/gd32vf103_spi.c ****     \retval     none
 434:./../../firmware/GD32VF103_standard_peripheral/Source/gd32vf103_spi.c **** */
 435:./../../firmware/GD32VF103_standard_peripheral/Source/gd32vf103_spi.c **** void spi_i2s_data_transmit(uint32_t spi_periph, uint16_t data)
 436:./../../firmware/GD32VF103_standard_peripheral/Source/gd32vf103_spi.c **** {
 694              		.loc 1 436 1 is_stmt 1
 695              		.cfi_startproc
 696              	.LVL68:
 437:./../../firmware/GD32VF103_standard_peripheral/Source/gd32vf103_spi.c ****     SPI_DATA(spi_periph) = (uint32_t)data;
 697              		.loc 1 437 5
 698              		.loc 1 437 26 is_stmt 0
 699 0000 4CC5     		sw	a1,12(a0)
 438:./../../firmware/GD32VF103_standard_peripheral/Source/gd32vf103_spi.c **** }
 700              		.loc 1 438 1
 701 0002 8280     		ret
 702              		.cfi_endproc
 703              	.LFE18:
 705              		.section	.text.spi_i2s_data_receive,"ax",@progbits
 706              		.align	1
 707              		.globl	spi_i2s_data_receive
 709              	spi_i2s_data_receive:
 710              	.LFB19:
 439:./../../firmware/GD32VF103_standard_peripheral/Source/gd32vf103_spi.c **** 
 440:./../../firmware/GD32VF103_standard_peripheral/Source/gd32vf103_spi.c **** /*!
 441:./../../firmware/GD32VF103_standard_peripheral/Source/gd32vf103_spi.c ****     \brief      SPI receive data
 442:./../../firmware/GD32VF103_standard_peripheral/Source/gd32vf103_spi.c ****     \param[in]  spi_periph: SPIx(x=0,1,2)
 443:./../../firmware/GD32VF103_standard_peripheral/Source/gd32vf103_spi.c ****     \param[out] none
 444:./../../firmware/GD32VF103_standard_peripheral/Source/gd32vf103_spi.c ****     \retval     16-bit data
 445:./../../firmware/GD32VF103_standard_peripheral/Source/gd32vf103_spi.c **** */
 446:./../../firmware/GD32VF103_standard_peripheral/Source/gd32vf103_spi.c **** uint16_t spi_i2s_data_receive(uint32_t spi_periph)
 447:./../../firmware/GD32VF103_standard_peripheral/Source/gd32vf103_spi.c **** {
 711              		.loc 1 447 1 is_stmt 1
 712              		.cfi_startproc
 713              	.LVL69:
 448:./../../firmware/GD32VF103_standard_peripheral/Source/gd32vf103_spi.c ****     return ((uint16_t)SPI_DATA(spi_periph));
 714              		.loc 1 448 5
 715              		.loc 1 448 23 is_stmt 0
 716 0000 4845     		lw	a0,12(a0)
 717              	.LVL70:
 449:./../../firmware/GD32VF103_standard_peripheral/Source/gd32vf103_spi.c **** }
 718              		.loc 1 449 1
 719 0002 4205     		slli	a0,a0,16
 720 0004 4181     		srli	a0,a0,16
 721 0006 8280     		ret
 722              		.cfi_endproc
GAS LISTING C:\Users\Karzan\AppData\Local\Temp\ccc8gDRh.s 			page 22


 723              	.LFE19:
 725              		.section	.text.spi_bidirectional_transfer_config,"ax",@progbits
 726              		.align	1
 727              		.globl	spi_bidirectional_transfer_config
 729              	spi_bidirectional_transfer_config:
 730              	.LFB20:
 450:./../../firmware/GD32VF103_standard_peripheral/Source/gd32vf103_spi.c **** 
 451:./../../firmware/GD32VF103_standard_peripheral/Source/gd32vf103_spi.c **** /*!
 452:./../../firmware/GD32VF103_standard_peripheral/Source/gd32vf103_spi.c ****     \brief      configure SPI bidirectional transfer direction
 453:./../../firmware/GD32VF103_standard_peripheral/Source/gd32vf103_spi.c ****     \param[in]  spi_periph: SPIx(x=0,1,2)
 454:./../../firmware/GD32VF103_standard_peripheral/Source/gd32vf103_spi.c ****     \param[in]  transfer_direction: SPI transfer direction
 455:./../../firmware/GD32VF103_standard_peripheral/Source/gd32vf103_spi.c ****                 only one parameter can be selected which is shown as below:
 456:./../../firmware/GD32VF103_standard_peripheral/Source/gd32vf103_spi.c ****       \arg        SPI_BIDIRECTIONAL_TRANSMIT: SPI work in transmit-only mode
 457:./../../firmware/GD32VF103_standard_peripheral/Source/gd32vf103_spi.c ****       \arg        SPI_BIDIRECTIONAL_RECEIVE: SPI work in receive-only mode
 458:./../../firmware/GD32VF103_standard_peripheral/Source/gd32vf103_spi.c ****     \param[out] none
 459:./../../firmware/GD32VF103_standard_peripheral/Source/gd32vf103_spi.c ****     \retval     none
 460:./../../firmware/GD32VF103_standard_peripheral/Source/gd32vf103_spi.c **** */
 461:./../../firmware/GD32VF103_standard_peripheral/Source/gd32vf103_spi.c **** void spi_bidirectional_transfer_config(uint32_t spi_periph, uint32_t transfer_direction)
 462:./../../firmware/GD32VF103_standard_peripheral/Source/gd32vf103_spi.c **** {
 731              		.loc 1 462 1 is_stmt 1
 732              		.cfi_startproc
 733              	.LVL71:
 463:./../../firmware/GD32VF103_standard_peripheral/Source/gd32vf103_spi.c ****     if(SPI_BIDIRECTIONAL_TRANSMIT == transfer_direction){
 734              		.loc 1 463 5
 735              		.loc 1 463 7 is_stmt 0
 736 0000 9167     		li	a5,16384
 737 0002 6396F500 		bne	a1,a5,.L47
 464:./../../firmware/GD32VF103_standard_peripheral/Source/gd32vf103_spi.c ****         /* set the transmit-only mode */
 465:./../../firmware/GD32VF103_standard_peripheral/Source/gd32vf103_spi.c ****         SPI_CTL0(spi_periph) |= (uint32_t)SPI_BIDIRECTIONAL_TRANSMIT;
 738              		.loc 1 465 9 is_stmt 1
 739              		.loc 1 465 30 is_stmt 0
 740 0006 1C41     		lw	a5,0(a0)
 741 0008 CD8F     		or	a5,a5,a1
 742              	.L49:
 466:./../../firmware/GD32VF103_standard_peripheral/Source/gd32vf103_spi.c ****     }else{
 467:./../../firmware/GD32VF103_standard_peripheral/Source/gd32vf103_spi.c ****         /* set the receive-only mode */
 468:./../../firmware/GD32VF103_standard_peripheral/Source/gd32vf103_spi.c ****         SPI_CTL0(spi_periph) &= SPI_BIDIRECTIONAL_RECEIVE;
 743              		.loc 1 468 30
 744 000a 1CC1     		sw	a5,0(a0)
 469:./../../firmware/GD32VF103_standard_peripheral/Source/gd32vf103_spi.c ****     }
 470:./../../firmware/GD32VF103_standard_peripheral/Source/gd32vf103_spi.c **** }
 745              		.loc 1 470 1
 746 000c 8280     		ret
 747              	.L47:
 468:./../../firmware/GD32VF103_standard_peripheral/Source/gd32vf103_spi.c ****     }
 748              		.loc 1 468 9 is_stmt 1
 468:./../../firmware/GD32VF103_standard_peripheral/Source/gd32vf103_spi.c ****     }
 749              		.loc 1 468 30 is_stmt 0
 750 000e 1C41     		lw	a5,0(a0)
 751 0010 7177     		li	a4,-16384
 752 0012 7D17     		addi	a4,a4,-1
 753 0014 F98F     		and	a5,a5,a4
 754 0016 D5BF     		j	.L49
 755              		.cfi_endproc
 756              	.LFE20:
 758              		.section	.text.spi_crc_polynomial_set,"ax",@progbits
 759              		.align	1
GAS LISTING C:\Users\Karzan\AppData\Local\Temp\ccc8gDRh.s 			page 23


 760              		.globl	spi_crc_polynomial_set
 762              	spi_crc_polynomial_set:
 763              	.LFB21:
 471:./../../firmware/GD32VF103_standard_peripheral/Source/gd32vf103_spi.c **** 
 472:./../../firmware/GD32VF103_standard_peripheral/Source/gd32vf103_spi.c **** /*!
 473:./../../firmware/GD32VF103_standard_peripheral/Source/gd32vf103_spi.c ****     \brief      set SPI CRC polynomial 
 474:./../../firmware/GD32VF103_standard_peripheral/Source/gd32vf103_spi.c ****     \param[in]  spi_periph: SPIx(x=0,1,2)
 475:./../../firmware/GD32VF103_standard_peripheral/Source/gd32vf103_spi.c ****     \param[in]  crc_poly: CRC polynomial value
 476:./../../firmware/GD32VF103_standard_peripheral/Source/gd32vf103_spi.c ****     \param[out] none
 477:./../../firmware/GD32VF103_standard_peripheral/Source/gd32vf103_spi.c ****     \retval     none
 478:./../../firmware/GD32VF103_standard_peripheral/Source/gd32vf103_spi.c **** */
 479:./../../firmware/GD32VF103_standard_peripheral/Source/gd32vf103_spi.c **** void spi_crc_polynomial_set(uint32_t spi_periph,uint16_t crc_poly)
 480:./../../firmware/GD32VF103_standard_peripheral/Source/gd32vf103_spi.c **** {
 764              		.loc 1 480 1 is_stmt 1
 765              		.cfi_startproc
 766              	.LVL72:
 481:./../../firmware/GD32VF103_standard_peripheral/Source/gd32vf103_spi.c ****     /* enable SPI CRC */
 482:./../../firmware/GD32VF103_standard_peripheral/Source/gd32vf103_spi.c ****     SPI_CTL0(spi_periph) |= (uint32_t)SPI_CTL0_CRCEN;
 767              		.loc 1 482 5
 768              		.loc 1 482 26 is_stmt 0
 769 0000 1C41     		lw	a5,0(a0)
 770 0002 0967     		li	a4,8192
 771 0004 D98F     		or	a5,a5,a4
 772 0006 1CC1     		sw	a5,0(a0)
 483:./../../firmware/GD32VF103_standard_peripheral/Source/gd32vf103_spi.c **** 
 484:./../../firmware/GD32VF103_standard_peripheral/Source/gd32vf103_spi.c ****     /* set SPI CRC polynomial */
 485:./../../firmware/GD32VF103_standard_peripheral/Source/gd32vf103_spi.c ****     SPI_CRCPOLY(spi_periph) = (uint32_t)crc_poly;
 773              		.loc 1 485 5 is_stmt 1
 774              		.loc 1 485 29 is_stmt 0
 775 0008 0CC9     		sw	a1,16(a0)
 486:./../../firmware/GD32VF103_standard_peripheral/Source/gd32vf103_spi.c **** }
 776              		.loc 1 486 1
 777 000a 8280     		ret
 778              		.cfi_endproc
 779              	.LFE21:
 781              		.section	.text.spi_crc_polynomial_get,"ax",@progbits
 782              		.align	1
 783              		.globl	spi_crc_polynomial_get
 785              	spi_crc_polynomial_get:
 786              	.LFB22:
 487:./../../firmware/GD32VF103_standard_peripheral/Source/gd32vf103_spi.c **** 
 488:./../../firmware/GD32VF103_standard_peripheral/Source/gd32vf103_spi.c **** /*!
 489:./../../firmware/GD32VF103_standard_peripheral/Source/gd32vf103_spi.c ****     \brief      get SPI CRC polynomial 
 490:./../../firmware/GD32VF103_standard_peripheral/Source/gd32vf103_spi.c ****     \param[in]  spi_periph: SPIx(x=0,1,2)
 491:./../../firmware/GD32VF103_standard_peripheral/Source/gd32vf103_spi.c ****     \param[out] none
 492:./../../firmware/GD32VF103_standard_peripheral/Source/gd32vf103_spi.c ****     \retval     16-bit CRC polynomial
 493:./../../firmware/GD32VF103_standard_peripheral/Source/gd32vf103_spi.c **** */
 494:./../../firmware/GD32VF103_standard_peripheral/Source/gd32vf103_spi.c **** uint16_t spi_crc_polynomial_get(uint32_t spi_periph)
 495:./../../firmware/GD32VF103_standard_peripheral/Source/gd32vf103_spi.c **** {
 787              		.loc 1 495 1 is_stmt 1
 788              		.cfi_startproc
 789              	.LVL73:
 496:./../../firmware/GD32VF103_standard_peripheral/Source/gd32vf103_spi.c ****     return ((uint16_t)SPI_CRCPOLY(spi_periph));
 790              		.loc 1 496 5
 791              		.loc 1 496 23 is_stmt 0
 792 0000 0849     		lw	a0,16(a0)
 793              	.LVL74:
GAS LISTING C:\Users\Karzan\AppData\Local\Temp\ccc8gDRh.s 			page 24


 497:./../../firmware/GD32VF103_standard_peripheral/Source/gd32vf103_spi.c **** }
 794              		.loc 1 497 1
 795 0002 4205     		slli	a0,a0,16
 796 0004 4181     		srli	a0,a0,16
 797 0006 8280     		ret
 798              		.cfi_endproc
 799              	.LFE22:
 801              		.section	.text.spi_crc_on,"ax",@progbits
 802              		.align	1
 803              		.globl	spi_crc_on
 805              	spi_crc_on:
 806              	.LFB23:
 498:./../../firmware/GD32VF103_standard_peripheral/Source/gd32vf103_spi.c **** 
 499:./../../firmware/GD32VF103_standard_peripheral/Source/gd32vf103_spi.c **** /*!
 500:./../../firmware/GD32VF103_standard_peripheral/Source/gd32vf103_spi.c ****     \brief      turn on CRC function 
 501:./../../firmware/GD32VF103_standard_peripheral/Source/gd32vf103_spi.c ****     \param[in]  spi_periph: SPIx(x=0,1,2)
 502:./../../firmware/GD32VF103_standard_peripheral/Source/gd32vf103_spi.c ****     \param[out] none
 503:./../../firmware/GD32VF103_standard_peripheral/Source/gd32vf103_spi.c ****     \retval     none
 504:./../../firmware/GD32VF103_standard_peripheral/Source/gd32vf103_spi.c **** */
 505:./../../firmware/GD32VF103_standard_peripheral/Source/gd32vf103_spi.c **** void spi_crc_on(uint32_t spi_periph)
 506:./../../firmware/GD32VF103_standard_peripheral/Source/gd32vf103_spi.c **** {
 807              		.loc 1 506 1 is_stmt 1
 808              		.cfi_startproc
 809              	.LVL75:
 507:./../../firmware/GD32VF103_standard_peripheral/Source/gd32vf103_spi.c ****     SPI_CTL0(spi_periph) |= (uint32_t)SPI_CTL0_CRCEN;
 810              		.loc 1 507 5
 811              		.loc 1 507 26 is_stmt 0
 812 0000 1C41     		lw	a5,0(a0)
 813 0002 0967     		li	a4,8192
 814 0004 D98F     		or	a5,a5,a4
 815 0006 1CC1     		sw	a5,0(a0)
 508:./../../firmware/GD32VF103_standard_peripheral/Source/gd32vf103_spi.c **** }
 816              		.loc 1 508 1
 817 0008 8280     		ret
 818              		.cfi_endproc
 819              	.LFE23:
 821              		.section	.text.spi_crc_off,"ax",@progbits
 822              		.align	1
 823              		.globl	spi_crc_off
 825              	spi_crc_off:
 826              	.LFB24:
 509:./../../firmware/GD32VF103_standard_peripheral/Source/gd32vf103_spi.c **** 
 510:./../../firmware/GD32VF103_standard_peripheral/Source/gd32vf103_spi.c **** /*!
 511:./../../firmware/GD32VF103_standard_peripheral/Source/gd32vf103_spi.c ****     \brief      turn off CRC function 
 512:./../../firmware/GD32VF103_standard_peripheral/Source/gd32vf103_spi.c ****     \param[in]  spi_periph: SPIx(x=0,1,2)
 513:./../../firmware/GD32VF103_standard_peripheral/Source/gd32vf103_spi.c ****     \param[out] none
 514:./../../firmware/GD32VF103_standard_peripheral/Source/gd32vf103_spi.c ****     \retval     none
 515:./../../firmware/GD32VF103_standard_peripheral/Source/gd32vf103_spi.c **** */
 516:./../../firmware/GD32VF103_standard_peripheral/Source/gd32vf103_spi.c **** void spi_crc_off(uint32_t spi_periph)
 517:./../../firmware/GD32VF103_standard_peripheral/Source/gd32vf103_spi.c **** {
 827              		.loc 1 517 1 is_stmt 1
 828              		.cfi_startproc
 829              	.LVL76:
 518:./../../firmware/GD32VF103_standard_peripheral/Source/gd32vf103_spi.c ****     SPI_CTL0(spi_periph) &= (uint32_t)(~SPI_CTL0_CRCEN);
 830              		.loc 1 518 5
 831              		.loc 1 518 26 is_stmt 0
 832 0000 1C41     		lw	a5,0(a0)
GAS LISTING C:\Users\Karzan\AppData\Local\Temp\ccc8gDRh.s 			page 25


 833 0002 7977     		li	a4,-8192
 834 0004 7D17     		addi	a4,a4,-1
 835 0006 F98F     		and	a5,a5,a4
 836 0008 1CC1     		sw	a5,0(a0)
 519:./../../firmware/GD32VF103_standard_peripheral/Source/gd32vf103_spi.c **** }
 837              		.loc 1 519 1
 838 000a 8280     		ret
 839              		.cfi_endproc
 840              	.LFE24:
 842              		.section	.text.spi_crc_next,"ax",@progbits
 843              		.align	1
 844              		.globl	spi_crc_next
 846              	spi_crc_next:
 847              	.LFB25:
 520:./../../firmware/GD32VF103_standard_peripheral/Source/gd32vf103_spi.c **** 
 521:./../../firmware/GD32VF103_standard_peripheral/Source/gd32vf103_spi.c **** /*!
 522:./../../firmware/GD32VF103_standard_peripheral/Source/gd32vf103_spi.c ****     \brief      SPI next data is CRC value
 523:./../../firmware/GD32VF103_standard_peripheral/Source/gd32vf103_spi.c ****     \param[in]  spi_periph: SPIx(x=0,1,2)
 524:./../../firmware/GD32VF103_standard_peripheral/Source/gd32vf103_spi.c ****     \param[out] none
 525:./../../firmware/GD32VF103_standard_peripheral/Source/gd32vf103_spi.c ****     \retval     none
 526:./../../firmware/GD32VF103_standard_peripheral/Source/gd32vf103_spi.c **** */
 527:./../../firmware/GD32VF103_standard_peripheral/Source/gd32vf103_spi.c **** void spi_crc_next(uint32_t spi_periph)
 528:./../../firmware/GD32VF103_standard_peripheral/Source/gd32vf103_spi.c **** {
 848              		.loc 1 528 1 is_stmt 1
 849              		.cfi_startproc
 850              	.LVL77:
 529:./../../firmware/GD32VF103_standard_peripheral/Source/gd32vf103_spi.c ****     SPI_CTL0(spi_periph) |= (uint32_t)SPI_CTL0_CRCNT;
 851              		.loc 1 529 5
 852              		.loc 1 529 26 is_stmt 0
 853 0000 1C41     		lw	a5,0(a0)
 854 0002 0567     		li	a4,4096
 855 0004 D98F     		or	a5,a5,a4
 856 0006 1CC1     		sw	a5,0(a0)
 530:./../../firmware/GD32VF103_standard_peripheral/Source/gd32vf103_spi.c **** }
 857              		.loc 1 530 1
 858 0008 8280     		ret
 859              		.cfi_endproc
 860              	.LFE25:
 862              		.section	.text.spi_crc_get,"ax",@progbits
 863              		.align	1
 864              		.globl	spi_crc_get
 866              	spi_crc_get:
 867              	.LFB26:
 531:./../../firmware/GD32VF103_standard_peripheral/Source/gd32vf103_spi.c **** 
 532:./../../firmware/GD32VF103_standard_peripheral/Source/gd32vf103_spi.c **** /*!
 533:./../../firmware/GD32VF103_standard_peripheral/Source/gd32vf103_spi.c ****     \brief      get SPI CRC send value or receive value
 534:./../../firmware/GD32VF103_standard_peripheral/Source/gd32vf103_spi.c ****     \param[in]  spi_periph: SPIx(x=0,1,2)
 535:./../../firmware/GD32VF103_standard_peripheral/Source/gd32vf103_spi.c ****     \param[in]  crc: SPI crc value
 536:./../../firmware/GD32VF103_standard_peripheral/Source/gd32vf103_spi.c ****                 only one parameter can be selected which is shown as below:
 537:./../../firmware/GD32VF103_standard_peripheral/Source/gd32vf103_spi.c ****       \arg        SPI_CRC_TX: get transmit crc value
 538:./../../firmware/GD32VF103_standard_peripheral/Source/gd32vf103_spi.c ****       \arg        SPI_CRC_RX: get receive crc value
 539:./../../firmware/GD32VF103_standard_peripheral/Source/gd32vf103_spi.c ****     \param[out] none
 540:./../../firmware/GD32VF103_standard_peripheral/Source/gd32vf103_spi.c ****     \retval     16-bit CRC value
 541:./../../firmware/GD32VF103_standard_peripheral/Source/gd32vf103_spi.c **** */
 542:./../../firmware/GD32VF103_standard_peripheral/Source/gd32vf103_spi.c **** uint16_t spi_crc_get(uint32_t spi_periph,uint8_t crc)
 543:./../../firmware/GD32VF103_standard_peripheral/Source/gd32vf103_spi.c **** {
 868              		.loc 1 543 1 is_stmt 1
GAS LISTING C:\Users\Karzan\AppData\Local\Temp\ccc8gDRh.s 			page 26


 869              		.cfi_startproc
 870              	.LVL78:
 544:./../../firmware/GD32VF103_standard_peripheral/Source/gd32vf103_spi.c ****     if(SPI_CRC_TX == crc){
 871              		.loc 1 544 5
 872              		.loc 1 544 7 is_stmt 0
 873 0000 89E5     		bne	a1,zero,.L56
 545:./../../firmware/GD32VF103_standard_peripheral/Source/gd32vf103_spi.c ****         return ((uint16_t)(SPI_TCRC(spi_periph)));
 874              		.loc 1 545 9 is_stmt 1
 875              		.loc 1 545 28 is_stmt 0
 876 0002 084D     		lw	a0,24(a0)
 877              	.LVL79:
 878              	.L58:
 546:./../../firmware/GD32VF103_standard_peripheral/Source/gd32vf103_spi.c ****     }else{
 547:./../../firmware/GD32VF103_standard_peripheral/Source/gd32vf103_spi.c ****         return ((uint16_t)(SPI_RCRC(spi_periph)));
 879              		.loc 1 547 17
 880 0004 4205     		slli	a0,a0,16
 881 0006 4181     		srli	a0,a0,16
 548:./../../firmware/GD32VF103_standard_peripheral/Source/gd32vf103_spi.c ****     }
 549:./../../firmware/GD32VF103_standard_peripheral/Source/gd32vf103_spi.c **** }
 882              		.loc 1 549 1
 883 0008 8280     		ret
 884              	.LVL80:
 885              	.L56:
 547:./../../firmware/GD32VF103_standard_peripheral/Source/gd32vf103_spi.c ****     }
 886              		.loc 1 547 9 is_stmt 1
 547:./../../firmware/GD32VF103_standard_peripheral/Source/gd32vf103_spi.c ****     }
 887              		.loc 1 547 28 is_stmt 0
 888 000a 4849     		lw	a0,20(a0)
 889              	.LVL81:
 890 000c E5BF     		j	.L58
 891              		.cfi_endproc
 892              	.LFE26:
 894              		.section	.text.spi_ti_mode_enable,"ax",@progbits
 895              		.align	1
 896              		.globl	spi_ti_mode_enable
 898              	spi_ti_mode_enable:
 899              	.LFB27:
 550:./../../firmware/GD32VF103_standard_peripheral/Source/gd32vf103_spi.c **** 
 551:./../../firmware/GD32VF103_standard_peripheral/Source/gd32vf103_spi.c **** /*!
 552:./../../firmware/GD32VF103_standard_peripheral/Source/gd32vf103_spi.c ****     \brief      enable SPI TI mode
 553:./../../firmware/GD32VF103_standard_peripheral/Source/gd32vf103_spi.c ****     \param[in]  spi_periph: SPIx(x=0,1,2)
 554:./../../firmware/GD32VF103_standard_peripheral/Source/gd32vf103_spi.c ****     \param[out] none
 555:./../../firmware/GD32VF103_standard_peripheral/Source/gd32vf103_spi.c ****     \retval     none
 556:./../../firmware/GD32VF103_standard_peripheral/Source/gd32vf103_spi.c **** */
 557:./../../firmware/GD32VF103_standard_peripheral/Source/gd32vf103_spi.c **** void spi_ti_mode_enable(uint32_t spi_periph)
 558:./../../firmware/GD32VF103_standard_peripheral/Source/gd32vf103_spi.c **** {
 900              		.loc 1 558 1 is_stmt 1
 901              		.cfi_startproc
 902              	.LVL82:
 559:./../../firmware/GD32VF103_standard_peripheral/Source/gd32vf103_spi.c ****     SPI_CTL1(spi_periph) |= (uint32_t)SPI_CTL1_TMOD;
 903              		.loc 1 559 5
 904              		.loc 1 559 26 is_stmt 0
 905 0000 5C41     		lw	a5,4(a0)
 906 0002 93E70701 		ori	a5,a5,16
 907 0006 5CC1     		sw	a5,4(a0)
 560:./../../firmware/GD32VF103_standard_peripheral/Source/gd32vf103_spi.c **** }
 908              		.loc 1 560 1
GAS LISTING C:\Users\Karzan\AppData\Local\Temp\ccc8gDRh.s 			page 27


 909 0008 8280     		ret
 910              		.cfi_endproc
 911              	.LFE27:
 913              		.section	.text.spi_ti_mode_disable,"ax",@progbits
 914              		.align	1
 915              		.globl	spi_ti_mode_disable
 917              	spi_ti_mode_disable:
 918              	.LFB28:
 561:./../../firmware/GD32VF103_standard_peripheral/Source/gd32vf103_spi.c **** 
 562:./../../firmware/GD32VF103_standard_peripheral/Source/gd32vf103_spi.c **** /*!
 563:./../../firmware/GD32VF103_standard_peripheral/Source/gd32vf103_spi.c ****     \brief      disable SPI TI mode
 564:./../../firmware/GD32VF103_standard_peripheral/Source/gd32vf103_spi.c ****     \param[in]  spi_periph: SPIx(x=0,1,2)
 565:./../../firmware/GD32VF103_standard_peripheral/Source/gd32vf103_spi.c ****     \param[out] none
 566:./../../firmware/GD32VF103_standard_peripheral/Source/gd32vf103_spi.c ****     \retval     none
 567:./../../firmware/GD32VF103_standard_peripheral/Source/gd32vf103_spi.c **** */
 568:./../../firmware/GD32VF103_standard_peripheral/Source/gd32vf103_spi.c **** void spi_ti_mode_disable(uint32_t spi_periph)
 569:./../../firmware/GD32VF103_standard_peripheral/Source/gd32vf103_spi.c **** {
 919              		.loc 1 569 1 is_stmt 1
 920              		.cfi_startproc
 921              	.LVL83:
 570:./../../firmware/GD32VF103_standard_peripheral/Source/gd32vf103_spi.c ****     SPI_CTL1(spi_periph) &= (uint32_t)(~SPI_CTL1_TMOD);
 922              		.loc 1 570 5
 923              		.loc 1 570 26 is_stmt 0
 924 0000 5C41     		lw	a5,4(a0)
 925 0002 BD9B     		andi	a5,a5,-17
 926 0004 5CC1     		sw	a5,4(a0)
 571:./../../firmware/GD32VF103_standard_peripheral/Source/gd32vf103_spi.c **** }
 927              		.loc 1 571 1
 928 0006 8280     		ret
 929              		.cfi_endproc
 930              	.LFE28:
 932              		.section	.text.spi_nssp_mode_enable,"ax",@progbits
 933              		.align	1
 934              		.globl	spi_nssp_mode_enable
 936              	spi_nssp_mode_enable:
 937              	.LFB29:
 572:./../../firmware/GD32VF103_standard_peripheral/Source/gd32vf103_spi.c **** 
 573:./../../firmware/GD32VF103_standard_peripheral/Source/gd32vf103_spi.c **** /*!
 574:./../../firmware/GD32VF103_standard_peripheral/Source/gd32vf103_spi.c ****     \brief      enable SPI NSS pulse mode
 575:./../../firmware/GD32VF103_standard_peripheral/Source/gd32vf103_spi.c ****     \param[in]  spi_periph: SPIx(x=0,1,2)
 576:./../../firmware/GD32VF103_standard_peripheral/Source/gd32vf103_spi.c ****     \param[out] none
 577:./../../firmware/GD32VF103_standard_peripheral/Source/gd32vf103_spi.c ****     \retval     none
 578:./../../firmware/GD32VF103_standard_peripheral/Source/gd32vf103_spi.c **** */
 579:./../../firmware/GD32VF103_standard_peripheral/Source/gd32vf103_spi.c **** void spi_nssp_mode_enable(uint32_t spi_periph)
 580:./../../firmware/GD32VF103_standard_peripheral/Source/gd32vf103_spi.c **** {
 938              		.loc 1 580 1 is_stmt 1
 939              		.cfi_startproc
 940              	.LVL84:
 581:./../../firmware/GD32VF103_standard_peripheral/Source/gd32vf103_spi.c ****     SPI_CTL1(spi_periph) |= (uint32_t)SPI_CTL1_NSSP;
 941              		.loc 1 581 5
 942              		.loc 1 581 26 is_stmt 0
 943 0000 5C41     		lw	a5,4(a0)
 944 0002 93E78700 		ori	a5,a5,8
 945 0006 5CC1     		sw	a5,4(a0)
 582:./../../firmware/GD32VF103_standard_peripheral/Source/gd32vf103_spi.c **** }
 946              		.loc 1 582 1
 947 0008 8280     		ret
GAS LISTING C:\Users\Karzan\AppData\Local\Temp\ccc8gDRh.s 			page 28


 948              		.cfi_endproc
 949              	.LFE29:
 951              		.section	.text.spi_nssp_mode_disable,"ax",@progbits
 952              		.align	1
 953              		.globl	spi_nssp_mode_disable
 955              	spi_nssp_mode_disable:
 956              	.LFB30:
 583:./../../firmware/GD32VF103_standard_peripheral/Source/gd32vf103_spi.c **** 
 584:./../../firmware/GD32VF103_standard_peripheral/Source/gd32vf103_spi.c **** /*!
 585:./../../firmware/GD32VF103_standard_peripheral/Source/gd32vf103_spi.c ****     \brief      disable SPI NSS pulse mode
 586:./../../firmware/GD32VF103_standard_peripheral/Source/gd32vf103_spi.c ****     \param[in]  spi_periph: SPIx(x=0,1,2)
 587:./../../firmware/GD32VF103_standard_peripheral/Source/gd32vf103_spi.c ****     \param[out] none
 588:./../../firmware/GD32VF103_standard_peripheral/Source/gd32vf103_spi.c ****     \retval     none
 589:./../../firmware/GD32VF103_standard_peripheral/Source/gd32vf103_spi.c **** */
 590:./../../firmware/GD32VF103_standard_peripheral/Source/gd32vf103_spi.c **** void spi_nssp_mode_disable(uint32_t spi_periph)
 591:./../../firmware/GD32VF103_standard_peripheral/Source/gd32vf103_spi.c **** {
 957              		.loc 1 591 1 is_stmt 1
 958              		.cfi_startproc
 959              	.LVL85:
 592:./../../firmware/GD32VF103_standard_peripheral/Source/gd32vf103_spi.c ****     SPI_CTL1(spi_periph) &= (uint32_t)(~SPI_CTL1_NSSP);
 960              		.loc 1 592 5
 961              		.loc 1 592 26 is_stmt 0
 962 0000 5C41     		lw	a5,4(a0)
 963 0002 DD9B     		andi	a5,a5,-9
 964 0004 5CC1     		sw	a5,4(a0)
 593:./../../firmware/GD32VF103_standard_peripheral/Source/gd32vf103_spi.c **** }
 965              		.loc 1 593 1
 966 0006 8280     		ret
 967              		.cfi_endproc
 968              	.LFE30:
 970              		.section	.text.spi_i2s_interrupt_enable,"ax",@progbits
 971              		.align	1
 972              		.globl	spi_i2s_interrupt_enable
 974              	spi_i2s_interrupt_enable:
 975              	.LFB31:
 594:./../../firmware/GD32VF103_standard_peripheral/Source/gd32vf103_spi.c **** 
 595:./../../firmware/GD32VF103_standard_peripheral/Source/gd32vf103_spi.c **** 
 596:./../../firmware/GD32VF103_standard_peripheral/Source/gd32vf103_spi.c **** /*!
 597:./../../firmware/GD32VF103_standard_peripheral/Source/gd32vf103_spi.c ****     \brief      enable SPI and I2S interrupt 
 598:./../../firmware/GD32VF103_standard_peripheral/Source/gd32vf103_spi.c ****     \param[in]  spi_periph: SPIx(x=0,1,2)
 599:./../../firmware/GD32VF103_standard_peripheral/Source/gd32vf103_spi.c ****     \param[in]  interrupt: SPI/I2S interrupt
 600:./../../firmware/GD32VF103_standard_peripheral/Source/gd32vf103_spi.c ****                 only one parameter can be selected which is shown as below:
 601:./../../firmware/GD32VF103_standard_peripheral/Source/gd32vf103_spi.c ****       \arg        SPI_I2S_INT_TBE: transmit buffer empty interrupt
 602:./../../firmware/GD32VF103_standard_peripheral/Source/gd32vf103_spi.c ****       \arg        SPI_I2S_INT_RBNE: receive buffer not empty interrupt
 603:./../../firmware/GD32VF103_standard_peripheral/Source/gd32vf103_spi.c ****       \arg        SPI_I2S_INT_ERR: CRC error,configuration error,reception overrun error,
 604:./../../firmware/GD32VF103_standard_peripheral/Source/gd32vf103_spi.c ****                                    transmission underrun error and format error interrupt
 605:./../../firmware/GD32VF103_standard_peripheral/Source/gd32vf103_spi.c ****     \param[out] none
 606:./../../firmware/GD32VF103_standard_peripheral/Source/gd32vf103_spi.c ****     \retval     none
 607:./../../firmware/GD32VF103_standard_peripheral/Source/gd32vf103_spi.c **** */
 608:./../../firmware/GD32VF103_standard_peripheral/Source/gd32vf103_spi.c **** void spi_i2s_interrupt_enable(uint32_t spi_periph, uint8_t interrupt)
 609:./../../firmware/GD32VF103_standard_peripheral/Source/gd32vf103_spi.c **** {
 976              		.loc 1 609 1 is_stmt 1
 977              		.cfi_startproc
 978              	.LVL86:
 610:./../../firmware/GD32VF103_standard_peripheral/Source/gd32vf103_spi.c ****     switch(interrupt){
 979              		.loc 1 610 5
 980 0000 8547     		li	a5,1
GAS LISTING C:\Users\Karzan\AppData\Local\Temp\ccc8gDRh.s 			page 29


 981 0002 638CF500 		beq	a1,a5,.L64
 982 0006 89C5     		beq	a1,zero,.L65
 983 0008 8947     		li	a5,2
 984 000a 638CF500 		beq	a1,a5,.L66
 985 000e 8280     		ret
 986              	.L65:
 611:./../../firmware/GD32VF103_standard_peripheral/Source/gd32vf103_spi.c ****     /* SPI/I2S transmit buffer empty interrupt */
 612:./../../firmware/GD32VF103_standard_peripheral/Source/gd32vf103_spi.c ****     case SPI_I2S_INT_TBE:
 613:./../../firmware/GD32VF103_standard_peripheral/Source/gd32vf103_spi.c ****         SPI_CTL1(spi_periph) |= (uint32_t)SPI_CTL1_TBEIE;
 987              		.loc 1 613 9
 988              		.loc 1 613 30 is_stmt 0
 989 0010 5C41     		lw	a5,4(a0)
 990 0012 93E70708 		ori	a5,a5,128
 991              	.L68:
 614:./../../firmware/GD32VF103_standard_peripheral/Source/gd32vf103_spi.c ****         break;
 615:./../../firmware/GD32VF103_standard_peripheral/Source/gd32vf103_spi.c ****     /* SPI/I2S receive buffer not empty interrupt */
 616:./../../firmware/GD32VF103_standard_peripheral/Source/gd32vf103_spi.c ****     case SPI_I2S_INT_RBNE:
 617:./../../firmware/GD32VF103_standard_peripheral/Source/gd32vf103_spi.c ****         SPI_CTL1(spi_periph) |= (uint32_t)SPI_CTL1_RBNEIE;
 618:./../../firmware/GD32VF103_standard_peripheral/Source/gd32vf103_spi.c ****         break;
 619:./../../firmware/GD32VF103_standard_peripheral/Source/gd32vf103_spi.c ****     /* SPI/I2S error */
 620:./../../firmware/GD32VF103_standard_peripheral/Source/gd32vf103_spi.c ****     case SPI_I2S_INT_ERR:
 621:./../../firmware/GD32VF103_standard_peripheral/Source/gd32vf103_spi.c ****         SPI_CTL1(spi_periph) |= (uint32_t)SPI_CTL1_ERRIE;
 992              		.loc 1 621 30
 993 0016 5CC1     		sw	a5,4(a0)
 622:./../../firmware/GD32VF103_standard_peripheral/Source/gd32vf103_spi.c ****         break;
 994              		.loc 1 622 9 is_stmt 1
 623:./../../firmware/GD32VF103_standard_peripheral/Source/gd32vf103_spi.c ****     default:
 624:./../../firmware/GD32VF103_standard_peripheral/Source/gd32vf103_spi.c ****         break;
 625:./../../firmware/GD32VF103_standard_peripheral/Source/gd32vf103_spi.c ****     }
 626:./../../firmware/GD32VF103_standard_peripheral/Source/gd32vf103_spi.c **** }
 995              		.loc 1 626 1 is_stmt 0
 996 0018 8280     		ret
 997              	.L64:
 617:./../../firmware/GD32VF103_standard_peripheral/Source/gd32vf103_spi.c ****         break;
 998              		.loc 1 617 9 is_stmt 1
 617:./../../firmware/GD32VF103_standard_peripheral/Source/gd32vf103_spi.c ****         break;
 999              		.loc 1 617 30 is_stmt 0
 1000 001a 5C41     		lw	a5,4(a0)
 1001 001c 93E70704 		ori	a5,a5,64
 1002 0020 DDBF     		j	.L68
 1003              	.L66:
 621:./../../firmware/GD32VF103_standard_peripheral/Source/gd32vf103_spi.c ****         break;
 1004              		.loc 1 621 9 is_stmt 1
 621:./../../firmware/GD32VF103_standard_peripheral/Source/gd32vf103_spi.c ****         break;
 1005              		.loc 1 621 30 is_stmt 0
 1006 0022 5C41     		lw	a5,4(a0)
 1007 0024 93E70702 		ori	a5,a5,32
 1008 0028 FDB7     		j	.L68
 1009              		.cfi_endproc
 1010              	.LFE31:
 1012              		.section	.text.spi_i2s_interrupt_disable,"ax",@progbits
 1013              		.align	1
 1014              		.globl	spi_i2s_interrupt_disable
 1016              	spi_i2s_interrupt_disable:
 1017              	.LFB32:
 627:./../../firmware/GD32VF103_standard_peripheral/Source/gd32vf103_spi.c **** 
 628:./../../firmware/GD32VF103_standard_peripheral/Source/gd32vf103_spi.c **** /*!
GAS LISTING C:\Users\Karzan\AppData\Local\Temp\ccc8gDRh.s 			page 30


 629:./../../firmware/GD32VF103_standard_peripheral/Source/gd32vf103_spi.c ****     \brief      disable SPI and I2S interrupt 
 630:./../../firmware/GD32VF103_standard_peripheral/Source/gd32vf103_spi.c ****     \param[in]  spi_periph: SPIx(x=0,1,2)
 631:./../../firmware/GD32VF103_standard_peripheral/Source/gd32vf103_spi.c ****     \param[in]  interrupt: SPI/I2S interrupt
 632:./../../firmware/GD32VF103_standard_peripheral/Source/gd32vf103_spi.c ****                 only one parameter can be selected which is shown as below:
 633:./../../firmware/GD32VF103_standard_peripheral/Source/gd32vf103_spi.c ****       \arg        SPI_I2S_INT_TBE: transmit buffer empty interrupt
 634:./../../firmware/GD32VF103_standard_peripheral/Source/gd32vf103_spi.c ****       \arg        SPI_I2S_INT_RBNE: receive buffer not empty interrupt
 635:./../../firmware/GD32VF103_standard_peripheral/Source/gd32vf103_spi.c ****       \arg        SPI_I2S_INT_ERR: CRC error,configuration error,reception overrun error,
 636:./../../firmware/GD32VF103_standard_peripheral/Source/gd32vf103_spi.c ****                                    transmission underrun error and format error interrupt
 637:./../../firmware/GD32VF103_standard_peripheral/Source/gd32vf103_spi.c ****     \param[out] none
 638:./../../firmware/GD32VF103_standard_peripheral/Source/gd32vf103_spi.c ****     \retval     none
 639:./../../firmware/GD32VF103_standard_peripheral/Source/gd32vf103_spi.c **** */
 640:./../../firmware/GD32VF103_standard_peripheral/Source/gd32vf103_spi.c **** void spi_i2s_interrupt_disable(uint32_t spi_periph, uint8_t interrupt)
 641:./../../firmware/GD32VF103_standard_peripheral/Source/gd32vf103_spi.c **** {
 1018              		.loc 1 641 1 is_stmt 1
 1019              		.cfi_startproc
 1020              	.LVL87:
 642:./../../firmware/GD32VF103_standard_peripheral/Source/gd32vf103_spi.c ****     switch(interrupt){
 1021              		.loc 1 642 5
 1022 0000 8547     		li	a5,1
 1023 0002 638CF500 		beq	a1,a5,.L70
 1024 0006 89C5     		beq	a1,zero,.L71
 1025 0008 8947     		li	a5,2
 1026 000a 638CF500 		beq	a1,a5,.L72
 1027 000e 8280     		ret
 1028              	.L71:
 643:./../../firmware/GD32VF103_standard_peripheral/Source/gd32vf103_spi.c ****     /* SPI/I2S transmit buffer empty interrupt */
 644:./../../firmware/GD32VF103_standard_peripheral/Source/gd32vf103_spi.c ****     case SPI_I2S_INT_TBE:
 645:./../../firmware/GD32VF103_standard_peripheral/Source/gd32vf103_spi.c ****         SPI_CTL1(spi_periph) &= (uint32_t)(~SPI_CTL1_TBEIE);
 1029              		.loc 1 645 9
 1030              		.loc 1 645 30 is_stmt 0
 1031 0010 5C41     		lw	a5,4(a0)
 1032 0012 93F7F7F7 		andi	a5,a5,-129
 1033              	.L74:
 646:./../../firmware/GD32VF103_standard_peripheral/Source/gd32vf103_spi.c ****         break;
 647:./../../firmware/GD32VF103_standard_peripheral/Source/gd32vf103_spi.c ****     /* SPI/I2S receive buffer not empty interrupt */
 648:./../../firmware/GD32VF103_standard_peripheral/Source/gd32vf103_spi.c ****     case SPI_I2S_INT_RBNE:
 649:./../../firmware/GD32VF103_standard_peripheral/Source/gd32vf103_spi.c ****         SPI_CTL1(spi_periph) &= (uint32_t)(~SPI_CTL1_RBNEIE);
 650:./../../firmware/GD32VF103_standard_peripheral/Source/gd32vf103_spi.c ****         break;
 651:./../../firmware/GD32VF103_standard_peripheral/Source/gd32vf103_spi.c ****     /* SPI/I2S error */
 652:./../../firmware/GD32VF103_standard_peripheral/Source/gd32vf103_spi.c ****     case SPI_I2S_INT_ERR:
 653:./../../firmware/GD32VF103_standard_peripheral/Source/gd32vf103_spi.c ****         SPI_CTL1(spi_periph) &= (uint32_t)(~SPI_CTL1_ERRIE);
 1034              		.loc 1 653 30
 1035 0016 5CC1     		sw	a5,4(a0)
 654:./../../firmware/GD32VF103_standard_peripheral/Source/gd32vf103_spi.c ****         break;
 1036              		.loc 1 654 9 is_stmt 1
 655:./../../firmware/GD32VF103_standard_peripheral/Source/gd32vf103_spi.c ****     default:
 656:./../../firmware/GD32VF103_standard_peripheral/Source/gd32vf103_spi.c ****         break;
 657:./../../firmware/GD32VF103_standard_peripheral/Source/gd32vf103_spi.c ****     }
 658:./../../firmware/GD32VF103_standard_peripheral/Source/gd32vf103_spi.c **** }
 1037              		.loc 1 658 1 is_stmt 0
 1038 0018 8280     		ret
 1039              	.L70:
 649:./../../firmware/GD32VF103_standard_peripheral/Source/gd32vf103_spi.c ****         break;
 1040              		.loc 1 649 9 is_stmt 1
 649:./../../firmware/GD32VF103_standard_peripheral/Source/gd32vf103_spi.c ****         break;
 1041              		.loc 1 649 30 is_stmt 0
 1042 001a 5C41     		lw	a5,4(a0)
GAS LISTING C:\Users\Karzan\AppData\Local\Temp\ccc8gDRh.s 			page 31


 1043 001c 93F7F7FB 		andi	a5,a5,-65
 1044 0020 DDBF     		j	.L74
 1045              	.L72:
 653:./../../firmware/GD32VF103_standard_peripheral/Source/gd32vf103_spi.c ****         break;
 1046              		.loc 1 653 9 is_stmt 1
 653:./../../firmware/GD32VF103_standard_peripheral/Source/gd32vf103_spi.c ****         break;
 1047              		.loc 1 653 30 is_stmt 0
 1048 0022 5C41     		lw	a5,4(a0)
 1049 0024 93F7F7FD 		andi	a5,a5,-33
 1050 0028 FDB7     		j	.L74
 1051              		.cfi_endproc
 1052              	.LFE32:
 1054              		.section	.text.spi_i2s_interrupt_flag_get,"ax",@progbits
 1055              		.align	1
 1056              		.globl	spi_i2s_interrupt_flag_get
 1058              	spi_i2s_interrupt_flag_get:
 1059              	.LFB33:
 659:./../../firmware/GD32VF103_standard_peripheral/Source/gd32vf103_spi.c **** 
 660:./../../firmware/GD32VF103_standard_peripheral/Source/gd32vf103_spi.c **** /*!
 661:./../../firmware/GD32VF103_standard_peripheral/Source/gd32vf103_spi.c ****     \brief      get SPI and I2S interrupt flag status
 662:./../../firmware/GD32VF103_standard_peripheral/Source/gd32vf103_spi.c ****     \param[in]  spi_periph: SPIx(x=0,1,2)
 663:./../../firmware/GD32VF103_standard_peripheral/Source/gd32vf103_spi.c ****     \param[in]  interrupt: SPI/I2S interrupt flag status
 664:./../../firmware/GD32VF103_standard_peripheral/Source/gd32vf103_spi.c ****                 only one parameter can be selected which is shown as below:
 665:./../../firmware/GD32VF103_standard_peripheral/Source/gd32vf103_spi.c ****       \arg        SPI_I2S_INT_FLAG_TBE: transmit buffer empty interrupt flag
 666:./../../firmware/GD32VF103_standard_peripheral/Source/gd32vf103_spi.c ****       \arg        SPI_I2S_INT_FLAG_RBNE: receive buffer not empty interrupt flag
 667:./../../firmware/GD32VF103_standard_peripheral/Source/gd32vf103_spi.c ****       \arg        SPI_I2S_INT_FLAG_RXORERR: overrun interrupt flag
 668:./../../firmware/GD32VF103_standard_peripheral/Source/gd32vf103_spi.c ****       \arg        SPI_INT_FLAG_CONFERR: config error interrupt flag
 669:./../../firmware/GD32VF103_standard_peripheral/Source/gd32vf103_spi.c ****       \arg        SPI_INT_FLAG_CRCERR: CRC error interrupt flag
 670:./../../firmware/GD32VF103_standard_peripheral/Source/gd32vf103_spi.c ****       \arg        I2S_INT_FLAG_TXURERR: underrun error interrupt flag
 671:./../../firmware/GD32VF103_standard_peripheral/Source/gd32vf103_spi.c ****       \arg        SPI_I2S_INT_FLAG_FERR: format error interrupt flag
 672:./../../firmware/GD32VF103_standard_peripheral/Source/gd32vf103_spi.c ****     \param[out] none
 673:./../../firmware/GD32VF103_standard_peripheral/Source/gd32vf103_spi.c ****     \retval     FlagStatus: SET or RESET
 674:./../../firmware/GD32VF103_standard_peripheral/Source/gd32vf103_spi.c **** */
 675:./../../firmware/GD32VF103_standard_peripheral/Source/gd32vf103_spi.c **** FlagStatus spi_i2s_interrupt_flag_get(uint32_t spi_periph, uint8_t interrupt)
 676:./../../firmware/GD32VF103_standard_peripheral/Source/gd32vf103_spi.c **** {
 1060              		.loc 1 676 1 is_stmt 1
 1061              		.cfi_startproc
 1062              	.LVL88:
 677:./../../firmware/GD32VF103_standard_peripheral/Source/gd32vf103_spi.c ****     uint32_t reg1 = SPI_STAT(spi_periph);
 1063              		.loc 1 677 5
 1064              		.loc 1 677 14 is_stmt 0
 1065 0000 1C45     		lw	a5,8(a0)
 1066              	.LVL89:
 678:./../../firmware/GD32VF103_standard_peripheral/Source/gd32vf103_spi.c ****     uint32_t reg2 = SPI_CTL1(spi_periph);
 1067              		.loc 1 678 5 is_stmt 1
 1068              		.loc 1 678 14 is_stmt 0
 1069 0002 5841     		lw	a4,4(a0)
 1070              	.LVL90:
 679:./../../firmware/GD32VF103_standard_peripheral/Source/gd32vf103_spi.c **** 
 680:./../../firmware/GD32VF103_standard_peripheral/Source/gd32vf103_spi.c ****     switch(interrupt){
 1071              		.loc 1 680 5 is_stmt 1
 1072 0004 9946     		li	a3,6
 1073 0006 63EDB600 		bgtu	a1,a3,.L76
 1074 000a B7060000 		lui	a3,%hi(.L78)
 1075 000e 93860600 		addi	a3,a3,%lo(.L78)
 1076 0012 8A05     		slli	a1,a1,2
 1077              	.LVL91:
GAS LISTING C:\Users\Karzan\AppData\Local\Temp\ccc8gDRh.s 			page 32


 1078 0014 B695     		add	a1,a1,a3
 1079 0016 9441     		lw	a3,0(a1)
 1080 0018 8286     		jr	a3
 1081              		.section	.rodata.spi_i2s_interrupt_flag_get,"a",@progbits
 1082              		.align	2
 1083              		.align	2
 1084              	.L78:
 1085 0000 00000000 		.word	.L84
 1086 0004 00000000 		.word	.L83
 1087 0008 00000000 		.word	.L82
 1088 000c 00000000 		.word	.L81
 1089 0010 00000000 		.word	.L80
 1090 0014 00000000 		.word	.L79
 1091 0018 00000000 		.word	.L77
 1092              		.section	.text.spi_i2s_interrupt_flag_get
 1093              	.L84:
 681:./../../firmware/GD32VF103_standard_peripheral/Source/gd32vf103_spi.c ****     /* SPI/I2S transmit buffer empty interrupt */
 682:./../../firmware/GD32VF103_standard_peripheral/Source/gd32vf103_spi.c ****     case SPI_I2S_INT_FLAG_TBE:
 683:./../../firmware/GD32VF103_standard_peripheral/Source/gd32vf103_spi.c ****         reg1 = reg1 & SPI_STAT_TBE;
 1094              		.loc 1 683 9
 1095              		.loc 1 683 14 is_stmt 0
 1096 001a 898B     		andi	a5,a5,2
 1097              	.LVL92:
 684:./../../firmware/GD32VF103_standard_peripheral/Source/gd32vf103_spi.c ****         reg2 = reg2 & SPI_CTL1_TBEIE;
 1098              		.loc 1 684 9 is_stmt 1
 1099              		.loc 1 684 14 is_stmt 0
 1100 001c 13770708 		andi	a4,a4,128
 1101              	.LVL93:
 685:./../../firmware/GD32VF103_standard_peripheral/Source/gd32vf103_spi.c ****         break;
 1102              		.loc 1 685 9 is_stmt 1
 1103              	.L76:
 686:./../../firmware/GD32VF103_standard_peripheral/Source/gd32vf103_spi.c ****     /* SPI/I2S receive buffer not empty interrupt */
 687:./../../firmware/GD32VF103_standard_peripheral/Source/gd32vf103_spi.c ****     case SPI_I2S_INT_FLAG_RBNE:
 688:./../../firmware/GD32VF103_standard_peripheral/Source/gd32vf103_spi.c ****         reg1 = reg1 & SPI_STAT_RBNE;
 689:./../../firmware/GD32VF103_standard_peripheral/Source/gd32vf103_spi.c ****         reg2 = reg2 & SPI_CTL1_RBNEIE;
 690:./../../firmware/GD32VF103_standard_peripheral/Source/gd32vf103_spi.c ****         break;
 691:./../../firmware/GD32VF103_standard_peripheral/Source/gd32vf103_spi.c ****     /* SPI/I2S overrun interrupt */
 692:./../../firmware/GD32VF103_standard_peripheral/Source/gd32vf103_spi.c ****     case SPI_I2S_INT_FLAG_RXORERR:
 693:./../../firmware/GD32VF103_standard_peripheral/Source/gd32vf103_spi.c ****         reg1 = reg1 & SPI_STAT_RXORERR;
 694:./../../firmware/GD32VF103_standard_peripheral/Source/gd32vf103_spi.c ****         reg2 = reg2 & SPI_CTL1_ERRIE;
 695:./../../firmware/GD32VF103_standard_peripheral/Source/gd32vf103_spi.c ****         break;
 696:./../../firmware/GD32VF103_standard_peripheral/Source/gd32vf103_spi.c ****     /* SPI config error interrupt */
 697:./../../firmware/GD32VF103_standard_peripheral/Source/gd32vf103_spi.c ****     case SPI_INT_FLAG_CONFERR:
 698:./../../firmware/GD32VF103_standard_peripheral/Source/gd32vf103_spi.c ****         reg1 = reg1 & SPI_STAT_CONFERR;
 699:./../../firmware/GD32VF103_standard_peripheral/Source/gd32vf103_spi.c ****         reg2 = reg2 & SPI_CTL1_ERRIE;
 700:./../../firmware/GD32VF103_standard_peripheral/Source/gd32vf103_spi.c ****         break;
 701:./../../firmware/GD32VF103_standard_peripheral/Source/gd32vf103_spi.c ****     /* SPI CRC error interrupt */
 702:./../../firmware/GD32VF103_standard_peripheral/Source/gd32vf103_spi.c ****     case SPI_INT_FLAG_CRCERR:
 703:./../../firmware/GD32VF103_standard_peripheral/Source/gd32vf103_spi.c ****         reg1 = reg1 & SPI_STAT_CRCERR;
 704:./../../firmware/GD32VF103_standard_peripheral/Source/gd32vf103_spi.c ****         reg2 = reg2 & SPI_CTL1_ERRIE;
 705:./../../firmware/GD32VF103_standard_peripheral/Source/gd32vf103_spi.c ****         break;
 706:./../../firmware/GD32VF103_standard_peripheral/Source/gd32vf103_spi.c ****     /* I2S underrun error interrupt */
 707:./../../firmware/GD32VF103_standard_peripheral/Source/gd32vf103_spi.c ****     case I2S_INT_FLAG_TXURERR:
 708:./../../firmware/GD32VF103_standard_peripheral/Source/gd32vf103_spi.c ****         reg1 = reg1 & SPI_STAT_TXURERR;
 709:./../../firmware/GD32VF103_standard_peripheral/Source/gd32vf103_spi.c ****         reg2 = reg2 & SPI_CTL1_ERRIE;
 710:./../../firmware/GD32VF103_standard_peripheral/Source/gd32vf103_spi.c ****         break;
 711:./../../firmware/GD32VF103_standard_peripheral/Source/gd32vf103_spi.c ****     /* SPI/I2S format error interrupt */
GAS LISTING C:\Users\Karzan\AppData\Local\Temp\ccc8gDRh.s 			page 33


 712:./../../firmware/GD32VF103_standard_peripheral/Source/gd32vf103_spi.c ****     case SPI_I2S_INT_FLAG_FERR:
 713:./../../firmware/GD32VF103_standard_peripheral/Source/gd32vf103_spi.c ****         reg1 = reg1 & SPI_STAT_FERR;
 714:./../../firmware/GD32VF103_standard_peripheral/Source/gd32vf103_spi.c ****         reg2 = reg2 & SPI_CTL1_ERRIE;
 715:./../../firmware/GD32VF103_standard_peripheral/Source/gd32vf103_spi.c ****         break;
 716:./../../firmware/GD32VF103_standard_peripheral/Source/gd32vf103_spi.c ****     default:
 717:./../../firmware/GD32VF103_standard_peripheral/Source/gd32vf103_spi.c ****         break;
 718:./../../firmware/GD32VF103_standard_peripheral/Source/gd32vf103_spi.c ****     }
 719:./../../firmware/GD32VF103_standard_peripheral/Source/gd32vf103_spi.c ****     /* get SPI/I2S interrupt flag status */
 720:./../../firmware/GD32VF103_standard_peripheral/Source/gd32vf103_spi.c ****     if((0U != reg1) && (0U != reg2)){
 1104              		.loc 1 720 5
 1105              		.loc 1 720 7 is_stmt 0
 1106 0020 99C3     		beq	a5,zero,.L75
 1107              		.loc 1 720 21 discriminator 1
 1108 0022 B337E000 		snez	a5,a4
 1109              	.LVL94:
 1110              	.L75:
 721:./../../firmware/GD32VF103_standard_peripheral/Source/gd32vf103_spi.c ****         return SET;
 722:./../../firmware/GD32VF103_standard_peripheral/Source/gd32vf103_spi.c ****     }else{
 723:./../../firmware/GD32VF103_standard_peripheral/Source/gd32vf103_spi.c ****         return RESET;
 724:./../../firmware/GD32VF103_standard_peripheral/Source/gd32vf103_spi.c ****     }
 725:./../../firmware/GD32VF103_standard_peripheral/Source/gd32vf103_spi.c **** }
 1111              		.loc 1 725 1
 1112 0026 3E85     		mv	a0,a5
 1113              	.LVL95:
 1114 0028 8280     		ret
 1115              	.LVL96:
 1116              	.L83:
 688:./../../firmware/GD32VF103_standard_peripheral/Source/gd32vf103_spi.c ****         reg2 = reg2 & SPI_CTL1_RBNEIE;
 1117              		.loc 1 688 9 is_stmt 1
 688:./../../firmware/GD32VF103_standard_peripheral/Source/gd32vf103_spi.c ****         reg2 = reg2 & SPI_CTL1_RBNEIE;
 1118              		.loc 1 688 14 is_stmt 0
 1119 002a 858B     		andi	a5,a5,1
 1120              	.LVL97:
 689:./../../firmware/GD32VF103_standard_peripheral/Source/gd32vf103_spi.c ****         break;
 1121              		.loc 1 689 9 is_stmt 1
 689:./../../firmware/GD32VF103_standard_peripheral/Source/gd32vf103_spi.c ****         break;
 1122              		.loc 1 689 14 is_stmt 0
 1123 002c 13770704 		andi	a4,a4,64
 1124              	.LVL98:
 690:./../../firmware/GD32VF103_standard_peripheral/Source/gd32vf103_spi.c ****     /* SPI/I2S overrun interrupt */
 1125              		.loc 1 690 9 is_stmt 1
 1126 0030 C5BF     		j	.L76
 1127              	.L82:
 693:./../../firmware/GD32VF103_standard_peripheral/Source/gd32vf103_spi.c ****         reg2 = reg2 & SPI_CTL1_ERRIE;
 1128              		.loc 1 693 9
 693:./../../firmware/GD32VF103_standard_peripheral/Source/gd32vf103_spi.c ****         reg2 = reg2 & SPI_CTL1_ERRIE;
 1129              		.loc 1 693 14 is_stmt 0
 1130 0032 93F70704 		andi	a5,a5,64
 1131              	.LVL99:
 694:./../../firmware/GD32VF103_standard_peripheral/Source/gd32vf103_spi.c ****         break;
 1132              		.loc 1 694 9 is_stmt 1
 1133              	.L89:
 714:./../../firmware/GD32VF103_standard_peripheral/Source/gd32vf103_spi.c ****         break;
 1134              		.loc 1 714 9
 714:./../../firmware/GD32VF103_standard_peripheral/Source/gd32vf103_spi.c ****         break;
 1135              		.loc 1 714 14 is_stmt 0
 1136 0036 13770702 		andi	a4,a4,32
GAS LISTING C:\Users\Karzan\AppData\Local\Temp\ccc8gDRh.s 			page 34


 1137              	.LVL100:
 715:./../../firmware/GD32VF103_standard_peripheral/Source/gd32vf103_spi.c ****     default:
 1138              		.loc 1 715 9 is_stmt 1
 1139 003a DDB7     		j	.L76
 1140              	.L81:
 698:./../../firmware/GD32VF103_standard_peripheral/Source/gd32vf103_spi.c ****         reg2 = reg2 & SPI_CTL1_ERRIE;
 1141              		.loc 1 698 9
 698:./../../firmware/GD32VF103_standard_peripheral/Source/gd32vf103_spi.c ****         reg2 = reg2 & SPI_CTL1_ERRIE;
 1142              		.loc 1 698 14 is_stmt 0
 1143 003c 93F70702 		andi	a5,a5,32
 1144              	.LVL101:
 699:./../../firmware/GD32VF103_standard_peripheral/Source/gd32vf103_spi.c ****         break;
 1145              		.loc 1 699 9 is_stmt 1
 1146 0040 DDBF     		j	.L89
 1147              	.L80:
 703:./../../firmware/GD32VF103_standard_peripheral/Source/gd32vf103_spi.c ****         reg2 = reg2 & SPI_CTL1_ERRIE;
 1148              		.loc 1 703 9
 703:./../../firmware/GD32VF103_standard_peripheral/Source/gd32vf103_spi.c ****         reg2 = reg2 & SPI_CTL1_ERRIE;
 1149              		.loc 1 703 14 is_stmt 0
 1150 0042 C18B     		andi	a5,a5,16
 1151              	.LVL102:
 704:./../../firmware/GD32VF103_standard_peripheral/Source/gd32vf103_spi.c ****         break;
 1152              		.loc 1 704 9 is_stmt 1
 1153 0044 CDBF     		j	.L89
 1154              	.L79:
 708:./../../firmware/GD32VF103_standard_peripheral/Source/gd32vf103_spi.c ****         reg2 = reg2 & SPI_CTL1_ERRIE;
 1155              		.loc 1 708 9
 708:./../../firmware/GD32VF103_standard_peripheral/Source/gd32vf103_spi.c ****         reg2 = reg2 & SPI_CTL1_ERRIE;
 1156              		.loc 1 708 14 is_stmt 0
 1157 0046 A18B     		andi	a5,a5,8
 1158              	.LVL103:
 709:./../../firmware/GD32VF103_standard_peripheral/Source/gd32vf103_spi.c ****         break;
 1159              		.loc 1 709 9 is_stmt 1
 1160 0048 FDB7     		j	.L89
 1161              	.L77:
 713:./../../firmware/GD32VF103_standard_peripheral/Source/gd32vf103_spi.c ****         reg2 = reg2 & SPI_CTL1_ERRIE;
 1162              		.loc 1 713 9
 713:./../../firmware/GD32VF103_standard_peripheral/Source/gd32vf103_spi.c ****         reg2 = reg2 & SPI_CTL1_ERRIE;
 1163              		.loc 1 713 14 is_stmt 0
 1164 004a 93F70710 		andi	a5,a5,256
 1165              	.LVL104:
 1166 004e E5B7     		j	.L89
 1167              		.cfi_endproc
 1168              	.LFE33:
 1170              		.section	.text.spi_i2s_flag_get,"ax",@progbits
 1171              		.align	1
 1172              		.globl	spi_i2s_flag_get
 1174              	spi_i2s_flag_get:
 1175              	.LFB34:
 726:./../../firmware/GD32VF103_standard_peripheral/Source/gd32vf103_spi.c **** 
 727:./../../firmware/GD32VF103_standard_peripheral/Source/gd32vf103_spi.c **** /*!
 728:./../../firmware/GD32VF103_standard_peripheral/Source/gd32vf103_spi.c ****     \brief      get SPI and I2S flag status
 729:./../../firmware/GD32VF103_standard_peripheral/Source/gd32vf103_spi.c ****     \param[in]  spi_periph: SPIx(x=0,1,2)
 730:./../../firmware/GD32VF103_standard_peripheral/Source/gd32vf103_spi.c ****     \param[in]  flag: SPI/I2S flag status
 731:./../../firmware/GD32VF103_standard_peripheral/Source/gd32vf103_spi.c ****                 one or more parameters can be selected which are shown as below:
 732:./../../firmware/GD32VF103_standard_peripheral/Source/gd32vf103_spi.c ****       \arg        SPI_FLAG_TBE: transmit buffer empty flag
 733:./../../firmware/GD32VF103_standard_peripheral/Source/gd32vf103_spi.c ****       \arg        SPI_FLAG_RBNE: receive buffer not empty flag
GAS LISTING C:\Users\Karzan\AppData\Local\Temp\ccc8gDRh.s 			page 35


 734:./../../firmware/GD32VF103_standard_peripheral/Source/gd32vf103_spi.c ****       \arg        SPI_FLAG_TRANS: transmit on-going flag
 735:./../../firmware/GD32VF103_standard_peripheral/Source/gd32vf103_spi.c ****       \arg        SPI_FLAG_RXORERR: receive overrun error flag
 736:./../../firmware/GD32VF103_standard_peripheral/Source/gd32vf103_spi.c ****       \arg        SPI_FLAG_CONFERR: mode config error flag
 737:./../../firmware/GD32VF103_standard_peripheral/Source/gd32vf103_spi.c ****       \arg        SPI_FLAG_CRCERR: CRC error flag
 738:./../../firmware/GD32VF103_standard_peripheral/Source/gd32vf103_spi.c ****       \arg        SPI_FLAG_FERR: format error interrupt flag
 739:./../../firmware/GD32VF103_standard_peripheral/Source/gd32vf103_spi.c ****       \arg        I2S_FLAG_TBE: transmit buffer empty flag
 740:./../../firmware/GD32VF103_standard_peripheral/Source/gd32vf103_spi.c ****       \arg        I2S_FLAG_RBNE: receive buffer not empty flag
 741:./../../firmware/GD32VF103_standard_peripheral/Source/gd32vf103_spi.c ****       \arg        I2S_FLAG_TRANS: transmit on-going flag
 742:./../../firmware/GD32VF103_standard_peripheral/Source/gd32vf103_spi.c ****       \arg        I2S_FLAG_RXORERR: overrun error flag
 743:./../../firmware/GD32VF103_standard_peripheral/Source/gd32vf103_spi.c ****       \arg        I2S_FLAG_TXURERR: underrun error flag
 744:./../../firmware/GD32VF103_standard_peripheral/Source/gd32vf103_spi.c ****       \arg        I2S_FLAG_CH: channel side flag
 745:./../../firmware/GD32VF103_standard_peripheral/Source/gd32vf103_spi.c ****       \arg        I2S_FLAG_FERR: format error interrupt flag
 746:./../../firmware/GD32VF103_standard_peripheral/Source/gd32vf103_spi.c ****     \param[out] none
 747:./../../firmware/GD32VF103_standard_peripheral/Source/gd32vf103_spi.c ****     \retval     FlagStatus: SET or RESET
 748:./../../firmware/GD32VF103_standard_peripheral/Source/gd32vf103_spi.c **** */
 749:./../../firmware/GD32VF103_standard_peripheral/Source/gd32vf103_spi.c **** FlagStatus spi_i2s_flag_get(uint32_t spi_periph, uint32_t flag)
 750:./../../firmware/GD32VF103_standard_peripheral/Source/gd32vf103_spi.c **** {
 1176              		.loc 1 750 1 is_stmt 1
 1177              		.cfi_startproc
 1178              	.LVL105:
 751:./../../firmware/GD32VF103_standard_peripheral/Source/gd32vf103_spi.c ****     if(RESET != (SPI_STAT(spi_periph) & flag)){
 1179              		.loc 1 751 5
 1180              		.loc 1 751 18 is_stmt 0
 1181 0000 0845     		lw	a0,8(a0)
 1182              	.LVL106:
 1183              		.loc 1 751 39
 1184 0002 6D8D     		and	a0,a0,a1
 752:./../../firmware/GD32VF103_standard_peripheral/Source/gd32vf103_spi.c ****         return SET;
 753:./../../firmware/GD32VF103_standard_peripheral/Source/gd32vf103_spi.c ****     }else{
 754:./../../firmware/GD32VF103_standard_peripheral/Source/gd32vf103_spi.c ****         return RESET;
 755:./../../firmware/GD32VF103_standard_peripheral/Source/gd32vf103_spi.c ****     }
 756:./../../firmware/GD32VF103_standard_peripheral/Source/gd32vf103_spi.c **** }
 1185              		.loc 1 756 1
 1186 0004 3335A000 		snez	a0,a0
 1187 0008 8280     		ret
 1188              		.cfi_endproc
 1189              	.LFE34:
 1191              		.section	.text.spi_crc_error_clear,"ax",@progbits
 1192              		.align	1
 1193              		.globl	spi_crc_error_clear
 1195              	spi_crc_error_clear:
 1196              	.LFB35:
 757:./../../firmware/GD32VF103_standard_peripheral/Source/gd32vf103_spi.c **** 
 758:./../../firmware/GD32VF103_standard_peripheral/Source/gd32vf103_spi.c **** /*!
 759:./../../firmware/GD32VF103_standard_peripheral/Source/gd32vf103_spi.c ****     \brief      clear SPI CRC error flag status
 760:./../../firmware/GD32VF103_standard_peripheral/Source/gd32vf103_spi.c ****     \param[in]  spi_periph: SPIx(x=0,1,2)
 761:./../../firmware/GD32VF103_standard_peripheral/Source/gd32vf103_spi.c ****     \param[out] none
 762:./../../firmware/GD32VF103_standard_peripheral/Source/gd32vf103_spi.c ****     \retval     none
 763:./../../firmware/GD32VF103_standard_peripheral/Source/gd32vf103_spi.c **** */
 764:./../../firmware/GD32VF103_standard_peripheral/Source/gd32vf103_spi.c **** void spi_crc_error_clear(uint32_t spi_periph)
 765:./../../firmware/GD32VF103_standard_peripheral/Source/gd32vf103_spi.c **** {
 1197              		.loc 1 765 1 is_stmt 1
 1198              		.cfi_startproc
 1199              	.LVL107:
 766:./../../firmware/GD32VF103_standard_peripheral/Source/gd32vf103_spi.c ****     SPI_STAT(spi_periph) &= (uint32_t)(~SPI_FLAG_CRCERR);
 1200              		.loc 1 766 5
 1201              		.loc 1 766 26 is_stmt 0
GAS LISTING C:\Users\Karzan\AppData\Local\Temp\ccc8gDRh.s 			page 36


 1202 0000 1C45     		lw	a5,8(a0)
 1203 0002 BD9B     		andi	a5,a5,-17
 1204 0004 1CC5     		sw	a5,8(a0)
 767:./../../firmware/GD32VF103_standard_peripheral/Source/gd32vf103_spi.c **** }
 1205              		.loc 1 767 1
 1206 0006 8280     		ret
 1207              		.cfi_endproc
 1208              	.LFE35:
 1210              		.text
 1211              	.Letext0:
 1212              		.file 2 "c:\\users\\karzan\\downloads\\toolchain-gd32v-v202-win\\toolchain-gd32v-v202-win\\compile
 1213              		.file 3 "c:\\users\\karzan\\downloads\\toolchain-gd32v-v202-win\\toolchain-gd32v-v202-win\\compile
 1214              		.file 4 "./../../firmware/GD32VF103_standard_peripheral/gd32vf103.h"
 1215              		.file 5 "./../../firmware/GD32VF103_standard_peripheral/Include/gd32vf103_rcu.h"
 1216              		.file 6 "./../../firmware/GD32VF103_standard_peripheral/Include/gd32vf103_spi.h"
 1217              		.file 7 "./../../firmware/GD32VF103_standard_peripheral/system_gd32vf103.h"
GAS LISTING C:\Users\Karzan\AppData\Local\Temp\ccc8gDRh.s 			page 37

