GAS LISTING C:\Users\Karzan\AppData\Local\Temp\ccedaamX.s 			page 1


   1              		.file	"lcd.c"
   2              		.option nopic
   3              		.attribute arch, "rv32i2p0_m2p0_a2p0_c2p0"
   4              		.attribute unaligned_access, 0
   5              		.attribute stack_align, 16
   6              		.text
   7              	.Ltext0:
   8              		.cfi_sections	.debug_frame
   9              		.globl	__floatundidf
  10              		.globl	__floatunsidf
  11              		.globl	__divdf3
  12              		.globl	__muldf3
  13              		.globl	__ltdf2
  14              		.section	.text.lcd_delay_1ms,"ax",@progbits
  15              		.align	1
  16              		.globl	lcd_delay_1ms
  18              	lcd_delay_1ms:
  19              	.LFB2:
  20              		.file 1 "lcd.c"
   1:lcd.c         **** /*
   2:lcd.c         ****   Longan Nano LCD driver
   3:lcd.c         **** */
   4:lcd.c         **** 
   5:lcd.c         **** #include "lcd.h"
   6:lcd.c         **** #include "oledfont.h"
   7:lcd.c         **** 
   8:lcd.c         **** u16 BACK_COLOR;	// Background color
   9:lcd.c         **** 
  10:lcd.c         **** typedef struct{
  11:lcd.c         **** 	u8 configured;
  12:lcd.c         **** 	u8 inverted;
  13:lcd.c         **** 	u8 offset_x;
  14:lcd.c         **** 	u8 offset_y;
  15:lcd.c         **** }lcd_config_t;
  16:lcd.c         **** 
  17:lcd.c         **** lcd_config_t lcd_conf = {0};
  18:lcd.c         **** 
  19:lcd.c         **** 
  20:lcd.c         **** void lcd_delay_1ms(uint32_t count)
  21:lcd.c         **** {
  21              		.loc 1 21 1
  22              		.cfi_startproc
  23              	.LVL0:
  22:lcd.c         **** 	uint64_t start_mtime, delta_mtime;
  24              		.loc 1 22 2
  23:lcd.c         **** 
  24:lcd.c         **** 	// Don't start measuring until we see an mtime tick
  25:lcd.c         **** 	uint64_t tmp = get_timer_value();
  25              		.loc 1 25 2
  21:lcd.c         **** 	uint64_t start_mtime, delta_mtime;
  26              		.loc 1 21 1 is_stmt 0
  27 0000 7971     		addi	sp,sp,-48
  28              	.LCFI0:
  29              		.cfi_def_cfa_offset 48
  30 0002 4AD0     		sw	s2,32(sp)
  31 0004 4ECE     		sw	s3,28(sp)
  32 0006 5AC8     		sw	s6,16(sp)
GAS LISTING C:\Users\Karzan\AppData\Local\Temp\ccedaamX.s 			page 2


  33 0008 06D6     		sw	ra,44(sp)
  34 000a 22D4     		sw	s0,40(sp)
  35 000c 26D2     		sw	s1,36(sp)
  36 000e 52CC     		sw	s4,24(sp)
  37 0010 56CA     		sw	s5,20(sp)
  38 0012 5EC6     		sw	s7,12(sp)
  39 0014 62C4     		sw	s8,8(sp)
  40 0016 66C2     		sw	s9,4(sp)
  41              		.cfi_offset 18, -16
  42              		.cfi_offset 19, -20
  43              		.cfi_offset 22, -32
  44              		.cfi_offset 1, -4
  45              		.cfi_offset 8, -8
  46              		.cfi_offset 9, -12
  47              		.cfi_offset 20, -24
  48              		.cfi_offset 21, -28
  49              		.cfi_offset 23, -36
  50              		.cfi_offset 24, -40
  51              		.cfi_offset 25, -44
  21:lcd.c         **** 	uint64_t start_mtime, delta_mtime;
  52              		.loc 1 21 1
  53 0018 2A8B     		mv	s6,a0
  54              		.loc 1 25 17
  55 001a 97000000 		call	get_timer_value
  55      E7800000 
  56              	.LVL1:
  57 0022 AA89     		mv	s3,a0
  58 0024 2E89     		mv	s2,a1
  59              	.LVL2:
  60              	.L2:
  26:lcd.c         **** 	do {
  61              		.loc 1 26 2 is_stmt 1 discriminator 1
  27:lcd.c         **** 	start_mtime = get_timer_value();
  62              		.loc 1 27 2 discriminator 1
  63              		.loc 1 27 16 is_stmt 0 discriminator 1
  64 0026 97000000 		call	get_timer_value
  64      E7800000 
  65              	.LVL3:
  66 002e AA84     		mv	s1,a0
  67 0030 2E84     		mv	s0,a1
  68              	.LVL4:
  28:lcd.c         **** 	} while (start_mtime == tmp);
  69              		.loc 1 28 2 discriminator 1
  70 0032 6394A900 		bne	s3,a0,.L3
  71 0036 E308B9FE 		beq	s2,a1,.L2
  72              	.L3:
  29:lcd.c         **** 
  30:lcd.c         **** 	do {
  31:lcd.c         **** 	delta_mtime = get_timer_value() - start_mtime;
  32:lcd.c         **** 	}while(delta_mtime <(SystemCoreClock/4000.0 *count ));
  73              		.loc 1 32 38 discriminator 1
  74 003a B7070000 		lui	a5,%hi(.LC0)
  75 003e 03A90700 		lw	s2,%lo(.LC0)(a5)
  76              	.LVL5:
  77 0042 83A94700 		lw	s3,%lo(.LC0+4)(a5)
  78 0046 B70B0000 		lui	s7,%hi(SystemCoreClock)
  79              	.L4:
GAS LISTING C:\Users\Karzan\AppData\Local\Temp\ccedaamX.s 			page 3


  30:lcd.c         **** 	delta_mtime = get_timer_value() - start_mtime;
  80              		.loc 1 30 2 is_stmt 1 discriminator 1
  31:lcd.c         **** 	}while(delta_mtime <(SystemCoreClock/4000.0 *count ));
  81              		.loc 1 31 2 discriminator 1
  31:lcd.c         **** 	}while(delta_mtime <(SystemCoreClock/4000.0 *count ));
  82              		.loc 1 31 16 is_stmt 0 discriminator 1
  83 004a 97000000 		call	get_timer_value
  83      E7800000 
  84              	.LVL6:
  85 0052 AA87     		mv	a5,a0
  31:lcd.c         **** 	}while(delta_mtime <(SystemCoreClock/4000.0 *count ));
  86              		.loc 1 31 14 discriminator 1
  87 0054 058D     		sub	a0,a0,s1
  88              	.LVL7:
  89 0056 B3B7A700 		sgtu	a5,a0,a5
  90              	.LVL8:
  91 005a 818D     		sub	a1,a1,s0
  92              		.loc 1 32 21 discriminator 1
  93 005c 9D8D     		sub	a1,a1,a5
  94 005e 97000000 		call	__floatundidf
  94      E7800000 
  95              	.LVL9:
  96 0066 2A8A     		mv	s4,a0
  97              		.loc 1 32 38 discriminator 1
  98 0068 03A50B00 		lw	a0,%lo(SystemCoreClock)(s7)
  99              		.loc 1 32 21 discriminator 1
 100 006c AE8A     		mv	s5,a1
 101              		.loc 1 32 38 discriminator 1
 102 006e 97000000 		call	__floatunsidf
 102      E7800000 
 103              	.LVL10:
 104 0076 4A86     		mv	a2,s2
 105 0078 CE86     		mv	a3,s3
 106 007a 97000000 		call	__divdf3
 106      E7800000 
 107              	.LVL11:
 108 0082 2A8C     		mv	s8,a0
 109              		.loc 1 32 46 discriminator 1
 110 0084 5A85     		mv	a0,s6
 111              		.loc 1 32 38 discriminator 1
 112 0086 AE8C     		mv	s9,a1
 113              		.loc 1 32 46 discriminator 1
 114 0088 97000000 		call	__floatunsidf
 114      E7800000 
 115              	.LVL12:
 116 0090 2A86     		mv	a2,a0
 117 0092 AE86     		mv	a3,a1
 118 0094 6285     		mv	a0,s8
 119 0096 E685     		mv	a1,s9
 120 0098 97000000 		call	__muldf3
 120      E7800000 
 121              	.LVL13:
 122              		.loc 1 32 2 discriminator 1
 123 00a0 2A86     		mv	a2,a0
 124 00a2 AE86     		mv	a3,a1
 125 00a4 5285     		mv	a0,s4
 126 00a6 D685     		mv	a1,s5
GAS LISTING C:\Users\Karzan\AppData\Local\Temp\ccedaamX.s 			page 4


 127 00a8 97000000 		call	__ltdf2
 127      E7800000 
 128              	.LVL14:
 129 00b0 E34D05F8 		blt	a0,zero,.L4
  33:lcd.c         **** }
 130              		.loc 1 33 1
 131 00b4 B250     		lw	ra,44(sp)
 132              		.cfi_restore 1
 133 00b6 2254     		lw	s0,40(sp)
 134              		.cfi_restore 8
 135              	.LVL15:
 136 00b8 9254     		lw	s1,36(sp)
 137              		.cfi_restore 9
 138 00ba 0259     		lw	s2,32(sp)
 139              		.cfi_restore 18
 140 00bc F249     		lw	s3,28(sp)
 141              		.cfi_restore 19
 142 00be 624A     		lw	s4,24(sp)
 143              		.cfi_restore 20
 144 00c0 D24A     		lw	s5,20(sp)
 145              		.cfi_restore 21
 146 00c2 424B     		lw	s6,16(sp)
 147              		.cfi_restore 22
 148              	.LVL16:
 149 00c4 B24B     		lw	s7,12(sp)
 150              		.cfi_restore 23
 151 00c6 224C     		lw	s8,8(sp)
 152              		.cfi_restore 24
 153 00c8 924C     		lw	s9,4(sp)
 154              		.cfi_restore 25
 155 00ca 4561     		addi	sp,sp,48
 156              	.LCFI1:
 157              		.cfi_def_cfa_offset 0
 158 00cc 8280     		jr	ra
 159              		.cfi_endproc
 160              	.LFE2:
 162              		.section	.text.LCD_WR_Queue,"ax",@progbits
 163              		.align	1
 164              		.globl	LCD_WR_Queue
 166              	LCD_WR_Queue:
 167              	.LFB4:
  34:lcd.c         **** 
  35:lcd.c         **** 
  36:lcd.c         **** 
  37:lcd.c         **** int r=0, w=0, queue[256]={0};                       // 256 Byte wr queue
  38:lcd.c         **** 
  39:lcd.c         **** void LCD_Wait_On_Queue(){
  40:lcd.c         **** 	while(r != w) LCD_WR_Queue();					//Blocks while emptying the queue
  41:lcd.c         **** }
  42:lcd.c         **** 
  43:lcd.c         **** void LCD_WR_Queue(){
 168              		.loc 1 43 20 is_stmt 1
 169              		.cfi_startproc
  44:lcd.c         ****     if (r!=w) {                                     // Buffer empty?
 170              		.loc 1 44 5
  43:lcd.c         ****     if (r!=w) {                                     // Buffer empty?
 171              		.loc 1 43 20 is_stmt 0
GAS LISTING C:\Users\Karzan\AppData\Local\Temp\ccedaamX.s 			page 5


 172 0000 4111     		addi	sp,sp,-16
 173              	.LCFI2:
 174              		.cfi_def_cfa_offset 16
 175 0002 22C4     		sw	s0,8(sp)
 176              		.loc 1 44 8
 177 0004 B7070000 		lui	a5,%hi(.LANCHOR1)
 178              		.cfi_offset 8, -8
 179              		.loc 1 44 10
 180 0008 37040000 		lui	s0,%hi(.LANCHOR0)
 181              		.loc 1 44 8
 182 000c 03270400 		lw	a4,%lo(.LANCHOR0)(s0)
 183 0010 83A70700 		lw	a5,%lo(.LANCHOR1)(a5)
  43:lcd.c         ****     if (r!=w) {                                     // Buffer empty?
 184              		.loc 1 43 20
 185 0014 06C6     		sw	ra,12(sp)
 186 0016 26C2     		sw	s1,4(sp)
 187              		.cfi_offset 1, -4
 188              		.cfi_offset 9, -12
 189              		.loc 1 44 8
 190 0018 630AF708 		beq	a4,a5,.L8
  45:lcd.c         ****        if (spi_i2s_flag_get(SPI1,SPI_FLAG_TBE)) {   // ...no! Device redy?
 191              		.loc 1 45 8 is_stmt 1
 192              		.loc 1 45 12 is_stmt 0
 193 001c 37450040 		li	a0,1073758208
 194 0020 8945     		li	a1,2
 195 0022 13050580 		addi	a0,a0,-2048
 196 0026 97000000 		call	spi_i2s_flag_get
 196      E7800000 
 197              	.LVL17:
 198              		.loc 1 45 11
 199 002e 2DC5     		beq	a0,zero,.L7
 200              	.LBB168:
 201              	.LBB169:
  46:lcd.c         ****           OLED_CS_Clr();                            // ......Yes! CS (again)
 202              		.loc 1 46 11
 203 0030 8965     		li	a1,8192
 204 0032 37150140 		li	a0,1073811456
 205 0036 97000000 		call	gpio_bit_reset
 205      E7800000 
 206              	.LVL18:
 207 003e 13040400 		addi	s0,s0,%lo(.LANCHOR0)
 208              		.loc 1 46 11 is_stmt 1
  47:lcd.c         ****           (queue[r]>=1<<8) ? OLED_DC_Set() : OLED_DC_Clr(); //    DC
 209              		.loc 1 47 11
 210              		.loc 1 47 17 is_stmt 0
 211 0042 1440     		lw	a3,0(s0)
 212 0044 B7070000 		lui	a5,%hi(.LANCHOR2)
 213 0048 13870700 		addi	a4,a5,%lo(.LANCHOR2)
 214 004c 8A06     		slli	a3,a3,2
 215 004e 3697     		add	a4,a4,a3
 216              		.loc 1 47 44
 217 0050 1443     		lw	a3,0(a4)
 218 0052 1307F00F 		li	a4,255
 219 0056 93840700 		addi	s1,a5,%lo(.LANCHOR2)
 220              		.loc 1 47 30
 221 005a A165     		li	a1,32768
 222 005c 37150140 		li	a0,1073811456
GAS LISTING C:\Users\Karzan\AppData\Local\Temp\ccedaamX.s 			page 6


 223              		.loc 1 47 44
 224 0060 6351D704 		ble	a3,a4,.L10
 225              		.loc 1 47 30
 226 0064 97000000 		call	gpio_bit_set
 226      E7800000 
 227              	.LVL19:
 228              	.L11:
  48:lcd.c         ****           spi_i2s_data_transmit(SPI1, queue[r++]&0xFF); //        Write!
 229              		.loc 1 48 11 is_stmt 1
 230              		.loc 1 48 46 is_stmt 0
 231 006c 1C40     		lw	a5,0(s0)
 232              		.loc 1 48 11
 233 006e 37450040 		li	a0,1073758208
 234 0072 13050580 		addi	a0,a0,-2048
 235              		.loc 1 48 46
 236 0076 13871700 		addi	a4,a5,1
 237              		.loc 1 48 44
 238 007a 8A07     		slli	a5,a5,2
 239 007c A697     		add	a5,s1,a5
 240              		.loc 1 48 11
 241 007e 83C50700 		lbu	a1,0(a5)
 242              		.loc 1 48 46
 243 0082 18C0     		sw	a4,0(s0)
 244              		.loc 1 48 11
 245 0084 97000000 		call	spi_i2s_data_transmit
 245      E7800000 
 246              	.LVL20:
  49:lcd.c         ****           r%=256;                                   //            Advance.
 247              		.loc 1 49 11 is_stmt 1
 248              		.loc 1 49 12 is_stmt 0
 249 008c 1C40     		lw	a5,0(s0)
 250 008e 13070010 		li	a4,256
 251 0092 B3E7E702 		rem	a5,a5,a4
 252 0096 1CC0     		sw	a5,0(s0)
 253              	.L7:
 254              	.LBE169:
 255              	.LBE168:
  50:lcd.c         ****         }                                           //       (No! Return!)
  51:lcd.c         ****     } else {
  52:lcd.c         ****         OLED_CS_Set();                              // ...yes! CS high, done!
  53:lcd.c         ****     }
  54:lcd.c         **** }
 256              		.loc 1 54 1
 257 0098 B240     		lw	ra,12(sp)
 258              		.cfi_remember_state
 259              		.cfi_restore 1
 260 009a 2244     		lw	s0,8(sp)
 261              		.cfi_restore 8
 262 009c 9244     		lw	s1,4(sp)
 263              		.cfi_restore 9
 264 009e 4101     		addi	sp,sp,16
 265              	.LCFI3:
 266              		.cfi_def_cfa_offset 0
 267 00a0 8280     		jr	ra
 268              	.L10:
 269              	.LCFI4:
 270              		.cfi_restore_state
GAS LISTING C:\Users\Karzan\AppData\Local\Temp\ccedaamX.s 			page 7


 271              	.LBB171:
 272              	.LBB170:
  47:lcd.c         ****           spi_i2s_data_transmit(SPI1, queue[r++]&0xFF); //        Write!
 273              		.loc 1 47 46
 274 00a2 97000000 		call	gpio_bit_reset
 274      E7800000 
 275              	.LVL21:
 276 00aa C9B7     		j	.L11
 277              	.L8:
 278              	.LBE170:
 279              	.LBE171:
  52:lcd.c         ****     }
 280              		.loc 1 52 9 is_stmt 1
 281              		.loc 1 54 1 is_stmt 0
 282 00ac 2244     		lw	s0,8(sp)
 283              		.cfi_restore 8
 284 00ae B240     		lw	ra,12(sp)
 285              		.cfi_restore 1
 286 00b0 9244     		lw	s1,4(sp)
 287              		.cfi_restore 9
  52:lcd.c         ****     }
 288              		.loc 1 52 9
 289 00b2 8965     		li	a1,8192
 290              		.loc 1 54 1
  52:lcd.c         ****     }
 291              		.loc 1 52 9
 292 00b4 37150140 		li	a0,1073811456
 293              		.loc 1 54 1
 294 00b8 4101     		addi	sp,sp,16
 295              	.LCFI5:
 296              		.cfi_def_cfa_offset 0
  52:lcd.c         ****     }
 297              		.loc 1 52 9
 298 00ba 17030000 		tail	gpio_bit_set
 298      67000300 
 299              	.LVL22:
 300              		.cfi_endproc
 301              	.LFE4:
 303              		.section	.text.LCD_Wait_On_Queue,"ax",@progbits
 304              		.align	1
 305              		.globl	LCD_Wait_On_Queue
 307              	LCD_Wait_On_Queue:
 308              	.LFB3:
  39:lcd.c         **** 	while(r != w) LCD_WR_Queue();					//Blocks while emptying the queue
 309              		.loc 1 39 25 is_stmt 1
 310              		.cfi_startproc
  40:lcd.c         **** }
 311              		.loc 1 40 2
  39:lcd.c         **** 	while(r != w) LCD_WR_Queue();					//Blocks while emptying the queue
 312              		.loc 1 39 25 is_stmt 0
 313 0000 4111     		addi	sp,sp,-16
 314              	.LCFI6:
 315              		.cfi_def_cfa_offset 16
 316 0002 22C4     		sw	s0,8(sp)
 317 0004 26C2     		sw	s1,4(sp)
 318 0006 06C6     		sw	ra,12(sp)
 319              		.cfi_offset 8, -8
GAS LISTING C:\Users\Karzan\AppData\Local\Temp\ccedaamX.s 			page 8


 320              		.cfi_offset 9, -12
 321              		.cfi_offset 1, -4
  40:lcd.c         **** }
 322              		.loc 1 40 10
 323 0008 B7040000 		lui	s1,%hi(.LANCHOR0)
 324 000c 37040000 		lui	s0,%hi(.LANCHOR1)
 325              	.L17:
  40:lcd.c         **** }
 326              		.loc 1 40 7 discriminator 1
 327 0010 03A70400 		lw	a4,%lo(.LANCHOR0)(s1)
 328 0014 83270400 		lw	a5,%lo(.LANCHOR1)(s0)
 329 0018 6317F700 		bne	a4,a5,.L18
  41:lcd.c         **** 
 330              		.loc 1 41 1
 331 001c B240     		lw	ra,12(sp)
 332              		.cfi_remember_state
 333              		.cfi_restore 1
 334 001e 2244     		lw	s0,8(sp)
 335              		.cfi_restore 8
 336 0020 9244     		lw	s1,4(sp)
 337              		.cfi_restore 9
 338 0022 4101     		addi	sp,sp,16
 339              	.LCFI7:
 340              		.cfi_def_cfa_offset 0
 341 0024 8280     		jr	ra
 342              	.L18:
 343              	.LCFI8:
 344              		.cfi_restore_state
  40:lcd.c         **** }
 345              		.loc 1 40 16 is_stmt 1 discriminator 2
 346 0026 97000000 		call	LCD_WR_Queue
 346      E7800000 
 347              	.LVL23:
 348 002e CDB7     		j	.L17
 349              		.cfi_endproc
 350              	.LFE3:
 352              		.section	.text.LCD_Write_Bus,"ax",@progbits
 353              		.align	1
 354              		.globl	LCD_Write_Bus
 356              	LCD_Write_Bus:
 357              	.LFB5:
  55:lcd.c         **** 
  56:lcd.c         **** void LCD_Write_Bus(int dat) {
 358              		.loc 1 56 29
 359              		.cfi_startproc
 360              	.LVL24:
  57:lcd.c         ****    while (((w+1)%256)==r) LCD_WR_Queue(); //If buffer full then spin...
 361              		.loc 1 57 4
  56:lcd.c         ****    while (((w+1)%256)==r) LCD_WR_Queue(); //If buffer full then spin...
 362              		.loc 1 56 29 is_stmt 0
 363 0000 0111     		addi	sp,sp,-32
 364              	.LCFI9:
 365              		.cfi_def_cfa_offset 32
 366 0002 22CC     		sw	s0,24(sp)
 367 0004 26CA     		sw	s1,20(sp)
 368 0006 4AC8     		sw	s2,16(sp)
 369 0008 06CE     		sw	ra,28(sp)
GAS LISTING C:\Users\Karzan\AppData\Local\Temp\ccedaamX.s 			page 9


 370              		.cfi_offset 8, -8
 371              		.cfi_offset 9, -12
 372              		.cfi_offset 18, -16
 373              		.cfi_offset 1, -4
 374              		.loc 1 57 14
 375 000a 37090000 		lui	s2,%hi(.LANCHOR1)
 376              		.loc 1 57 17
 377 000e 93040010 		li	s1,256
 378              		.loc 1 57 22
 379 0012 37040000 		lui	s0,%hi(.LANCHOR0)
 380              	.LVL25:
 381              	.L21:
 382              		.loc 1 57 14 discriminator 1
 383 0016 13060900 		addi	a2,s2,%lo(.LANCHOR1)
 384 001a 1C42     		lw	a5,0(a2)
 385              		.loc 1 57 10 discriminator 1
 386 001c 83260400 		lw	a3,%lo(.LANCHOR0)(s0)
 387              		.loc 1 57 14 discriminator 1
 388 0020 13871700 		addi	a4,a5,1
 389              		.loc 1 57 17 discriminator 1
 390 0024 33679702 		rem	a4,a4,s1
 391              		.loc 1 57 10 discriminator 1
 392 0028 6301D702 		beq	a4,a3,.L22
  58:lcd.c         ****    queue[w++]=dat;                        //...If/when not then store data...
 393              		.loc 1 58 4 is_stmt 1
 394              		.loc 1 58 14 is_stmt 0
 395 002c 93962700 		slli	a3,a5,2
 396 0030 B7070000 		lui	a5,%hi(.LANCHOR2)
  59:lcd.c         ****    w%=256;                                //...and advance write index!
  60:lcd.c         **** }
 397              		.loc 1 60 1
 398 0034 F240     		lw	ra,28(sp)
 399              		.cfi_remember_state
 400              		.cfi_restore 1
 401 0036 6244     		lw	s0,24(sp)
 402              		.cfi_restore 8
  58:lcd.c         ****    queue[w++]=dat;                        //...If/when not then store data...
 403              		.loc 1 58 14
 404 0038 93870700 		addi	a5,a5,%lo(.LANCHOR2)
 405 003c B697     		add	a5,a5,a3
 406 003e 88C3     		sw	a0,0(a5)
  59:lcd.c         ****    w%=256;                                //...and advance write index!
 407              		.loc 1 59 4 is_stmt 1
  59:lcd.c         ****    w%=256;                                //...and advance write index!
 408              		.loc 1 59 5 is_stmt 0
 409 0040 18C2     		sw	a4,0(a2)
 410              		.loc 1 60 1
 411 0042 D244     		lw	s1,20(sp)
 412              		.cfi_restore 9
 413 0044 4249     		lw	s2,16(sp)
 414              		.cfi_restore 18
 415 0046 0561     		addi	sp,sp,32
 416              	.LCFI10:
 417              		.cfi_def_cfa_offset 0
 418 0048 8280     		jr	ra
 419              	.L22:
 420              	.LCFI11:
GAS LISTING C:\Users\Karzan\AppData\Local\Temp\ccedaamX.s 			page 10


 421              		.cfi_restore_state
 422 004a 2AC6     		sw	a0,12(sp)
  57:lcd.c         ****    queue[w++]=dat;                        //...If/when not then store data...
 423              		.loc 1 57 27 is_stmt 1 discriminator 2
 424 004c 97000000 		call	LCD_WR_Queue
 424      E7800000 
 425              	.LVL26:
 426 0054 3245     		lw	a0,12(sp)
 427 0056 C1B7     		j	.L21
 428              		.cfi_endproc
 429              	.LFE5:
 431              		.section	.text.LCD_Writ_Bus,"ax",@progbits
 432              		.align	1
 433              		.globl	LCD_Writ_Bus
 435              	LCD_Writ_Bus:
 436              	.LFB6:
  61:lcd.c         **** 
  62:lcd.c         **** /*
  63:lcd.c         ****   Function description: LCD serial data write function (write one byte)
  64:lcd.c         ****   Entry data: dat: byte to be written
  65:lcd.c         ****   Return value: None
  66:lcd.c         ****   Note: DC must already be set (for data) or reset (for command)
  67:lcd.c         **** */
  68:lcd.c         **** void LCD_Writ_Bus(u8 dat) 
  69:lcd.c         **** {
 437              		.loc 1 69 1
 438              		.cfi_startproc
 439              	.LVL27:
  70:lcd.c         **** 	OLED_CS_Clr();
 440              		.loc 1 70 2
  69:lcd.c         **** 	OLED_CS_Clr();
 441              		.loc 1 69 1 is_stmt 0
 442 0000 4111     		addi	sp,sp,-16
 443              	.LCFI12:
 444              		.cfi_def_cfa_offset 16
 445 0002 22C4     		sw	s0,8(sp)
 446 0004 26C2     		sw	s1,4(sp)
 447              		.loc 1 70 2
 448 0006 8965     		li	a1,8192
 449              		.cfi_offset 8, -8
 450              		.cfi_offset 9, -12
  69:lcd.c         **** 	OLED_CS_Clr();
 451              		.loc 1 69 1
 452 0008 AA84     		mv	s1,a0
  71:lcd.c         **** 
  72:lcd.c         **** 	while(RESET == spi_i2s_flag_get(SPI1, SPI_FLAG_TBE));
 453              		.loc 1 72 17
 454 000a 37440040 		li	s0,1073758208
  70:lcd.c         **** 
 455              		.loc 1 70 2
 456 000e 37150140 		li	a0,1073811456
 457              	.LVL28:
  69:lcd.c         **** 	OLED_CS_Clr();
 458              		.loc 1 69 1
 459 0012 4AC0     		sw	s2,0(sp)
 460 0014 06C6     		sw	ra,12(sp)
 461              		.cfi_offset 18, -16
GAS LISTING C:\Users\Karzan\AppData\Local\Temp\ccedaamX.s 			page 11


 462              		.cfi_offset 1, -4
 463              		.loc 1 72 17
 464 0016 13090480 		addi	s2,s0,-2048
  70:lcd.c         **** 
 465              		.loc 1 70 2
 466 001a 97000000 		call	gpio_bit_reset
 466      E7800000 
 467              	.LVL29:
 468              		.loc 1 72 2 is_stmt 1
 469              	.L25:
 470              		.loc 1 72 54 discriminator 1
 471              		.loc 1 72 17 is_stmt 0 discriminator 1
 472 0022 8945     		li	a1,2
 473 0024 4A85     		mv	a0,s2
 474 0026 97000000 		call	spi_i2s_flag_get
 474      E7800000 
 475              	.LVL30:
 476              		.loc 1 72 7 discriminator 1
 477 002e 75D9     		beq	a0,zero,.L25
  73:lcd.c         ****         spi_i2s_data_transmit(SPI1, dat);
 478              		.loc 1 73 9 is_stmt 1
 479 0030 A685     		mv	a1,s1
 480 0032 13050480 		addi	a0,s0,-2048
  74:lcd.c         **** 
  75:lcd.c         **** 
  76:lcd.c         **** 	while(RESET == spi_i2s_flag_get(SPI1, SPI_FLAG_RBNE));
 481              		.loc 1 76 17 is_stmt 0
 482 0036 37440040 		li	s0,1073758208
  73:lcd.c         ****         spi_i2s_data_transmit(SPI1, dat);
 483              		.loc 1 73 9
 484 003a 97000000 		call	spi_i2s_data_transmit
 484      E7800000 
 485              	.LVL31:
 486              		.loc 1 76 2 is_stmt 1
 487              		.loc 1 76 17 is_stmt 0
 488 0042 93040480 		addi	s1,s0,-2048
 489              	.L26:
 490              		.loc 1 76 55 is_stmt 1 discriminator 1
 491              		.loc 1 76 17 is_stmt 0 discriminator 1
 492 0046 8545     		li	a1,1
 493 0048 2685     		mv	a0,s1
 494 004a 97000000 		call	spi_i2s_flag_get
 494      E7800000 
 495              	.LVL32:
 496              		.loc 1 76 7 discriminator 1
 497 0052 75D9     		beq	a0,zero,.L26
  77:lcd.c         ****         spi_i2s_data_receive(SPI1);
 498              		.loc 1 77 9 is_stmt 1
 499 0054 13050480 		addi	a0,s0,-2048
 500 0058 97000000 		call	spi_i2s_data_receive
 500      E7800000 
 501              	.LVL33:
  78:lcd.c         **** 
  79:lcd.c         **** 	OLED_CS_Set();  
 502              		.loc 1 79 2
  80:lcd.c         **** }
 503              		.loc 1 80 1 is_stmt 0
GAS LISTING C:\Users\Karzan\AppData\Local\Temp\ccedaamX.s 			page 12


 504 0060 2244     		lw	s0,8(sp)
 505              		.cfi_restore 8
 506 0062 B240     		lw	ra,12(sp)
 507              		.cfi_restore 1
 508 0064 9244     		lw	s1,4(sp)
 509              		.cfi_restore 9
 510 0066 0249     		lw	s2,0(sp)
 511              		.cfi_restore 18
  79:lcd.c         **** }
 512              		.loc 1 79 2
 513 0068 8965     		li	a1,8192
 514              		.loc 1 80 1
  79:lcd.c         **** }
 515              		.loc 1 79 2
 516 006a 37150140 		li	a0,1073811456
 517              		.loc 1 80 1
 518 006e 4101     		addi	sp,sp,16
 519              	.LCFI13:
 520              		.cfi_def_cfa_offset 0
  79:lcd.c         **** }
 521              		.loc 1 79 2
 522 0070 17030000 		tail	gpio_bit_set
 522      67000300 
 523              	.LVL34:
 524              		.cfi_endproc
 525              	.LFE6:
 527              		.section	.text.LCD_WR_DATA8,"ax",@progbits
 528              		.align	1
 529              		.globl	LCD_WR_DATA8
 531              	LCD_WR_DATA8:
 532              	.LFB7:
  81:lcd.c         **** 
  82:lcd.c         **** 
  83:lcd.c         **** /*
  84:lcd.c         ****   Function description: LCD write 8-bit data
  85:lcd.c         ****   Entry data: dat: data to be written
  86:lcd.c         ****   Return value: None
  87:lcd.c         **** */
  88:lcd.c         **** void LCD_WR_DATA8(u8 dat)
  89:lcd.c         **** {
 533              		.loc 1 89 1 is_stmt 1
 534              		.cfi_startproc
 535              	.LVL35:
  90:lcd.c         **** 	//OLED_DC_Set();  // Write data
  91:lcd.c         **** 	//LCD_Writ_Bus(dat);
  92:lcd.c         ****     LCD_Write_Bus(((int)dat)+(1<<8));
 536              		.loc 1 92 5
 537 0000 13050510 		addi	a0,a0,256
 538              	.LVL36:
 539 0004 17030000 		tail	LCD_Write_Bus
 539      67000300 
 540              	.LVL37:
 541              		.cfi_endproc
 542              	.LFE7:
 544              		.section	.text.LCD_WR_DATA,"ax",@progbits
 545              		.align	1
 546              		.globl	LCD_WR_DATA
GAS LISTING C:\Users\Karzan\AppData\Local\Temp\ccedaamX.s 			page 13


 548              	LCD_WR_DATA:
 549              	.LFB8:
  93:lcd.c         **** }
  94:lcd.c         **** 
  95:lcd.c         **** 
  96:lcd.c         **** /*
  97:lcd.c         ****   Function description: LCD write 16-bit data
  98:lcd.c         ****   Entry data: dat: 16-bit data to be written
  99:lcd.c         ****   Return value: None
 100:lcd.c         **** */
 101:lcd.c         **** void LCD_WR_DATA(u16 dat)
 102:lcd.c         **** {
 550              		.loc 1 102 1
 551              		.cfi_startproc
 552              	.LVL38:
 103:lcd.c         **** 	//OLED_DC_Set();  // Write data
 104:lcd.c         **** 	//LCD_Writ_Bus(dat>>8);
 105:lcd.c         **** 	//LCD_Writ_Bus(dat);
 106:lcd.c         ****     LCD_Write_Bus(((int)dat>>8)+(1<<8));
 553              		.loc 1 106 5
 102:lcd.c         **** 	//OLED_DC_Set();  // Write data
 554              		.loc 1 102 1 is_stmt 0
 555 0000 4111     		addi	sp,sp,-16
 556              	.LCFI14:
 557              		.cfi_def_cfa_offset 16
 558 0002 22C4     		sw	s0,8(sp)
 559              		.cfi_offset 8, -8
 560 0004 2A84     		mv	s0,a0
 561              		.loc 1 106 28
 562 0006 2185     		srai	a0,a0,8
 563              	.LVL39:
 564              		.loc 1 106 5
 565 0008 13050510 		addi	a0,a0,256
 102:lcd.c         **** 	//OLED_DC_Set();  // Write data
 566              		.loc 1 102 1
 567 000c 06C6     		sw	ra,12(sp)
 568              		.cfi_offset 1, -4
 569              		.loc 1 106 5
 570 000e 97000000 		call	LCD_Write_Bus
 570      E7800000 
 571              	.LVL40:
 107:lcd.c         ****     LCD_Write_Bus(((int)dat&0xFF)+(1<<8));
 572              		.loc 1 107 5 is_stmt 1
 573              		.loc 1 107 28 is_stmt 0
 574 0016 1375F40F 		andi	a0,s0,255
 108:lcd.c         **** }
 575              		.loc 1 108 1
 576 001a 2244     		lw	s0,8(sp)
 577              		.cfi_restore 8
 578              	.LVL41:
 579 001c B240     		lw	ra,12(sp)
 580              		.cfi_restore 1
 107:lcd.c         ****     LCD_Write_Bus(((int)dat&0xFF)+(1<<8));
 581              		.loc 1 107 5
 582 001e 13050510 		addi	a0,a0,256
 583              		.loc 1 108 1
 584 0022 4101     		addi	sp,sp,16
GAS LISTING C:\Users\Karzan\AppData\Local\Temp\ccedaamX.s 			page 14


 585              	.LCFI15:
 586              		.cfi_def_cfa_offset 0
 107:lcd.c         ****     LCD_Write_Bus(((int)dat&0xFF)+(1<<8));
 587              		.loc 1 107 5
 588 0024 17030000 		tail	LCD_Write_Bus
 588      67000300 
 589              	.LVL42:
 590              		.cfi_endproc
 591              	.LFE8:
 593              		.section	.text.LCD_WR_REG,"ax",@progbits
 594              		.align	1
 595              		.globl	LCD_WR_REG
 597              	LCD_WR_REG:
 598              	.LFB9:
 109:lcd.c         **** 
 110:lcd.c         **** 
 111:lcd.c         **** /*
 112:lcd.c         ****   Function description: LCD write 8-bit command
 113:lcd.c         ****   Entry data: dat: command to be written
 114:lcd.c         ****   Return value: None
 115:lcd.c         **** */
 116:lcd.c         **** void LCD_WR_REG(u8 dat)
 117:lcd.c         **** {
 599              		.loc 1 117 1 is_stmt 1
 600              		.cfi_startproc
 601              	.LVL43:
 118:lcd.c         **** 	//OLED_DC_Clr();  // Write command
 119:lcd.c         **** 	//LCD_Writ_Bus(dat);
 120:lcd.c         ****     LCD_Write_Bus((int)dat);
 602              		.loc 1 120 5
 603 0000 17030000 		tail	LCD_Write_Bus
 603      67000300 
 604              	.LVL44:
 605              		.cfi_endproc
 606              	.LFE9:
 608              		.section	.text.LCD_Address_Set,"ax",@progbits
 609              		.align	1
 610              		.globl	LCD_Address_Set
 612              	LCD_Address_Set:
 613              	.LFB10:
 121:lcd.c         **** }
 122:lcd.c         **** 
 123:lcd.c         **** 
 124:lcd.c         **** 
 125:lcd.c         **** /*
 126:lcd.c         ****   Function description: Set start and end addresses
 127:lcd.c         ****   Entry data: x1, x2 set the start and end column address
 128:lcd.c         ****               y1, y2 set the start and end row address
 129:lcd.c         ****   Return value: None
 130:lcd.c         **** */
 131:lcd.c         **** void LCD_Address_Set(u16 x1,u16 y1,u16 x2,u16 y2)
 132:lcd.c         **** {
 614              		.loc 1 132 1
 615              		.cfi_startproc
 616              	.LVL45:
 133:lcd.c         **** 	LCD_WR_REG(0x2a);  // Column address setting
 617              		.loc 1 133 2
GAS LISTING C:\Users\Karzan\AppData\Local\Temp\ccedaamX.s 			page 15


 618              	.LBB172:
 619              	.LBB173:
 120:lcd.c         **** }
 620              		.loc 1 120 5
 621              	.LBE173:
 622              	.LBE172:
 132:lcd.c         **** 	LCD_WR_REG(0x2a);  // Column address setting
 623              		.loc 1 132 1 is_stmt 0
 624 0000 0111     		addi	sp,sp,-32
 625              	.LCFI16:
 626              		.cfi_def_cfa_offset 32
 627 0002 22CC     		sw	s0,24(sp)
 628 0004 26CA     		sw	s1,20(sp)
 629              		.cfi_offset 8, -8
 630              		.cfi_offset 9, -12
 134:lcd.c         **** 	LCD_WR_DATA(x1+lcd_conf.offset_x);
 631              		.loc 1 134 25
 632 0006 37040000 		lui	s0,%hi(.LANCHOR3)
 132:lcd.c         **** 	LCD_WR_REG(0x2a);  // Column address setting
 633              		.loc 1 132 1
 634 000a AA84     		mv	s1,a0
 635              	.LBB176:
 636              	.LBB174:
 120:lcd.c         **** }
 637              		.loc 1 120 5
 638 000c 1305A002 		li	a0,42
 639              	.LVL46:
 640              	.LBE174:
 641              	.LBE176:
 132:lcd.c         **** 	LCD_WR_REG(0x2a);  // Column address setting
 642              		.loc 1 132 1
 643 0010 06CE     		sw	ra,28(sp)
 644              		.cfi_offset 1, -4
 132:lcd.c         **** 	LCD_WR_REG(0x2a);  // Column address setting
 645              		.loc 1 132 1
 646 0012 36C2     		sw	a3,4(sp)
 647 0014 2EC6     		sw	a1,12(sp)
 648              		.loc 1 134 25
 649 0016 13040400 		addi	s0,s0,%lo(.LANCHOR3)
 132:lcd.c         **** 	LCD_WR_REG(0x2a);  // Column address setting
 650              		.loc 1 132 1
 651 001a 32C4     		sw	a2,8(sp)
 652              	.LBB177:
 653              	.LBB175:
 120:lcd.c         **** }
 654              		.loc 1 120 5
 655 001c 97000000 		call	LCD_Write_Bus
 655      E7800000 
 656              	.LVL47:
 657              	.LBE175:
 658              	.LBE177:
 659              		.loc 1 134 2 is_stmt 1
 660              		.loc 1 134 25 is_stmt 0
 661 0024 03452400 		lbu	a0,2(s0)
 662              		.loc 1 134 2
 663 0028 2695     		add	a0,a0,s1
 664 002a 97000000 		call	LCD_WR_DATA
GAS LISTING C:\Users\Karzan\AppData\Local\Temp\ccedaamX.s 			page 16


 664      E7800000 
 665              	.LVL48:
 135:lcd.c         **** 	LCD_WR_DATA(x2+lcd_conf.offset_x);
 666              		.loc 1 135 2 is_stmt 1
 667 0032 2246     		lw	a2,8(sp)
 668              		.loc 1 135 25 is_stmt 0
 669 0034 03452400 		lbu	a0,2(s0)
 670              		.loc 1 135 2
 671 0038 3295     		add	a0,a0,a2
 672 003a 97000000 		call	LCD_WR_DATA
 672      E7800000 
 673              	.LVL49:
 136:lcd.c         **** 	LCD_WR_REG(0x2b);  // row address setting
 674              		.loc 1 136 2 is_stmt 1
 675              	.LBB178:
 676              	.LBB179:
 120:lcd.c         **** }
 677              		.loc 1 120 5
 678 0042 1305B002 		li	a0,43
 679 0046 97000000 		call	LCD_Write_Bus
 679      E7800000 
 680              	.LVL50:
 681              	.LBE179:
 682              	.LBE178:
 137:lcd.c         **** 	LCD_WR_DATA(y1+lcd_conf.offset_y);
 683              		.loc 1 137 2
 684 004e B245     		lw	a1,12(sp)
 685              		.loc 1 137 25 is_stmt 0
 686 0050 03453400 		lbu	a0,3(s0)
 687              		.loc 1 137 2
 688 0054 2E95     		add	a0,a0,a1
 689 0056 97000000 		call	LCD_WR_DATA
 689      E7800000 
 690              	.LVL51:
 138:lcd.c         **** 	LCD_WR_DATA(y2+lcd_conf.offset_y);
 691              		.loc 1 138 2 is_stmt 1
 692              		.loc 1 138 25 is_stmt 0
 693 005e 03453400 		lbu	a0,3(s0)
 694              		.loc 1 138 2
 695 0062 9246     		lw	a3,4(sp)
 696 0064 3695     		add	a0,a0,a3
 697 0066 97000000 		call	LCD_WR_DATA
 697      E7800000 
 698              	.LVL52:
 139:lcd.c         **** 	LCD_WR_REG(0x2c);  // Memory write
 699              		.loc 1 139 2 is_stmt 1
 700              	.LBB180:
 701              	.LBB181:
 120:lcd.c         **** }
 702              		.loc 1 120 5
 703              	.LBE181:
 704              	.LBE180:
 140:lcd.c         **** }
 705              		.loc 1 140 1 is_stmt 0
 706 006e 6244     		lw	s0,24(sp)
 707              		.cfi_restore 8
 708 0070 F240     		lw	ra,28(sp)
GAS LISTING C:\Users\Karzan\AppData\Local\Temp\ccedaamX.s 			page 17


 709              		.cfi_restore 1
 710 0072 D244     		lw	s1,20(sp)
 711              		.cfi_restore 9
 712              	.LVL53:
 713              	.LBB184:
 714              	.LBB182:
 120:lcd.c         **** }
 715              		.loc 1 120 5
 716 0074 1305C002 		li	a0,44
 717              	.LBE182:
 718              	.LBE184:
 719              		.loc 1 140 1
 720 0078 0561     		addi	sp,sp,32
 721              	.LCFI17:
 722              		.cfi_def_cfa_offset 0
 723              	.LVL54:
 724              	.LBB185:
 725              	.LBB183:
 120:lcd.c         **** }
 726              		.loc 1 120 5
 727 007a 17030000 		tail	LCD_Write_Bus
 727      67000300 
 728              	.LVL55:
 729              	.LBE183:
 730              	.LBE185:
 731              		.cfi_endproc
 732              	.LFE10:
 734              		.section	.text.spi_config,"ax",@progbits
 735              		.align	1
 736              		.globl	spi_config
 738              	spi_config:
 739              	.LFB11:
 141:lcd.c         **** 
 142:lcd.c         **** /*!
 143:lcd.c         ****     \brief      configure the SPI peripheral
 144:lcd.c         ****     \param[in]  none
 145:lcd.c         ****     \param[out] none
 146:lcd.c         ****     \retval     none
 147:lcd.c         **** */
 148:lcd.c         **** void spi_config(void)
 149:lcd.c         **** {
 740              		.loc 1 149 1 is_stmt 1
 741              		.cfi_startproc
 150:lcd.c         ****     spi_parameter_struct spi_init_struct;
 742              		.loc 1 150 5
 151:lcd.c         ****     /* deinitilize SPI and the parameters */
 152:lcd.c         ****     OLED_CS_Set();
 743              		.loc 1 152 5
 149:lcd.c         ****     spi_parameter_struct spi_init_struct;
 744              		.loc 1 149 1 is_stmt 0
 745 0000 7971     		addi	sp,sp,-48
 746              	.LCFI18:
 747              		.cfi_def_cfa_offset 48
 748              		.loc 1 152 5
 749 0002 8965     		li	a1,8192
 750 0004 37150140 		li	a0,1073811456
 149:lcd.c         ****     spi_parameter_struct spi_init_struct;
GAS LISTING C:\Users\Karzan\AppData\Local\Temp\ccedaamX.s 			page 18


 751              		.loc 1 149 1
 752 0008 06D6     		sw	ra,44(sp)
 753 000a 22D4     		sw	s0,40(sp)
 754              		.cfi_offset 1, -4
 755              		.cfi_offset 8, -8
 756              		.loc 1 152 5
 757 000c 97000000 		call	gpio_bit_set
 757      E7800000 
 758              	.LVL56:
 153:lcd.c         ****     spi_struct_para_init(&spi_init_struct);
 759              		.loc 1 153 5 is_stmt 1
 760 0014 4800     		addi	a0,sp,4
 761 0016 97000000 		call	spi_struct_para_init
 761      E7800000 
 762              	.LVL57:
 154:lcd.c         **** 
 155:lcd.c         ****     /* SPI1 parameter config */
 156:lcd.c         ****     spi_init_struct.trans_mode           = SPI_TRANSMODE_FULLDUPLEX;
 763              		.loc 1 156 5
 157:lcd.c         ****     spi_init_struct.device_mode          = SPI_MASTER;
 764              		.loc 1 157 42 is_stmt 0
 765 001e 93074010 		li	a5,260
 766 0022 3EC2     		sw	a5,4(sp)
 158:lcd.c         ****     spi_init_struct.frame_size           = SPI_FRAMESIZE_8BIT;
 159:lcd.c         ****     spi_init_struct.clock_polarity_phase = SPI_CK_PL_HIGH_PH_2EDGE;
 767              		.loc 1 159 42
 768 0024 8D47     		li	a5,3
 160:lcd.c         ****     spi_init_struct.nss                  = SPI_NSS_SOFT;
 161:lcd.c         ****     spi_init_struct.prescale             = SPI_PSC_4;
 162:lcd.c         ****     spi_init_struct.endian               = SPI_ENDIAN_MSB;
 163:lcd.c         ****     spi_init(SPI1, &spi_init_struct);
 769              		.loc 1 163 5
 770 0026 37440040 		li	s0,1073758208
 159:lcd.c         ****     spi_init_struct.nss                  = SPI_NSS_SOFT;
 771              		.loc 1 159 42
 772 002a 3ECC     		sw	a5,24(sp)
 160:lcd.c         ****     spi_init_struct.nss                  = SPI_NSS_SOFT;
 773              		.loc 1 160 42
 774 002c 93070020 		li	a5,512
 775 0030 3EC8     		sw	a5,16(sp)
 776              		.loc 1 163 5
 777 0032 4C00     		addi	a1,sp,4
 161:lcd.c         ****     spi_init_struct.endian               = SPI_ENDIAN_MSB;
 778              		.loc 1 161 42
 779 0034 A147     		li	a5,8
 780              		.loc 1 163 5
 781 0036 13050480 		addi	a0,s0,-2048
 161:lcd.c         ****     spi_init_struct.endian               = SPI_ENDIAN_MSB;
 782              		.loc 1 161 42
 783 003a 3ECE     		sw	a5,28(sp)
 156:lcd.c         ****     spi_init_struct.device_mode          = SPI_MASTER;
 784              		.loc 1 156 42
 785 003c 02C4     		sw	zero,8(sp)
 157:lcd.c         ****     spi_init_struct.frame_size           = SPI_FRAMESIZE_8BIT;
 786              		.loc 1 157 5 is_stmt 1
 158:lcd.c         ****     spi_init_struct.clock_polarity_phase = SPI_CK_PL_HIGH_PH_2EDGE;
 787              		.loc 1 158 5
GAS LISTING C:\Users\Karzan\AppData\Local\Temp\ccedaamX.s 			page 19


 158:lcd.c         ****     spi_init_struct.clock_polarity_phase = SPI_CK_PL_HIGH_PH_2EDGE;
 788              		.loc 1 158 42 is_stmt 0
 789 003e 02C6     		sw	zero,12(sp)
 159:lcd.c         ****     spi_init_struct.nss                  = SPI_NSS_SOFT;
 790              		.loc 1 159 5 is_stmt 1
 160:lcd.c         ****     spi_init_struct.prescale             = SPI_PSC_4;
 791              		.loc 1 160 5
 161:lcd.c         ****     spi_init_struct.endian               = SPI_ENDIAN_MSB;
 792              		.loc 1 161 5
 162:lcd.c         ****     spi_init(SPI1, &spi_init_struct);
 793              		.loc 1 162 5
 162:lcd.c         ****     spi_init(SPI1, &spi_init_struct);
 794              		.loc 1 162 42 is_stmt 0
 795 0040 02CA     		sw	zero,20(sp)
 796              		.loc 1 163 5 is_stmt 1
 797 0042 97000000 		call	spi_init
 797      E7800000 
 798              	.LVL58:
 164:lcd.c         **** 
 165:lcd.c         **** 	spi_crc_polynomial_set(SPI1,7);
 799              		.loc 1 165 2
 800 004a 13050480 		addi	a0,s0,-2048
 801 004e 9D45     		li	a1,7
 802 0050 97000000 		call	spi_crc_polynomial_set
 802      E7800000 
 803              	.LVL59:
 166:lcd.c         **** 	spi_enable(SPI1);
 804              		.loc 1 166 2
 805 0058 13050480 		addi	a0,s0,-2048
 806 005c 97000000 		call	spi_enable
 806      E7800000 
 807              	.LVL60:
 167:lcd.c         **** }
 808              		.loc 1 167 1 is_stmt 0
 809 0064 B250     		lw	ra,44(sp)
 810              		.cfi_restore 1
 811 0066 2254     		lw	s0,40(sp)
 812              		.cfi_restore 8
 813 0068 4561     		addi	sp,sp,48
 814              	.LCFI19:
 815              		.cfi_def_cfa_offset 0
 816 006a 8280     		jr	ra
 817              		.cfi_endproc
 818              	.LFE11:
 820              		.section	.text.Lcd_SetType,"ax",@progbits
 821              		.align	1
 822              		.globl	Lcd_SetType
 824              	Lcd_SetType:
 825              	.LFB12:
 168:lcd.c         **** 
 169:lcd.c         **** void Lcd_SetType(int type){
 826              		.loc 1 169 27 is_stmt 1
 827              		.cfi_startproc
 828              	.LVL61:
 170:lcd.c         **** 	if(type == LCD_NORMAL){
 829              		.loc 1 170 2
 830              		.loc 1 170 4 is_stmt 0
GAS LISTING C:\Users\Karzan\AppData\Local\Temp\ccedaamX.s 			page 20


 831 0000 09E9     		bne	a0,zero,.L41
 171:lcd.c         **** 		lcd_conf.configured = 1;
 832              		.loc 1 171 3 is_stmt 1
 172:lcd.c         **** 		lcd_conf.offset_x = 1;
 833              		.loc 1 172 3
 173:lcd.c         **** 		lcd_conf.offset_y = 26;
 834              		.loc 1 173 3
 174:lcd.c         **** 		lcd_conf.inverted = 0;
 835              		.loc 1 174 3
 171:lcd.c         **** 		lcd_conf.offset_x = 1;
 836              		.loc 1 171 23 is_stmt 0
 837 0002 B707011A 		li	a5,436273152
 838 0006 37070000 		lui	a4,%hi(.LANCHOR3)
 839 000a 8507     		addi	a5,a5,1
 840              	.L43:
 841              	.LBB188:
 842              	.LBB189:
 175:lcd.c         **** 	}
 176:lcd.c         **** 	if(type == LCD_INVERTED){
 177:lcd.c         **** 		lcd_conf.configured = 1;
 843              		.loc 1 177 23
 844 000c 2320F700 		sw	a5,%lo(.LANCHOR3)(a4)
 845              	.L40:
 846              	.LBE189:
 847              	.LBE188:
 178:lcd.c         **** 		lcd_conf.offset_x = 0;
 179:lcd.c         **** 		lcd_conf.offset_y = 24;
 180:lcd.c         **** 		lcd_conf.inverted = 1;
 181:lcd.c         **** 	}
 182:lcd.c         **** }
 848              		.loc 1 182 1
 849 0010 8280     		ret
 850              	.L41:
 176:lcd.c         **** 		lcd_conf.configured = 1;
 851              		.loc 1 176 2 is_stmt 1
 176:lcd.c         **** 		lcd_conf.configured = 1;
 852              		.loc 1 176 4 is_stmt 0
 853 0012 8547     		li	a5,1
 854 0014 E31EF5FE 		bne	a0,a5,.L40
 855              	.LVL62:
 856              	.LBB191:
 857              	.LBB190:
 177:lcd.c         **** 		lcd_conf.offset_x = 0;
 858              		.loc 1 177 3 is_stmt 1
 178:lcd.c         **** 		lcd_conf.offset_x = 0;
 859              		.loc 1 178 3
 179:lcd.c         **** 		lcd_conf.inverted = 1;
 860              		.loc 1 179 3
 180:lcd.c         **** 	}
 861              		.loc 1 180 3
 177:lcd.c         **** 		lcd_conf.offset_x = 0;
 862              		.loc 1 177 23 is_stmt 0
 863 0018 B7070018 		li	a5,402653184
 864 001c 37070000 		lui	a4,%hi(.LANCHOR3)
 865 0020 93871710 		addi	a5,a5,257
 866 0024 E5B7     		j	.L43
 867              	.LBE190:
GAS LISTING C:\Users\Karzan\AppData\Local\Temp\ccedaamX.s 			page 21


 868              	.LBE191:
 869              		.cfi_endproc
 870              	.LFE12:
 872              		.section	.text.Lcd_Init,"ax",@progbits
 873              		.align	1
 874              		.globl	Lcd_Init
 876              	Lcd_Init:
 877              	.LFB13:
 183:lcd.c         **** 
 184:lcd.c         **** 
 185:lcd.c         **** /*
 186:lcd.c         ****   Function description: LCD initialization function
 187:lcd.c         ****   Entry data: None
 188:lcd.c         ****   Return value: None
 189:lcd.c         **** */
 190:lcd.c         **** void Lcd_Init(void)
 191:lcd.c         **** {
 878              		.loc 1 191 1 is_stmt 1
 879              		.cfi_startproc
 192:lcd.c         **** 	if(!lcd_conf.configured) Lcd_SetType(LCD_NORMAL);
 880              		.loc 1 192 2
 881              		.loc 1 192 14 is_stmt 0
 882 0000 B7070000 		lui	a5,%hi(.LANCHOR3)
 883              		.loc 1 192 4
 884 0004 03C70700 		lbu	a4,%lo(.LANCHOR3)(a5)
 191:lcd.c         **** 	if(!lcd_conf.configured) Lcd_SetType(LCD_NORMAL);
 885              		.loc 1 191 1
 886 0008 4111     		addi	sp,sp,-16
 887              	.LCFI20:
 888              		.cfi_def_cfa_offset 16
 889 000a 22C4     		sw	s0,8(sp)
 890 000c 06C6     		sw	ra,12(sp)
 891              		.cfi_offset 8, -8
 892              		.cfi_offset 1, -4
 893 000e 13840700 		addi	s0,a5,%lo(.LANCHOR3)
 894              		.loc 1 192 4
 895 0012 11E7     		bne	a4,zero,.L45
 896              		.loc 1 192 27 is_stmt 1 discriminator 1
 897 0014 0145     		li	a0,0
 898 0016 97000000 		call	Lcd_SetType
 898      E7800000 
 899              	.LVL63:
 900              	.L45:
 193:lcd.c         **** 	rcu_periph_clock_enable(RCU_GPIOB);
 901              		.loc 1 193 2
 902 001e 13053060 		li	a0,1539
 903 0022 97000000 		call	rcu_periph_clock_enable
 903      E7800000 
 904              	.LVL64:
 194:lcd.c         **** 	rcu_periph_clock_enable(RCU_GPIOC);
 905              		.loc 1 194 2
 906 002a 13054060 		li	a0,1540
 907 002e 97000000 		call	rcu_periph_clock_enable
 907      E7800000 
 908              	.LVL65:
 195:lcd.c         **** 
 196:lcd.c         ****  	rcu_periph_clock_enable(RCU_AF);
GAS LISTING C:\Users\Karzan\AppData\Local\Temp\ccedaamX.s 			page 22


 909              		.loc 1 196 3
 910 0036 13050060 		li	a0,1536
 911 003a 97000000 		call	rcu_periph_clock_enable
 911      E7800000 
 912              	.LVL66:
 197:lcd.c         **** 	rcu_periph_clock_enable(RCU_SPI1);
 913              		.loc 1 197 2
 914 0042 1305E070 		li	a0,1806
 915 0046 97000000 		call	rcu_periph_clock_enable
 915      E7800000 
 916              	.LVL67:
 198:lcd.c         **** 	
 199:lcd.c         ****     gpio_init(GPIOB, GPIO_MODE_AF_PP, GPIO_OSPEED_50MHZ, GPIO_PIN_13 |GPIO_PIN_14| GPIO_PIN_15);
 917              		.loc 1 199 5
 918 004e 37150140 		li	a0,1073811456
 919 0052 B966     		li	a3,57344
 920 0054 0D46     		li	a2,3
 921 0056 E145     		li	a1,24
 922 0058 130505C0 		addi	a0,a0,-1024
 923 005c 97000000 		call	gpio_init
 923      E7800000 
 924              	.LVL68:
 200:lcd.c         **** 	gpio_init(GPIOC, GPIO_MODE_OUT_PP, GPIO_OSPEED_50MHZ, GPIO_PIN_13 | GPIO_PIN_15); //CS
 925              		.loc 1 200 2
 926 0064 A966     		li	a3,40960
 927 0066 0D46     		li	a2,3
 928 0068 C145     		li	a1,16
 929 006a 37150140 		li	a0,1073811456
 930 006e 97000000 		call	gpio_init
 930      E7800000 
 931              	.LVL69:
 201:lcd.c         **** 
 202:lcd.c         **** 	spi_config();
 932              		.loc 1 202 2
 933 0076 97000000 		call	spi_config
 933      E7800000 
 934              	.LVL70:
 203:lcd.c         **** 
 204:lcd.c         **** 	gpio_bit_reset(GPIOC, GPIO_PIN_13 | GPIO_PIN_15);
 935              		.loc 1 204 2
 936 007e A965     		li	a1,40960
 937 0080 37150140 		li	a0,1073811456
 938 0084 97000000 		call	gpio_bit_reset
 938      E7800000 
 939              	.LVL71:
 205:lcd.c         **** 	LCD_Wait_On_Queue();
 940              		.loc 1 205 2
 941 008c 97000000 		call	LCD_Wait_On_Queue
 941      E7800000 
 942              	.LVL72:
 206:lcd.c         **** 	lcd_delay_1ms(100);
 943              		.loc 1 206 2
 944 0094 13054006 		li	a0,100
 945 0098 97000000 		call	lcd_delay_1ms
 945      E7800000 
 946              	.LVL73:
 207:lcd.c         **** 	
GAS LISTING C:\Users\Karzan\AppData\Local\Temp\ccedaamX.s 			page 23


 208:lcd.c         **** 
 209:lcd.c         **** 	LCD_WR_REG(0x01); 	//SW reset
 947              		.loc 1 209 2
 948              	.LBB192:
 949              	.LBB193:
 120:lcd.c         **** }
 950              		.loc 1 120 5
 951 00a0 0545     		li	a0,1
 952 00a2 97000000 		call	LCD_Write_Bus
 952      E7800000 
 953              	.LVL74:
 954              	.LBE193:
 955              	.LBE192:
 210:lcd.c         **** 	LCD_Wait_On_Queue();
 956              		.loc 1 210 2
 957 00aa 97000000 		call	LCD_Wait_On_Queue
 957      E7800000 
 958              	.LVL75:
 211:lcd.c         **** 	lcd_delay_1ms(120);
 959              		.loc 1 211 2
 960 00b2 13058007 		li	a0,120
 961 00b6 97000000 		call	lcd_delay_1ms
 961      E7800000 
 962              	.LVL76:
 212:lcd.c         **** 	
 213:lcd.c         **** 
 214:lcd.c         **** 	LCD_WR_REG(0x11); 	//SLPOUT
 963              		.loc 1 214 2
 964              	.LBB194:
 965              	.LBB195:
 120:lcd.c         **** }
 966              		.loc 1 120 5
 967 00be 4545     		li	a0,17
 968 00c0 97000000 		call	LCD_Write_Bus
 968      E7800000 
 969              	.LVL77:
 970              	.LBE195:
 971              	.LBE194:
 215:lcd.c         **** 	LCD_Wait_On_Queue();
 972              		.loc 1 215 2
 973 00c8 97000000 		call	LCD_Wait_On_Queue
 973      E7800000 
 974              	.LVL78:
 216:lcd.c         **** 	lcd_delay_1ms(100);
 975              		.loc 1 216 2
 976 00d0 13054006 		li	a0,100
 977 00d4 97000000 		call	lcd_delay_1ms
 977      E7800000 
 978              	.LVL79:
 217:lcd.c         **** 
 218:lcd.c         **** 	if(lcd_conf.inverted) LCD_WR_REG(0x22); 
 979              		.loc 1 218 2
 980              		.loc 1 218 4 is_stmt 0
 981 00dc 83471400 		lbu	a5,1(s0)
 982              	.LBB196:
 983              	.LBB197:
 120:lcd.c         **** }
GAS LISTING C:\Users\Karzan\AppData\Local\Temp\ccedaamX.s 			page 24


 984              		.loc 1 120 5
 985 00e0 13052002 		li	a0,34
 986              	.LBE197:
 987              	.LBE196:
 988              		.loc 1 218 4
 989 00e4 99E3     		bne	a5,zero,.L49
 219:lcd.c         **** 	else				  LCD_WR_REG(0x21); 	//INVON
 990              		.loc 1 219 12 is_stmt 1
 991              	.LVL80:
 992              	.LBB198:
 993              	.LBB199:
 120:lcd.c         **** }
 994              		.loc 1 120 5
 995 00e6 13051002 		li	a0,33
 996              	.LVL81:
 997              	.L49:
 998 00ea 97000000 		call	LCD_Write_Bus
 998      E7800000 
 999              	.LVL82:
 1000              	.LBE199:
 1001              	.LBE198:
 220:lcd.c         **** 
 221:lcd.c         **** 	LCD_WR_REG(0xB1); 	//FRMCTRL1 - Full color
 1002              		.loc 1 221 2
 1003              	.LBB200:
 1004              	.LBB201:
 120:lcd.c         **** }
 1005              		.loc 1 120 5
 1006 00f2 1305100B 		li	a0,177
 1007 00f6 97000000 		call	LCD_Write_Bus
 1007      E7800000 
 1008              	.LVL83:
 1009              	.LBE201:
 1010              	.LBE200:
 222:lcd.c         **** 	LCD_WR_DATA8(0x05); // Framerate = 333khz / (25) * (196) = 67.9fps
 1011              		.loc 1 222 2
 1012              	.LBB202:
 1013              	.LBB203:
  92:lcd.c         **** }
 1014              		.loc 1 92 5
 1015 00fe 13055010 		li	a0,261
 1016 0102 97000000 		call	LCD_Write_Bus
 1016      E7800000 
 1017              	.LVL84:
 1018              	.LBE203:
 1019              	.LBE202:
 223:lcd.c         **** 	LCD_WR_DATA8(0x3A);
 1020              		.loc 1 223 2
 1021              	.LBB204:
 1022              	.LBB205:
  92:lcd.c         **** }
 1023              		.loc 1 92 5
 1024 010a 1305A013 		li	a0,314
 1025 010e 97000000 		call	LCD_Write_Bus
 1025      E7800000 
 1026              	.LVL85:
 1027              	.LBE205:
GAS LISTING C:\Users\Karzan\AppData\Local\Temp\ccedaamX.s 			page 25


 1028              	.LBE204:
 224:lcd.c         **** 	LCD_WR_DATA8(0x3A);
 1029              		.loc 1 224 2
 1030              	.LBB206:
 1031              	.LBB207:
  92:lcd.c         **** }
 1032              		.loc 1 92 5
 1033 0116 1305A013 		li	a0,314
 1034 011a 97000000 		call	LCD_Write_Bus
 1034      E7800000 
 1035              	.LVL86:
 1036              	.LBE207:
 1037              	.LBE206:
 225:lcd.c         **** 
 226:lcd.c         **** 	LCD_WR_REG(0xB2);	//FRMCTRL - 8-bit color
 1038              		.loc 1 226 2
 1039              	.LBB208:
 1040              	.LBB209:
 120:lcd.c         **** }
 1041              		.loc 1 120 5
 1042 0122 1305200B 		li	a0,178
 1043 0126 97000000 		call	LCD_Write_Bus
 1043      E7800000 
 1044              	.LVL87:
 1045              	.LBE209:
 1046              	.LBE208:
 227:lcd.c         **** 	LCD_WR_DATA8(0x05); //fps = 67.9
 1047              		.loc 1 227 2
 1048              	.LBB210:
 1049              	.LBB211:
  92:lcd.c         **** }
 1050              		.loc 1 92 5
 1051 012e 13055010 		li	a0,261
 1052 0132 97000000 		call	LCD_Write_Bus
 1052      E7800000 
 1053              	.LVL88:
 1054              	.LBE211:
 1055              	.LBE210:
 228:lcd.c         **** 	LCD_WR_DATA8(0x3A);
 1056              		.loc 1 228 2
 1057              	.LBB212:
 1058              	.LBB213:
  92:lcd.c         **** }
 1059              		.loc 1 92 5
 1060 013a 1305A013 		li	a0,314
 1061 013e 97000000 		call	LCD_Write_Bus
 1061      E7800000 
 1062              	.LVL89:
 1063              	.LBE213:
 1064              	.LBE212:
 229:lcd.c         **** 	LCD_WR_DATA8(0x3A);
 1065              		.loc 1 229 2
 1066              	.LBB214:
 1067              	.LBB215:
  92:lcd.c         **** }
 1068              		.loc 1 92 5
 1069 0146 1305A013 		li	a0,314
GAS LISTING C:\Users\Karzan\AppData\Local\Temp\ccedaamX.s 			page 26


 1070 014a 97000000 		call	LCD_Write_Bus
 1070      E7800000 
 1071              	.LVL90:
 1072              	.LBE215:
 1073              	.LBE214:
 230:lcd.c         **** 
 231:lcd.c         **** 	LCD_WR_REG(0xB3);   //Partial mode
 1074              		.loc 1 231 2
 1075              	.LBB216:
 1076              	.LBB217:
 120:lcd.c         **** }
 1077              		.loc 1 120 5
 1078 0152 1305300B 		li	a0,179
 1079 0156 97000000 		call	LCD_Write_Bus
 1079      E7800000 
 1080              	.LVL91:
 1081              	.LBE217:
 1082              	.LBE216:
 232:lcd.c         **** 	LCD_WR_DATA8(0x05);  
 1083              		.loc 1 232 2
 1084              	.LBB218:
 1085              	.LBB219:
  92:lcd.c         **** }
 1086              		.loc 1 92 5
 1087 015e 13055010 		li	a0,261
 1088 0162 97000000 		call	LCD_Write_Bus
 1088      E7800000 
 1089              	.LVL92:
 1090              	.LBE219:
 1091              	.LBE218:
 233:lcd.c         **** 	LCD_WR_DATA8(0x3A);
 1092              		.loc 1 233 2
 1093              	.LBB220:
 1094              	.LBB221:
  92:lcd.c         **** }
 1095              		.loc 1 92 5
 1096 016a 1305A013 		li	a0,314
 1097 016e 97000000 		call	LCD_Write_Bus
 1097      E7800000 
 1098              	.LVL93:
 1099              	.LBE221:
 1100              	.LBE220:
 234:lcd.c         **** 	LCD_WR_DATA8(0x3A);
 1101              		.loc 1 234 2
 1102              	.LBB222:
 1103              	.LBB223:
  92:lcd.c         **** }
 1104              		.loc 1 92 5
 1105 0176 1305A013 		li	a0,314
 1106 017a 97000000 		call	LCD_Write_Bus
 1106      E7800000 
 1107              	.LVL94:
 1108              	.LBE223:
 1109              	.LBE222:
 235:lcd.c         **** 	LCD_WR_DATA8(0x05);
 1110              		.loc 1 235 2
 1111              	.LBB224:
GAS LISTING C:\Users\Karzan\AppData\Local\Temp\ccedaamX.s 			page 27


 1112              	.LBB225:
  92:lcd.c         **** }
 1113              		.loc 1 92 5
 1114 0182 13055010 		li	a0,261
 1115 0186 97000000 		call	LCD_Write_Bus
 1115      E7800000 
 1116              	.LVL95:
 1117              	.LBE225:
 1118              	.LBE224:
 236:lcd.c         **** 	LCD_WR_DATA8(0x3A);
 1119              		.loc 1 236 2
 1120              	.LBB226:
 1121              	.LBB227:
  92:lcd.c         **** }
 1122              		.loc 1 92 5
 1123 018e 1305A013 		li	a0,314
 1124 0192 97000000 		call	LCD_Write_Bus
 1124      E7800000 
 1125              	.LVL96:
 1126              	.LBE227:
 1127              	.LBE226:
 237:lcd.c         **** 	LCD_WR_DATA8(0x3A);
 1128              		.loc 1 237 2
 1129              	.LBB228:
 1130              	.LBB229:
  92:lcd.c         **** }
 1131              		.loc 1 92 5
 1132 019a 1305A013 		li	a0,314
 1133 019e 97000000 		call	LCD_Write_Bus
 1133      E7800000 
 1134              	.LVL97:
 1135              	.LBE229:
 1136              	.LBE228:
 238:lcd.c         **** 
 239:lcd.c         **** 	LCD_WR_REG(0xB4);  //INVCTR - Inversion control
 1137              		.loc 1 239 2
 1138              	.LBB230:
 1139              	.LBB231:
 120:lcd.c         **** }
 1140              		.loc 1 120 5
 1141 01a6 1305400B 		li	a0,180
 1142 01aa 97000000 		call	LCD_Write_Bus
 1142      E7800000 
 1143              	.LVL98:
 1144              	.LBE231:
 1145              	.LBE230:
 240:lcd.c         **** 	LCD_WR_DATA8(0x03);//Line inversion(full color) | Frame inversion
 1146              		.loc 1 240 2
 1147              	.LBB232:
 1148              	.LBB233:
  92:lcd.c         **** }
 1149              		.loc 1 92 5
 1150 01b2 13053010 		li	a0,259
 1151 01b6 97000000 		call	LCD_Write_Bus
 1151      E7800000 
 1152              	.LVL99:
 1153              	.LBE233:
GAS LISTING C:\Users\Karzan\AppData\Local\Temp\ccedaamX.s 			page 28


 1154              	.LBE232:
 241:lcd.c         **** 
 242:lcd.c         **** 	LCD_WR_REG(0xC0);  //PWRCTR1 - Set GVDD voltage
 1155              		.loc 1 242 2
 1156              	.LBB234:
 1157              	.LBB235:
 120:lcd.c         **** }
 1158              		.loc 1 120 5
 1159 01be 1305000C 		li	a0,192
 1160 01c2 97000000 		call	LCD_Write_Bus
 1160      E7800000 
 1161              	.LVL100:
 1162              	.LBE235:
 1163              	.LBE234:
 243:lcd.c         **** 	LCD_WR_DATA8(0x62);//
 1164              		.loc 1 243 2
 1165              	.LBB236:
 1166              	.LBB237:
  92:lcd.c         **** }
 1167              		.loc 1 92 5
 1168 01ca 13052016 		li	a0,354
 1169 01ce 97000000 		call	LCD_Write_Bus
 1169      E7800000 
 1170              	.LVL101:
 1171              	.LBE237:
 1172              	.LBE236:
 244:lcd.c         **** 	LCD_WR_DATA8(0x02);//
 1173              		.loc 1 244 2
 1174              	.LBB238:
 1175              	.LBB239:
  92:lcd.c         **** }
 1176              		.loc 1 92 5
 1177 01d6 13052010 		li	a0,258
 1178 01da 97000000 		call	LCD_Write_Bus
 1178      E7800000 
 1179              	.LVL102:
 1180              	.LBE239:
 1181              	.LBE238:
 245:lcd.c         **** 	LCD_WR_DATA8(0x04);//
 1182              		.loc 1 245 2
 1183              	.LBB240:
 1184              	.LBB241:
  92:lcd.c         **** }
 1185              		.loc 1 92 5
 1186 01e2 13054010 		li	a0,260
 1187 01e6 97000000 		call	LCD_Write_Bus
 1187      E7800000 
 1188              	.LVL103:
 1189              	.LBE241:
 1190              	.LBE240:
 246:lcd.c         **** 
 247:lcd.c         **** 	LCD_WR_REG(0xC1); //More power regulation
 1191              		.loc 1 247 2
 1192              	.LBB242:
 1193              	.LBB243:
 120:lcd.c         **** }
 1194              		.loc 1 120 5
GAS LISTING C:\Users\Karzan\AppData\Local\Temp\ccedaamX.s 			page 29


 1195 01ee 1305100C 		li	a0,193
 1196 01f2 97000000 		call	LCD_Write_Bus
 1196      E7800000 
 1197              	.LVL104:
 1198              	.LBE243:
 1199              	.LBE242:
 248:lcd.c         **** 	LCD_WR_DATA8(0xC0);
 1200              		.loc 1 248 2
 1201              	.LBB244:
 1202              	.LBB245:
  92:lcd.c         **** }
 1203              		.loc 1 92 5
 1204 01fa 1305001C 		li	a0,448
 1205 01fe 97000000 		call	LCD_Write_Bus
 1205      E7800000 
 1206              	.LVL105:
 1207              	.LBE245:
 1208              	.LBE244:
 249:lcd.c         **** 
 250:lcd.c         **** 	LCD_WR_REG(0xC2); //Same
 1209              		.loc 1 250 2
 1210              	.LBB246:
 1211              	.LBB247:
 120:lcd.c         **** }
 1212              		.loc 1 120 5
 1213 0206 1305200C 		li	a0,194
 1214 020a 97000000 		call	LCD_Write_Bus
 1214      E7800000 
 1215              	.LVL106:
 1216              	.LBE247:
 1217              	.LBE246:
 251:lcd.c         **** 	LCD_WR_DATA8(0x0D);
 1218              		.loc 1 251 2
 1219              	.LBB248:
 1220              	.LBB249:
  92:lcd.c         **** }
 1221              		.loc 1 92 5
 1222 0212 1305D010 		li	a0,269
 1223 0216 97000000 		call	LCD_Write_Bus
 1223      E7800000 
 1224              	.LVL107:
 1225              	.LBE249:
 1226              	.LBE248:
 252:lcd.c         **** 	LCD_WR_DATA8(0x00);
 1227              		.loc 1 252 2
 1228              	.LBB250:
 1229              	.LBB251:
  92:lcd.c         **** }
 1230              		.loc 1 92 5
 1231 021e 13050010 		li	a0,256
 1232 0222 97000000 		call	LCD_Write_Bus
 1232      E7800000 
 1233              	.LVL108:
 1234              	.LBE251:
 1235              	.LBE250:
 253:lcd.c         **** 
 254:lcd.c         **** 	LCD_WR_REG(0xC3); //same
GAS LISTING C:\Users\Karzan\AppData\Local\Temp\ccedaamX.s 			page 30


 1236              		.loc 1 254 2
 1237              	.LBB252:
 1238              	.LBB253:
 120:lcd.c         **** }
 1239              		.loc 1 120 5
 1240 022a 1305300C 		li	a0,195
 1241 022e 97000000 		call	LCD_Write_Bus
 1241      E7800000 
 1242              	.LVL109:
 1243              	.LBE253:
 1244              	.LBE252:
 255:lcd.c         **** 	LCD_WR_DATA8(0x8D);
 1245              		.loc 1 255 2
 1246              	.LBB254:
 1247              	.LBB255:
  92:lcd.c         **** }
 1248              		.loc 1 92 5
 1249 0236 1305D018 		li	a0,397
 1250 023a 97000000 		call	LCD_Write_Bus
 1250      E7800000 
 1251              	.LVL110:
 1252              	.LBE255:
 1253              	.LBE254:
 256:lcd.c         **** 	LCD_WR_DATA8(0x6A);   
 1254              		.loc 1 256 2
 1255              	.LBB256:
 1256              	.LBB257:
  92:lcd.c         **** }
 1257              		.loc 1 92 5
 1258 0242 1305A016 		li	a0,362
 1259 0246 97000000 		call	LCD_Write_Bus
 1259      E7800000 
 1260              	.LVL111:
 1261              	.LBE257:
 1262              	.LBE256:
 257:lcd.c         **** 
 258:lcd.c         **** 	LCD_WR_REG(0xC4);
 1263              		.loc 1 258 2
 1264              	.LBB258:
 1265              	.LBB259:
 120:lcd.c         **** }
 1266              		.loc 1 120 5
 1267 024e 1305400C 		li	a0,196
 1268 0252 97000000 		call	LCD_Write_Bus
 1268      E7800000 
 1269              	.LVL112:
 1270              	.LBE259:
 1271              	.LBE258:
 259:lcd.c         **** 	LCD_WR_DATA8(0x8D); 
 1272              		.loc 1 259 2
 1273              	.LBB260:
 1274              	.LBB261:
  92:lcd.c         **** }
 1275              		.loc 1 92 5
 1276 025a 1305D018 		li	a0,397
 1277 025e 97000000 		call	LCD_Write_Bus
 1277      E7800000 
GAS LISTING C:\Users\Karzan\AppData\Local\Temp\ccedaamX.s 			page 31


 1278              	.LVL113:
 1279              	.LBE261:
 1280              	.LBE260:
 260:lcd.c         **** 	LCD_WR_DATA8(0xEE); 
 1281              		.loc 1 260 2
 1282              	.LBB262:
 1283              	.LBB263:
  92:lcd.c         **** }
 1284              		.loc 1 92 5
 1285 0266 1305E01E 		li	a0,494
 1286 026a 97000000 		call	LCD_Write_Bus
 1286      E7800000 
 1287              	.LVL114:
 1288              	.LBE263:
 1289              	.LBE262:
 261:lcd.c         **** 
 262:lcd.c         **** 	LCD_WR_REG(0xC5);  /*VCOM*/
 1290              		.loc 1 262 2
 1291              	.LBB264:
 1292              	.LBB265:
 120:lcd.c         **** }
 1293              		.loc 1 120 5
 1294 0272 1305500C 		li	a0,197
 1295 0276 97000000 		call	LCD_Write_Bus
 1295      E7800000 
 1296              	.LVL115:
 1297              	.LBE265:
 1298              	.LBE264:
 263:lcd.c         **** 	LCD_WR_DATA8(0x0E);    
 1299              		.loc 1 263 2
 1300              	.LBB266:
 1301              	.LBB267:
  92:lcd.c         **** }
 1302              		.loc 1 92 5
 1303 027e 1305E010 		li	a0,270
 1304 0282 97000000 		call	LCD_Write_Bus
 1304      E7800000 
 1305              	.LVL116:
 1306              	.LBE267:
 1307              	.LBE266:
 264:lcd.c         **** 
 265:lcd.c         **** 	LCD_WR_REG(0xE0);  //Gamma correction
 1308              		.loc 1 265 2
 1309              	.LBB268:
 1310              	.LBB269:
 120:lcd.c         **** }
 1311              		.loc 1 120 5
 1312 028a 1305000E 		li	a0,224
 1313 028e 97000000 		call	LCD_Write_Bus
 1313      E7800000 
 1314              	.LVL117:
 1315              	.LBE269:
 1316              	.LBE268:
 266:lcd.c         **** 	LCD_WR_DATA8(0x10);
 1317              		.loc 1 266 2
 1318              	.LBB270:
 1319              	.LBB271:
GAS LISTING C:\Users\Karzan\AppData\Local\Temp\ccedaamX.s 			page 32


  92:lcd.c         **** }
 1320              		.loc 1 92 5
 1321 0296 13050011 		li	a0,272
 1322 029a 97000000 		call	LCD_Write_Bus
 1322      E7800000 
 1323              	.LVL118:
 1324              	.LBE271:
 1325              	.LBE270:
 267:lcd.c         **** 	LCD_WR_DATA8(0x0E);
 1326              		.loc 1 267 2
 1327              	.LBB272:
 1328              	.LBB273:
  92:lcd.c         **** }
 1329              		.loc 1 92 5
 1330 02a2 1305E010 		li	a0,270
 1331 02a6 97000000 		call	LCD_Write_Bus
 1331      E7800000 
 1332              	.LVL119:
 1333              	.LBE273:
 1334              	.LBE272:
 268:lcd.c         **** 	LCD_WR_DATA8(0x02);
 1335              		.loc 1 268 2
 1336              	.LBB274:
 1337              	.LBB275:
  92:lcd.c         **** }
 1338              		.loc 1 92 5
 1339 02ae 13052010 		li	a0,258
 1340 02b2 97000000 		call	LCD_Write_Bus
 1340      E7800000 
 1341              	.LVL120:
 1342              	.LBE275:
 1343              	.LBE274:
 269:lcd.c         **** 	LCD_WR_DATA8(0x03);
 1344              		.loc 1 269 2
 1345              	.LBB276:
 1346              	.LBB277:
  92:lcd.c         **** }
 1347              		.loc 1 92 5
 1348 02ba 13053010 		li	a0,259
 1349 02be 97000000 		call	LCD_Write_Bus
 1349      E7800000 
 1350              	.LVL121:
 1351              	.LBE277:
 1352              	.LBE276:
 270:lcd.c         **** 	LCD_WR_DATA8(0x0E);
 1353              		.loc 1 270 2
 1354              	.LBB278:
 1355              	.LBB279:
  92:lcd.c         **** }
 1356              		.loc 1 92 5
 1357 02c6 1305E010 		li	a0,270
 1358 02ca 97000000 		call	LCD_Write_Bus
 1358      E7800000 
 1359              	.LVL122:
 1360              	.LBE279:
 1361              	.LBE278:
 271:lcd.c         **** 	LCD_WR_DATA8(0x07);
GAS LISTING C:\Users\Karzan\AppData\Local\Temp\ccedaamX.s 			page 33


 1362              		.loc 1 271 2
 1363              	.LBB280:
 1364              	.LBB281:
  92:lcd.c         **** }
 1365              		.loc 1 92 5
 1366 02d2 13057010 		li	a0,263
 1367 02d6 97000000 		call	LCD_Write_Bus
 1367      E7800000 
 1368              	.LVL123:
 1369              	.LBE281:
 1370              	.LBE280:
 272:lcd.c         **** 	LCD_WR_DATA8(0x02);
 1371              		.loc 1 272 2
 1372              	.LBB282:
 1373              	.LBB283:
  92:lcd.c         **** }
 1374              		.loc 1 92 5
 1375 02de 13052010 		li	a0,258
 1376 02e2 97000000 		call	LCD_Write_Bus
 1376      E7800000 
 1377              	.LVL124:
 1378              	.LBE283:
 1379              	.LBE282:
 273:lcd.c         **** 	LCD_WR_DATA8(0x07);
 1380              		.loc 1 273 2
 1381              	.LBB284:
 1382              	.LBB285:
  92:lcd.c         **** }
 1383              		.loc 1 92 5
 1384 02ea 13057010 		li	a0,263
 1385 02ee 97000000 		call	LCD_Write_Bus
 1385      E7800000 
 1386              	.LVL125:
 1387              	.LBE285:
 1388              	.LBE284:
 274:lcd.c         **** 	LCD_WR_DATA8(0x0A);
 1389              		.loc 1 274 2
 1390              	.LBB286:
 1391              	.LBB287:
  92:lcd.c         **** }
 1392              		.loc 1 92 5
 1393 02f6 1305A010 		li	a0,266
 1394 02fa 97000000 		call	LCD_Write_Bus
 1394      E7800000 
 1395              	.LVL126:
 1396              	.LBE287:
 1397              	.LBE286:
 275:lcd.c         **** 	LCD_WR_DATA8(0x12);
 1398              		.loc 1 275 2
 1399              	.LBB288:
 1400              	.LBB289:
  92:lcd.c         **** }
 1401              		.loc 1 92 5
 1402 0302 13052011 		li	a0,274
 1403 0306 97000000 		call	LCD_Write_Bus
 1403      E7800000 
 1404              	.LVL127:
GAS LISTING C:\Users\Karzan\AppData\Local\Temp\ccedaamX.s 			page 34


 1405              	.LBE289:
 1406              	.LBE288:
 276:lcd.c         **** 	LCD_WR_DATA8(0x27);
 1407              		.loc 1 276 2
 1408              	.LBB290:
 1409              	.LBB291:
  92:lcd.c         **** }
 1410              		.loc 1 92 5
 1411 030e 13057012 		li	a0,295
 1412 0312 97000000 		call	LCD_Write_Bus
 1412      E7800000 
 1413              	.LVL128:
 1414              	.LBE291:
 1415              	.LBE290:
 277:lcd.c         **** 	LCD_WR_DATA8(0x37);
 1416              		.loc 1 277 2
 1417              	.LBB292:
 1418              	.LBB293:
  92:lcd.c         **** }
 1419              		.loc 1 92 5
 1420 031a 13057013 		li	a0,311
 1421 031e 97000000 		call	LCD_Write_Bus
 1421      E7800000 
 1422              	.LVL129:
 1423              	.LBE293:
 1424              	.LBE292:
 278:lcd.c         **** 	LCD_WR_DATA8(0x00);
 1425              		.loc 1 278 2
 1426              	.LBB294:
 1427              	.LBB295:
  92:lcd.c         **** }
 1428              		.loc 1 92 5
 1429 0326 13050010 		li	a0,256
 1430 032a 97000000 		call	LCD_Write_Bus
 1430      E7800000 
 1431              	.LVL130:
 1432              	.LBE295:
 1433              	.LBE294:
 279:lcd.c         **** 	LCD_WR_DATA8(0x0D);
 1434              		.loc 1 279 2
 1435              	.LBB296:
 1436              	.LBB297:
  92:lcd.c         **** }
 1437              		.loc 1 92 5
 1438 0332 1305D010 		li	a0,269
 1439 0336 97000000 		call	LCD_Write_Bus
 1439      E7800000 
 1440              	.LVL131:
 1441              	.LBE297:
 1442              	.LBE296:
 280:lcd.c         **** 	LCD_WR_DATA8(0x0E);
 1443              		.loc 1 280 2
 1444              	.LBB298:
 1445              	.LBB299:
  92:lcd.c         **** }
 1446              		.loc 1 92 5
 1447 033e 1305E010 		li	a0,270
GAS LISTING C:\Users\Karzan\AppData\Local\Temp\ccedaamX.s 			page 35


 1448 0342 97000000 		call	LCD_Write_Bus
 1448      E7800000 
 1449              	.LVL132:
 1450              	.LBE299:
 1451              	.LBE298:
 281:lcd.c         **** 	LCD_WR_DATA8(0x10);
 1452              		.loc 1 281 2
 1453              	.LBB300:
 1454              	.LBB301:
  92:lcd.c         **** }
 1455              		.loc 1 92 5
 1456 034a 13050011 		li	a0,272
 1457 034e 97000000 		call	LCD_Write_Bus
 1457      E7800000 
 1458              	.LVL133:
 1459              	.LBE301:
 1460              	.LBE300:
 282:lcd.c         **** 
 283:lcd.c         **** 	LCD_WR_REG(0xE1);
 1461              		.loc 1 283 2
 1462              	.LBB302:
 1463              	.LBB303:
 120:lcd.c         **** }
 1464              		.loc 1 120 5
 1465 0356 1305100E 		li	a0,225
 1466 035a 97000000 		call	LCD_Write_Bus
 1466      E7800000 
 1467              	.LVL134:
 1468              	.LBE303:
 1469              	.LBE302:
 284:lcd.c         **** 	LCD_WR_DATA8(0x10);
 1470              		.loc 1 284 2
 1471              	.LBB304:
 1472              	.LBB305:
  92:lcd.c         **** }
 1473              		.loc 1 92 5
 1474 0362 13050011 		li	a0,272
 1475 0366 97000000 		call	LCD_Write_Bus
 1475      E7800000 
 1476              	.LVL135:
 1477              	.LBE305:
 1478              	.LBE304:
 285:lcd.c         **** 	LCD_WR_DATA8(0x0E);
 1479              		.loc 1 285 2
 1480              	.LBB306:
 1481              	.LBB307:
  92:lcd.c         **** }
 1482              		.loc 1 92 5
 1483 036e 1305E010 		li	a0,270
 1484 0372 97000000 		call	LCD_Write_Bus
 1484      E7800000 
 1485              	.LVL136:
 1486              	.LBE307:
 1487              	.LBE306:
 286:lcd.c         **** 	LCD_WR_DATA8(0x03);
 1488              		.loc 1 286 2
 1489              	.LBB308:
GAS LISTING C:\Users\Karzan\AppData\Local\Temp\ccedaamX.s 			page 36


 1490              	.LBB309:
  92:lcd.c         **** }
 1491              		.loc 1 92 5
 1492 037a 13053010 		li	a0,259
 1493 037e 97000000 		call	LCD_Write_Bus
 1493      E7800000 
 1494              	.LVL137:
 1495              	.LBE309:
 1496              	.LBE308:
 287:lcd.c         **** 	LCD_WR_DATA8(0x03);
 1497              		.loc 1 287 2
 1498              	.LBB310:
 1499              	.LBB311:
  92:lcd.c         **** }
 1500              		.loc 1 92 5
 1501 0386 13053010 		li	a0,259
 1502 038a 97000000 		call	LCD_Write_Bus
 1502      E7800000 
 1503              	.LVL138:
 1504              	.LBE311:
 1505              	.LBE310:
 288:lcd.c         **** 	LCD_WR_DATA8(0x0F);
 1506              		.loc 1 288 2
 1507              	.LBB312:
 1508              	.LBB313:
  92:lcd.c         **** }
 1509              		.loc 1 92 5
 1510 0392 1305F010 		li	a0,271
 1511 0396 97000000 		call	LCD_Write_Bus
 1511      E7800000 
 1512              	.LVL139:
 1513              	.LBE313:
 1514              	.LBE312:
 289:lcd.c         **** 	LCD_WR_DATA8(0x06);
 1515              		.loc 1 289 2
 1516              	.LBB314:
 1517              	.LBB315:
  92:lcd.c         **** }
 1518              		.loc 1 92 5
 1519 039e 13056010 		li	a0,262
 1520 03a2 97000000 		call	LCD_Write_Bus
 1520      E7800000 
 1521              	.LVL140:
 1522              	.LBE315:
 1523              	.LBE314:
 290:lcd.c         **** 	LCD_WR_DATA8(0x02);
 1524              		.loc 1 290 2
 1525              	.LBB316:
 1526              	.LBB317:
  92:lcd.c         **** }
 1527              		.loc 1 92 5
 1528 03aa 13052010 		li	a0,258
 1529 03ae 97000000 		call	LCD_Write_Bus
 1529      E7800000 
 1530              	.LVL141:
 1531              	.LBE317:
 1532              	.LBE316:
GAS LISTING C:\Users\Karzan\AppData\Local\Temp\ccedaamX.s 			page 37


 291:lcd.c         **** 	LCD_WR_DATA8(0x08);
 1533              		.loc 1 291 2
 1534              	.LBB318:
 1535              	.LBB319:
  92:lcd.c         **** }
 1536              		.loc 1 92 5
 1537 03b6 13058010 		li	a0,264
 1538 03ba 97000000 		call	LCD_Write_Bus
 1538      E7800000 
 1539              	.LVL142:
 1540              	.LBE319:
 1541              	.LBE318:
 292:lcd.c         **** 	LCD_WR_DATA8(0x0A);
 1542              		.loc 1 292 2
 1543              	.LBB320:
 1544              	.LBB321:
  92:lcd.c         **** }
 1545              		.loc 1 92 5
 1546 03c2 1305A010 		li	a0,266
 1547 03c6 97000000 		call	LCD_Write_Bus
 1547      E7800000 
 1548              	.LVL143:
 1549              	.LBE321:
 1550              	.LBE320:
 293:lcd.c         **** 	LCD_WR_DATA8(0x13);
 1551              		.loc 1 293 2
 1552              	.LBB322:
 1553              	.LBB323:
  92:lcd.c         **** }
 1554              		.loc 1 92 5
 1555 03ce 13053011 		li	a0,275
 1556 03d2 97000000 		call	LCD_Write_Bus
 1556      E7800000 
 1557              	.LVL144:
 1558              	.LBE323:
 1559              	.LBE322:
 294:lcd.c         **** 	LCD_WR_DATA8(0x26);
 1560              		.loc 1 294 2
 1561              	.LBB324:
 1562              	.LBB325:
  92:lcd.c         **** }
 1563              		.loc 1 92 5
 1564 03da 13056012 		li	a0,294
 1565 03de 97000000 		call	LCD_Write_Bus
 1565      E7800000 
 1566              	.LVL145:
 1567              	.LBE325:
 1568              	.LBE324:
 295:lcd.c         **** 	LCD_WR_DATA8(0x36);
 1569              		.loc 1 295 2
 1570              	.LBB326:
 1571              	.LBB327:
  92:lcd.c         **** }
 1572              		.loc 1 92 5
 1573 03e6 13056013 		li	a0,310
 1574 03ea 97000000 		call	LCD_Write_Bus
 1574      E7800000 
GAS LISTING C:\Users\Karzan\AppData\Local\Temp\ccedaamX.s 			page 38


 1575              	.LVL146:
 1576              	.LBE327:
 1577              	.LBE326:
 296:lcd.c         **** 	LCD_WR_DATA8(0x00);
 1578              		.loc 1 296 2
 1579              	.LBB328:
 1580              	.LBB329:
  92:lcd.c         **** }
 1581              		.loc 1 92 5
 1582 03f2 13050010 		li	a0,256
 1583 03f6 97000000 		call	LCD_Write_Bus
 1583      E7800000 
 1584              	.LVL147:
 1585              	.LBE329:
 1586              	.LBE328:
 297:lcd.c         **** 	LCD_WR_DATA8(0x0D);
 1587              		.loc 1 297 2
 1588              	.LBB330:
 1589              	.LBB331:
  92:lcd.c         **** }
 1590              		.loc 1 92 5
 1591 03fe 1305D010 		li	a0,269
 1592 0402 97000000 		call	LCD_Write_Bus
 1592      E7800000 
 1593              	.LVL148:
 1594              	.LBE331:
 1595              	.LBE330:
 298:lcd.c         **** 	LCD_WR_DATA8(0x0E);
 1596              		.loc 1 298 2
 1597              	.LBB332:
 1598              	.LBB333:
  92:lcd.c         **** }
 1599              		.loc 1 92 5
 1600 040a 1305E010 		li	a0,270
 1601 040e 97000000 		call	LCD_Write_Bus
 1601      E7800000 
 1602              	.LVL149:
 1603              	.LBE333:
 1604              	.LBE332:
 299:lcd.c         **** 	LCD_WR_DATA8(0x10);
 1605              		.loc 1 299 2
 1606              	.LBB334:
 1607              	.LBB335:
  92:lcd.c         **** }
 1608              		.loc 1 92 5
 1609 0416 13050011 		li	a0,272
 1610 041a 97000000 		call	LCD_Write_Bus
 1610      E7800000 
 1611              	.LVL150:
 1612              	.LBE335:
 1613              	.LBE334:
 300:lcd.c         **** 
 301:lcd.c         **** 	LCD_WR_REG(0x3A);  //Set color resolution
 1614              		.loc 1 301 2
 1615              	.LBB336:
 1616              	.LBB337:
 120:lcd.c         **** }
GAS LISTING C:\Users\Karzan\AppData\Local\Temp\ccedaamX.s 			page 39


 1617              		.loc 1 120 5
 1618 0422 1305A003 		li	a0,58
 1619 0426 97000000 		call	LCD_Write_Bus
 1619      E7800000 
 1620              	.LVL151:
 1621              	.LBE337:
 1622              	.LBE336:
 302:lcd.c         **** 	LCD_WR_DATA8(0x05);//16 bit color
 1623              		.loc 1 302 2
 1624              	.LBB338:
 1625              	.LBB339:
  92:lcd.c         **** }
 1626              		.loc 1 92 5
 1627 042e 13055010 		li	a0,261
 1628 0432 97000000 		call	LCD_Write_Bus
 1628      E7800000 
 1629              	.LVL152:
 1630              	.LBE339:
 1631              	.LBE338:
 303:lcd.c         **** 
 304:lcd.c         **** 	LCD_WR_REG(0x36); //Data access mode
 1632              		.loc 1 304 2
 1633              	.LBB340:
 1634              	.LBB341:
 120:lcd.c         **** }
 1635              		.loc 1 120 5
 1636 043a 13056003 		li	a0,54
 1637 043e 97000000 		call	LCD_Write_Bus
 1637      E7800000 
 1638              	.LVL153:
 1639              	.LBE341:
 1640              	.LBE340:
 305:lcd.c         **** 	LCD_WR_DATA8(0x78);
 1641              		.loc 1 305 2
 1642              	.LBB342:
 1643              	.LBB343:
  92:lcd.c         **** }
 1644              		.loc 1 92 5
 1645 0446 13058017 		li	a0,376
 1646 044a 97000000 		call	LCD_Write_Bus
 1646      E7800000 
 1647              	.LVL154:
 1648              	.LBE343:
 1649              	.LBE342:
 306:lcd.c         **** 	LCD_WR_REG(0x29); 
 1650              		.loc 1 306 2
 1651              	.LBB344:
 1652              	.LBB345:
 120:lcd.c         **** }
 1653              		.loc 1 120 5
 1654              	.LBE345:
 1655              	.LBE344:
 307:lcd.c         **** } 
 1656              		.loc 1 307 1 is_stmt 0
 1657 0452 2244     		lw	s0,8(sp)
 1658              		.cfi_restore 8
 1659 0454 B240     		lw	ra,12(sp)
GAS LISTING C:\Users\Karzan\AppData\Local\Temp\ccedaamX.s 			page 40


 1660              		.cfi_restore 1
 1661              	.LBB348:
 1662              	.LBB346:
 120:lcd.c         **** }
 1663              		.loc 1 120 5
 1664 0456 13059002 		li	a0,41
 1665              	.LBE346:
 1666              	.LBE348:
 1667              		.loc 1 307 1
 1668 045a 4101     		addi	sp,sp,16
 1669              	.LCFI21:
 1670              		.cfi_def_cfa_offset 0
 1671              	.LBB349:
 1672              	.LBB347:
 120:lcd.c         **** }
 1673              		.loc 1 120 5
 1674 045c 17030000 		tail	LCD_Write_Bus
 1674      67000300 
 1675              	.LVL155:
 1676              	.LBE347:
 1677              	.LBE349:
 1678              		.cfi_endproc
 1679              	.LFE13:
 1681              		.section	.text.LCD_Clear,"ax",@progbits
 1682              		.align	1
 1683              		.globl	LCD_Clear
 1685              	LCD_Clear:
 1686              	.LFB14:
 308:lcd.c         **** 
 309:lcd.c         **** 
 310:lcd.c         **** /*
 311:lcd.c         ****   Function description: LCD clear screen function
 312:lcd.c         ****   Entry data: Color: color to set as background
 313:lcd.c         ****   Return value: None
 314:lcd.c         **** */
 315:lcd.c         **** void LCD_Clear(u16 Color)
 316:lcd.c         **** {
 1687              		.loc 1 316 1 is_stmt 1
 1688              		.cfi_startproc
 1689              	.LVL156:
 317:lcd.c         **** 	u16 i,j;  	
 1690              		.loc 1 317 2
 318:lcd.c         **** 	LCD_Address_Set(0,0,LCD_W-1,LCD_H-1);
 1691              		.loc 1 318 2
 316:lcd.c         **** 	u16 i,j;  	
 1692              		.loc 1 316 1 is_stmt 0
 1693 0000 4111     		addi	sp,sp,-16
 1694              	.LCFI22:
 1695              		.cfi_def_cfa_offset 16
 1696 0002 4AC0     		sw	s2,0(sp)
 1697              		.loc 1 318 2
 1698 0004 9306F004 		li	a3,79
 1699              		.cfi_offset 18, -16
 316:lcd.c         **** 	u16 i,j;  	
 1700              		.loc 1 316 1
 1701 0008 2A89     		mv	s2,a0
 1702              		.loc 1 318 2
GAS LISTING C:\Users\Karzan\AppData\Local\Temp\ccedaamX.s 			page 41


 1703 000a 1306F009 		li	a2,159
 1704 000e 8145     		li	a1,0
 1705 0010 0145     		li	a0,0
 1706              	.LVL157:
 316:lcd.c         **** 	u16 i,j;  	
 1707              		.loc 1 316 1
 1708 0012 26C2     		sw	s1,4(sp)
 1709 0014 06C6     		sw	ra,12(sp)
 1710 0016 22C4     		sw	s0,8(sp)
 1711              		.cfi_offset 9, -12
 1712              		.cfi_offset 1, -4
 1713              		.cfi_offset 8, -8
 1714              		.loc 1 318 2
 1715 0018 9304000A 		li	s1,160
 1716 001c 97000000 		call	LCD_Address_Set
 1716      E7800000 
 1717              	.LVL158:
 319:lcd.c         ****     for(i=0;i<LCD_W;i++)
 1718              		.loc 1 319 5 is_stmt 1
 1719              	.L51:
 316:lcd.c         **** 	u16 i,j;  	
 1720              		.loc 1 316 1 is_stmt 0
 1721 0024 13040005 		li	s0,80
 1722              	.LVL159:
 1723              	.L52:
 320:lcd.c         **** 	  {
 321:lcd.c         **** 			for (j=0;j<LCD_H;j++)
 322:lcd.c         **** 				{
 323:lcd.c         **** 					LCD_WR_DATA(Color);
 1724              		.loc 1 323 6 is_stmt 1 discriminator 3
 1725 0028 4A85     		mv	a0,s2
 1726 002a 7D14     		addi	s0,s0,-1
 1727              	.LVL160:
 1728 002c 97000000 		call	LCD_WR_DATA
 1728      E7800000 
 1729              	.LVL161:
 321:lcd.c         **** 				{
 1730              		.loc 1 321 4 is_stmt 0 discriminator 3
 1731 0034 75F8     		bne	s0,zero,.L52
 1732              	.LVL162:
 1733 0036 FD14     		addi	s1,s1,-1
 1734              	.LVL163:
 319:lcd.c         ****     for(i=0;i<LCD_W;i++)
 1735              		.loc 1 319 5 discriminator 2
 1736 0038 F5F4     		bne	s1,zero,.L51
 324:lcd.c         **** 				}
 325:lcd.c         **** 	  }
 326:lcd.c         **** }
 1737              		.loc 1 326 1
 1738 003a B240     		lw	ra,12(sp)
 1739              		.cfi_restore 1
 1740 003c 2244     		lw	s0,8(sp)
 1741              		.cfi_restore 8
 1742 003e 9244     		lw	s1,4(sp)
 1743              		.cfi_restore 9
 1744              	.LVL164:
 1745 0040 0249     		lw	s2,0(sp)
GAS LISTING C:\Users\Karzan\AppData\Local\Temp\ccedaamX.s 			page 42


 1746              		.cfi_restore 18
 1747              	.LVL165:
 1748 0042 4101     		addi	sp,sp,16
 1749              	.LCFI23:
 1750              		.cfi_def_cfa_offset 0
 1751 0044 8280     		jr	ra
 1752              		.cfi_endproc
 1753              	.LFE14:
 1755              		.section	.text.LCD_ShowChinese,"ax",@progbits
 1756              		.align	1
 1757              		.globl	LCD_ShowChinese
 1759              	LCD_ShowChinese:
 1760              	.LFB15:
 327:lcd.c         **** 
 328:lcd.c         **** 
 329:lcd.c         **** /*
 330:lcd.c         ****   Function description: LCD display Chinese characters
 331:lcd.c         ****   Entry data:  x, y: start coordinates
 332:lcd.c         ****               index: Chinese character number
 333:lcd.c         ****                size: font size
 334:lcd.c         ****   Return value: None
 335:lcd.c         **** */
 336:lcd.c         **** void LCD_ShowChinese(u16 x,u16 y,u8 index,u8 size,u16 color)	
 337:lcd.c         **** {  
 1761              		.loc 1 337 1 is_stmt 1
 1762              		.cfi_startproc
 1763              	.LVL166:
 338:lcd.c         **** 	u8 i,j;
 1764              		.loc 1 338 2
 339:lcd.c         **** 	u8 *temp,size1;
 1765              		.loc 1 339 2
 340:lcd.c         **** 	if(size==16){temp=Hzk16;}               // Choose a font size
 1766              		.loc 1 340 2
 341:lcd.c         **** 	if(size==32){temp=Hzk32;}
 1767              		.loc 1 341 2
 337:lcd.c         **** 	u8 i,j;
 1768              		.loc 1 337 1 is_stmt 0
 1769 0000 0111     		addi	sp,sp,-32
 1770              	.LCFI24:
 1771              		.cfi_def_cfa_offset 32
 1772 0002 22CC     		sw	s0,24(sp)
 1773 0004 4AC8     		sw	s2,16(sp)
 1774 0006 4EC6     		sw	s3,12(sp)
 1775 0008 06CE     		sw	ra,28(sp)
 1776 000a 26CA     		sw	s1,20(sp)
 1777 000c 52C4     		sw	s4,8(sp)
 1778 000e 56C2     		sw	s5,4(sp)
 1779              		.cfi_offset 8, -8
 1780              		.cfi_offset 18, -16
 1781              		.cfi_offset 19, -20
 1782              		.cfi_offset 1, -4
 1783              		.cfi_offset 9, -12
 1784              		.cfi_offset 20, -24
 1785              		.cfi_offset 21, -28
 1786              		.loc 1 341 4
 1787 0010 93070002 		li	a5,32
 337:lcd.c         **** 	u8 i,j;
GAS LISTING C:\Users\Karzan\AppData\Local\Temp\ccedaamX.s 			page 43


 1788              		.loc 1 337 1
 1789 0014 B289     		mv	s3,a2
 1790 0016 3684     		mv	s0,a3
 1791 0018 3A89     		mv	s2,a4
 1792              		.loc 1 341 4
 1793 001a 6397F604 		bne	a3,a5,.L62
 1794              		.loc 1 341 19
 1795 001e B7040000 		lui	s1,%hi(.LANCHOR5)
 1796 0022 93840400 		addi	s1,s1,%lo(.LANCHOR5)
 1797              	.L57:
 1798              	.LVL167:
 342:lcd.c         ****     LCD_Address_Set(x,y,x+size-1,y+size-1); // Set a region of Chinese characters
 1799              		.loc 1 342 5 is_stmt 1
 1800 0026 9386F5FF 		addi	a3,a1,-1
 1801              	.LVL168:
 1802 002a 1306F5FF 		addi	a2,a0,-1
 1803              	.LVL169:
 1804 002e A296     		add	a3,a3,s0
 1805 0030 2296     		add	a2,a2,s0
 343:lcd.c         ****     size1=size*size/8;                      // The bytes occupied by a Chinese character
 1806              		.loc 1 343 15 is_stmt 0
 1807 0032 33048402 		mul	s0,s0,s0
 342:lcd.c         ****     LCD_Address_Set(x,y,x+size-1,y+size-1); // Set a region of Chinese characters
 1808              		.loc 1 342 5
 1809 0036 97000000 		call	LCD_Address_Set
 1809      E7800000 
 1810              	.LVL170:
 1811              		.loc 1 343 5 is_stmt 1
 344:lcd.c         **** 	temp+=index*size1;                      // Start of writing
 345:lcd.c         **** 	for(j=0;j<size1;j++)
 346:lcd.c         **** 	{
 347:lcd.c         **** 		for(i=0;i<8;i++)
 348:lcd.c         **** 		{
 349:lcd.c         **** 		 	if((*temp&(1<<i))!=0) {         // Read from the lower bit of the data
 350:lcd.c         **** 				LCD_WR_DATA(color);         // set dot color
 351:lcd.c         **** 			}
 352:lcd.c         **** 			else
 353:lcd.c         **** 			{
 354:lcd.c         **** 				LCD_WR_DATA(BACK_COLOR);    // set dot color to background
 1812              		.loc 1 354 5 is_stmt 0
 1813 003e 370A0000 		lui	s4,%hi(BACK_COLOR)
 347:lcd.c         **** 		{
 1814              		.loc 1 347 3
 1815 0042 A14A     		li	s5,8
 343:lcd.c         ****     size1=size*size/8;                      // The bytes occupied by a Chinese character
 1816              		.loc 1 343 20
 1817 0044 0D84     		srai	s0,s0,3
 1818              	.LVL171:
 344:lcd.c         **** 	temp+=index*size1;                      // Start of writing
 1819              		.loc 1 344 2 is_stmt 1
 344:lcd.c         **** 	temp+=index*size1;                      // Start of writing
 1820              		.loc 1 344 13 is_stmt 0
 1821 0046 1374F40F 		andi	s0,s0,255
 1822              	.LVL172:
 1823 004a B3093403 		mul	s3,s0,s3
 344:lcd.c         **** 	temp+=index*size1;                      // Start of writing
 1824              		.loc 1 344 6
GAS LISTING C:\Users\Karzan\AppData\Local\Temp\ccedaamX.s 			page 44


 1825 004e CE94     		add	s1,s1,s3
 1826              	.LVL173:
 345:lcd.c         **** 	{
 1827              		.loc 1 345 2 is_stmt 1
 1828 0050 2694     		add	s0,s1,s0
 1829              	.L58:
 345:lcd.c         **** 	{
 1830              		.loc 1 345 2 is_stmt 0 discriminator 1
 1831 0052 63908402 		bne	s1,s0,.L63
 355:lcd.c         **** 			}
 356:lcd.c         **** 		}
 357:lcd.c         **** 		temp++;
 358:lcd.c         **** 	 }
 359:lcd.c         **** }
 1832              		.loc 1 359 1
 1833 0056 F240     		lw	ra,28(sp)
 1834              		.cfi_remember_state
 1835              		.cfi_restore 1
 1836 0058 6244     		lw	s0,24(sp)
 1837              		.cfi_restore 8
 1838 005a D244     		lw	s1,20(sp)
 1839              		.cfi_restore 9
 1840              	.LVL174:
 1841 005c 4249     		lw	s2,16(sp)
 1842              		.cfi_restore 18
 1843              	.LVL175:
 1844 005e B249     		lw	s3,12(sp)
 1845              		.cfi_restore 19
 1846 0060 224A     		lw	s4,8(sp)
 1847              		.cfi_restore 20
 1848 0062 924A     		lw	s5,4(sp)
 1849              		.cfi_restore 21
 1850 0064 0561     		addi	sp,sp,32
 1851              	.LCFI25:
 1852              		.cfi_def_cfa_offset 0
 1853 0066 8280     		jr	ra
 1854              	.LVL176:
 1855              	.L62:
 1856              	.LCFI26:
 1857              		.cfi_restore_state
 1858 0068 B7040000 		lui	s1,%hi(.LANCHOR4)
 1859 006c 93840400 		addi	s1,s1,%lo(.LANCHOR4)
 1860 0070 5DBF     		j	.L57
 1861              	.LVL177:
 1862              	.L63:
 1863 0072 8149     		li	s3,0
 1864              	.L61:
 1865              	.LVL178:
 349:lcd.c         **** 				LCD_WR_DATA(color);         // set dot color
 1866              		.loc 1 349 5 is_stmt 1
 349:lcd.c         **** 				LCD_WR_DATA(color);         // set dot color
 1867              		.loc 1 349 9 is_stmt 0
 1868 0074 83C70400 		lbu	a5,0(s1)
 350:lcd.c         **** 			}
 1869              		.loc 1 350 5
 1870 0078 4A85     		mv	a0,s2
 349:lcd.c         **** 				LCD_WR_DATA(color);         // set dot color
GAS LISTING C:\Users\Karzan\AppData\Local\Temp\ccedaamX.s 			page 45


 1871              		.loc 1 349 22
 1872 007a B3D73741 		sra	a5,a5,s3
 1873 007e 858B     		andi	a5,a5,1
 349:lcd.c         **** 				LCD_WR_DATA(color);         // set dot color
 1874              		.loc 1 349 7
 1875 0080 99E3     		bne	a5,zero,.L66
 1876              	.LVL179:
 354:lcd.c         **** 			}
 1877              		.loc 1 354 5 is_stmt 1
 1878 0082 03250A00 		lw	a0,%lo(BACK_COLOR)(s4)
 1879              	.LVL180:
 1880              	.L66:
 1881 0086 8509     		addi	s3,s3,1
 1882              	.LVL181:
 1883 0088 97000000 		call	LCD_WR_DATA
 1883      E7800000 
 1884              	.LVL182:
 347:lcd.c         **** 		{
 1885              		.loc 1 347 3 is_stmt 0
 1886 0090 E39259FF 		bne	s3,s5,.L61
 357:lcd.c         **** 	 }
 1887              		.loc 1 357 3 is_stmt 1 discriminator 2
 357:lcd.c         **** 	 }
 1888              		.loc 1 357 7 is_stmt 0 discriminator 2
 1889 0094 8504     		addi	s1,s1,1
 1890              	.LVL183:
 1891 0096 75BF     		j	.L58
 1892              		.cfi_endproc
 1893              	.LFE15:
 1895              		.section	.text.LCD_DrawPoint,"ax",@progbits
 1896              		.align	1
 1897              		.globl	LCD_DrawPoint
 1899              	LCD_DrawPoint:
 1900              	.LFB16:
 360:lcd.c         **** 
 361:lcd.c         **** 
 362:lcd.c         **** /*
 363:lcd.c         ****   Function description: LCD display Chinese characters
 364:lcd.c         ****   Entry data: x, y: start coordinates
 365:lcd.c         ****   Return value: None
 366:lcd.c         **** */
 367:lcd.c         **** void LCD_DrawPoint(u16 x,u16 y,u16 color)
 368:lcd.c         **** {
 1901              		.loc 1 368 1 is_stmt 1
 1902              		.cfi_startproc
 1903              	.LVL184:
 369:lcd.c         **** 	LCD_Address_Set(x,y,x,y); // Set cursor position
 1904              		.loc 1 369 2
 368:lcd.c         **** 	LCD_Address_Set(x,y,x,y); // Set cursor position
 1905              		.loc 1 368 1 is_stmt 0
 1906 0000 4111     		addi	sp,sp,-16
 1907              	.LCFI27:
 1908              		.cfi_def_cfa_offset 16
 1909 0002 22C4     		sw	s0,8(sp)
 1910              		.loc 1 369 2
 1911 0004 AE86     		mv	a3,a1
 1912              		.cfi_offset 8, -8
GAS LISTING C:\Users\Karzan\AppData\Local\Temp\ccedaamX.s 			page 46


 368:lcd.c         **** 	LCD_Address_Set(x,y,x,y); // Set cursor position
 1913              		.loc 1 368 1
 1914 0006 3284     		mv	s0,a2
 1915              		.loc 1 369 2
 1916 0008 2A86     		mv	a2,a0
 1917              	.LVL185:
 368:lcd.c         **** 	LCD_Address_Set(x,y,x,y); // Set cursor position
 1918              		.loc 1 368 1
 1919 000a 06C6     		sw	ra,12(sp)
 1920              		.cfi_offset 1, -4
 1921              		.loc 1 369 2
 1922 000c 97000000 		call	LCD_Address_Set
 1922      E7800000 
 1923              	.LVL186:
 370:lcd.c         **** 	LCD_WR_DATA(color);
 1924              		.loc 1 370 2 is_stmt 1
 1925 0014 2285     		mv	a0,s0
 371:lcd.c         **** } 
 1926              		.loc 1 371 1 is_stmt 0
 1927 0016 2244     		lw	s0,8(sp)
 1928              		.cfi_restore 8
 1929              	.LVL187:
 1930 0018 B240     		lw	ra,12(sp)
 1931              		.cfi_restore 1
 1932 001a 4101     		addi	sp,sp,16
 1933              	.LCFI28:
 1934              		.cfi_def_cfa_offset 0
 370:lcd.c         **** 	LCD_WR_DATA(color);
 1935              		.loc 1 370 2
 1936 001c 17030000 		tail	LCD_WR_DATA
 1936      67000300 
 1937              	.LVL188:
 1938              		.cfi_endproc
 1939              	.LFE16:
 1941              		.section	.text.LCD_Fill,"ax",@progbits
 1942              		.align	1
 1943              		.globl	LCD_Fill
 1945              	LCD_Fill:
 1946              	.LFB18:
 372:lcd.c         **** 
 373:lcd.c         **** 
 374:lcd.c         **** /*
 375:lcd.c         ****   Function description: LCD draws a large dot
 376:lcd.c         ****   Entry data: x, y: start coordinates
 377:lcd.c         ****   Return value: None
 378:lcd.c         **** */
 379:lcd.c         **** void LCD_DrawPoint_big(u16 x,u16 y,u16 color)
 380:lcd.c         **** {
 381:lcd.c         **** 	LCD_Fill(x-1,y-1,x+1,y+1,color);
 382:lcd.c         **** } 
 383:lcd.c         **** 
 384:lcd.c         **** 
 385:lcd.c         **** /*
 386:lcd.c         ****   Function description: fill color in the specified area
 387:lcd.c         ****   Entry data: xsta, ysta:  start coordinates
 388:lcd.c         ****               xend, yend:  end coordinates
 389:lcd.c         ****   Return value: None
GAS LISTING C:\Users\Karzan\AppData\Local\Temp\ccedaamX.s 			page 47


 390:lcd.c         **** */
 391:lcd.c         **** void LCD_Fill(u16 xsta,u16 ysta,u16 xend,u16 yend,u16 color)
 392:lcd.c         **** {          
 1947              		.loc 1 392 1 is_stmt 1
 1948              		.cfi_startproc
 1949              	.LVL189:
 393:lcd.c         **** 	u16 i,j; 
 1950              		.loc 1 393 2
 394:lcd.c         **** 	LCD_Address_Set(xsta,ysta,xend,yend);          //Set cursor position
 1951              		.loc 1 394 2
 392:lcd.c         **** 	u16 i,j; 
 1952              		.loc 1 392 1 is_stmt 0
 1953 0000 0111     		addi	sp,sp,-32
 1954              	.LCFI29:
 1955              		.cfi_def_cfa_offset 32
 1956 0002 22CC     		sw	s0,24(sp)
 1957 0004 4AC8     		sw	s2,16(sp)
 1958 0006 4EC6     		sw	s3,12(sp)
 1959 0008 52C4     		sw	s4,8(sp)
 1960 000a 56C2     		sw	s5,4(sp)
 1961 000c 06CE     		sw	ra,28(sp)
 1962 000e 26CA     		sw	s1,20(sp)
 1963              		.cfi_offset 8, -8
 1964              		.cfi_offset 18, -16
 1965              		.cfi_offset 19, -20
 1966              		.cfi_offset 20, -24
 1967              		.cfi_offset 21, -28
 1968              		.cfi_offset 1, -4
 1969              		.cfi_offset 9, -12
 392:lcd.c         **** 	u16 i,j; 
 1970              		.loc 1 392 1
 1971 0010 AA89     		mv	s3,a0
 1972 0012 2E84     		mv	s0,a1
 1973 0014 328A     		mv	s4,a2
 1974 0016 3689     		mv	s2,a3
 1975 0018 BA8A     		mv	s5,a4
 1976              		.loc 1 394 2
 1977 001a 97000000 		call	LCD_Address_Set
 1977      E7800000 
 1978              	.LVL190:
 395:lcd.c         **** 	for(i=ysta;i<=yend;i++)
 1979              		.loc 1 395 2 is_stmt 1
 1980              	.L70:
 1981              		.loc 1 395 2 is_stmt 0 discriminator 1
 1982 0022 63758902 		bleu	s0,s2,.L73
 396:lcd.c         **** 	{													   	 	
 397:lcd.c         **** 		for(j=xsta;j<=xend;j++)LCD_WR_DATA(color); //Set cursor position
 398:lcd.c         **** 	} 					  	    
 399:lcd.c         **** }
 1983              		.loc 1 399 1
 1984 0026 F240     		lw	ra,28(sp)
 1985              		.cfi_remember_state
 1986              		.cfi_restore 1
 1987 0028 6244     		lw	s0,24(sp)
 1988              		.cfi_restore 8
 1989              	.LVL191:
 1990 002a D244     		lw	s1,20(sp)
GAS LISTING C:\Users\Karzan\AppData\Local\Temp\ccedaamX.s 			page 48


 1991              		.cfi_restore 9
 1992 002c 4249     		lw	s2,16(sp)
 1993              		.cfi_restore 18
 1994              	.LVL192:
 1995 002e B249     		lw	s3,12(sp)
 1996              		.cfi_restore 19
 1997              	.LVL193:
 1998 0030 224A     		lw	s4,8(sp)
 1999              		.cfi_restore 20
 2000              	.LVL194:
 2001 0032 924A     		lw	s5,4(sp)
 2002              		.cfi_restore 21
 2003              	.LVL195:
 2004 0034 0561     		addi	sp,sp,32
 2005              	.LCFI30:
 2006              		.cfi_def_cfa_offset 0
 2007 0036 8280     		jr	ra
 2008              	.LVL196:
 2009              	.L71:
 2010              	.LCFI31:
 2011              		.cfi_restore_state
 397:lcd.c         **** 	} 					  	    
 2012              		.loc 1 397 26 is_stmt 1 discriminator 3
 2013 0038 5685     		mv	a0,s5
 2014 003a 97000000 		call	LCD_WR_DATA
 2014      E7800000 
 2015              	.LVL197:
 397:lcd.c         **** 	} 					  	    
 2016              		.loc 1 397 23 is_stmt 0 discriminator 3
 2017 0042 8504     		addi	s1,s1,1
 2018              	.LVL198:
 2019              	.L72:
 397:lcd.c         **** 	} 					  	    
 2020              		.loc 1 397 3 discriminator 1
 2021 0044 E37A9AFE 		bleu	s1,s4,.L71
 395:lcd.c         **** 	for(i=ysta;i<=yend;i++)
 2022              		.loc 1 395 22 discriminator 2
 2023 0048 0504     		addi	s0,s0,1
 2024              	.LVL199:
 2025 004a E1BF     		j	.L70
 2026              	.LVL200:
 2027              	.L73:
 397:lcd.c         **** 	} 					  	    
 2028              		.loc 1 397 8
 2029 004c CE84     		mv	s1,s3
 2030 004e DDBF     		j	.L72
 2031              		.cfi_endproc
 2032              	.LFE18:
 2034              		.section	.text.LCD_DrawPoint_big,"ax",@progbits
 2035              		.align	1
 2036              		.globl	LCD_DrawPoint_big
 2038              	LCD_DrawPoint_big:
 2039              	.LFB17:
 380:lcd.c         **** 	LCD_Fill(x-1,y-1,x+1,y+1,color);
 2040              		.loc 1 380 1 is_stmt 1
 2041              		.cfi_startproc
 2042              	.LVL201:
GAS LISTING C:\Users\Karzan\AppData\Local\Temp\ccedaamX.s 			page 49


 381:lcd.c         **** } 
 2043              		.loc 1 381 2
 2044 0000 3287     		mv	a4,a2
 2045 0002 93861500 		addi	a3,a1,1
 2046 0006 13061500 		addi	a2,a0,1
 2047              	.LVL202:
 2048 000a FD15     		addi	a1,a1,-1
 2049              	.LVL203:
 2050 000c 7D15     		addi	a0,a0,-1
 2051              	.LVL204:
 2052 000e 17030000 		tail	LCD_Fill
 2052      67000300 
 2053              	.LVL205:
 2054              		.cfi_endproc
 2055              	.LFE17:
 2057              		.section	.text.LCD_DrawLine,"ax",@progbits
 2058              		.align	1
 2059              		.globl	LCD_DrawLine
 2061              	LCD_DrawLine:
 2062              	.LFB19:
 400:lcd.c         **** 
 401:lcd.c         **** 
 402:lcd.c         **** /*
 403:lcd.c         ****   Function description: draw a line
 404:lcd.c         ****   Entry data: x1, y1:  start coordinates
 405:lcd.c         ****               x2, y2:  end coordinates
 406:lcd.c         ****   Return value: None
 407:lcd.c         **** ******************************************************************************/
 408:lcd.c         **** void LCD_DrawLine(u16 x1,u16 y1,u16 x2,u16 y2,u16 color)
 409:lcd.c         **** {
 2063              		.loc 1 409 1
 2064              		.cfi_startproc
 2065              	.LVL206:
 410:lcd.c         **** 	u16 t; 
 2066              		.loc 1 410 2
 411:lcd.c         **** 	int xerr=0,yerr=0,delta_x,delta_y,distance;
 2067              		.loc 1 411 2
 412:lcd.c         **** 	int incx,incy,uRow,uCol;
 2068              		.loc 1 412 2
 413:lcd.c         **** 	delta_x=x2-x1;                       // Calculate coordinate increments
 2069              		.loc 1 413 2
 409:lcd.c         **** 	u16 t; 
 2070              		.loc 1 409 1 is_stmt 0
 2071 0000 3971     		addi	sp,sp,-64
 2072              	.LCFI32:
 2073              		.cfi_def_cfa_offset 64
 2074 0002 22DC     		sw	s0,56(sp)
 2075 0004 26DA     		sw	s1,52(sp)
 2076 0006 4AD8     		sw	s2,48(sp)
 2077 0008 4ED6     		sw	s3,44(sp)
 2078 000a 62CC     		sw	s8,24(sp)
 2079 000c 06DE     		sw	ra,60(sp)
 2080 000e 52D4     		sw	s4,40(sp)
 2081 0010 56D2     		sw	s5,36(sp)
 2082 0012 5AD0     		sw	s6,32(sp)
 2083 0014 5ECE     		sw	s7,28(sp)
 2084 0016 66CA     		sw	s9,20(sp)
GAS LISTING C:\Users\Karzan\AppData\Local\Temp\ccedaamX.s 			page 50


 2085 0018 6AC8     		sw	s10,16(sp)
 2086              		.cfi_offset 8, -8
 2087              		.cfi_offset 9, -12
 2088              		.cfi_offset 18, -16
 2089              		.cfi_offset 19, -20
 2090              		.cfi_offset 24, -40
 2091              		.cfi_offset 1, -4
 2092              		.cfi_offset 20, -24
 2093              		.cfi_offset 21, -28
 2094              		.cfi_offset 22, -32
 2095              		.cfi_offset 23, -36
 2096              		.cfi_offset 25, -44
 2097              		.cfi_offset 26, -48
 2098              		.loc 1 413 12
 2099 001a 3304A640 		sub	s0,a2,a0
 2100              	.LVL207:
 414:lcd.c         **** 	delta_y=y2-y1;
 2101              		.loc 1 414 2 is_stmt 1
 2102              		.loc 1 414 12 is_stmt 0
 2103 001e B384B640 		sub	s1,a3,a1
 2104              	.LVL208:
 415:lcd.c         **** 	uRow=x1;                             // Coordinates of starting point of drawing
 2105              		.loc 1 415 2 is_stmt 1
 2106              		.loc 1 415 6 is_stmt 0
 2107 0022 2A89     		mv	s2,a0
 2108              	.LVL209:
 416:lcd.c         **** 	uCol=y1;
 2109              		.loc 1 416 2 is_stmt 1
 2110              		.loc 1 416 6 is_stmt 0
 2111 0024 AE89     		mv	s3,a1
 2112              	.LVL210:
 417:lcd.c         **** 	if(delta_x>0)incx=1;                 // Set single step direction
 2113              		.loc 1 417 2 is_stmt 1
 2114              		.loc 1 417 19 is_stmt 0
 2115 0026 054C     		li	s8,1
 2116              		.loc 1 417 4
 2117 0028 63478000 		bgt	s0,zero,.L77
 418:lcd.c         **** 	else if (delta_x==0)incx=0;          // Vertical line
 2118              		.loc 1 418 7 is_stmt 1
 2119              		.loc 1 418 26 is_stmt 0
 2120 002c 014C     		li	s8,0
 2121              		.loc 1 418 10
 2122 002e 01C4     		beq	s0,zero,.L77
 419:lcd.c         **** 	else {incx=-1;delta_x=-delta_x;}
 2123              		.loc 1 419 8 is_stmt 1
 2124              	.LVL211:
 2125              		.loc 1 419 16
 2126              		.loc 1 419 23 is_stmt 0
 2127 0030 33048040 		neg	s0,s0
 2128              	.LVL212:
 2129              		.loc 1 419 12
 2130 0034 7D5C     		li	s8,-1
 2131              	.LVL213:
 2132              	.L77:
 420:lcd.c         **** 	if(delta_y>0)incy=1;
 2133              		.loc 1 420 2 is_stmt 1
 2134              		.loc 1 420 19 is_stmt 0
GAS LISTING C:\Users\Karzan\AppData\Local\Temp\ccedaamX.s 			page 51


 2135 0036 854C     		li	s9,1
 2136              		.loc 1 420 4
 2137 0038 63479000 		bgt	s1,zero,.L78
 421:lcd.c         **** 	else if (delta_y==0)incy=0;          // Horizontal line
 2138              		.loc 1 421 7 is_stmt 1
 2139              		.loc 1 421 26 is_stmt 0
 2140 003c 814C     		li	s9,0
 2141              		.loc 1 421 10
 2142 003e 81C4     		beq	s1,zero,.L78
 422:lcd.c         **** 	else {incy=-1;delta_y=-delta_y;}
 2143              		.loc 1 422 8 is_stmt 1
 2144              	.LVL214:
 2145              		.loc 1 422 16
 2146              		.loc 1 422 23 is_stmt 0
 2147 0040 B3049040 		neg	s1,s1
 2148              	.LVL215:
 2149              		.loc 1 422 12
 2150 0044 FD5C     		li	s9,-1
 2151              	.LVL216:
 2152              	.L78:
 423:lcd.c         **** 	if(delta_x>delta_y)distance=delta_x; // Pick basic incremental axis
 2153              		.loc 1 423 2 is_stmt 1
 2154 0046 228A     		mv	s4,s0
 2155 0048 63539400 		bge	s0,s1,.L79
 2156 004c 268A     		mv	s4,s1
 2157              	.L79:
 2158              	.LVL217:
 424:lcd.c         **** 	else distance=delta_y;
 425:lcd.c         **** 	for(t=0;t<distance+1;t++)
 2159              		.loc 1 425 2
 411:lcd.c         **** 	int incx,incy,uRow,uCol;
 2160              		.loc 1 411 13 is_stmt 0
 2161 004e 014B     		li	s6,0
 411:lcd.c         **** 	int incx,incy,uRow,uCol;
 2162              		.loc 1 411 6
 2163 0050 814A     		li	s5,0
 2164              		.loc 1 425 7
 2165 0052 814B     		li	s7,0
 2166              		.loc 1 425 20
 2167 0054 130D1A00 		addi	s10,s4,1
 2168              	.LVL218:
 2169              	.L82:
 426:lcd.c         **** 	{
 427:lcd.c         **** 		LCD_DrawPoint(uRow,uCol,color);  // Dot
 2170              		.loc 1 427 3 is_stmt 1
 2171 0058 3A86     		mv	a2,a4
 2172 005a CE85     		mv	a1,s3
 2173 005c 4A85     		mv	a0,s2
 2174 005e 3AC6     		sw	a4,12(sp)
 428:lcd.c         **** 		xerr+=delta_x;
 2175              		.loc 1 428 7 is_stmt 0
 2176 0060 A29A     		add	s5,s5,s0
 2177              	.LVL219:
 427:lcd.c         **** 		xerr+=delta_x;
 2178              		.loc 1 427 3
 2179 0062 97000000 		call	LCD_DrawPoint
 2179      E7800000 
GAS LISTING C:\Users\Karzan\AppData\Local\Temp\ccedaamX.s 			page 52


 2180              	.LVL220:
 2181              		.loc 1 428 3 is_stmt 1
 429:lcd.c         **** 		yerr+=delta_y;
 2182              		.loc 1 429 3
 2183              		.loc 1 429 7 is_stmt 0
 2184 006a 269B     		add	s6,s6,s1
 2185              	.LVL221:
 430:lcd.c         **** 		if(xerr>distance)
 2186              		.loc 1 430 3 is_stmt 1
 2187              		.loc 1 430 5 is_stmt 0
 2188 006c 3247     		lw	a4,12(sp)
 2189 006e 63555A01 		ble	s5,s4,.L80
 431:lcd.c         **** 		{
 432:lcd.c         **** 			xerr-=distance;
 2190              		.loc 1 432 4 is_stmt 1
 2191              		.loc 1 432 8 is_stmt 0
 2192 0072 B38A4A41 		sub	s5,s5,s4
 2193              	.LVL222:
 433:lcd.c         **** 			uRow+=incx;
 2194              		.loc 1 433 4 is_stmt 1
 2195              		.loc 1 433 8 is_stmt 0
 2196 0076 6299     		add	s2,s2,s8
 2197              	.LVL223:
 2198              	.L80:
 434:lcd.c         **** 		}
 435:lcd.c         **** 		if(yerr>distance)
 2199              		.loc 1 435 3 is_stmt 1
 2200              		.loc 1 435 5 is_stmt 0
 2201 0078 63556A01 		ble	s6,s4,.L81
 436:lcd.c         **** 		{
 437:lcd.c         **** 			yerr-=distance;
 2202              		.loc 1 437 4 is_stmt 1
 2203              		.loc 1 437 8 is_stmt 0
 2204 007c 330B4B41 		sub	s6,s6,s4
 2205              	.LVL224:
 438:lcd.c         **** 			uCol+=incy;
 2206              		.loc 1 438 4 is_stmt 1
 2207              		.loc 1 438 8 is_stmt 0
 2208 0080 E699     		add	s3,s3,s9
 2209              	.LVL225:
 2210              	.L81:
 425:lcd.c         **** 	{
 2211              		.loc 1 425 24 discriminator 2
 2212 0082 850B     		addi	s7,s7,1
 2213              	.LVL226:
 425:lcd.c         **** 	{
 2214              		.loc 1 425 2 discriminator 2
 2215 0084 E3EAABFD 		bgtu	s10,s7,.L82
 439:lcd.c         **** 		}
 440:lcd.c         **** 	}
 441:lcd.c         **** }
 2216              		.loc 1 441 1
 2217 0088 F250     		lw	ra,60(sp)
 2218              		.cfi_restore 1
 2219 008a 6254     		lw	s0,56(sp)
 2220              		.cfi_restore 8
 2221              	.LVL227:
GAS LISTING C:\Users\Karzan\AppData\Local\Temp\ccedaamX.s 			page 53


 2222 008c D254     		lw	s1,52(sp)
 2223              		.cfi_restore 9
 2224              	.LVL228:
 2225 008e 4259     		lw	s2,48(sp)
 2226              		.cfi_restore 18
 2227              	.LVL229:
 2228 0090 B259     		lw	s3,44(sp)
 2229              		.cfi_restore 19
 2230              	.LVL230:
 2231 0092 225A     		lw	s4,40(sp)
 2232              		.cfi_restore 20
 2233              	.LVL231:
 2234 0094 925A     		lw	s5,36(sp)
 2235              		.cfi_restore 21
 2236              	.LVL232:
 2237 0096 025B     		lw	s6,32(sp)
 2238              		.cfi_restore 22
 2239              	.LVL233:
 2240 0098 F24B     		lw	s7,28(sp)
 2241              		.cfi_restore 23
 2242              	.LVL234:
 2243 009a 624C     		lw	s8,24(sp)
 2244              		.cfi_restore 24
 2245              	.LVL235:
 2246 009c D24C     		lw	s9,20(sp)
 2247              		.cfi_restore 25
 2248              	.LVL236:
 2249 009e 424D     		lw	s10,16(sp)
 2250              		.cfi_restore 26
 2251              	.LVL237:
 2252 00a0 2161     		addi	sp,sp,64
 2253              	.LCFI33:
 2254              		.cfi_def_cfa_offset 0
 2255 00a2 8280     		jr	ra
 2256              		.cfi_endproc
 2257              	.LFE19:
 2259              		.section	.text.LCD_DrawRectangle,"ax",@progbits
 2260              		.align	1
 2261              		.globl	LCD_DrawRectangle
 2263              	LCD_DrawRectangle:
 2264              	.LFB20:
 442:lcd.c         **** 
 443:lcd.c         **** 
 444:lcd.c         **** /*
 445:lcd.c         ****   Function description: draw a rectangle
 446:lcd.c         ****   Entry data: x1, y1:  start coordinates
 447:lcd.c         ****               x2, y2:  end coordinates
 448:lcd.c         ****   Return value: None
 449:lcd.c         **** */
 450:lcd.c         **** void LCD_DrawRectangle(u16 x1, u16 y1, u16 x2, u16 y2,u16 color)
 451:lcd.c         **** {
 2265              		.loc 1 451 1 is_stmt 1
 2266              		.cfi_startproc
 2267              	.LVL238:
 452:lcd.c         **** 	LCD_DrawLine(x1,y1,x2,y1,color);
 2268              		.loc 1 452 2
 451:lcd.c         **** 	LCD_DrawLine(x1,y1,x2,y1,color);
GAS LISTING C:\Users\Karzan\AppData\Local\Temp\ccedaamX.s 			page 54


 2269              		.loc 1 451 1 is_stmt 0
 2270 0000 0111     		addi	sp,sp,-32
 2271              	.LCFI34:
 2272              		.cfi_def_cfa_offset 32
 2273 0002 22CC     		sw	s0,24(sp)
 2274              		.cfi_offset 8, -8
 2275 0004 3684     		mv	s0,a3
 2276              		.loc 1 452 2
 2277 0006 AE86     		mv	a3,a1
 2278              	.LVL239:
 451:lcd.c         **** 	LCD_DrawLine(x1,y1,x2,y1,color);
 2279              		.loc 1 451 1
 2280 0008 06CE     		sw	ra,28(sp)
 2281 000a 26CA     		sw	s1,20(sp)
 2282 000c 4AC8     		sw	s2,16(sp)
 2283 000e 4EC6     		sw	s3,12(sp)
 2284 0010 52C4     		sw	s4,8(sp)
 2285              		.cfi_offset 1, -4
 2286              		.cfi_offset 9, -12
 2287              		.cfi_offset 18, -16
 2288              		.cfi_offset 19, -20
 2289              		.cfi_offset 20, -24
 451:lcd.c         **** 	LCD_DrawLine(x1,y1,x2,y1,color);
 2290              		.loc 1 451 1
 2291 0012 AA89     		mv	s3,a0
 2292 0014 328A     		mv	s4,a2
 2293 0016 3A89     		mv	s2,a4
 2294 0018 AE84     		mv	s1,a1
 2295              		.loc 1 452 2
 2296 001a 97000000 		call	LCD_DrawLine
 2296      E7800000 
 2297              	.LVL240:
 453:lcd.c         **** 	LCD_DrawLine(x1,y1,x1,y2,color);
 2298              		.loc 1 453 2 is_stmt 1
 2299 0022 4A87     		mv	a4,s2
 2300 0024 A286     		mv	a3,s0
 2301 0026 4E86     		mv	a2,s3
 2302 0028 A685     		mv	a1,s1
 2303 002a 4E85     		mv	a0,s3
 2304 002c 97000000 		call	LCD_DrawLine
 2304      E7800000 
 2305              	.LVL241:
 454:lcd.c         **** 	LCD_DrawLine(x1,y2,x2,y2,color);
 2306              		.loc 1 454 2
 2307 0034 4A87     		mv	a4,s2
 2308 0036 A286     		mv	a3,s0
 2309 0038 5286     		mv	a2,s4
 2310 003a A285     		mv	a1,s0
 2311 003c 4E85     		mv	a0,s3
 2312 003e 97000000 		call	LCD_DrawLine
 2312      E7800000 
 2313              	.LVL242:
 455:lcd.c         **** 	LCD_DrawLine(x2,y1,x2,y2,color);
 2314              		.loc 1 455 2
 2315 0046 A286     		mv	a3,s0
 456:lcd.c         **** }
 2316              		.loc 1 456 1 is_stmt 0
GAS LISTING C:\Users\Karzan\AppData\Local\Temp\ccedaamX.s 			page 55


 2317 0048 6244     		lw	s0,24(sp)
 2318              		.cfi_restore 8
 2319              	.LVL243:
 2320 004a F240     		lw	ra,28(sp)
 2321              		.cfi_restore 1
 2322 004c B249     		lw	s3,12(sp)
 2323              		.cfi_restore 19
 2324              	.LVL244:
 455:lcd.c         **** 	LCD_DrawLine(x2,y1,x2,y2,color);
 2325              		.loc 1 455 2
 2326 004e 4A87     		mv	a4,s2
 2327 0050 5286     		mv	a2,s4
 2328              		.loc 1 456 1
 2329 0052 4249     		lw	s2,16(sp)
 2330              		.cfi_restore 18
 2331              	.LVL245:
 455:lcd.c         **** 	LCD_DrawLine(x2,y1,x2,y2,color);
 2332              		.loc 1 455 2
 2333 0054 A685     		mv	a1,s1
 2334 0056 5285     		mv	a0,s4
 2335              		.loc 1 456 1
 2336 0058 D244     		lw	s1,20(sp)
 2337              		.cfi_restore 9
 2338              	.LVL246:
 2339 005a 224A     		lw	s4,8(sp)
 2340              		.cfi_restore 20
 2341              	.LVL247:
 2342 005c 0561     		addi	sp,sp,32
 2343              	.LCFI35:
 2344              		.cfi_def_cfa_offset 0
 455:lcd.c         **** 	LCD_DrawLine(x2,y1,x2,y2,color);
 2345              		.loc 1 455 2
 2346 005e 17030000 		tail	LCD_DrawLine
 2346      67000300 
 2347              	.LVL248:
 2348              		.cfi_endproc
 2349              	.LFE20:
 2351              		.section	.text.Draw_Circle,"ax",@progbits
 2352              		.align	1
 2353              		.globl	Draw_Circle
 2355              	Draw_Circle:
 2356              	.LFB21:
 457:lcd.c         **** 
 458:lcd.c         **** 
 459:lcd.c         **** /*
 460:lcd.c         ****   Function description: draw circle
 461:lcd.c         ****   Entry data: x0, y0:  center coordinates
 462:lcd.c         ****                    r:  radius
 463:lcd.c         ****   Return value: None
 464:lcd.c         **** */
 465:lcd.c         **** void Draw_Circle(u16 x0,u16 y0,u8 r,u16 color)
 466:lcd.c         **** {
 2357              		.loc 1 466 1 is_stmt 1
 2358              		.cfi_startproc
 2359              	.LVL249:
 467:lcd.c         **** 	int a,b;
 2360              		.loc 1 467 2
GAS LISTING C:\Users\Karzan\AppData\Local\Temp\ccedaamX.s 			page 56


 468:lcd.c         **** 	// int di;
 469:lcd.c         **** 	a=0;b=r;	  
 2361              		.loc 1 469 2
 2362              		.loc 1 469 6
 470:lcd.c         **** 	while(a<=b)
 471:lcd.c         **** 	{
 472:lcd.c         **** 		LCD_DrawPoint(x0-b,y0-a,color);  //3           
 473:lcd.c         **** 		LCD_DrawPoint(x0+b,y0-a,color);  //0           
 474:lcd.c         **** 		LCD_DrawPoint(x0-a,y0+b,color);  //1                
 475:lcd.c         **** 		LCD_DrawPoint(x0-a,y0-b,color);  //2             
 476:lcd.c         **** 		LCD_DrawPoint(x0+b,y0+a,color);  //4               
 477:lcd.c         **** 		LCD_DrawPoint(x0+a,y0-b,color);  //5
 478:lcd.c         **** 		LCD_DrawPoint(x0+a,y0+b,color);             //6 
 479:lcd.c         **** 		LCD_DrawPoint(x0-b,y0+a,color);             //7
 480:lcd.c         **** 		a++;
 481:lcd.c         **** 		if((a*a+b*b)>(r*r)) // Determine whether the points to be drawn are too far away
 2363              		.loc 1 481 18 is_stmt 0
 2364 0000 3307C602 		mul	a4,a2,a2
 466:lcd.c         **** 	int a,b;
 2365              		.loc 1 466 1
 2366 0004 5D71     		addi	sp,sp,-80
 2367              	.LCFI36:
 2368              		.cfi_def_cfa_offset 80
 2369 0006 A2C4     		sw	s0,72(sp)
 2370 0008 A6C2     		sw	s1,68(sp)
 2371 000a CAC0     		sw	s2,64(sp)
 2372 000c 5ED6     		sw	s7,44(sp)
 2373 000e 62D4     		sw	s8,40(sp)
 2374 0010 86C6     		sw	ra,76(sp)
 2375 0012 4EDE     		sw	s3,60(sp)
 2376 0014 52DC     		sw	s4,56(sp)
 2377 0016 56DA     		sw	s5,52(sp)
 2378 0018 5AD8     		sw	s6,48(sp)
 2379 001a 66D2     		sw	s9,36(sp)
 2380 001c 6AD0     		sw	s10,32(sp)
 2381 001e 6ECE     		sw	s11,28(sp)
 2382              		.cfi_offset 8, -8
 2383              		.cfi_offset 9, -12
 2384              		.cfi_offset 18, -16
 2385              		.cfi_offset 23, -36
 2386              		.cfi_offset 24, -40
 2387              		.cfi_offset 1, -4
 2388              		.cfi_offset 19, -20
 2389              		.cfi_offset 20, -24
 2390              		.cfi_offset 21, -28
 2391              		.cfi_offset 22, -32
 2392              		.cfi_offset 25, -44
 2393              		.cfi_offset 26, -48
 2394              		.cfi_offset 27, -52
 466:lcd.c         **** 	int a,b;
 2395              		.loc 1 466 1
 2396 0020 AA8B     		mv	s7,a0
 2397 0022 2E8C     		mv	s8,a1
 2398 0024 3689     		mv	s2,a3
 469:lcd.c         **** 	while(a<=b)
 2399              		.loc 1 469 7
 2400 0026 3284     		mv	s0,a2
GAS LISTING C:\Users\Karzan\AppData\Local\Temp\ccedaamX.s 			page 57


 2401              	.LVL250:
 470:lcd.c         **** 	while(a<=b)
 2402              		.loc 1 470 2 is_stmt 1
 469:lcd.c         **** 	while(a<=b)
 2403              		.loc 1 469 3 is_stmt 0
 2404 0028 8144     		li	s1,0
 2405              	.LVL251:
 2406              	.L95:
 2407 002a B3099C40 		sub	s3,s8,s1
 472:lcd.c         **** 		LCD_DrawPoint(x0+b,y0-a,color);  //0           
 2408              		.loc 1 472 3
 2409 002e B38A8B40 		sub	s5,s7,s0
 2410 0032 CE85     		mv	a1,s3
 2411 0034 4A86     		mv	a2,s2
 2412 0036 5685     		mv	a0,s5
 2413 0038 3AC6     		sw	a4,12(sp)
 2414              	.LVL252:
 472:lcd.c         **** 		LCD_DrawPoint(x0+b,y0-a,color);  //0           
 2415              		.loc 1 472 3 is_stmt 1
 473:lcd.c         **** 		LCD_DrawPoint(x0-a,y0+b,color);  //1                
 2416              		.loc 1 473 3 is_stmt 0
 2417 003a 330D7401 		add	s10,s0,s7
 472:lcd.c         **** 		LCD_DrawPoint(x0+b,y0-a,color);  //0           
 2418              		.loc 1 472 3
 2419 003e 97000000 		call	LCD_DrawPoint
 2419      E7800000 
 2420              	.LVL253:
 473:lcd.c         **** 		LCD_DrawPoint(x0-a,y0+b,color);  //1                
 2421              		.loc 1 473 3 is_stmt 1
 2422 0046 CE85     		mv	a1,s3
 2423 0048 4A86     		mv	a2,s2
 2424 004a 6A85     		mv	a0,s10
 2425 004c 97000000 		call	LCD_DrawPoint
 2425      E7800000 
 2426              	.LVL254:
 474:lcd.c         **** 		LCD_DrawPoint(x0-a,y0-b,color);  //2             
 2427              		.loc 1 474 3
 2428 0054 338A9B40 		sub	s4,s7,s1
 2429 0058 330B8401 		add	s6,s0,s8
 2430 005c 5285     		mv	a0,s4
 2431 005e 4A86     		mv	a2,s2
 2432 0060 DA85     		mv	a1,s6
 2433 0062 97000000 		call	LCD_DrawPoint
 2433      E7800000 
 2434              	.LVL255:
 475:lcd.c         **** 		LCD_DrawPoint(x0+b,y0+a,color);  //4               
 2435              		.loc 1 475 3
 2436 006a B30C8C40 		sub	s9,s8,s0
 2437 006e 5285     		mv	a0,s4
 2438 0070 939D1400 		slli	s11,s1,1
 2439 0074 4A86     		mv	a2,s2
 2440 0076 E685     		mv	a1,s9
 2441 0078 97000000 		call	LCD_DrawPoint
 2441      E7800000 
 2442              	.LVL256:
 476:lcd.c         **** 		LCD_DrawPoint(x0+a,y0-b,color);  //5
 2443              		.loc 1 476 3
GAS LISTING C:\Users\Karzan\AppData\Local\Temp\ccedaamX.s 			page 58


 2444 0080 EE99     		add	s3,s3,s11
 2445 0082 4A86     		mv	a2,s2
 2446 0084 CE85     		mv	a1,s3
 2447 0086 6A85     		mv	a0,s10
 2448 0088 97000000 		call	LCD_DrawPoint
 2448      E7800000 
 2449              	.LVL257:
 477:lcd.c         **** 		LCD_DrawPoint(x0+a,y0+b,color);             //6 
 2450              		.loc 1 477 3
 2451 0090 6E9A     		add	s4,s4,s11
 2452 0092 4A86     		mv	a2,s2
 2453 0094 E685     		mv	a1,s9
 2454 0096 5285     		mv	a0,s4
 2455 0098 97000000 		call	LCD_DrawPoint
 2455      E7800000 
 2456              	.LVL258:
 478:lcd.c         **** 		LCD_DrawPoint(x0-b,y0+a,color);             //7
 2457              		.loc 1 478 3
 2458 00a0 4A86     		mv	a2,s2
 2459 00a2 DA85     		mv	a1,s6
 2460 00a4 5285     		mv	a0,s4
 2461 00a6 97000000 		call	LCD_DrawPoint
 2461      E7800000 
 2462              	.LVL259:
 479:lcd.c         **** 		a++;
 2463              		.loc 1 479 3
 2464 00ae 4A86     		mv	a2,s2
 2465 00b0 CE85     		mv	a1,s3
 2466 00b2 5685     		mv	a0,s5
 2467 00b4 97000000 		call	LCD_DrawPoint
 2467      E7800000 
 2468              	.LVL260:
 480:lcd.c         **** 		if((a*a+b*b)>(r*r)) // Determine whether the points to be drawn are too far away
 2469              		.loc 1 480 3
 480:lcd.c         **** 		if((a*a+b*b)>(r*r)) // Determine whether the points to be drawn are too far away
 2470              		.loc 1 480 4 is_stmt 0
 2471 00bc 8504     		addi	s1,s1,1
 2472              	.LVL261:
 2473              		.loc 1 481 3 is_stmt 1
 2474              		.loc 1 481 8 is_stmt 0
 2475 00be B3879402 		mul	a5,s1,s1
 2476              		.loc 1 481 5
 2477 00c2 3247     		lw	a4,12(sp)
 2478              		.loc 1 481 12
 2479 00c4 B3068402 		mul	a3,s0,s0
 2480              		.loc 1 481 10
 2481 00c8 B697     		add	a5,a5,a3
 2482              		.loc 1 481 5
 2483 00ca 6353F700 		ble	a5,a4,.L94
 482:lcd.c         **** 		{
 483:lcd.c         **** 			b--;
 2484              		.loc 1 483 4 is_stmt 1
 2485              		.loc 1 483 5 is_stmt 0
 2486 00ce 7D14     		addi	s0,s0,-1
 2487              	.LVL262:
 2488              	.L94:
 470:lcd.c         **** 	{
GAS LISTING C:\Users\Karzan\AppData\Local\Temp\ccedaamX.s 			page 59


 2489              		.loc 1 470 7
 2490 00d0 E35D94F4 		bge	s0,s1,.L95
 484:lcd.c         **** 		}
 485:lcd.c         **** 	}
 486:lcd.c         **** }
 2491              		.loc 1 486 1
 2492 00d4 B640     		lw	ra,76(sp)
 2493              		.cfi_restore 1
 2494 00d6 2644     		lw	s0,72(sp)
 2495              		.cfi_restore 8
 2496              	.LVL263:
 2497 00d8 9644     		lw	s1,68(sp)
 2498              		.cfi_restore 9
 2499              	.LVL264:
 2500 00da 0649     		lw	s2,64(sp)
 2501              		.cfi_restore 18
 2502              	.LVL265:
 2503 00dc F259     		lw	s3,60(sp)
 2504              		.cfi_restore 19
 2505 00de 625A     		lw	s4,56(sp)
 2506              		.cfi_restore 20
 2507 00e0 D25A     		lw	s5,52(sp)
 2508              		.cfi_restore 21
 2509 00e2 425B     		lw	s6,48(sp)
 2510              		.cfi_restore 22
 2511 00e4 B25B     		lw	s7,44(sp)
 2512              		.cfi_restore 23
 2513              	.LVL266:
 2514 00e6 225C     		lw	s8,40(sp)
 2515              		.cfi_restore 24
 2516              	.LVL267:
 2517 00e8 925C     		lw	s9,36(sp)
 2518              		.cfi_restore 25
 2519 00ea 025D     		lw	s10,32(sp)
 2520              		.cfi_restore 26
 2521 00ec F24D     		lw	s11,28(sp)
 2522              		.cfi_restore 27
 2523 00ee 6161     		addi	sp,sp,80
 2524              	.LCFI37:
 2525              		.cfi_def_cfa_offset 0
 2526 00f0 8280     		jr	ra
 2527              		.cfi_endproc
 2528              	.LFE21:
 2530              		.section	.text.LCD_ShowChar,"ax",@progbits
 2531              		.align	1
 2532              		.globl	LCD_ShowChar
 2534              	LCD_ShowChar:
 2535              	.LFB22:
 487:lcd.c         **** 
 488:lcd.c         **** 
 489:lcd.c         **** /*
 490:lcd.c         ****   Function description: display characters
 491:lcd.c         ****   Entry data: x, y:  start point coordinates
 492:lcd.c         ****                num:  characters to display
 493:lcd.c         ****               mode:  1: transparent mode
 494:lcd.c         ****                      0: non-transparent mode
 495:lcd.c         ****   Return value: None
GAS LISTING C:\Users\Karzan\AppData\Local\Temp\ccedaamX.s 			page 60


 496:lcd.c         **** */
 497:lcd.c         **** void LCD_ShowChar(u16 x,u16 y,u8 num,u8 mode,u16 color)
 498:lcd.c         **** {
 2536              		.loc 1 498 1 is_stmt 1
 2537              		.cfi_startproc
 2538              	.LVL268:
 499:lcd.c         ****     u8 temp;
 2539              		.loc 1 499 5
 500:lcd.c         ****     u8 pos,t;
 2540              		.loc 1 500 5
 501:lcd.c         **** 	  u16 x0=x;    
 2541              		.loc 1 501 4
 502:lcd.c         ****     if(x>LCD_W-8 || y>LCD_H-16)return;	// Outside of display area
 2542              		.loc 1 502 5
 2543              		.loc 1 502 7 is_stmt 0
 2544 0000 93078009 		li	a5,152
 2545 0004 63ECA70C 		bgtu	a0,a5,.L117
 498:lcd.c         ****     u8 temp;
 2546              		.loc 1 498 1 discriminator 2
 2547 0008 7971     		addi	sp,sp,-48
 2548              	.LCFI38:
 2549              		.cfi_def_cfa_offset 48
 2550 000a 22D4     		sw	s0,40(sp)
 2551 000c 06D6     		sw	ra,44(sp)
 2552 000e 26D2     		sw	s1,36(sp)
 2553 0010 4AD0     		sw	s2,32(sp)
 2554 0012 4ECE     		sw	s3,28(sp)
 2555 0014 52CC     		sw	s4,24(sp)
 2556 0016 56CA     		sw	s5,20(sp)
 2557 0018 5AC8     		sw	s6,16(sp)
 2558 001a 5EC6     		sw	s7,12(sp)
 2559              		.cfi_offset 8, -8
 2560              		.cfi_offset 1, -4
 2561              		.cfi_offset 9, -12
 2562              		.cfi_offset 18, -16
 2563              		.cfi_offset 19, -20
 2564              		.cfi_offset 20, -24
 2565              		.cfi_offset 21, -28
 2566              		.cfi_offset 22, -32
 2567              		.cfi_offset 23, -36
 2568              		.loc 1 502 18 discriminator 2
 2569 001c 93070004 		li	a5,64
 2570 0020 2E84     		mv	s0,a1
 2571 0022 63E6B706 		bgtu	a1,a5,.L98
 2572 0026 B284     		mv	s1,a2
 2573              	.LBB352:
 2574              	.LBB353:
 503:lcd.c         **** 	num=num-' ';                        // Get offset value
 2575              		.loc 1 503 5
 2576 0028 8114     		addi	s1,s1,-32
 2577 002a 93F4F40F 		andi	s1,s1,0xff
 2578 002e B68A     		mv	s5,a3
 504:lcd.c         **** 	LCD_Address_Set(x,y,x+8-1,y+16-1);  // Set cursor position
 2579              		.loc 1 504 2
 2580 0030 13067500 		addi	a2,a0,7
 2581              	.LVL269:
 2582 0034 9386F500 		addi	a3,a1,15
GAS LISTING C:\Users\Karzan\AppData\Local\Temp\ccedaamX.s 			page 61


 2583              	.LVL270:
 2584 0038 13994400 		slli	s2,s1,4
 2585 003c B7040000 		lui	s1,%hi(.LANCHOR6)
 2586 0040 AA89     		mv	s3,a0
 2587 0042 3A8A     		mv	s4,a4
 2588              	.LVL271:
 503:lcd.c         **** 	num=num-' ';                        // Get offset value
 2589              		.loc 1 503 2 is_stmt 1
 2590              		.loc 1 504 2
 2591 0044 93840400 		addi	s1,s1,%lo(.LANCHOR6)
 2592 0048 97000000 		call	LCD_Address_Set
 2592      E7800000 
 2593              	.LVL272:
 505:lcd.c         **** 	if(!mode)
 2594              		.loc 1 505 2
 2595              		.loc 1 505 4 is_stmt 0
 2596 0050 639A0A04 		bne	s5,zero,.L101
 2597 0054 8149     		li	s3,0
 2598              	.LVL273:
 506:lcd.c         **** 	{
 507:lcd.c         **** 		// non-trasparent mode
 508:lcd.c         **** 		for(pos=0;pos<16;pos++)
 509:lcd.c         **** 		{ 
 510:lcd.c         **** 			temp=asc2_1608[(u16)num*16+pos];  // load 1608 font character
 511:lcd.c         **** 			for(t=0;t<8;t++)
 512:lcd.c         **** 		    {                 
 513:lcd.c         **** 		        if(temp&0x01)LCD_WR_DATA(color);
 514:lcd.c         **** 				else LCD_WR_DATA(BACK_COLOR);
 2599              		.loc 1 514 10
 2600 0056 B70B0000 		lui	s7,%hi(BACK_COLOR)
 508:lcd.c         **** 		{ 
 2601              		.loc 1 508 3
 2602 005a 414B     		li	s6,16
 2603              	.LVL274:
 2604              	.L105:
 510:lcd.c         **** 			for(t=0;t<8;t++)
 2605              		.loc 1 510 4 is_stmt 1
 510:lcd.c         **** 			for(t=0;t<8;t++)
 2606              		.loc 1 510 8 is_stmt 0
 2607 005c B3073901 		add	a5,s2,s3
 2608 0060 A697     		add	a5,s1,a5
 2609 0062 83CA0700 		lbu	s5,0(a5)
 2610              	.LVL275:
 511:lcd.c         **** 		    {                 
 2611              		.loc 1 511 4 is_stmt 1
 510:lcd.c         **** 			for(t=0;t<8;t++)
 2612              		.loc 1 510 8 is_stmt 0
 2613 0066 2144     		li	s0,8
 2614              	.LVL276:
 2615              	.L104:
 513:lcd.c         **** 				else LCD_WR_DATA(BACK_COLOR);
 2616              		.loc 1 513 11 is_stmt 1
 513:lcd.c         **** 				else LCD_WR_DATA(BACK_COLOR);
 2617              		.loc 1 513 13 is_stmt 0
 2618 0068 93F71A00 		andi	a5,s5,1
 513:lcd.c         **** 				else LCD_WR_DATA(BACK_COLOR);
 2619              		.loc 1 513 24
GAS LISTING C:\Users\Karzan\AppData\Local\Temp\ccedaamX.s 			page 62


 2620 006c 5285     		mv	a0,s4
 513:lcd.c         **** 				else LCD_WR_DATA(BACK_COLOR);
 2621              		.loc 1 513 13
 2622 006e 99E3     		bne	a5,zero,.L120
 2623              	.LVL277:
 2624              		.loc 1 514 10 is_stmt 1
 2625 0070 03A50B00 		lw	a0,%lo(BACK_COLOR)(s7)
 2626              	.LVL278:
 2627              	.L120:
 2628 0074 7D14     		addi	s0,s0,-1
 2629              	.LVL279:
 2630 0076 1374F40F 		andi	s0,s0,0xff
 2631 007a 97000000 		call	LCD_WR_DATA
 2631      E7800000 
 2632              	.LVL280:
 515:lcd.c         **** 				temp>>=1;
 2633              		.loc 1 515 5
 2634              		.loc 1 515 9 is_stmt 0
 2635 0082 93DA1A00 		srli	s5,s5,1
 2636              	.LVL281:
 516:lcd.c         **** 				x++;
 2637              		.loc 1 516 5 is_stmt 1
 511:lcd.c         **** 		    {                 
 2638              		.loc 1 511 4 is_stmt 0
 2639 0086 6DF0     		bne	s0,zero,.L104
 517:lcd.c         **** 		    }
 518:lcd.c         **** 			x=x0;
 2640              		.loc 1 518 4 is_stmt 1
 2641              	.LVL282:
 519:lcd.c         **** 			y++;
 2642              		.loc 1 519 4
 2643 0088 8509     		addi	s3,s3,1
 2644              	.LVL283:
 508:lcd.c         **** 		{ 
 2645              		.loc 1 508 3 is_stmt 0
 2646 008a E39969FD 		bne	s3,s6,.L105
 2647              	.LVL284:
 2648              	.L98:
 2649              	.LBE353:
 2650              	.LBE352:
 520:lcd.c         **** 		}	
 521:lcd.c         **** 	}else
 522:lcd.c         **** 	{
 523:lcd.c         **** 		// Transparent mode
 524:lcd.c         **** 		for(pos=0;pos<16;pos++)
 525:lcd.c         **** 		{
 526:lcd.c         **** 		    temp=asc2_1608[(u16)num*16+pos]; // load 1608 font character
 527:lcd.c         **** 			for(t=0;t<8;t++)
 528:lcd.c         **** 		    {                 
 529:lcd.c         **** 		        if(temp&0x01)LCD_DrawPoint(x+t,y+pos,color); //Draw a dot
 530:lcd.c         **** 		        temp>>=1; 
 531:lcd.c         **** 		    }
 532:lcd.c         **** 		}
 533:lcd.c         **** 	}   	   	 	  
 534:lcd.c         **** }
 2651              		.loc 1 534 1
 2652 008e B250     		lw	ra,44(sp)
GAS LISTING C:\Users\Karzan\AppData\Local\Temp\ccedaamX.s 			page 63


 2653              		.cfi_remember_state
 2654              		.cfi_restore 1
 2655 0090 2254     		lw	s0,40(sp)
 2656              		.cfi_restore 8
 2657 0092 9254     		lw	s1,36(sp)
 2658              		.cfi_restore 9
 2659 0094 0259     		lw	s2,32(sp)
 2660              		.cfi_restore 18
 2661 0096 F249     		lw	s3,28(sp)
 2662              		.cfi_restore 19
 2663 0098 624A     		lw	s4,24(sp)
 2664              		.cfi_restore 20
 2665 009a D24A     		lw	s5,20(sp)
 2666              		.cfi_restore 21
 2667 009c 424B     		lw	s6,16(sp)
 2668              		.cfi_restore 22
 2669 009e B24B     		lw	s7,12(sp)
 2670              		.cfi_restore 23
 2671 00a0 4561     		addi	sp,sp,48
 2672              	.LCFI39:
 2673              		.cfi_def_cfa_offset 0
 2674 00a2 8280     		jr	ra
 2675              	.LVL285:
 2676              	.L101:
 2677              	.LCFI40:
 2678              		.cfi_restore_state
 2679 00a4 CA94     		add	s1,s1,s2
 2680 00a6 130B0401 		addi	s6,s0,16
 2681              	.LBB355:
 2682              	.LBB354:
 527:lcd.c         **** 		    {                 
 2683              		.loc 1 527 4
 2684 00aa A14B     		li	s7,8
 2685              	.LVL286:
 2686              	.L108:
 526:lcd.c         **** 			for(t=0;t<8;t++)
 2687              		.loc 1 526 7 is_stmt 1
 526:lcd.c         **** 			for(t=0;t<8;t++)
 2688              		.loc 1 526 11 is_stmt 0
 2689 00ac 83CA0400 		lbu	s5,0(s1)
 2690              	.LVL287:
 527:lcd.c         **** 		    {                 
 2691              		.loc 1 527 4 is_stmt 1
 526:lcd.c         **** 			for(t=0;t<8;t++)
 2692              		.loc 1 526 11 is_stmt 0
 2693 00b0 0149     		li	s2,0
 2694              	.LVL288:
 2695              	.L107:
 529:lcd.c         **** 		        temp>>=1; 
 2696              		.loc 1 529 11 is_stmt 1
 529:lcd.c         **** 		        temp>>=1; 
 2697              		.loc 1 529 13 is_stmt 0
 2698 00b2 93F71A00 		andi	a5,s5,1
 2699 00b6 89CB     		beq	a5,zero,.L106
 529:lcd.c         **** 		        temp>>=1; 
 2700              		.loc 1 529 24 is_stmt 1
 2701 00b8 5286     		mv	a2,s4
GAS LISTING C:\Users\Karzan\AppData\Local\Temp\ccedaamX.s 			page 64


 2702 00ba A285     		mv	a1,s0
 2703 00bc 33852901 		add	a0,s3,s2
 2704 00c0 97000000 		call	LCD_DrawPoint
 2704      E7800000 
 2705              	.LVL289:
 2706              	.L106:
 530:lcd.c         **** 		    }
 2707              		.loc 1 530 11
 2708 00c8 0509     		addi	s2,s2,1
 2709              	.LVL290:
 530:lcd.c         **** 		    }
 2710              		.loc 1 530 15 is_stmt 0
 2711 00ca 93DA1A00 		srli	s5,s5,1
 2712              	.LVL291:
 527:lcd.c         **** 		    {                 
 2713              		.loc 1 527 4
 2714 00ce E31279FF 		bne	s2,s7,.L107
 2715 00d2 0504     		addi	s0,s0,1
 2716 00d4 8504     		addi	s1,s1,1
 524:lcd.c         **** 		{
 2717              		.loc 1 524 3
 2718 00d6 E31B64FD 		bne	s0,s6,.L108
 2719 00da 55BF     		j	.L98
 2720              	.LVL292:
 2721              	.L117:
 2722              	.LCFI41:
 2723              		.cfi_def_cfa_offset 0
 2724              		.cfi_restore 1
 2725              		.cfi_restore 8
 2726              		.cfi_restore 9
 2727              		.cfi_restore 18
 2728              		.cfi_restore 19
 2729              		.cfi_restore 20
 2730              		.cfi_restore 21
 2731              		.cfi_restore 22
 2732              		.cfi_restore 23
 2733 00dc 8280     		ret
 2734              	.LBE354:
 2735              	.LBE355:
 2736              		.cfi_endproc
 2737              	.LFE22:
 2739              		.section	.text.LCD_ShowString,"ax",@progbits
 2740              		.align	1
 2741              		.globl	LCD_ShowString
 2743              	LCD_ShowString:
 2744              	.LFB23:
 535:lcd.c         **** 
 536:lcd.c         **** 
 537:lcd.c         **** /*
 538:lcd.c         ****   Function description: display string
 539:lcd.c         ****   Entry data: x, y:  start point coordinates
 540:lcd.c         ****                 *p:  string start address
 541:lcd.c         ****   Return value: None
 542:lcd.c         ****   Note: If character position is outside the display area
 543:lcd.c         ****         display is cleared in red color and the character
 544:lcd.c         **** 		position is set to (0,0)
 545:lcd.c         **** */
GAS LISTING C:\Users\Karzan\AppData\Local\Temp\ccedaamX.s 			page 65


 546:lcd.c         **** void LCD_ShowString(u16 x,u16 y,const u8 *p,u16 color)
 547:lcd.c         **** {         
 2745              		.loc 1 547 1 is_stmt 1
 2746              		.cfi_startproc
 2747              	.LVL293:
 548:lcd.c         ****     while(*p!='\0')
 2748              		.loc 1 548 5
 547:lcd.c         ****     while(*p!='\0')
 2749              		.loc 1 547 1 is_stmt 0
 2750 0000 0111     		addi	sp,sp,-32
 2751              	.LCFI42:
 2752              		.cfi_def_cfa_offset 32
 2753 0002 4EC6     		sw	s3,12(sp)
 2754              		.cfi_offset 19, -20
 549:lcd.c         ****     {       
 550:lcd.c         ****         if(x>LCD_W-8){x=0;y+=16;}
 551:lcd.c         ****         if(y>LCD_H-16){y=x=0;LCD_Clear(RED);}
 2755              		.loc 1 551 30
 2756 0004 C169     		li	s3,65536
 547:lcd.c         ****     while(*p!='\0')
 2757              		.loc 1 547 1
 2758 0006 22CC     		sw	s0,24(sp)
 2759 0008 26CA     		sw	s1,20(sp)
 2760 000a 4AC8     		sw	s2,16(sp)
 2761 000c 52C4     		sw	s4,8(sp)
 2762 000e 56C2     		sw	s5,4(sp)
 2763 0010 5AC0     		sw	s6,0(sp)
 2764 0012 06CE     		sw	ra,28(sp)
 2765              		.cfi_offset 8, -8
 2766              		.cfi_offset 9, -12
 2767              		.cfi_offset 18, -16
 2768              		.cfi_offset 20, -24
 2769              		.cfi_offset 21, -28
 2770              		.cfi_offset 22, -32
 2771              		.cfi_offset 1, -4
 547:lcd.c         ****     while(*p!='\0')
 2772              		.loc 1 547 1
 2773 0014 2A84     		mv	s0,a0
 2774 0016 AE84     		mv	s1,a1
 2775 0018 3289     		mv	s2,a2
 2776 001a 368A     		mv	s4,a3
 550:lcd.c         ****         if(y>LCD_H-16){y=x=0;LCD_Clear(RED);}
 2777              		.loc 1 550 11
 2778 001c 930A8009 		li	s5,152
 2779              		.loc 1 551 11
 2780 0020 130B0004 		li	s6,64
 2781              		.loc 1 551 30
 2782 0024 93890980 		addi	s3,s3,-2048
 2783              	.LVL294:
 2784              	.L122:
 548:lcd.c         ****     {       
 2785              		.loc 1 548 10
 2786 0028 83470900 		lbu	a5,0(s2)
 2787 002c 99EB     		bne	a5,zero,.L125
 552:lcd.c         ****         LCD_ShowChar(x,y,*p,0,color);
 553:lcd.c         ****         x+=8;
 554:lcd.c         ****         p++;
GAS LISTING C:\Users\Karzan\AppData\Local\Temp\ccedaamX.s 			page 66


 555:lcd.c         ****     }  
 556:lcd.c         **** }
 2788              		.loc 1 556 1
 2789 002e F240     		lw	ra,28(sp)
 2790              		.cfi_remember_state
 2791              		.cfi_restore 1
 2792 0030 6244     		lw	s0,24(sp)
 2793              		.cfi_restore 8
 2794              	.LVL295:
 2795 0032 D244     		lw	s1,20(sp)
 2796              		.cfi_restore 9
 2797              	.LVL296:
 2798 0034 4249     		lw	s2,16(sp)
 2799              		.cfi_restore 18
 2800              	.LVL297:
 2801 0036 B249     		lw	s3,12(sp)
 2802              		.cfi_restore 19
 2803 0038 224A     		lw	s4,8(sp)
 2804              		.cfi_restore 20
 2805              	.LVL298:
 2806 003a 924A     		lw	s5,4(sp)
 2807              		.cfi_restore 21
 2808 003c 024B     		lw	s6,0(sp)
 2809              		.cfi_restore 22
 2810 003e 0561     		addi	sp,sp,32
 2811              	.LCFI43:
 2812              		.cfi_def_cfa_offset 0
 2813 0040 8280     		jr	ra
 2814              	.LVL299:
 2815              	.L125:
 2816              	.LCFI44:
 2817              		.cfi_restore_state
 550:lcd.c         ****         if(y>LCD_H-16){y=x=0;LCD_Clear(RED);}
 2818              		.loc 1 550 9 is_stmt 1
 550:lcd.c         ****         if(y>LCD_H-16){y=x=0;LCD_Clear(RED);}
 2819              		.loc 1 550 11 is_stmt 0
 2820 0042 63F48A00 		bleu	s0,s5,.L123
 550:lcd.c         ****         if(y>LCD_H-16){y=x=0;LCD_Clear(RED);}
 2821              		.loc 1 550 23 is_stmt 1 discriminator 1
 2822              	.LVL300:
 550:lcd.c         ****         if(y>LCD_H-16){y=x=0;LCD_Clear(RED);}
 2823              		.loc 1 550 27 discriminator 1
 550:lcd.c         ****         if(y>LCD_H-16){y=x=0;LCD_Clear(RED);}
 2824              		.loc 1 550 28 is_stmt 0 discriminator 1
 2825 0046 C104     		addi	s1,s1,16
 2826              	.LVL301:
 550:lcd.c         ****         if(y>LCD_H-16){y=x=0;LCD_Clear(RED);}
 2827              		.loc 1 550 24 discriminator 1
 2828 0048 0144     		li	s0,0
 2829              	.LVL302:
 2830              	.L123:
 551:lcd.c         ****         LCD_ShowChar(x,y,*p,0,color);
 2831              		.loc 1 551 9 is_stmt 1
 551:lcd.c         ****         LCD_ShowChar(x,y,*p,0,color);
 2832              		.loc 1 551 11 is_stmt 0
 2833 004a 63799B00 		bleu	s1,s6,.L124
 551:lcd.c         ****         LCD_ShowChar(x,y,*p,0,color);
GAS LISTING C:\Users\Karzan\AppData\Local\Temp\ccedaamX.s 			page 67


 2834              		.loc 1 551 24 is_stmt 1 discriminator 1
 2835              	.LVL303:
 551:lcd.c         ****         LCD_ShowChar(x,y,*p,0,color);
 2836              		.loc 1 551 30 discriminator 1
 2837 004e 4E85     		mv	a0,s3
 2838 0050 97000000 		call	LCD_Clear
 2838      E7800000 
 2839              	.LVL304:
 551:lcd.c         ****         LCD_ShowChar(x,y,*p,0,color);
 2840              		.loc 1 551 25 is_stmt 0 discriminator 1
 2841 0058 8144     		li	s1,0
 551:lcd.c         ****         LCD_ShowChar(x,y,*p,0,color);
 2842              		.loc 1 551 27 discriminator 1
 2843 005a 0144     		li	s0,0
 2844              	.LVL305:
 2845              	.L124:
 552:lcd.c         ****         LCD_ShowChar(x,y,*p,0,color);
 2846              		.loc 1 552 9 is_stmt 1
 2847 005c 03460900 		lbu	a2,0(s2)
 2848 0060 2285     		mv	a0,s0
 2849 0062 5287     		mv	a4,s4
 2850 0064 8146     		li	a3,0
 2851 0066 A685     		mv	a1,s1
 2852 0068 97000000 		call	LCD_ShowChar
 2852      E7800000 
 2853              	.LVL306:
 553:lcd.c         ****         p++;
 2854              		.loc 1 553 9
 553:lcd.c         ****         p++;
 2855              		.loc 1 553 10 is_stmt 0
 2856 0070 2104     		addi	s0,s0,8
 2857              	.LVL307:
 554:lcd.c         ****     }  
 2858              		.loc 1 554 9 is_stmt 1
 554:lcd.c         ****     }  
 2859              		.loc 1 554 10 is_stmt 0
 2860 0072 0509     		addi	s2,s2,1
 2861              	.LVL308:
 2862 0074 55BF     		j	.L122
 2863              		.cfi_endproc
 2864              	.LFE23:
 2866              		.section	.text.LCD_ShowStr,"ax",@progbits
 2867              		.align	1
 2868              		.globl	LCD_ShowStr
 2870              	LCD_ShowStr:
 2871              	.LFB24:
 557:lcd.c         **** 
 558:lcd.c         **** 
 559:lcd.c         **** /*
 560:lcd.c         ****   Function description: display string
 561:lcd.c         ****   Entry data: x, y:  start point coordinates
 562:lcd.c         ****                 *p:  string start address
 563:lcd.c         ****               mode:  1: transparent mode
 564:lcd.c         ****                      0: non-transparent mode
 565:lcd.c         ****   Return value: None
 566:lcd.c         ****   Note: If character position is outside the display area
 567:lcd.c         ****         the character is not displayed
GAS LISTING C:\Users\Karzan\AppData\Local\Temp\ccedaamX.s 			page 68


 568:lcd.c         **** */
 569:lcd.c         **** void LCD_ShowStr(u16 x,u16 y,const u8 *p,u16 color, u8 mode)
 570:lcd.c         **** {         
 2872              		.loc 1 570 1 is_stmt 1
 2873              		.cfi_startproc
 2874              	.LVL309:
 571:lcd.c         ****     while(*p!='\0')
 2875              		.loc 1 571 5
 570:lcd.c         ****     while(*p!='\0')
 2876              		.loc 1 570 1 is_stmt 0
 2877 0000 0111     		addi	sp,sp,-32
 2878              	.LCFI45:
 2879              		.cfi_def_cfa_offset 32
 2880 0002 22CC     		sw	s0,24(sp)
 2881 0004 26CA     		sw	s1,20(sp)
 2882 0006 4AC8     		sw	s2,16(sp)
 2883 0008 4EC6     		sw	s3,12(sp)
 2884 000a 52C4     		sw	s4,8(sp)
 2885 000c 56C2     		sw	s5,4(sp)
 2886 000e 5AC0     		sw	s6,0(sp)
 2887 0010 06CE     		sw	ra,28(sp)
 2888              		.cfi_offset 8, -8
 2889              		.cfi_offset 9, -12
 2890              		.cfi_offset 18, -16
 2891              		.cfi_offset 19, -20
 2892              		.cfi_offset 20, -24
 2893              		.cfi_offset 21, -28
 2894              		.cfi_offset 22, -32
 2895              		.cfi_offset 1, -4
 570:lcd.c         ****     while(*p!='\0')
 2896              		.loc 1 570 1
 2897 0012 2A84     		mv	s0,a0
 2898 0014 AE84     		mv	s1,a1
 2899 0016 3289     		mv	s2,a2
 2900 0018 B689     		mv	s3,a3
 2901 001a 3A8A     		mv	s4,a4
 572:lcd.c         ****     {       
 573:lcd.c         ****         if(x>LCD_W-8){x=0;y+=16;}
 2902              		.loc 1 573 11
 2903 001c 930A8009 		li	s5,152
 574:lcd.c         ****         if(y>LCD_H-16) break;
 2904              		.loc 1 574 11
 2905 0020 130B0004 		li	s6,64
 2906              	.LVL310:
 2907              	.L128:
 571:lcd.c         ****     {       
 2908              		.loc 1 571 11
 2909 0024 03460900 		lbu	a2,0(s2)
 571:lcd.c         ****     {       
 2910              		.loc 1 571 10
 2911 0028 19EA     		bne	a2,zero,.L131
 2912              	.L127:
 575:lcd.c         ****         LCD_ShowChar(x,y,*p,mode,color);
 576:lcd.c         ****         x+=8;
 577:lcd.c         ****         p++;
 578:lcd.c         ****     }  
 579:lcd.c         **** }
GAS LISTING C:\Users\Karzan\AppData\Local\Temp\ccedaamX.s 			page 69


 2913              		.loc 1 579 1
 2914 002a F240     		lw	ra,28(sp)
 2915              		.cfi_remember_state
 2916              		.cfi_restore 1
 2917 002c 6244     		lw	s0,24(sp)
 2918              		.cfi_restore 8
 2919              	.LVL311:
 2920 002e D244     		lw	s1,20(sp)
 2921              		.cfi_restore 9
 2922              	.LVL312:
 2923 0030 4249     		lw	s2,16(sp)
 2924              		.cfi_restore 18
 2925              	.LVL313:
 2926 0032 B249     		lw	s3,12(sp)
 2927              		.cfi_restore 19
 2928              	.LVL314:
 2929 0034 224A     		lw	s4,8(sp)
 2930              		.cfi_restore 20
 2931 0036 924A     		lw	s5,4(sp)
 2932              		.cfi_restore 21
 2933 0038 024B     		lw	s6,0(sp)
 2934              		.cfi_restore 22
 2935 003a 0561     		addi	sp,sp,32
 2936              	.LCFI46:
 2937              		.cfi_def_cfa_offset 0
 2938 003c 8280     		jr	ra
 2939              	.LVL315:
 2940              	.L131:
 2941              	.LCFI47:
 2942              		.cfi_restore_state
 573:lcd.c         ****         if(y>LCD_H-16) break;
 2943              		.loc 1 573 9 is_stmt 1
 573:lcd.c         ****         if(y>LCD_H-16) break;
 2944              		.loc 1 573 11 is_stmt 0
 2945 003e 63F48A00 		bleu	s0,s5,.L129
 573:lcd.c         ****         if(y>LCD_H-16) break;
 2946              		.loc 1 573 23 is_stmt 1 discriminator 1
 2947              	.LVL316:
 573:lcd.c         ****         if(y>LCD_H-16) break;
 2948              		.loc 1 573 27 discriminator 1
 573:lcd.c         ****         if(y>LCD_H-16) break;
 2949              		.loc 1 573 28 is_stmt 0 discriminator 1
 2950 0042 C104     		addi	s1,s1,16
 2951              	.LVL317:
 573:lcd.c         ****         if(y>LCD_H-16) break;
 2952              		.loc 1 573 24 discriminator 1
 2953 0044 0144     		li	s0,0
 2954              	.LVL318:
 2955              	.L129:
 574:lcd.c         ****         LCD_ShowChar(x,y,*p,mode,color);
 2956              		.loc 1 574 9 is_stmt 1
 574:lcd.c         ****         LCD_ShowChar(x,y,*p,mode,color);
 2957              		.loc 1 574 11 is_stmt 0
 2958 0046 E3629BFE 		bgtu	s1,s6,.L127
 575:lcd.c         ****         LCD_ShowChar(x,y,*p,mode,color);
 2959              		.loc 1 575 9 is_stmt 1
 2960 004a 2285     		mv	a0,s0
GAS LISTING C:\Users\Karzan\AppData\Local\Temp\ccedaamX.s 			page 70


 2961 004c 4E87     		mv	a4,s3
 2962 004e D286     		mv	a3,s4
 2963 0050 A685     		mv	a1,s1
 2964 0052 97000000 		call	LCD_ShowChar
 2964      E7800000 
 2965              	.LVL319:
 576:lcd.c         ****         p++;
 2966              		.loc 1 576 9
 576:lcd.c         ****         p++;
 2967              		.loc 1 576 10 is_stmt 0
 2968 005a 2104     		addi	s0,s0,8
 2969              	.LVL320:
 577:lcd.c         ****     }  
 2970              		.loc 1 577 9 is_stmt 1
 577:lcd.c         ****     }  
 2971              		.loc 1 577 10 is_stmt 0
 2972 005c 0509     		addi	s2,s2,1
 2973              	.LVL321:
 2974 005e D9B7     		j	.L128
 2975              		.cfi_endproc
 2976              	.LFE24:
 2978              		.section	.text.mypow,"ax",@progbits
 2979              		.align	1
 2980              		.globl	mypow
 2982              	mypow:
 2983              	.LFB25:
 580:lcd.c         **** 
 581:lcd.c         **** 
 582:lcd.c         **** /*
 583:lcd.c         ****   Function description: Calculate m^n
 584:lcd.c         ****   Entry data: m: base
 585:lcd.c         ****               n: exponent
 586:lcd.c         ****   Return value: m^n
 587:lcd.c         **** */
 588:lcd.c         **** u32 mypow(u8 m,u8 n)
 589:lcd.c         **** {
 2984              		.loc 1 589 1 is_stmt 1
 2985              		.cfi_startproc
 2986              	.LVL322:
 590:lcd.c         **** 	u32 result=1;	 
 2987              		.loc 1 590 2
 591:lcd.c         **** 	while(n--)result*=m;    
 2988              		.loc 1 591 2
 590:lcd.c         **** 	u32 result=1;	 
 2989              		.loc 1 590 6 is_stmt 0
 2990 0000 8547     		li	a5,1
 2991              		.loc 1 591 7
 2992 0002 1307F00F 		li	a4,255
 2993              	.LVL323:
 2994              	.L134:
 2995              		.loc 1 591 9 discriminator 1
 2996 0006 FD15     		addi	a1,a1,-1
 2997              	.LVL324:
 2998 0008 93F5F50F 		andi	a1,a1,0xff
 2999              	.LVL325:
 3000              		.loc 1 591 7 discriminator 1
 3001 000c 6394E500 		bne	a1,a4,.L135
GAS LISTING C:\Users\Karzan\AppData\Local\Temp\ccedaamX.s 			page 71


 592:lcd.c         **** 	return result;
 3002              		.loc 1 592 2 is_stmt 1
 593:lcd.c         **** }
 3003              		.loc 1 593 1 is_stmt 0
 3004 0010 3E85     		mv	a0,a5
 3005              	.LVL326:
 3006 0012 8280     		ret
 3007              	.LVL327:
 3008              	.L135:
 591:lcd.c         **** 	while(n--)result*=m;    
 3009              		.loc 1 591 12 is_stmt 1 discriminator 2
 591:lcd.c         **** 	while(n--)result*=m;    
 3010              		.loc 1 591 18 is_stmt 0 discriminator 2
 3011 0014 B387A702 		mul	a5,a5,a0
 3012              	.LVL328:
 3013 0018 FDB7     		j	.L134
 3014              		.cfi_endproc
 3015              	.LFE25:
 3017              		.section	.text.LCD_ShowNum,"ax",@progbits
 3018              		.align	1
 3019              		.globl	LCD_ShowNum
 3021              	LCD_ShowNum:
 3022              	.LFB26:
 594:lcd.c         **** 
 595:lcd.c         **** 
 596:lcd.c         **** /*
 597:lcd.c         ****   Function description: display 16-bit integer numbers
 598:lcd.c         ****   Entry data: x, y:  start point coordinates
 599:lcd.c         ****                num:  number to display
 600:lcd.c         ****                len:  number of digits to display
 601:lcd.c         ****   Return value: None
 602:lcd.c         **** */
 603:lcd.c         **** void LCD_ShowNum(u16 x,u16 y,u16 num,u8 len,u16 color)
 604:lcd.c         **** {         	
 3023              		.loc 1 604 1 is_stmt 1
 3024              		.cfi_startproc
 3025              	.LVL329:
 605:lcd.c         **** 	u8 t,temp;
 3026              		.loc 1 605 2
 606:lcd.c         **** 	u8 enshow=0;
 3027              		.loc 1 606 2
 607:lcd.c         **** 	for(t=0;t<len;t++)
 3028              		.loc 1 607 2
 604:lcd.c         **** 	u8 t,temp;
 3029              		.loc 1 604 1 is_stmt 0
 3030 0000 7971     		addi	sp,sp,-48
 3031              	.LCFI48:
 3032              		.cfi_def_cfa_offset 48
 3033 0002 56CA     		sw	s5,20(sp)
 3034              		.cfi_offset 21, -28
 3035 0004 938AF6FF 		addi	s5,a3,-1
 3036 0008 22D4     		sw	s0,40(sp)
 3037 000a 26D2     		sw	s1,36(sp)
 3038 000c 4AD0     		sw	s2,32(sp)
 3039 000e 4ECE     		sw	s3,28(sp)
 3040 0010 52CC     		sw	s4,24(sp)
 3041 0012 5AC8     		sw	s6,16(sp)
GAS LISTING C:\Users\Karzan\AppData\Local\Temp\ccedaamX.s 			page 72


 3042 0014 5EC6     		sw	s7,12(sp)
 3043 0016 62C4     		sw	s8,8(sp)
 3044 0018 66C2     		sw	s9,4(sp)
 3045 001a 06D6     		sw	ra,44(sp)
 3046              		.cfi_offset 8, -8
 3047              		.cfi_offset 9, -12
 3048              		.cfi_offset 18, -16
 3049              		.cfi_offset 19, -20
 3050              		.cfi_offset 20, -24
 3051              		.cfi_offset 22, -32
 3052              		.cfi_offset 23, -36
 3053              		.cfi_offset 24, -40
 3054              		.cfi_offset 25, -44
 3055              		.cfi_offset 1, -4
 604:lcd.c         **** 	u8 t,temp;
 3056              		.loc 1 604 1
 3057 001c AA8B     		mv	s7,a0
 3058 001e AE89     		mv	s3,a1
 3059 0020 328C     		mv	s8,a2
 3060 0022 3A8A     		mv	s4,a4
 3061 0024 13F4FA0F 		andi	s0,s5,0xff
 3062              		.loc 1 607 2
 3063 0028 814C     		li	s9,0
 606:lcd.c         **** 	u8 enshow=0;
 3064              		.loc 1 606 5
 3065 002a 0149     		li	s2,0
 3066              		.loc 1 607 2
 3067 002c 9304F00F 		li	s1,255
 3068              	.LBB356:
 3069              	.LBB357:
 591:lcd.c         **** 	return result;
 3070              		.loc 1 591 18
 3071 0030 294B     		li	s6,10
 3072              	.LVL330:
 3073              	.L137:
 3074              	.LBE357:
 3075              	.LBE356:
 3076              		.loc 1 607 2 discriminator 1
 3077 0032 63129406 		bne	s0,s1,.L143
 608:lcd.c         **** 	{
 609:lcd.c         **** 		temp=(num/mypow(10,len-t-1))%10;
 610:lcd.c         **** 		if(enshow==0&&t<(len-1))
 611:lcd.c         **** 		{
 612:lcd.c         **** 			if(temp==0)
 613:lcd.c         **** 			{
 614:lcd.c         **** 				LCD_ShowChar(x+8*t,y,' ',0,color);
 615:lcd.c         **** 				continue;
 616:lcd.c         **** 			}else enshow=1; 
 617:lcd.c         **** 		 	 
 618:lcd.c         **** 		}
 619:lcd.c         **** 	 	LCD_ShowChar(x+8*t,y,temp+48,0,color); 
 620:lcd.c         **** 	}
 621:lcd.c         **** } 
 3078              		.loc 1 621 1
 3079 0036 B250     		lw	ra,44(sp)
 3080              		.cfi_remember_state
 3081              		.cfi_restore 1
GAS LISTING C:\Users\Karzan\AppData\Local\Temp\ccedaamX.s 			page 73


 3082 0038 2254     		lw	s0,40(sp)
 3083              		.cfi_restore 8
 3084 003a 9254     		lw	s1,36(sp)
 3085              		.cfi_restore 9
 3086 003c 0259     		lw	s2,32(sp)
 3087              		.cfi_restore 18
 3088              	.LVL331:
 3089 003e F249     		lw	s3,28(sp)
 3090              		.cfi_restore 19
 3091              	.LVL332:
 3092 0040 624A     		lw	s4,24(sp)
 3093              		.cfi_restore 20
 3094              	.LVL333:
 3095 0042 D24A     		lw	s5,20(sp)
 3096              		.cfi_restore 21
 3097 0044 424B     		lw	s6,16(sp)
 3098              		.cfi_restore 22
 3099 0046 B24B     		lw	s7,12(sp)
 3100              		.cfi_restore 23
 3101              	.LVL334:
 3102 0048 224C     		lw	s8,8(sp)
 3103              		.cfi_restore 24
 3104              	.LVL335:
 3105 004a 924C     		lw	s9,4(sp)
 3106              		.cfi_restore 25
 3107              	.LVL336:
 3108 004c 4561     		addi	sp,sp,48
 3109              	.LCFI49:
 3110              		.cfi_def_cfa_offset 0
 3111 004e 8280     		jr	ra
 3112              	.LVL337:
 3113              	.L138:
 3114              	.LCFI50:
 3115              		.cfi_restore_state
 3116              	.LBB360:
 3117              	.LBB358:
 591:lcd.c         **** 	return result;
 3118              		.loc 1 591 12 is_stmt 1
 591:lcd.c         **** 	return result;
 3119              		.loc 1 591 18 is_stmt 0
 3120 0050 B3876703 		mul	a5,a5,s6
 3121              	.LVL338:
 3122              	.L141:
 591:lcd.c         **** 	return result;
 3123              		.loc 1 591 9
 3124 0054 7D17     		addi	a4,a4,-1
 3125              	.LVL339:
 3126 0056 1377F70F 		andi	a4,a4,0xff
 3127              	.LVL340:
 591:lcd.c         **** 	return result;
 3128              		.loc 1 591 7
 3129 005a E31B97FE 		bne	a4,s1,.L138
 592:lcd.c         **** }
 3130              		.loc 1 592 2 is_stmt 1
 3131              	.LVL341:
 3132 005e 13953C00 		slli	a0,s9,3
 3133 0062 5E95     		add	a0,a0,s7
GAS LISTING C:\Users\Karzan\AppData\Local\Temp\ccedaamX.s 			page 74


 3134              	.LBE358:
 3135              	.LBE360:
 609:lcd.c         **** 		if(enshow==0&&t<(len-1))
 3136              		.loc 1 609 12 is_stmt 0
 3137 0064 B357FC02 		divu	a5,s8,a5
 609:lcd.c         **** 		if(enshow==0&&t<(len-1))
 3138              		.loc 1 609 31
 3139 0068 B3F76703 		remu	a5,a5,s6
 609:lcd.c         **** 		if(enshow==0&&t<(len-1))
 3140              		.loc 1 609 7
 3141 006c 13F6F70F 		andi	a2,a5,0xff
 3142              	.LVL342:
 610:lcd.c         **** 		{
 3143              		.loc 1 610 3 is_stmt 1
 610:lcd.c         **** 		{
 3144              		.loc 1 610 5 is_stmt 0
 3145 0070 63170902 		bne	s2,zero,.L139
 610:lcd.c         **** 		{
 3146              		.loc 1 610 15 discriminator 1
 3147 0074 63D55C03 		ble	s5,s9,.L139
 612:lcd.c         **** 			{
 3148              		.loc 1 612 4 is_stmt 1
 612:lcd.c         **** 			{
 3149              		.loc 1 612 6 is_stmt 0
 3150 0078 95E3     		bne	a5,zero,.L142
 614:lcd.c         **** 				continue;
 3151              		.loc 1 614 5 is_stmt 1
 3152 007a 5287     		mv	a4,s4
 3153 007c 8146     		li	a3,0
 3154 007e 13060002 		li	a2,32
 3155              	.LVL343:
 3156              	.L145:
 619:lcd.c         **** 	}
 3157              		.loc 1 619 4 is_stmt 0
 3158 0082 CE85     		mv	a1,s3
 3159 0084 7D14     		addi	s0,s0,-1
 3160 0086 97000000 		call	LCD_ShowChar
 3160      E7800000 
 3161              	.LVL344:
 3162 008e 850C     		addi	s9,s9,1
 3163              	.LVL345:
 3164 0090 1374F40F 		andi	s0,s0,0xff
 3165 0094 79BF     		j	.L137
 3166              	.LVL346:
 3167              	.L143:
 3168 0096 2287     		mv	a4,s0
 3169              	.LBB361:
 3170              	.LBB359:
 590:lcd.c         **** 	while(n--)result*=m;    
 3171              		.loc 1 590 6
 3172 0098 8547     		li	a5,1
 3173 009a 6DBF     		j	.L141
 3174              	.LVL347:
 3175              	.L142:
 3176              	.LBE359:
 3177              	.LBE361:
 3178 009c 0549     		li	s2,1
GAS LISTING C:\Users\Karzan\AppData\Local\Temp\ccedaamX.s 			page 75


 3179              	.LVL348:
 3180              	.L139:
 619:lcd.c         **** 	}
 3181              		.loc 1 619 4 is_stmt 1
 3182 009e 5287     		mv	a4,s4
 3183 00a0 8146     		li	a3,0
 3184 00a2 13060603 		addi	a2,a2,48
 3185              	.LVL349:
 3186 00a6 F1BF     		j	.L145
 3187              		.cfi_endproc
 3188              	.LFE26:
 3190              		.globl	__mulsf3
 3191              		.globl	__fixunssfsi
 3192              		.section	.text.LCD_ShowNum1,"ax",@progbits
 3193              		.align	1
 3194              		.globl	LCD_ShowNum1
 3196              	LCD_ShowNum1:
 3197              	.LFB27:
 622:lcd.c         **** 
 623:lcd.c         **** 
 624:lcd.c         **** /*
 625:lcd.c         ****   Function description: display float number with 2 decimal places
 626:lcd.c         ****   Entry data: x, y:  start point coordinates
 627:lcd.c         ****                num:  float number to display
 628:lcd.c         ****                len:  number of digits to display
 629:lcd.c         ****   Return value: None
 630:lcd.c         **** */
 631:lcd.c         **** void LCD_ShowNum1(u16 x,u16 y,float num,u8 len,u16 color)
 632:lcd.c         **** {         	
 3198              		.loc 1 632 1
 3199              		.cfi_startproc
 3200              	.LVL350:
 633:lcd.c         **** 	u8 t,temp;
 3201              		.loc 1 633 2
 634:lcd.c         **** 	// u8 enshow=0;
 635:lcd.c         **** 	u16 num1;
 3202              		.loc 1 635 2
 636:lcd.c         **** 	num1=num*100;
 3203              		.loc 1 636 2
 632:lcd.c         **** 	u8 t,temp;
 3204              		.loc 1 632 1 is_stmt 0
 3205 0000 7971     		addi	sp,sp,-48
 3206              	.LCFI51:
 3207              		.cfi_def_cfa_offset 48
 3208              		.loc 1 636 10
 3209 0002 B7070000 		lui	a5,%hi(.LC1)
 632:lcd.c         **** 	u8 t,temp;
 3210              		.loc 1 632 1
 3211 0006 52CC     		sw	s4,24(sp)
 3212              		.cfi_offset 20, -24
 3213 0008 2E8A     		mv	s4,a1
 3214              		.loc 1 636 10
 3215 000a 83A50700 		lw	a1,%lo(.LC1)(a5)
 3216              	.LVL351:
 632:lcd.c         **** 	u8 t,temp;
 3217              		.loc 1 632 1
 3218 000e 4ECE     		sw	s3,28(sp)
GAS LISTING C:\Users\Karzan\AppData\Local\Temp\ccedaamX.s 			page 76


 3219              		.cfi_offset 19, -20
 3220 0010 AA89     		mv	s3,a0
 3221              		.loc 1 636 10
 3222 0012 3285     		mv	a0,a2
 3223              	.LVL352:
 632:lcd.c         **** 	u8 t,temp;
 3224              		.loc 1 632 1
 3225 0014 06D6     		sw	ra,44(sp)
 3226 0016 22D4     		sw	s0,40(sp)
 3227 0018 26D2     		sw	s1,36(sp)
 3228 001a 56CA     		sw	s5,20(sp)
 3229 001c 5AC8     		sw	s6,16(sp)
 3230 001e 5EC6     		sw	s7,12(sp)
 3231 0020 62C4     		sw	s8,8(sp)
 3232              		.cfi_offset 1, -4
 3233              		.cfi_offset 8, -8
 3234              		.cfi_offset 9, -12
 3235              		.cfi_offset 21, -28
 3236              		.cfi_offset 22, -32
 3237              		.cfi_offset 23, -36
 3238              		.cfi_offset 24, -40
 3239 0022 B684     		mv	s1,a3
 3240 0024 BA8A     		mv	s5,a4
 3241 0026 4AD0     		sw	s2,32(sp)
 3242              		.cfi_offset 18, -16
 3243              		.loc 1 636 10
 3244 0028 97000000 		call	__mulsf3
 3244      E7800000 
 3245              	.LVL353:
 3246              		.loc 1 636 6
 3247 0030 97000000 		call	__fixunssfsi
 3247      E7800000 
 3248              	.LVL354:
 3249 0038 AA8B     		mv	s7,a0
 3250              	.LVL355:
 637:lcd.c         **** 	for(t=0;t<len;t++)
 3251              		.loc 1 637 2 is_stmt 1
 3252              		.loc 1 637 7 is_stmt 0
 3253 003a 0144     		li	s0,0
 3254              	.LBB362:
 3255              	.LBB363:
 591:lcd.c         **** 	return result;
 3256              		.loc 1 591 7
 3257 003c 130CF00F 		li	s8,255
 591:lcd.c         **** 	return result;
 3258              		.loc 1 591 18
 3259 0040 294B     		li	s6,10
 3260              	.LVL356:
 3261              	.L147:
 3262              	.LBE363:
 3263              	.LBE362:
 3264              		.loc 1 637 2 discriminator 1
 3265 0042 636E9400 		bgtu	s1,s0,.L151
 638:lcd.c         **** 	{
 639:lcd.c         **** 		temp=(num1/mypow(10,len-t-1))%10;
 640:lcd.c         **** 		if(t==(len-2))
 641:lcd.c         **** 		{
GAS LISTING C:\Users\Karzan\AppData\Local\Temp\ccedaamX.s 			page 77


 642:lcd.c         **** 			LCD_ShowChar(x+8*(len-2),y,'.',0,color);
 643:lcd.c         **** 			t++;
 644:lcd.c         **** 			len+=1;
 645:lcd.c         **** 		}
 646:lcd.c         **** 	 	LCD_ShowChar(x+8*t,y,temp+48,0,color);
 647:lcd.c         **** 	}
 648:lcd.c         **** }
 3266              		.loc 1 648 1
 3267 0046 B250     		lw	ra,44(sp)
 3268              		.cfi_remember_state
 3269              		.cfi_restore 1
 3270 0048 2254     		lw	s0,40(sp)
 3271              		.cfi_restore 8
 3272              	.LVL357:
 3273 004a 9254     		lw	s1,36(sp)
 3274              		.cfi_restore 9
 3275              	.LVL358:
 3276 004c 0259     		lw	s2,32(sp)
 3277              		.cfi_restore 18
 3278 004e F249     		lw	s3,28(sp)
 3279              		.cfi_restore 19
 3280              	.LVL359:
 3281 0050 624A     		lw	s4,24(sp)
 3282              		.cfi_restore 20
 3283              	.LVL360:
 3284 0052 D24A     		lw	s5,20(sp)
 3285              		.cfi_restore 21
 3286              	.LVL361:
 3287 0054 424B     		lw	s6,16(sp)
 3288              		.cfi_restore 22
 3289 0056 B24B     		lw	s7,12(sp)
 3290              		.cfi_restore 23
 3291              	.LVL362:
 3292 0058 224C     		lw	s8,8(sp)
 3293              		.cfi_restore 24
 3294 005a 4561     		addi	sp,sp,48
 3295              	.LCFI52:
 3296              		.cfi_def_cfa_offset 0
 3297 005c 8280     		jr	ra
 3298              	.LVL363:
 3299              	.L151:
 3300              	.LCFI53:
 3301              		.cfi_restore_state
 639:lcd.c         **** 		if(t==(len-2))
 3302              		.loc 1 639 3 is_stmt 1
 639:lcd.c         **** 		if(t==(len-2))
 3303              		.loc 1 639 14 is_stmt 0
 3304 005e 9386F4FF 		addi	a3,s1,-1
 3305 0062 33878640 		sub	a4,a3,s0
 3306 0066 1377F70F 		andi	a4,a4,0xff
 3307              	.LVL364:
 3308              	.LBB366:
 3309              	.LBB364:
 590:lcd.c         **** 	while(n--)result*=m;    
 3310              		.loc 1 590 2 is_stmt 1
 591:lcd.c         **** 	return result;
 3311              		.loc 1 591 2
GAS LISTING C:\Users\Karzan\AppData\Local\Temp\ccedaamX.s 			page 78


 590:lcd.c         **** 	while(n--)result*=m;    
 3312              		.loc 1 590 6 is_stmt 0
 3313 006a 8547     		li	a5,1
 3314              	.LVL365:
 3315              	.L148:
 591:lcd.c         **** 	return result;
 3316              		.loc 1 591 9
 3317 006c 7D17     		addi	a4,a4,-1
 3318              	.LVL366:
 3319 006e 1377F70F 		andi	a4,a4,0xff
 3320              	.LVL367:
 591:lcd.c         **** 	return result;
 3321              		.loc 1 591 7
 3322 0072 631A8705 		bne	a4,s8,.L149
 592:lcd.c         **** }
 3323              		.loc 1 592 2 is_stmt 1
 3324              	.LVL368:
 3325              	.LBE364:
 3326              	.LBE366:
 639:lcd.c         **** 		if(t==(len-2))
 3327              		.loc 1 639 13 is_stmt 0
 3328 0076 B3D7FB02 		divu	a5,s7,a5
 640:lcd.c         **** 		{
 3329              		.loc 1 640 13
 3330 007a 1385E4FF 		addi	a0,s1,-2
 639:lcd.c         **** 		if(t==(len-2))
 3331              		.loc 1 639 7
 3332 007e 33F96703 		remu	s2,a5,s6
 3333              	.LVL369:
 640:lcd.c         **** 		{
 3334              		.loc 1 640 3 is_stmt 1
 640:lcd.c         **** 		{
 3335              		.loc 1 640 5 is_stmt 0
 3336 0082 6312A402 		bne	s0,a0,.L150
 642:lcd.c         **** 			t++;
 3337              		.loc 1 642 20
 3338 0086 0E05     		slli	a0,a0,3
 3339 0088 13F4F60F 		andi	s0,a3,0xff
 3340              	.LVL370:
 642:lcd.c         **** 			t++;
 3341              		.loc 1 642 4 is_stmt 1
 3342 008c 5687     		mv	a4,s5
 3343 008e 8146     		li	a3,0
 3344 0090 1306E002 		li	a2,46
 3345 0094 D285     		mv	a1,s4
 3346 0096 4E95     		add	a0,a0,s3
 644:lcd.c         **** 		}
 3347              		.loc 1 644 7 is_stmt 0
 3348 0098 8504     		addi	s1,s1,1
 3349              	.LVL371:
 642:lcd.c         **** 			t++;
 3350              		.loc 1 642 4
 3351 009a 97000000 		call	LCD_ShowChar
 3351      E7800000 
 3352              	.LVL372:
 643:lcd.c         **** 			len+=1;
 3353              		.loc 1 643 4 is_stmt 1
GAS LISTING C:\Users\Karzan\AppData\Local\Temp\ccedaamX.s 			page 79


 644:lcd.c         **** 		}
 3354              		.loc 1 644 4
 644:lcd.c         **** 		}
 3355              		.loc 1 644 7 is_stmt 0
 3356 00a2 93F4F40F 		andi	s1,s1,0xff
 3357              	.LVL373:
 3358              	.L150:
 646:lcd.c         **** 	}
 3359              		.loc 1 646 4 is_stmt 1 discriminator 2
 646:lcd.c         **** 	}
 3360              		.loc 1 646 20 is_stmt 0 discriminator 2
 3361 00a6 13153400 		slli	a0,s0,3
 646:lcd.c         **** 	}
 3362              		.loc 1 646 4 discriminator 2
 3363 00aa 5687     		mv	a4,s5
 3364 00ac 8146     		li	a3,0
 3365 00ae 13060903 		addi	a2,s2,48
 3366 00b2 D285     		mv	a1,s4
 3367 00b4 4E95     		add	a0,a0,s3
 637:lcd.c         **** 	{
 3368              		.loc 1 637 17 discriminator 2
 3369 00b6 0504     		addi	s0,s0,1
 3370              	.LVL374:
 646:lcd.c         **** 	}
 3371              		.loc 1 646 4 discriminator 2
 3372 00b8 97000000 		call	LCD_ShowChar
 3372      E7800000 
 3373              	.LVL375:
 637:lcd.c         **** 	{
 3374              		.loc 1 637 17 discriminator 2
 3375 00c0 1374F40F 		andi	s0,s0,0xff
 3376              	.LVL376:
 3377 00c4 BDBF     		j	.L147
 3378              	.LVL377:
 3379              	.L149:
 3380              	.LBB367:
 3381              	.LBB365:
 591:lcd.c         **** 	return result;
 3382              		.loc 1 591 12 is_stmt 1
 591:lcd.c         **** 	return result;
 3383              		.loc 1 591 18 is_stmt 0
 3384 00c6 B3876703 		mul	a5,a5,s6
 3385              	.LVL378:
 3386 00ca 4DB7     		j	.L148
 3387              	.LBE365:
 3388              	.LBE367:
 3389              		.cfi_endproc
 3390              	.LFE27:
 3392              		.section	.text.LCD_ShowPicture,"ax",@progbits
 3393              		.align	1
 3394              		.globl	LCD_ShowPicture
 3396              	LCD_ShowPicture:
 3397              	.LFB28:
 649:lcd.c         **** 
 650:lcd.c         **** 
 651:lcd.c         **** /*
 652:lcd.c         ****   Function description: display the image 
GAS LISTING C:\Users\Karzan\AppData\Local\Temp\ccedaamX.s 			page 80


 653:lcd.c         ****   Entry data: x1, y1:  start coordinates
 654:lcd.c         ****               x2, y2:  end coordinates
 655:lcd.c         ****               *image:  pointer to image buffer
 656:lcd.c         ****   Return value: None
 657:lcd.c         ****   Note: image buffere contains 16-bit pixel colors
 658:lcd.c         ****         and its size must be (x2-x1+1) * (y2-y1+1) * 2
 659:lcd.c         ****   */
 660:lcd.c         **** void LCD_ShowPicture(u16 x1, u16 y1, u16 x2, u16 y2, u8 *image)
 661:lcd.c         **** {
 3398              		.loc 1 661 1 is_stmt 1
 3399              		.cfi_startproc
 3400              	.LVL379:
 662:lcd.c         **** 	int i;
 3401              		.loc 1 662 2
 663:lcd.c         **** 	int size = (x2-x1+1) * (y2-y1+1) * 2;
 3402              		.loc 1 663 2
 661:lcd.c         **** 	int i;
 3403              		.loc 1 661 1 is_stmt 0
 3404 0000 4111     		addi	sp,sp,-16
 3405              	.LCFI54:
 3406              		.cfi_def_cfa_offset 16
 3407 0002 22C4     		sw	s0,8(sp)
 3408              		.loc 1 663 28
 3409 0004 B387B640 		sub	a5,a3,a1
 3410              		.cfi_offset 8, -8
 3411              		.loc 1 663 16
 3412 0008 3304A640 		sub	s0,a2,a0
 3413              		.loc 1 663 31
 3414 000c 8507     		addi	a5,a5,1
 3415              		.loc 1 663 35
 3416 000e 0504     		addi	s0,s0,1
 3417 0010 3304F402 		mul	s0,s0,a5
 661:lcd.c         **** 	int i;
 3418              		.loc 1 661 1
 3419 0014 26C2     		sw	s1,4(sp)
 3420 0016 4AC0     		sw	s2,0(sp)
 3421 0018 06C6     		sw	ra,12(sp)
 3422              		.cfi_offset 9, -12
 3423              		.cfi_offset 18, -16
 3424              		.cfi_offset 1, -4
 661:lcd.c         **** 	int i;
 3425              		.loc 1 661 1
 3426 001a 3A89     		mv	s2,a4
 664:lcd.c         **** 	LCD_Address_Set(x1,y1,x2,y2);
 665:lcd.c         **** 	for(i=0;i<size;i++)
 3427              		.loc 1 665 7
 3428 001c 8144     		li	s1,0
 664:lcd.c         **** 	LCD_Address_Set(x1,y1,x2,y2);
 3429              		.loc 1 664 2
 3430 001e 97000000 		call	LCD_Address_Set
 3430      E7800000 
 3431              	.LVL380:
 663:lcd.c         **** 	LCD_Address_Set(x1,y1,x2,y2);
 3432              		.loc 1 663 35
 3433 0026 0604     		slli	s0,s0,1
 3434              	.LVL381:
 664:lcd.c         **** 	LCD_Address_Set(x1,y1,x2,y2);
GAS LISTING C:\Users\Karzan\AppData\Local\Temp\ccedaamX.s 			page 81


 3435              		.loc 1 664 2 is_stmt 1
 3436              		.loc 1 665 2
 3437              	.L154:
 3438              		.loc 1 665 2 is_stmt 0 discriminator 1
 3439 0028 63C88400 		blt	s1,s0,.L155
 666:lcd.c         **** 	{ 	
 667:lcd.c         **** 		LCD_WR_DATA8(image[i]);
 668:lcd.c         **** 	}			
 669:lcd.c         **** }
 3440              		.loc 1 669 1
 3441 002c B240     		lw	ra,12(sp)
 3442              		.cfi_remember_state
 3443              		.cfi_restore 1
 3444 002e 2244     		lw	s0,8(sp)
 3445              		.cfi_restore 8
 3446              	.LVL382:
 3447 0030 9244     		lw	s1,4(sp)
 3448              		.cfi_restore 9
 3449              	.LVL383:
 3450 0032 0249     		lw	s2,0(sp)
 3451              		.cfi_restore 18
 3452              	.LVL384:
 3453 0034 4101     		addi	sp,sp,16
 3454              	.LCFI55:
 3455              		.cfi_def_cfa_offset 0
 3456 0036 8280     		jr	ra
 3457              	.LVL385:
 3458              	.L155:
 3459              	.LCFI56:
 3460              		.cfi_restore_state
 667:lcd.c         **** 	}			
 3461              		.loc 1 667 3 is_stmt 1 discriminator 3
 3462 0038 B3079900 		add	a5,s2,s1
 3463 003c 03C50700 		lbu	a0,0(a5)
 665:lcd.c         **** 	{ 	
 3464              		.loc 1 665 18 is_stmt 0 discriminator 3
 3465 0040 8504     		addi	s1,s1,1
 3466              	.LVL386:
 667:lcd.c         **** 	}			
 3467              		.loc 1 667 3 discriminator 3
 3468 0042 97000000 		call	LCD_WR_DATA8
 3468      E7800000 
 3469              	.LVL387:
 3470 004a F9BF     		j	.L154
 3471              		.cfi_endproc
 3472              	.LFE28:
 3474              		.globl	queue
 3475              		.globl	w
 3476              		.globl	r
 3477              		.globl	lcd_conf
 3478              		.comm	BACK_COLOR,4,4
 3479              		.globl	Hzk16
 3480              		.globl	asc2_1608
 3481              		.globl	Hzk32
 3482              		.section	.bss.queue,"aw",@nobits
 3483              		.align	2
 3484              		.set	.LANCHOR2,. + 0
GAS LISTING C:\Users\Karzan\AppData\Local\Temp\ccedaamX.s 			page 82


 3487              	queue:
 3488 0000 00000000 		.zero	1024
 3488      00000000 
 3488      00000000 
 3488      00000000 
 3488      00000000 
 3489              		.section	.data.Hzk16,"aw"
 3490              		.align	2
 3491              		.set	.LANCHOR4,. + 0
 3494              	Hzk16:
 3495 0000 80       		.byte	-128
 3496 0001 00       		.byte	0
 3497 0002 80       		.byte	-128
 3498 0003 00       		.byte	0
 3499 0004 80       		.byte	-128
 3500 0005 00       		.byte	0
 3501 0006 80       		.byte	-128
 3502 0007 00       		.byte	0
 3503 0008 FC       		.byte	-4
 3504 0009 1F       		.byte	31
 3505 000a 84       		.byte	-124
 3506 000b 10       		.byte	16
 3507 000c 84       		.byte	-124
 3508 000d 10       		.byte	16
 3509 000e 84       		.byte	-124
 3510 000f 10       		.byte	16
 3511 0010 84       		.byte	-124
 3512 0011 10       		.byte	16
 3513 0012 84       		.byte	-124
 3514 0013 10       		.byte	16
 3515 0014 FC       		.byte	-4
 3516 0015 1F       		.byte	31
 3517 0016 84       		.byte	-124
 3518 0017 10       		.byte	16
 3519 0018 80       		.byte	-128
 3520 0019 00       		.byte	0
 3521 001a 80       		.byte	-128
 3522 001b 00       		.byte	0
 3523 001c 80       		.byte	-128
 3524 001d 00       		.byte	0
 3525 001e 80       		.byte	-128
 3526 001f 00       		.byte	0
 3527 0020 F8       		.byte	-8
 3528 0021 0F       		.byte	15
 3529 0022 08       		.byte	8
 3530 0023 08       		.byte	8
 3531 0024 F8       		.byte	-8
 3532 0025 0F       		.byte	15
 3533 0026 08       		.byte	8
 3534 0027 08       		.byte	8
 3535 0028 F8       		.byte	-8
 3536 0029 0F       		.byte	15
 3537 002a 80       		.byte	-128
 3538 002b 00       		.byte	0
 3539 002c FF       		.byte	-1
 3540 002d 7F       		.byte	127
 3541 002e 00       		.byte	0
GAS LISTING C:\Users\Karzan\AppData\Local\Temp\ccedaamX.s 			page 83


 3542 002f 00       		.byte	0
 3543 0030 F8       		.byte	-8
 3544 0031 0F       		.byte	15
 3545 0032 08       		.byte	8
 3546 0033 08       		.byte	8
 3547 0034 08       		.byte	8
 3548 0035 08       		.byte	8
 3549 0036 F8       		.byte	-8
 3550 0037 0F       		.byte	15
 3551 0038 80       		.byte	-128
 3552 0039 00       		.byte	0
 3553 003a 84       		.byte	-124
 3554 003b 10       		.byte	16
 3555 003c A2       		.byte	-94
 3556 003d 20       		.byte	32
 3557 003e 40       		.byte	64
 3558 003f 00       		.byte	0
 3559 0040 00       		.byte	0
 3560 0041 00       		.byte	0
 3561 0042 FE       		.byte	-2
 3562 0043 3F       		.byte	63
 3563 0044 02       		.byte	2
 3564 0045 20       		.byte	32
 3565 0046 F2       		.byte	-14
 3566 0047 27       		.byte	39
 3567 0048 02       		.byte	2
 3568 0049 20       		.byte	32
 3569 004a 02       		.byte	2
 3570 004b 20       		.byte	32
 3571 004c FA       		.byte	-6
 3572 004d 2F       		.byte	47
 3573 004e 22       		.byte	34
 3574 004f 21       		.byte	33
 3575 0050 22       		.byte	34
 3576 0051 21       		.byte	33
 3577 0052 22       		.byte	34
 3578 0053 21       		.byte	33
 3579 0054 12       		.byte	18
 3580 0055 29       		.byte	41
 3581 0056 12       		.byte	18
 3582 0057 29       		.byte	41
 3583 0058 0A       		.byte	10
 3584 0059 2E       		.byte	46
 3585 005a 02       		.byte	2
 3586 005b 20       		.byte	32
 3587 005c FE       		.byte	-2
 3588 005d 3F       		.byte	63
 3589 005e 02       		.byte	2
 3590 005f 20       		.byte	32
 3591 0060 80       		.byte	-128
 3592 0061 00       		.byte	0
 3593 0062 80       		.byte	-128
 3594 0063 00       		.byte	0
 3595 0064 80       		.byte	-128
 3596 0065 00       		.byte	0
 3597 0066 FC       		.byte	-4
 3598 0067 1F       		.byte	31
GAS LISTING C:\Users\Karzan\AppData\Local\Temp\ccedaamX.s 			page 84


 3599 0068 84       		.byte	-124
 3600 0069 10       		.byte	16
 3601 006a 84       		.byte	-124
 3602 006b 10       		.byte	16
 3603 006c 84       		.byte	-124
 3604 006d 10       		.byte	16
 3605 006e FC       		.byte	-4
 3606 006f 1F       		.byte	31
 3607 0070 84       		.byte	-124
 3608 0071 10       		.byte	16
 3609 0072 84       		.byte	-124
 3610 0073 10       		.byte	16
 3611 0074 84       		.byte	-124
 3612 0075 10       		.byte	16
 3613 0076 FC       		.byte	-4
 3614 0077 1F       		.byte	31
 3615 0078 84       		.byte	-124
 3616 0079 50       		.byte	80
 3617 007a 80       		.byte	-128
 3618 007b 40       		.byte	64
 3619 007c 80       		.byte	-128
 3620 007d 40       		.byte	64
 3621 007e 00       		.byte	0
 3622 007f 7F       		.byte	127
 3623 0080 00       		.byte	0
 3624 0081 00       		.byte	0
 3625 0082 FE       		.byte	-2
 3626 0083 1F       		.byte	31
 3627 0084 00       		.byte	0
 3628 0085 08       		.byte	8
 3629 0086 00       		.byte	0
 3630 0087 04       		.byte	4
 3631 0088 00       		.byte	0
 3632 0089 02       		.byte	2
 3633 008a 80       		.byte	-128
 3634 008b 01       		.byte	1
 3635 008c 80       		.byte	-128
 3636 008d 00       		.byte	0
 3637 008e FF       		.byte	-1
 3638 008f 7F       		.byte	127
 3639 0090 80       		.byte	-128
 3640 0091 00       		.byte	0
 3641 0092 80       		.byte	-128
 3642 0093 00       		.byte	0
 3643 0094 80       		.byte	-128
 3644 0095 00       		.byte	0
 3645 0096 80       		.byte	-128
 3646 0097 00       		.byte	0
 3647 0098 80       		.byte	-128
 3648 0099 00       		.byte	0
 3649 009a 80       		.byte	-128
 3650 009b 00       		.byte	0
 3651 009c A0       		.byte	-96
 3652 009d 00       		.byte	0
 3653 009e 40       		.byte	64
 3654 009f 00       		.byte	0
 3655 00a0 10       		.byte	16
GAS LISTING C:\Users\Karzan\AppData\Local\Temp\ccedaamX.s 			page 85


 3656 00a1 08       		.byte	8
 3657 00a2 B8       		.byte	-72
 3658 00a3 08       		.byte	8
 3659 00a4 0F       		.byte	15
 3660 00a5 09       		.byte	9
 3661 00a6 08       		.byte	8
 3662 00a7 09       		.byte	9
 3663 00a8 08       		.byte	8
 3664 00a9 08       		.byte	8
 3665 00aa BF       		.byte	-65
 3666 00ab 08       		.byte	8
 3667 00ac 08       		.byte	8
 3668 00ad 09       		.byte	9
 3669 00ae 1C       		.byte	28
 3670 00af 09       		.byte	9
 3671 00b0 2C       		.byte	44
 3672 00b1 08       		.byte	8
 3673 00b2 0A       		.byte	10
 3674 00b3 78       		.byte	120
 3675 00b4 CA       		.byte	-54
 3676 00b5 0F       		.byte	15
 3677 00b6 09       		.byte	9
 3678 00b7 08       		.byte	8
 3679 00b8 08       		.byte	8
 3680 00b9 08       		.byte	8
 3681 00ba 08       		.byte	8
 3682 00bb 08       		.byte	8
 3683 00bc 08       		.byte	8
 3684 00bd 08       		.byte	8
 3685 00be 08       		.byte	8
 3686 00bf 08       		.byte	8
 3687 00c0 08       		.byte	8
 3688 00c1 04       		.byte	4
 3689 00c2 08       		.byte	8
 3690 00c3 04       		.byte	4
 3691 00c4 08       		.byte	8
 3692 00c5 04       		.byte	4
 3693 00c6 C8       		.byte	-56
 3694 00c7 7F       		.byte	127
 3695 00c8 3F       		.byte	63
 3696 00c9 04       		.byte	4
 3697 00ca 08       		.byte	8
 3698 00cb 04       		.byte	4
 3699 00cc 08       		.byte	8
 3700 00cd 04       		.byte	4
 3701 00ce A8       		.byte	-88
 3702 00cf 3F       		.byte	63
 3703 00d0 18       		.byte	24
 3704 00d1 21       		.byte	33
 3705 00d2 0C       		.byte	12
 3706 00d3 11       		.byte	17
 3707 00d4 0B       		.byte	11
 3708 00d5 12       		.byte	18
 3709 00d6 08       		.byte	8
 3710 00d7 0A       		.byte	10
 3711 00d8 08       		.byte	8
 3712 00d9 04       		.byte	4
GAS LISTING C:\Users\Karzan\AppData\Local\Temp\ccedaamX.s 			page 86


 3713 00da 08       		.byte	8
 3714 00db 0A       		.byte	10
 3715 00dc 8A       		.byte	-118
 3716 00dd 11       		.byte	17
 3717 00de 64       		.byte	100
 3718 00df 60       		.byte	96
 3719              		.section	.data.Hzk32,"aw"
 3720              		.align	2
 3721              		.set	.LANCHOR5,. + 0
 3724              	Hzk32:
 3725 0000 00       		.byte	0
 3726 0001 00       		.byte	0
 3727 0002 00       		.byte	0
 3728 0003 00       		.byte	0
 3729 0004 00       		.byte	0
 3730 0005 00       		.byte	0
 3731 0006 00       		.byte	0
 3732 0007 00       		.byte	0
 3733 0008 00       		.byte	0
 3734 0009 80       		.byte	-128
 3735 000a 00       		.byte	0
 3736 000b 00       		.byte	0
 3737 000c 00       		.byte	0
 3738 000d 80       		.byte	-128
 3739 000e 01       		.byte	1
 3740 000f 00       		.byte	0
 3741 0010 00       		.byte	0
 3742 0011 80       		.byte	-128
 3743 0012 01       		.byte	1
 3744 0013 00       		.byte	0
 3745 0014 00       		.byte	0
 3746 0015 80       		.byte	-128
 3747 0016 01       		.byte	1
 3748 0017 00       		.byte	0
 3749 0018 00       		.byte	0
 3750 0019 80       		.byte	-128
 3751 001a 01       		.byte	1
 3752 001b 00       		.byte	0
 3753 001c 00       		.byte	0
 3754 001d 80       		.byte	-128
 3755 001e 01       		.byte	1
 3756 001f 00       		.byte	0
 3757 0020 10       		.byte	16
 3758 0021 80       		.byte	-128
 3759 0022 01       		.byte	1
 3760 0023 0C       		.byte	12
 3761 0024 F0       		.byte	-16
 3762 0025 FF       		.byte	-1
 3763 0026 FF       		.byte	-1
 3764 0027 0F       		.byte	15
 3765 0028 30       		.byte	48
 3766 0029 80       		.byte	-128
 3767 002a 01       		.byte	1
 3768 002b 04       		.byte	4
 3769 002c 30       		.byte	48
 3770 002d 80       		.byte	-128
 3771 002e 01       		.byte	1
GAS LISTING C:\Users\Karzan\AppData\Local\Temp\ccedaamX.s 			page 87


 3772 002f 04       		.byte	4
 3773 0030 30       		.byte	48
 3774 0031 80       		.byte	-128
 3775 0032 01       		.byte	1
 3776 0033 04       		.byte	4
 3777 0034 30       		.byte	48
 3778 0035 80       		.byte	-128
 3779 0036 01       		.byte	1
 3780 0037 04       		.byte	4
 3781 0038 30       		.byte	48
 3782 0039 80       		.byte	-128
 3783 003a 01       		.byte	1
 3784 003b 04       		.byte	4
 3785 003c 30       		.byte	48
 3786 003d 80       		.byte	-128
 3787 003e 01       		.byte	1
 3788 003f 04       		.byte	4
 3789 0040 30       		.byte	48
 3790 0041 80       		.byte	-128
 3791 0042 01       		.byte	1
 3792 0043 04       		.byte	4
 3793 0044 30       		.byte	48
 3794 0045 80       		.byte	-128
 3795 0046 01       		.byte	1
 3796 0047 04       		.byte	4
 3797 0048 F0       		.byte	-16
 3798 0049 FF       		.byte	-1
 3799 004a FF       		.byte	-1
 3800 004b 07       		.byte	7
 3801 004c 30       		.byte	48
 3802 004d 80       		.byte	-128
 3803 004e 01       		.byte	1
 3804 004f 04       		.byte	4
 3805 0050 30       		.byte	48
 3806 0051 80       		.byte	-128
 3807 0052 01       		.byte	1
 3808 0053 04       		.byte	4
 3809 0054 00       		.byte	0
 3810 0055 80       		.byte	-128
 3811 0056 01       		.byte	1
 3812 0057 00       		.byte	0
 3813 0058 00       		.byte	0
 3814 0059 80       		.byte	-128
 3815 005a 01       		.byte	1
 3816 005b 00       		.byte	0
 3817 005c 00       		.byte	0
 3818 005d 80       		.byte	-128
 3819 005e 01       		.byte	1
 3820 005f 00       		.byte	0
 3821 0060 00       		.byte	0
 3822 0061 80       		.byte	-128
 3823 0062 01       		.byte	1
 3824 0063 00       		.byte	0
 3825 0064 00       		.byte	0
 3826 0065 80       		.byte	-128
 3827 0066 01       		.byte	1
 3828 0067 00       		.byte	0
GAS LISTING C:\Users\Karzan\AppData\Local\Temp\ccedaamX.s 			page 88


 3829 0068 00       		.byte	0
 3830 0069 80       		.byte	-128
 3831 006a 01       		.byte	1
 3832 006b 00       		.byte	0
 3833 006c 00       		.byte	0
 3834 006d 80       		.byte	-128
 3835 006e 01       		.byte	1
 3836 006f 00       		.byte	0
 3837 0070 00       		.byte	0
 3838 0071 80       		.byte	-128
 3839 0072 01       		.byte	1
 3840 0073 00       		.byte	0
 3841 0074 00       		.byte	0
 3842 0075 80       		.byte	-128
 3843 0076 01       		.byte	1
 3844 0077 00       		.byte	0
 3845 0078 00       		.byte	0
 3846 0079 80       		.byte	-128
 3847 007a 00       		.byte	0
 3848 007b 00       		.byte	0
 3849 007c 00       		.byte	0
 3850 007d 00       		.byte	0
 3851 007e 00       		.byte	0
 3852 007f 00       		.byte	0
 3853 0080 00       		.byte	0
 3854 0081 00       		.byte	0
 3855 0082 00       		.byte	0
 3856 0083 00       		.byte	0
 3857 0084 00       		.byte	0
 3858 0085 00       		.byte	0
 3859 0086 00       		.byte	0
 3860 0087 00       		.byte	0
 3861 0088 00       		.byte	0
 3862 0089 00       		.byte	0
 3863 008a 00       		.byte	0
 3864 008b 00       		.byte	0
 3865 008c 00       		.byte	0
 3866 008d 01       		.byte	1
 3867 008e 80       		.byte	-128
 3868 008f 01       		.byte	1
 3869 0090 00       		.byte	0
 3870 0091 FF       		.byte	-1
 3871 0092 FF       		.byte	-1
 3872 0093 01       		.byte	1
 3873 0094 00       		.byte	0
 3874 0095 03       		.byte	3
 3875 0096 80       		.byte	-128
 3876 0097 01       		.byte	1
 3877 0098 00       		.byte	0
 3878 0099 03       		.byte	3
 3879 009a 80       		.byte	-128
 3880 009b 01       		.byte	1
 3881 009c 00       		.byte	0
 3882 009d FF       		.byte	-1
 3883 009e FF       		.byte	-1
 3884 009f 01       		.byte	1
 3885 00a0 00       		.byte	0
GAS LISTING C:\Users\Karzan\AppData\Local\Temp\ccedaamX.s 			page 89


 3886 00a1 03       		.byte	3
 3887 00a2 80       		.byte	-128
 3888 00a3 01       		.byte	1
 3889 00a4 00       		.byte	0
 3890 00a5 03       		.byte	3
 3891 00a6 80       		.byte	-128
 3892 00a7 01       		.byte	1
 3893 00a8 00       		.byte	0
 3894 00a9 FF       		.byte	-1
 3895 00aa FF       		.byte	-1
 3896 00ab 01       		.byte	1
 3897 00ac 00       		.byte	0
 3898 00ad 81       		.byte	-127
 3899 00ae 81       		.byte	-127
 3900 00af 00       		.byte	0
 3901 00b0 00       		.byte	0
 3902 00b1 00       		.byte	0
 3903 00b2 03       		.byte	3
 3904 00b3 00       		.byte	0
 3905 00b4 00       		.byte	0
 3906 00b5 00       		.byte	0
 3907 00b6 03       		.byte	3
 3908 00b7 1C       		.byte	28
 3909 00b8 FC       		.byte	-4
 3910 00b9 FF       		.byte	-1
 3911 00ba FF       		.byte	-1
 3912 00bb 3F       		.byte	63
 3913 00bc 00       		.byte	0
 3914 00bd 00       		.byte	0
 3915 00be 40       		.byte	64
 3916 00bf 00       		.byte	0
 3917 00c0 00       		.byte	0
 3918 00c1 03       		.byte	3
 3919 00c2 C0       		.byte	-64
 3920 00c3 01       		.byte	1
 3921 00c4 00       		.byte	0
 3922 00c5 FF       		.byte	-1
 3923 00c6 FF       		.byte	-1
 3924 00c7 01       		.byte	1
 3925 00c8 00       		.byte	0
 3926 00c9 03       		.byte	3
 3927 00ca C0       		.byte	-64
 3928 00cb 00       		.byte	0
 3929 00cc 00       		.byte	0
 3930 00cd 03       		.byte	3
 3931 00ce C0       		.byte	-64
 3932 00cf 00       		.byte	0
 3933 00d0 00       		.byte	0
 3934 00d1 03       		.byte	3
 3935 00d2 C0       		.byte	-64
 3936 00d3 00       		.byte	0
 3937 00d4 00       		.byte	0
 3938 00d5 FF       		.byte	-1
 3939 00d6 FF       		.byte	-1
 3940 00d7 00       		.byte	0
 3941 00d8 00       		.byte	0
 3942 00d9 01       		.byte	1
GAS LISTING C:\Users\Karzan\AppData\Local\Temp\ccedaamX.s 			page 90


 3943 00da 41       		.byte	65
 3944 00db 00       		.byte	0
 3945 00dc 00       		.byte	0
 3946 00dd 04       		.byte	4
 3947 00de 01       		.byte	1
 3948 00df 00       		.byte	0
 3949 00e0 00       		.byte	0
 3950 00e1 0E       		.byte	14
 3951 00e2 71       		.byte	113
 3952 00e3 00       		.byte	0
 3953 00e4 00       		.byte	0
 3954 00e5 07       		.byte	7
 3955 00e6 81       		.byte	-127
 3956 00e7 01       		.byte	1
 3957 00e8 80       		.byte	-128
 3958 00e9 01       		.byte	1
 3959 00ea 01       		.byte	1
 3960 00eb 07       		.byte	7
 3961 00ec 60       		.byte	96
 3962 00ed 00       		.byte	0
 3963 00ee 01       		.byte	1
 3964 00ef 0E       		.byte	14
 3965 00f0 18       		.byte	24
 3966 00f1 98       		.byte	-104
 3967 00f2 01       		.byte	1
 3968 00f3 1C       		.byte	28
 3969 00f4 04       		.byte	4
 3970 00f5 E0       		.byte	-32
 3971 00f6 01       		.byte	1
 3972 00f7 18       		.byte	24
 3973 00f8 00       		.byte	0
 3974 00f9 C0       		.byte	-64
 3975 00fa 00       		.byte	0
 3976 00fb 00       		.byte	0
 3977 00fc 00       		.byte	0
 3978 00fd 00       		.byte	0
 3979 00fe 00       		.byte	0
 3980 00ff 00       		.byte	0
 3981 0100 00       		.byte	0
 3982 0101 00       		.byte	0
 3983 0102 00       		.byte	0
 3984 0103 00       		.byte	0
 3985 0104 00       		.byte	0
 3986 0105 00       		.byte	0
 3987 0106 00       		.byte	0
 3988 0107 00       		.byte	0
 3989 0108 00       		.byte	0
 3990 0109 00       		.byte	0
 3991 010a 00       		.byte	0
 3992 010b 08       		.byte	8
 3993 010c F0       		.byte	-16
 3994 010d FF       		.byte	-1
 3995 010e FF       		.byte	-1
 3996 010f 1F       		.byte	31
 3997 0110 30       		.byte	48
 3998 0111 00       		.byte	0
 3999 0112 00       		.byte	0
GAS LISTING C:\Users\Karzan\AppData\Local\Temp\ccedaamX.s 			page 91


 4000 0113 0C       		.byte	12
 4001 0114 30       		.byte	48
 4002 0115 00       		.byte	0
 4003 0116 00       		.byte	0
 4004 0117 0C       		.byte	12
 4005 0118 30       		.byte	48
 4006 0119 00       		.byte	0
 4007 011a 10       		.byte	16
 4008 011b 0C       		.byte	12
 4009 011c 30       		.byte	48
 4010 011d FE       		.byte	-2
 4011 011e 3F       		.byte	63
 4012 011f 0C       		.byte	12
 4013 0120 30       		.byte	48
 4014 0121 04       		.byte	4
 4015 0122 00       		.byte	0
 4016 0123 0C       		.byte	12
 4017 0124 30       		.byte	48
 4018 0125 00       		.byte	0
 4019 0126 00       		.byte	0
 4020 0127 0C       		.byte	12
 4021 0128 30       		.byte	48
 4022 0129 00       		.byte	0
 4023 012a 00       		.byte	0
 4024 012b 0C       		.byte	12
 4025 012c 30       		.byte	48
 4026 012d 00       		.byte	0
 4027 012e 00       		.byte	0
 4028 012f 0C       		.byte	12
 4029 0130 30       		.byte	48
 4030 0131 00       		.byte	0
 4031 0132 C0       		.byte	-64
 4032 0133 0C       		.byte	12
 4033 0134 F0       		.byte	-16
 4034 0135 FF       		.byte	-1
 4035 0136 FF       		.byte	-1
 4036 0137 0D       		.byte	13
 4037 0138 30       		.byte	48
 4038 0139 30       		.byte	48
 4039 013a 06       		.byte	6
 4040 013b 0E       		.byte	14
 4041 013c 30       		.byte	48
 4042 013d 30       		.byte	48
 4043 013e 06       		.byte	6
 4044 013f 0C       		.byte	12
 4045 0140 30       		.byte	48
 4046 0141 10       		.byte	16
 4047 0142 06       		.byte	6
 4048 0143 0C       		.byte	12
 4049 0144 30       		.byte	48
 4050 0145 10       		.byte	16
 4051 0146 06       		.byte	6
 4052 0147 0C       		.byte	12
 4053 0148 30       		.byte	48
 4054 0149 10       		.byte	16
 4055 014a 06       		.byte	6
 4056 014b 0C       		.byte	12
GAS LISTING C:\Users\Karzan\AppData\Local\Temp\ccedaamX.s 			page 92


 4057 014c 30       		.byte	48
 4058 014d 18       		.byte	24
 4059 014e 86       		.byte	-122
 4060 014f 0C       		.byte	12
 4061 0150 30       		.byte	48
 4062 0151 18       		.byte	24
 4063 0152 86       		.byte	-122
 4064 0153 0C       		.byte	12
 4065 0154 30       		.byte	48
 4066 0155 08       		.byte	8
 4067 0156 06       		.byte	6
 4068 0157 0D       		.byte	13
 4069 0158 30       		.byte	48
 4070 0159 0C       		.byte	12
 4071 015a 86       		.byte	-122
 4072 015b 0D       		.byte	13
 4073 015c 30       		.byte	48
 4074 015d 06       		.byte	6
 4075 015e EE       		.byte	-18
 4076 015f 0F       		.byte	15
 4077 0160 30       		.byte	48
 4078 0161 02       		.byte	2
 4079 0162 FC       		.byte	-4
 4080 0163 0D       		.byte	13
 4081 0164 30       		.byte	48
 4082 0165 01       		.byte	1
 4083 0166 00       		.byte	0
 4084 0167 0C       		.byte	12
 4085 0168 F0       		.byte	-16
 4086 0169 00       		.byte	0
 4087 016a 00       		.byte	0
 4088 016b 0C       		.byte	12
 4089 016c 30       		.byte	48
 4090 016d 00       		.byte	0
 4091 016e 00       		.byte	0
 4092 016f 0C       		.byte	12
 4093 0170 F0       		.byte	-16
 4094 0171 FF       		.byte	-1
 4095 0172 FF       		.byte	-1
 4096 0173 0F       		.byte	15
 4097 0174 30       		.byte	48
 4098 0175 00       		.byte	0
 4099 0176 00       		.byte	0
 4100 0177 0C       		.byte	12
 4101 0178 10       		.byte	16
 4102 0179 00       		.byte	0
 4103 017a 00       		.byte	0
 4104 017b 04       		.byte	4
 4105 017c 00       		.byte	0
 4106 017d 00       		.byte	0
 4107 017e 00       		.byte	0
 4108 017f 00       		.byte	0
 4109 0180 00       		.byte	0
 4110 0181 00       		.byte	0
 4111 0182 00       		.byte	0
 4112 0183 00       		.byte	0
 4113 0184 00       		.byte	0
GAS LISTING C:\Users\Karzan\AppData\Local\Temp\ccedaamX.s 			page 93


 4114 0185 00       		.byte	0
 4115 0186 00       		.byte	0
 4116 0187 00       		.byte	0
 4117 0188 00       		.byte	0
 4118 0189 C0       		.byte	-64
 4119 018a 00       		.byte	0
 4120 018b 00       		.byte	0
 4121 018c 00       		.byte	0
 4122 018d C0       		.byte	-64
 4123 018e 01       		.byte	1
 4124 018f 00       		.byte	0
 4125 0190 00       		.byte	0
 4126 0191 C0       		.byte	-64
 4127 0192 00       		.byte	0
 4128 0193 00       		.byte	0
 4129 0194 00       		.byte	0
 4130 0195 C0       		.byte	-64
 4131 0196 00       		.byte	0
 4132 0197 00       		.byte	0
 4133 0198 00       		.byte	0
 4134 0199 C0       		.byte	-64
 4135 019a 00       		.byte	0
 4136 019b 00       		.byte	0
 4137 019c 00       		.byte	0
 4138 019d C0       		.byte	-64
 4139 019e 00       		.byte	0
 4140 019f 00       		.byte	0
 4141 01a0 E0       		.byte	-32
 4142 01a1 FF       		.byte	-1
 4143 01a2 FF       		.byte	-1
 4144 01a3 03       		.byte	3
 4145 01a4 60       		.byte	96
 4146 01a5 C0       		.byte	-64
 4147 01a6 00       		.byte	0
 4148 01a7 03       		.byte	3
 4149 01a8 60       		.byte	96
 4150 01a9 C0       		.byte	-64
 4151 01aa 00       		.byte	0
 4152 01ab 03       		.byte	3
 4153 01ac 60       		.byte	96
 4154 01ad C0       		.byte	-64
 4155 01ae 00       		.byte	0
 4156 01af 03       		.byte	3
 4157 01b0 60       		.byte	96
 4158 01b1 C0       		.byte	-64
 4159 01b2 00       		.byte	0
 4160 01b3 03       		.byte	3
 4161 01b4 60       		.byte	96
 4162 01b5 C0       		.byte	-64
 4163 01b6 00       		.byte	0
 4164 01b7 03       		.byte	3
 4165 01b8 60       		.byte	96
 4166 01b9 C0       		.byte	-64
 4167 01ba 00       		.byte	0
 4168 01bb 03       		.byte	3
 4169 01bc E0       		.byte	-32
 4170 01bd FF       		.byte	-1
GAS LISTING C:\Users\Karzan\AppData\Local\Temp\ccedaamX.s 			page 94


 4171 01be FF       		.byte	-1
 4172 01bf 03       		.byte	3
 4173 01c0 60       		.byte	96
 4174 01c1 C0       		.byte	-64
 4175 01c2 00       		.byte	0
 4176 01c3 03       		.byte	3
 4177 01c4 60       		.byte	96
 4178 01c5 C0       		.byte	-64
 4179 01c6 00       		.byte	0
 4180 01c7 03       		.byte	3
 4181 01c8 60       		.byte	96
 4182 01c9 C0       		.byte	-64
 4183 01ca 00       		.byte	0
 4184 01cb 03       		.byte	3
 4185 01cc 60       		.byte	96
 4186 01cd C0       		.byte	-64
 4187 01ce 00       		.byte	0
 4188 01cf 03       		.byte	3
 4189 01d0 60       		.byte	96
 4190 01d1 C0       		.byte	-64
 4191 01d2 00       		.byte	0
 4192 01d3 03       		.byte	3
 4193 01d4 E0       		.byte	-32
 4194 01d5 FF       		.byte	-1
 4195 01d6 FF       		.byte	-1
 4196 01d7 03       		.byte	3
 4197 01d8 60       		.byte	96
 4198 01d9 C0       		.byte	-64
 4199 01da 00       		.byte	0
 4200 01db 01       		.byte	1
 4201 01dc 60       		.byte	96
 4202 01dd C0       		.byte	-64
 4203 01de 00       		.byte	0
 4204 01df 00       		.byte	0
 4205 01e0 00       		.byte	0
 4206 01e1 C0       		.byte	-64
 4207 01e2 00       		.byte	0
 4208 01e3 08       		.byte	8
 4209 01e4 00       		.byte	0
 4210 01e5 C0       		.byte	-64
 4211 01e6 00       		.byte	0
 4212 01e7 10       		.byte	16
 4213 01e8 00       		.byte	0
 4214 01e9 C0       		.byte	-64
 4215 01ea 00       		.byte	0
 4216 01eb 10       		.byte	16
 4217 01ec 00       		.byte	0
 4218 01ed C0       		.byte	-64
 4219 01ee 00       		.byte	0
 4220 01ef 18       		.byte	24
 4221 01f0 00       		.byte	0
 4222 01f1 C0       		.byte	-64
 4223 01f2 01       		.byte	1
 4224 01f3 38       		.byte	56
 4225 01f4 00       		.byte	0
 4226 01f5 80       		.byte	-128
 4227 01f6 FF       		.byte	-1
GAS LISTING C:\Users\Karzan\AppData\Local\Temp\ccedaamX.s 			page 95


 4228 01f7 1F       		.byte	31
 4229 01f8 00       		.byte	0
 4230 01f9 00       		.byte	0
 4231 01fa 00       		.byte	0
 4232 01fb 00       		.byte	0
 4233 01fc 00       		.byte	0
 4234 01fd 00       		.byte	0
 4235 01fe 00       		.byte	0
 4236 01ff 00       		.byte	0
 4237 0200 00       		.byte	0
 4238 0201 00       		.byte	0
 4239 0202 00       		.byte	0
 4240 0203 00       		.byte	0
 4241 0204 00       		.byte	0
 4242 0205 00       		.byte	0
 4243 0206 00       		.byte	0
 4244 0207 00       		.byte	0
 4245 0208 00       		.byte	0
 4246 0209 00       		.byte	0
 4247 020a 00       		.byte	0
 4248 020b 00       		.byte	0
 4249 020c 00       		.byte	0
 4250 020d 00       		.byte	0
 4251 020e 00       		.byte	0
 4252 020f 03       		.byte	3
 4253 0210 C0       		.byte	-64
 4254 0211 FF       		.byte	-1
 4255 0212 FF       		.byte	-1
 4256 0213 07       		.byte	7
 4257 0214 00       		.byte	0
 4258 0215 00       		.byte	0
 4259 0216 80       		.byte	-128
 4260 0217 07       		.byte	7
 4261 0218 00       		.byte	0
 4262 0219 00       		.byte	0
 4263 021a C0       		.byte	-64
 4264 021b 00       		.byte	0
 4265 021c 00       		.byte	0
 4266 021d 00       		.byte	0
 4267 021e 60       		.byte	96
 4268 021f 00       		.byte	0
 4269 0220 00       		.byte	0
 4270 0221 00       		.byte	0
 4271 0222 18       		.byte	24
 4272 0223 00       		.byte	0
 4273 0224 00       		.byte	0
 4274 0225 00       		.byte	0
 4275 0226 0C       		.byte	12
 4276 0227 00       		.byte	0
 4277 0228 00       		.byte	0
 4278 0229 80       		.byte	-128
 4279 022a 03       		.byte	3
 4280 022b 00       		.byte	0
 4281 022c 00       		.byte	0
 4282 022d 80       		.byte	-128
 4283 022e 03       		.byte	3
 4284 022f 00       		.byte	0
GAS LISTING C:\Users\Karzan\AppData\Local\Temp\ccedaamX.s 			page 96


 4285 0230 00       		.byte	0
 4286 0231 80       		.byte	-128
 4287 0232 01       		.byte	1
 4288 0233 00       		.byte	0
 4289 0234 00       		.byte	0
 4290 0235 80       		.byte	-128
 4291 0236 01       		.byte	1
 4292 0237 08       		.byte	8
 4293 0238 00       		.byte	0
 4294 0239 80       		.byte	-128
 4295 023a 01       		.byte	1
 4296 023b 1C       		.byte	28
 4297 023c FC       		.byte	-4
 4298 023d FF       		.byte	-1
 4299 023e FF       		.byte	-1
 4300 023f 3F       		.byte	63
 4301 0240 00       		.byte	0
 4302 0241 80       		.byte	-128
 4303 0242 01       		.byte	1
 4304 0243 00       		.byte	0
 4305 0244 00       		.byte	0
 4306 0245 80       		.byte	-128
 4307 0246 01       		.byte	1
 4308 0247 00       		.byte	0
 4309 0248 00       		.byte	0
 4310 0249 80       		.byte	-128
 4311 024a 01       		.byte	1
 4312 024b 00       		.byte	0
 4313 024c 00       		.byte	0
 4314 024d 80       		.byte	-128
 4315 024e 01       		.byte	1
 4316 024f 00       		.byte	0
 4317 0250 00       		.byte	0
 4318 0251 80       		.byte	-128
 4319 0252 01       		.byte	1
 4320 0253 00       		.byte	0
 4321 0254 00       		.byte	0
 4322 0255 80       		.byte	-128
 4323 0256 01       		.byte	1
 4324 0257 00       		.byte	0
 4325 0258 00       		.byte	0
 4326 0259 80       		.byte	-128
 4327 025a 01       		.byte	1
 4328 025b 00       		.byte	0
 4329 025c 00       		.byte	0
 4330 025d 80       		.byte	-128
 4331 025e 01       		.byte	1
 4332 025f 00       		.byte	0
 4333 0260 00       		.byte	0
 4334 0261 80       		.byte	-128
 4335 0262 01       		.byte	1
 4336 0263 00       		.byte	0
 4337 0264 00       		.byte	0
 4338 0265 80       		.byte	-128
 4339 0266 01       		.byte	1
 4340 0267 00       		.byte	0
 4341 0268 00       		.byte	0
GAS LISTING C:\Users\Karzan\AppData\Local\Temp\ccedaamX.s 			page 97


 4342 0269 80       		.byte	-128
 4343 026a 01       		.byte	1
 4344 026b 00       		.byte	0
 4345 026c 00       		.byte	0
 4346 026d 80       		.byte	-128
 4347 026e 01       		.byte	1
 4348 026f 00       		.byte	0
 4349 0270 00       		.byte	0
 4350 0271 FC       		.byte	-4
 4351 0272 01       		.byte	1
 4352 0273 00       		.byte	0
 4353 0274 00       		.byte	0
 4354 0275 E0       		.byte	-32
 4355 0276 00       		.byte	0
 4356 0277 00       		.byte	0
 4357 0278 00       		.byte	0
 4358 0279 40       		.byte	64
 4359 027a 00       		.byte	0
 4360 027b 00       		.byte	0
 4361 027c 00       		.byte	0
 4362 027d 00       		.byte	0
 4363 027e 00       		.byte	0
 4364 027f 00       		.byte	0
 4365              		.section	.rodata.LCD_ShowNum1.cst4,"aM",@progbits,4
 4366              		.align	2
 4367              	.LC1:
 4368 0000 0000C842 		.word	1120403456
 4369              		.section	.rodata.asc2_1608,"a"
 4370              		.align	2
 4371              		.set	.LANCHOR6,. + 0
 4374              	asc2_1608:
 4375 0000 00       		.byte	0
 4376 0001 00       		.byte	0
 4377 0002 00       		.byte	0
 4378 0003 00       		.byte	0
 4379 0004 00       		.byte	0
 4380 0005 00       		.byte	0
 4381 0006 00       		.byte	0
 4382 0007 00       		.byte	0
 4383 0008 00       		.byte	0
 4384 0009 00       		.byte	0
 4385 000a 00       		.byte	0
 4386 000b 00       		.byte	0
 4387 000c 00       		.byte	0
 4388 000d 00       		.byte	0
 4389 000e 00       		.byte	0
 4390 000f 00       		.byte	0
 4391 0010 00       		.byte	0
 4392 0011 00       		.byte	0
 4393 0012 00       		.byte	0
 4394 0013 08       		.byte	8
 4395 0014 08       		.byte	8
 4396 0015 08       		.byte	8
 4397 0016 08       		.byte	8
 4398 0017 08       		.byte	8
 4399 0018 08       		.byte	8
 4400 0019 08       		.byte	8
GAS LISTING C:\Users\Karzan\AppData\Local\Temp\ccedaamX.s 			page 98


 4401 001a 00       		.byte	0
 4402 001b 00       		.byte	0
 4403 001c 18       		.byte	24
 4404 001d 18       		.byte	24
 4405 001e 00       		.byte	0
 4406 001f 00       		.byte	0
 4407 0020 00       		.byte	0
 4408 0021 48       		.byte	72
 4409 0022 6C       		.byte	108
 4410 0023 24       		.byte	36
 4411 0024 12       		.byte	18
 4412 0025 00       		.byte	0
 4413 0026 00       		.byte	0
 4414 0027 00       		.byte	0
 4415 0028 00       		.byte	0
 4416 0029 00       		.byte	0
 4417 002a 00       		.byte	0
 4418 002b 00       		.byte	0
 4419 002c 00       		.byte	0
 4420 002d 00       		.byte	0
 4421 002e 00       		.byte	0
 4422 002f 00       		.byte	0
 4423 0030 00       		.byte	0
 4424 0031 00       		.byte	0
 4425 0032 00       		.byte	0
 4426 0033 24       		.byte	36
 4427 0034 24       		.byte	36
 4428 0035 24       		.byte	36
 4429 0036 7F       		.byte	127
 4430 0037 12       		.byte	18
 4431 0038 12       		.byte	18
 4432 0039 12       		.byte	18
 4433 003a 7F       		.byte	127
 4434 003b 12       		.byte	18
 4435 003c 12       		.byte	18
 4436 003d 12       		.byte	18
 4437 003e 00       		.byte	0
 4438 003f 00       		.byte	0
 4439 0040 00       		.byte	0
 4440 0041 00       		.byte	0
 4441 0042 08       		.byte	8
 4442 0043 1C       		.byte	28
 4443 0044 2A       		.byte	42
 4444 0045 2A       		.byte	42
 4445 0046 0A       		.byte	10
 4446 0047 0C       		.byte	12
 4447 0048 18       		.byte	24
 4448 0049 28       		.byte	40
 4449 004a 28       		.byte	40
 4450 004b 2A       		.byte	42
 4451 004c 2A       		.byte	42
 4452 004d 1C       		.byte	28
 4453 004e 08       		.byte	8
 4454 004f 08       		.byte	8
 4455 0050 00       		.byte	0
 4456 0051 00       		.byte	0
 4457 0052 00       		.byte	0
GAS LISTING C:\Users\Karzan\AppData\Local\Temp\ccedaamX.s 			page 99


 4458 0053 22       		.byte	34
 4459 0054 25       		.byte	37
 4460 0055 15       		.byte	21
 4461 0056 15       		.byte	21
 4462 0057 15       		.byte	21
 4463 0058 2A       		.byte	42
 4464 0059 58       		.byte	88
 4465 005a 54       		.byte	84
 4466 005b 54       		.byte	84
 4467 005c 54       		.byte	84
 4468 005d 22       		.byte	34
 4469 005e 00       		.byte	0
 4470 005f 00       		.byte	0
 4471 0060 00       		.byte	0
 4472 0061 00       		.byte	0
 4473 0062 00       		.byte	0
 4474 0063 0C       		.byte	12
 4475 0064 12       		.byte	18
 4476 0065 12       		.byte	18
 4477 0066 12       		.byte	18
 4478 0067 0A       		.byte	10
 4479 0068 76       		.byte	118
 4480 0069 25       		.byte	37
 4481 006a 29       		.byte	41
 4482 006b 11       		.byte	17
 4483 006c 91       		.byte	-111
 4484 006d 6E       		.byte	110
 4485 006e 00       		.byte	0
 4486 006f 00       		.byte	0
 4487 0070 00       		.byte	0
 4488 0071 06       		.byte	6
 4489 0072 06       		.byte	6
 4490 0073 04       		.byte	4
 4491 0074 03       		.byte	3
 4492 0075 00       		.byte	0
 4493 0076 00       		.byte	0
 4494 0077 00       		.byte	0
 4495 0078 00       		.byte	0
 4496 0079 00       		.byte	0
 4497 007a 00       		.byte	0
 4498 007b 00       		.byte	0
 4499 007c 00       		.byte	0
 4500 007d 00       		.byte	0
 4501 007e 00       		.byte	0
 4502 007f 00       		.byte	0
 4503 0080 00       		.byte	0
 4504 0081 40       		.byte	64
 4505 0082 20       		.byte	32
 4506 0083 10       		.byte	16
 4507 0084 10       		.byte	16
 4508 0085 08       		.byte	8
 4509 0086 08       		.byte	8
 4510 0087 08       		.byte	8
 4511 0088 08       		.byte	8
 4512 0089 08       		.byte	8
 4513 008a 08       		.byte	8
 4514 008b 10       		.byte	16
GAS LISTING C:\Users\Karzan\AppData\Local\Temp\ccedaamX.s 			page 100


 4515 008c 10       		.byte	16
 4516 008d 20       		.byte	32
 4517 008e 40       		.byte	64
 4518 008f 00       		.byte	0
 4519 0090 00       		.byte	0
 4520 0091 02       		.byte	2
 4521 0092 04       		.byte	4
 4522 0093 08       		.byte	8
 4523 0094 08       		.byte	8
 4524 0095 10       		.byte	16
 4525 0096 10       		.byte	16
 4526 0097 10       		.byte	16
 4527 0098 10       		.byte	16
 4528 0099 10       		.byte	16
 4529 009a 10       		.byte	16
 4530 009b 08       		.byte	8
 4531 009c 08       		.byte	8
 4532 009d 04       		.byte	4
 4533 009e 02       		.byte	2
 4534 009f 00       		.byte	0
 4535 00a0 00       		.byte	0
 4536 00a1 00       		.byte	0
 4537 00a2 00       		.byte	0
 4538 00a3 00       		.byte	0
 4539 00a4 08       		.byte	8
 4540 00a5 08       		.byte	8
 4541 00a6 6B       		.byte	107
 4542 00a7 1C       		.byte	28
 4543 00a8 1C       		.byte	28
 4544 00a9 6B       		.byte	107
 4545 00aa 08       		.byte	8
 4546 00ab 08       		.byte	8
 4547 00ac 00       		.byte	0
 4548 00ad 00       		.byte	0
 4549 00ae 00       		.byte	0
 4550 00af 00       		.byte	0
 4551 00b0 00       		.byte	0
 4552 00b1 00       		.byte	0
 4553 00b2 00       		.byte	0
 4554 00b3 00       		.byte	0
 4555 00b4 08       		.byte	8
 4556 00b5 08       		.byte	8
 4557 00b6 08       		.byte	8
 4558 00b7 08       		.byte	8
 4559 00b8 7F       		.byte	127
 4560 00b9 08       		.byte	8
 4561 00ba 08       		.byte	8
 4562 00bb 08       		.byte	8
 4563 00bc 08       		.byte	8
 4564 00bd 00       		.byte	0
 4565 00be 00       		.byte	0
 4566 00bf 00       		.byte	0
 4567 00c0 00       		.byte	0
 4568 00c1 00       		.byte	0
 4569 00c2 00       		.byte	0
 4570 00c3 00       		.byte	0
 4571 00c4 00       		.byte	0
GAS LISTING C:\Users\Karzan\AppData\Local\Temp\ccedaamX.s 			page 101


 4572 00c5 00       		.byte	0
 4573 00c6 00       		.byte	0
 4574 00c7 00       		.byte	0
 4575 00c8 00       		.byte	0
 4576 00c9 00       		.byte	0
 4577 00ca 00       		.byte	0
 4578 00cb 00       		.byte	0
 4579 00cc 06       		.byte	6
 4580 00cd 06       		.byte	6
 4581 00ce 04       		.byte	4
 4582 00cf 03       		.byte	3
 4583 00d0 00       		.byte	0
 4584 00d1 00       		.byte	0
 4585 00d2 00       		.byte	0
 4586 00d3 00       		.byte	0
 4587 00d4 00       		.byte	0
 4588 00d5 00       		.byte	0
 4589 00d6 00       		.byte	0
 4590 00d7 00       		.byte	0
 4591 00d8 FE       		.byte	-2
 4592 00d9 00       		.byte	0
 4593 00da 00       		.byte	0
 4594 00db 00       		.byte	0
 4595 00dc 00       		.byte	0
 4596 00dd 00       		.byte	0
 4597 00de 00       		.byte	0
 4598 00df 00       		.byte	0
 4599 00e0 00       		.byte	0
 4600 00e1 00       		.byte	0
 4601 00e2 00       		.byte	0
 4602 00e3 00       		.byte	0
 4603 00e4 00       		.byte	0
 4604 00e5 00       		.byte	0
 4605 00e6 00       		.byte	0
 4606 00e7 00       		.byte	0
 4607 00e8 00       		.byte	0
 4608 00e9 00       		.byte	0
 4609 00ea 00       		.byte	0
 4610 00eb 00       		.byte	0
 4611 00ec 06       		.byte	6
 4612 00ed 06       		.byte	6
 4613 00ee 00       		.byte	0
 4614 00ef 00       		.byte	0
 4615 00f0 00       		.byte	0
 4616 00f1 00       		.byte	0
 4617 00f2 80       		.byte	-128
 4618 00f3 40       		.byte	64
 4619 00f4 40       		.byte	64
 4620 00f5 20       		.byte	32
 4621 00f6 20       		.byte	32
 4622 00f7 10       		.byte	16
 4623 00f8 10       		.byte	16
 4624 00f9 08       		.byte	8
 4625 00fa 08       		.byte	8
 4626 00fb 04       		.byte	4
 4627 00fc 04       		.byte	4
 4628 00fd 02       		.byte	2
GAS LISTING C:\Users\Karzan\AppData\Local\Temp\ccedaamX.s 			page 102


 4629 00fe 02       		.byte	2
 4630 00ff 00       		.byte	0
 4631 0100 00       		.byte	0
 4632 0101 00       		.byte	0
 4633 0102 00       		.byte	0
 4634 0103 18       		.byte	24
 4635 0104 24       		.byte	36
 4636 0105 42       		.byte	66
 4637 0106 42       		.byte	66
 4638 0107 42       		.byte	66
 4639 0108 42       		.byte	66
 4640 0109 42       		.byte	66
 4641 010a 42       		.byte	66
 4642 010b 42       		.byte	66
 4643 010c 24       		.byte	36
 4644 010d 18       		.byte	24
 4645 010e 00       		.byte	0
 4646 010f 00       		.byte	0
 4647 0110 00       		.byte	0
 4648 0111 00       		.byte	0
 4649 0112 00       		.byte	0
 4650 0113 08       		.byte	8
 4651 0114 0E       		.byte	14
 4652 0115 08       		.byte	8
 4653 0116 08       		.byte	8
 4654 0117 08       		.byte	8
 4655 0118 08       		.byte	8
 4656 0119 08       		.byte	8
 4657 011a 08       		.byte	8
 4658 011b 08       		.byte	8
 4659 011c 08       		.byte	8
 4660 011d 3E       		.byte	62
 4661 011e 00       		.byte	0
 4662 011f 00       		.byte	0
 4663 0120 00       		.byte	0
 4664 0121 00       		.byte	0
 4665 0122 00       		.byte	0
 4666 0123 3C       		.byte	60
 4667 0124 42       		.byte	66
 4668 0125 42       		.byte	66
 4669 0126 42       		.byte	66
 4670 0127 20       		.byte	32
 4671 0128 20       		.byte	32
 4672 0129 10       		.byte	16
 4673 012a 08       		.byte	8
 4674 012b 04       		.byte	4
 4675 012c 42       		.byte	66
 4676 012d 7E       		.byte	126
 4677 012e 00       		.byte	0
 4678 012f 00       		.byte	0
 4679 0130 00       		.byte	0
 4680 0131 00       		.byte	0
 4681 0132 00       		.byte	0
 4682 0133 3C       		.byte	60
 4683 0134 42       		.byte	66
 4684 0135 42       		.byte	66
 4685 0136 20       		.byte	32
GAS LISTING C:\Users\Karzan\AppData\Local\Temp\ccedaamX.s 			page 103


 4686 0137 18       		.byte	24
 4687 0138 20       		.byte	32
 4688 0139 40       		.byte	64
 4689 013a 40       		.byte	64
 4690 013b 42       		.byte	66
 4691 013c 22       		.byte	34
 4692 013d 1C       		.byte	28
 4693 013e 00       		.byte	0
 4694 013f 00       		.byte	0
 4695 0140 00       		.byte	0
 4696 0141 00       		.byte	0
 4697 0142 00       		.byte	0
 4698 0143 20       		.byte	32
 4699 0144 30       		.byte	48
 4700 0145 28       		.byte	40
 4701 0146 24       		.byte	36
 4702 0147 24       		.byte	36
 4703 0148 22       		.byte	34
 4704 0149 22       		.byte	34
 4705 014a 7E       		.byte	126
 4706 014b 20       		.byte	32
 4707 014c 20       		.byte	32
 4708 014d 78       		.byte	120
 4709 014e 00       		.byte	0
 4710 014f 00       		.byte	0
 4711 0150 00       		.byte	0
 4712 0151 00       		.byte	0
 4713 0152 00       		.byte	0
 4714 0153 7E       		.byte	126
 4715 0154 02       		.byte	2
 4716 0155 02       		.byte	2
 4717 0156 02       		.byte	2
 4718 0157 1A       		.byte	26
 4719 0158 26       		.byte	38
 4720 0159 40       		.byte	64
 4721 015a 40       		.byte	64
 4722 015b 42       		.byte	66
 4723 015c 22       		.byte	34
 4724 015d 1C       		.byte	28
 4725 015e 00       		.byte	0
 4726 015f 00       		.byte	0
 4727 0160 00       		.byte	0
 4728 0161 00       		.byte	0
 4729 0162 00       		.byte	0
 4730 0163 38       		.byte	56
 4731 0164 24       		.byte	36
 4732 0165 02       		.byte	2
 4733 0166 02       		.byte	2
 4734 0167 1A       		.byte	26
 4735 0168 26       		.byte	38
 4736 0169 42       		.byte	66
 4737 016a 42       		.byte	66
 4738 016b 42       		.byte	66
 4739 016c 24       		.byte	36
 4740 016d 18       		.byte	24
 4741 016e 00       		.byte	0
 4742 016f 00       		.byte	0
GAS LISTING C:\Users\Karzan\AppData\Local\Temp\ccedaamX.s 			page 104


 4743 0170 00       		.byte	0
 4744 0171 00       		.byte	0
 4745 0172 00       		.byte	0
 4746 0173 7E       		.byte	126
 4747 0174 22       		.byte	34
 4748 0175 22       		.byte	34
 4749 0176 10       		.byte	16
 4750 0177 10       		.byte	16
 4751 0178 08       		.byte	8
 4752 0179 08       		.byte	8
 4753 017a 08       		.byte	8
 4754 017b 08       		.byte	8
 4755 017c 08       		.byte	8
 4756 017d 08       		.byte	8
 4757 017e 00       		.byte	0
 4758 017f 00       		.byte	0
 4759 0180 00       		.byte	0
 4760 0181 00       		.byte	0
 4761 0182 00       		.byte	0
 4762 0183 3C       		.byte	60
 4763 0184 42       		.byte	66
 4764 0185 42       		.byte	66
 4765 0186 42       		.byte	66
 4766 0187 24       		.byte	36
 4767 0188 18       		.byte	24
 4768 0189 24       		.byte	36
 4769 018a 42       		.byte	66
 4770 018b 42       		.byte	66
 4771 018c 42       		.byte	66
 4772 018d 3C       		.byte	60
 4773 018e 00       		.byte	0
 4774 018f 00       		.byte	0
 4775 0190 00       		.byte	0
 4776 0191 00       		.byte	0
 4777 0192 00       		.byte	0
 4778 0193 18       		.byte	24
 4779 0194 24       		.byte	36
 4780 0195 42       		.byte	66
 4781 0196 42       		.byte	66
 4782 0197 42       		.byte	66
 4783 0198 64       		.byte	100
 4784 0199 58       		.byte	88
 4785 019a 40       		.byte	64
 4786 019b 40       		.byte	64
 4787 019c 24       		.byte	36
 4788 019d 1C       		.byte	28
 4789 019e 00       		.byte	0
 4790 019f 00       		.byte	0
 4791 01a0 00       		.byte	0
 4792 01a1 00       		.byte	0
 4793 01a2 00       		.byte	0
 4794 01a3 00       		.byte	0
 4795 01a4 00       		.byte	0
 4796 01a5 00       		.byte	0
 4797 01a6 18       		.byte	24
 4798 01a7 18       		.byte	24
 4799 01a8 00       		.byte	0
GAS LISTING C:\Users\Karzan\AppData\Local\Temp\ccedaamX.s 			page 105


 4800 01a9 00       		.byte	0
 4801 01aa 00       		.byte	0
 4802 01ab 00       		.byte	0
 4803 01ac 18       		.byte	24
 4804 01ad 18       		.byte	24
 4805 01ae 00       		.byte	0
 4806 01af 00       		.byte	0
 4807 01b0 00       		.byte	0
 4808 01b1 00       		.byte	0
 4809 01b2 00       		.byte	0
 4810 01b3 00       		.byte	0
 4811 01b4 00       		.byte	0
 4812 01b5 00       		.byte	0
 4813 01b6 00       		.byte	0
 4814 01b7 08       		.byte	8
 4815 01b8 00       		.byte	0
 4816 01b9 00       		.byte	0
 4817 01ba 00       		.byte	0
 4818 01bb 00       		.byte	0
 4819 01bc 00       		.byte	0
 4820 01bd 08       		.byte	8
 4821 01be 08       		.byte	8
 4822 01bf 04       		.byte	4
 4823 01c0 00       		.byte	0
 4824 01c1 00       		.byte	0
 4825 01c2 00       		.byte	0
 4826 01c3 40       		.byte	64
 4827 01c4 20       		.byte	32
 4828 01c5 10       		.byte	16
 4829 01c6 08       		.byte	8
 4830 01c7 04       		.byte	4
 4831 01c8 02       		.byte	2
 4832 01c9 04       		.byte	4
 4833 01ca 08       		.byte	8
 4834 01cb 10       		.byte	16
 4835 01cc 20       		.byte	32
 4836 01cd 40       		.byte	64
 4837 01ce 00       		.byte	0
 4838 01cf 00       		.byte	0
 4839 01d0 00       		.byte	0
 4840 01d1 00       		.byte	0
 4841 01d2 00       		.byte	0
 4842 01d3 00       		.byte	0
 4843 01d4 00       		.byte	0
 4844 01d5 00       		.byte	0
 4845 01d6 7F       		.byte	127
 4846 01d7 00       		.byte	0
 4847 01d8 00       		.byte	0
 4848 01d9 00       		.byte	0
 4849 01da 7F       		.byte	127
 4850 01db 00       		.byte	0
 4851 01dc 00       		.byte	0
 4852 01dd 00       		.byte	0
 4853 01de 00       		.byte	0
 4854 01df 00       		.byte	0
 4855 01e0 00       		.byte	0
 4856 01e1 00       		.byte	0
GAS LISTING C:\Users\Karzan\AppData\Local\Temp\ccedaamX.s 			page 106


 4857 01e2 00       		.byte	0
 4858 01e3 02       		.byte	2
 4859 01e4 04       		.byte	4
 4860 01e5 08       		.byte	8
 4861 01e6 10       		.byte	16
 4862 01e7 20       		.byte	32
 4863 01e8 40       		.byte	64
 4864 01e9 20       		.byte	32
 4865 01ea 10       		.byte	16
 4866 01eb 08       		.byte	8
 4867 01ec 04       		.byte	4
 4868 01ed 02       		.byte	2
 4869 01ee 00       		.byte	0
 4870 01ef 00       		.byte	0
 4871 01f0 00       		.byte	0
 4872 01f1 00       		.byte	0
 4873 01f2 00       		.byte	0
 4874 01f3 3C       		.byte	60
 4875 01f4 42       		.byte	66
 4876 01f5 42       		.byte	66
 4877 01f6 46       		.byte	70
 4878 01f7 40       		.byte	64
 4879 01f8 20       		.byte	32
 4880 01f9 10       		.byte	16
 4881 01fa 10       		.byte	16
 4882 01fb 00       		.byte	0
 4883 01fc 18       		.byte	24
 4884 01fd 18       		.byte	24
 4885 01fe 00       		.byte	0
 4886 01ff 00       		.byte	0
 4887 0200 00       		.byte	0
 4888 0201 00       		.byte	0
 4889 0202 00       		.byte	0
 4890 0203 1C       		.byte	28
 4891 0204 22       		.byte	34
 4892 0205 5A       		.byte	90
 4893 0206 55       		.byte	85
 4894 0207 55       		.byte	85
 4895 0208 55       		.byte	85
 4896 0209 55       		.byte	85
 4897 020a 2D       		.byte	45
 4898 020b 42       		.byte	66
 4899 020c 22       		.byte	34
 4900 020d 1C       		.byte	28
 4901 020e 00       		.byte	0
 4902 020f 00       		.byte	0
 4903 0210 00       		.byte	0
 4904 0211 00       		.byte	0
 4905 0212 00       		.byte	0
 4906 0213 08       		.byte	8
 4907 0214 08       		.byte	8
 4908 0215 18       		.byte	24
 4909 0216 14       		.byte	20
 4910 0217 14       		.byte	20
 4911 0218 24       		.byte	36
 4912 0219 3C       		.byte	60
 4913 021a 22       		.byte	34
GAS LISTING C:\Users\Karzan\AppData\Local\Temp\ccedaamX.s 			page 107


 4914 021b 42       		.byte	66
 4915 021c 42       		.byte	66
 4916 021d E7       		.byte	-25
 4917 021e 00       		.byte	0
 4918 021f 00       		.byte	0
 4919 0220 00       		.byte	0
 4920 0221 00       		.byte	0
 4921 0222 00       		.byte	0
 4922 0223 1F       		.byte	31
 4923 0224 22       		.byte	34
 4924 0225 22       		.byte	34
 4925 0226 22       		.byte	34
 4926 0227 1E       		.byte	30
 4927 0228 22       		.byte	34
 4928 0229 42       		.byte	66
 4929 022a 42       		.byte	66
 4930 022b 42       		.byte	66
 4931 022c 22       		.byte	34
 4932 022d 1F       		.byte	31
 4933 022e 00       		.byte	0
 4934 022f 00       		.byte	0
 4935 0230 00       		.byte	0
 4936 0231 00       		.byte	0
 4937 0232 00       		.byte	0
 4938 0233 7C       		.byte	124
 4939 0234 42       		.byte	66
 4940 0235 42       		.byte	66
 4941 0236 01       		.byte	1
 4942 0237 01       		.byte	1
 4943 0238 01       		.byte	1
 4944 0239 01       		.byte	1
 4945 023a 01       		.byte	1
 4946 023b 42       		.byte	66
 4947 023c 22       		.byte	34
 4948 023d 1C       		.byte	28
 4949 023e 00       		.byte	0
 4950 023f 00       		.byte	0
 4951 0240 00       		.byte	0
 4952 0241 00       		.byte	0
 4953 0242 00       		.byte	0
 4954 0243 1F       		.byte	31
 4955 0244 22       		.byte	34
 4956 0245 42       		.byte	66
 4957 0246 42       		.byte	66
 4958 0247 42       		.byte	66
 4959 0248 42       		.byte	66
 4960 0249 42       		.byte	66
 4961 024a 42       		.byte	66
 4962 024b 42       		.byte	66
 4963 024c 22       		.byte	34
 4964 024d 1F       		.byte	31
 4965 024e 00       		.byte	0
 4966 024f 00       		.byte	0
 4967 0250 00       		.byte	0
 4968 0251 00       		.byte	0
 4969 0252 00       		.byte	0
 4970 0253 3F       		.byte	63
GAS LISTING C:\Users\Karzan\AppData\Local\Temp\ccedaamX.s 			page 108


 4971 0254 42       		.byte	66
 4972 0255 12       		.byte	18
 4973 0256 12       		.byte	18
 4974 0257 1E       		.byte	30
 4975 0258 12       		.byte	18
 4976 0259 12       		.byte	18
 4977 025a 02       		.byte	2
 4978 025b 42       		.byte	66
 4979 025c 42       		.byte	66
 4980 025d 3F       		.byte	63
 4981 025e 00       		.byte	0
 4982 025f 00       		.byte	0
 4983 0260 00       		.byte	0
 4984 0261 00       		.byte	0
 4985 0262 00       		.byte	0
 4986 0263 3F       		.byte	63
 4987 0264 42       		.byte	66
 4988 0265 12       		.byte	18
 4989 0266 12       		.byte	18
 4990 0267 1E       		.byte	30
 4991 0268 12       		.byte	18
 4992 0269 12       		.byte	18
 4993 026a 02       		.byte	2
 4994 026b 02       		.byte	2
 4995 026c 02       		.byte	2
 4996 026d 07       		.byte	7
 4997 026e 00       		.byte	0
 4998 026f 00       		.byte	0
 4999 0270 00       		.byte	0
 5000 0271 00       		.byte	0
 5001 0272 00       		.byte	0
 5002 0273 3C       		.byte	60
 5003 0274 22       		.byte	34
 5004 0275 22       		.byte	34
 5005 0276 01       		.byte	1
 5006 0277 01       		.byte	1
 5007 0278 01       		.byte	1
 5008 0279 71       		.byte	113
 5009 027a 21       		.byte	33
 5010 027b 22       		.byte	34
 5011 027c 22       		.byte	34
 5012 027d 1C       		.byte	28
 5013 027e 00       		.byte	0
 5014 027f 00       		.byte	0
 5015 0280 00       		.byte	0
 5016 0281 00       		.byte	0
 5017 0282 00       		.byte	0
 5018 0283 E7       		.byte	-25
 5019 0284 42       		.byte	66
 5020 0285 42       		.byte	66
 5021 0286 42       		.byte	66
 5022 0287 42       		.byte	66
 5023 0288 7E       		.byte	126
 5024 0289 42       		.byte	66
 5025 028a 42       		.byte	66
 5026 028b 42       		.byte	66
 5027 028c 42       		.byte	66
GAS LISTING C:\Users\Karzan\AppData\Local\Temp\ccedaamX.s 			page 109


 5028 028d E7       		.byte	-25
 5029 028e 00       		.byte	0
 5030 028f 00       		.byte	0
 5031 0290 00       		.byte	0
 5032 0291 00       		.byte	0
 5033 0292 00       		.byte	0
 5034 0293 3E       		.byte	62
 5035 0294 08       		.byte	8
 5036 0295 08       		.byte	8
 5037 0296 08       		.byte	8
 5038 0297 08       		.byte	8
 5039 0298 08       		.byte	8
 5040 0299 08       		.byte	8
 5041 029a 08       		.byte	8
 5042 029b 08       		.byte	8
 5043 029c 08       		.byte	8
 5044 029d 3E       		.byte	62
 5045 029e 00       		.byte	0
 5046 029f 00       		.byte	0
 5047 02a0 00       		.byte	0
 5048 02a1 00       		.byte	0
 5049 02a2 00       		.byte	0
 5050 02a3 7C       		.byte	124
 5051 02a4 10       		.byte	16
 5052 02a5 10       		.byte	16
 5053 02a6 10       		.byte	16
 5054 02a7 10       		.byte	16
 5055 02a8 10       		.byte	16
 5056 02a9 10       		.byte	16
 5057 02aa 10       		.byte	16
 5058 02ab 10       		.byte	16
 5059 02ac 10       		.byte	16
 5060 02ad 10       		.byte	16
 5061 02ae 11       		.byte	17
 5062 02af 0F       		.byte	15
 5063 02b0 00       		.byte	0
 5064 02b1 00       		.byte	0
 5065 02b2 00       		.byte	0
 5066 02b3 77       		.byte	119
 5067 02b4 22       		.byte	34
 5068 02b5 12       		.byte	18
 5069 02b6 0A       		.byte	10
 5070 02b7 0E       		.byte	14
 5071 02b8 0A       		.byte	10
 5072 02b9 12       		.byte	18
 5073 02ba 12       		.byte	18
 5074 02bb 22       		.byte	34
 5075 02bc 22       		.byte	34
 5076 02bd 77       		.byte	119
 5077 02be 00       		.byte	0
 5078 02bf 00       		.byte	0
 5079 02c0 00       		.byte	0
 5080 02c1 00       		.byte	0
 5081 02c2 00       		.byte	0
 5082 02c3 07       		.byte	7
 5083 02c4 02       		.byte	2
 5084 02c5 02       		.byte	2
GAS LISTING C:\Users\Karzan\AppData\Local\Temp\ccedaamX.s 			page 110


 5085 02c6 02       		.byte	2
 5086 02c7 02       		.byte	2
 5087 02c8 02       		.byte	2
 5088 02c9 02       		.byte	2
 5089 02ca 02       		.byte	2
 5090 02cb 02       		.byte	2
 5091 02cc 42       		.byte	66
 5092 02cd 7F       		.byte	127
 5093 02ce 00       		.byte	0
 5094 02cf 00       		.byte	0
 5095 02d0 00       		.byte	0
 5096 02d1 00       		.byte	0
 5097 02d2 00       		.byte	0
 5098 02d3 77       		.byte	119
 5099 02d4 36       		.byte	54
 5100 02d5 36       		.byte	54
 5101 02d6 36       		.byte	54
 5102 02d7 36       		.byte	54
 5103 02d8 2A       		.byte	42
 5104 02d9 2A       		.byte	42
 5105 02da 2A       		.byte	42
 5106 02db 2A       		.byte	42
 5107 02dc 2A       		.byte	42
 5108 02dd 6B       		.byte	107
 5109 02de 00       		.byte	0
 5110 02df 00       		.byte	0
 5111 02e0 00       		.byte	0
 5112 02e1 00       		.byte	0
 5113 02e2 00       		.byte	0
 5114 02e3 E3       		.byte	-29
 5115 02e4 46       		.byte	70
 5116 02e5 46       		.byte	70
 5117 02e6 4A       		.byte	74
 5118 02e7 4A       		.byte	74
 5119 02e8 52       		.byte	82
 5120 02e9 52       		.byte	82
 5121 02ea 52       		.byte	82
 5122 02eb 62       		.byte	98
 5123 02ec 62       		.byte	98
 5124 02ed 47       		.byte	71
 5125 02ee 00       		.byte	0
 5126 02ef 00       		.byte	0
 5127 02f0 00       		.byte	0
 5128 02f1 00       		.byte	0
 5129 02f2 00       		.byte	0
 5130 02f3 1C       		.byte	28
 5131 02f4 22       		.byte	34
 5132 02f5 41       		.byte	65
 5133 02f6 41       		.byte	65
 5134 02f7 41       		.byte	65
 5135 02f8 41       		.byte	65
 5136 02f9 41       		.byte	65
 5137 02fa 41       		.byte	65
 5138 02fb 41       		.byte	65
 5139 02fc 22       		.byte	34
 5140 02fd 1C       		.byte	28
 5141 02fe 00       		.byte	0
GAS LISTING C:\Users\Karzan\AppData\Local\Temp\ccedaamX.s 			page 111


 5142 02ff 00       		.byte	0
 5143 0300 00       		.byte	0
 5144 0301 00       		.byte	0
 5145 0302 00       		.byte	0
 5146 0303 3F       		.byte	63
 5147 0304 42       		.byte	66
 5148 0305 42       		.byte	66
 5149 0306 42       		.byte	66
 5150 0307 42       		.byte	66
 5151 0308 3E       		.byte	62
 5152 0309 02       		.byte	2
 5153 030a 02       		.byte	2
 5154 030b 02       		.byte	2
 5155 030c 02       		.byte	2
 5156 030d 07       		.byte	7
 5157 030e 00       		.byte	0
 5158 030f 00       		.byte	0
 5159 0310 00       		.byte	0
 5160 0311 00       		.byte	0
 5161 0312 00       		.byte	0
 5162 0313 1C       		.byte	28
 5163 0314 22       		.byte	34
 5164 0315 41       		.byte	65
 5165 0316 41       		.byte	65
 5166 0317 41       		.byte	65
 5167 0318 41       		.byte	65
 5168 0319 41       		.byte	65
 5169 031a 4D       		.byte	77
 5170 031b 53       		.byte	83
 5171 031c 32       		.byte	50
 5172 031d 1C       		.byte	28
 5173 031e 60       		.byte	96
 5174 031f 00       		.byte	0
 5175 0320 00       		.byte	0
 5176 0321 00       		.byte	0
 5177 0322 00       		.byte	0
 5178 0323 3F       		.byte	63
 5179 0324 42       		.byte	66
 5180 0325 42       		.byte	66
 5181 0326 42       		.byte	66
 5182 0327 3E       		.byte	62
 5183 0328 12       		.byte	18
 5184 0329 12       		.byte	18
 5185 032a 22       		.byte	34
 5186 032b 22       		.byte	34
 5187 032c 42       		.byte	66
 5188 032d C7       		.byte	-57
 5189 032e 00       		.byte	0
 5190 032f 00       		.byte	0
 5191 0330 00       		.byte	0
 5192 0331 00       		.byte	0
 5193 0332 00       		.byte	0
 5194 0333 7C       		.byte	124
 5195 0334 42       		.byte	66
 5196 0335 42       		.byte	66
 5197 0336 02       		.byte	2
 5198 0337 04       		.byte	4
GAS LISTING C:\Users\Karzan\AppData\Local\Temp\ccedaamX.s 			page 112


 5199 0338 18       		.byte	24
 5200 0339 20       		.byte	32
 5201 033a 40       		.byte	64
 5202 033b 42       		.byte	66
 5203 033c 42       		.byte	66
 5204 033d 3E       		.byte	62
 5205 033e 00       		.byte	0
 5206 033f 00       		.byte	0
 5207 0340 00       		.byte	0
 5208 0341 00       		.byte	0
 5209 0342 00       		.byte	0
 5210 0343 7F       		.byte	127
 5211 0344 49       		.byte	73
 5212 0345 08       		.byte	8
 5213 0346 08       		.byte	8
 5214 0347 08       		.byte	8
 5215 0348 08       		.byte	8
 5216 0349 08       		.byte	8
 5217 034a 08       		.byte	8
 5218 034b 08       		.byte	8
 5219 034c 08       		.byte	8
 5220 034d 1C       		.byte	28
 5221 034e 00       		.byte	0
 5222 034f 00       		.byte	0
 5223 0350 00       		.byte	0
 5224 0351 00       		.byte	0
 5225 0352 00       		.byte	0
 5226 0353 E7       		.byte	-25
 5227 0354 42       		.byte	66
 5228 0355 42       		.byte	66
 5229 0356 42       		.byte	66
 5230 0357 42       		.byte	66
 5231 0358 42       		.byte	66
 5232 0359 42       		.byte	66
 5233 035a 42       		.byte	66
 5234 035b 42       		.byte	66
 5235 035c 42       		.byte	66
 5236 035d 3C       		.byte	60
 5237 035e 00       		.byte	0
 5238 035f 00       		.byte	0
 5239 0360 00       		.byte	0
 5240 0361 00       		.byte	0
 5241 0362 00       		.byte	0
 5242 0363 E7       		.byte	-25
 5243 0364 42       		.byte	66
 5244 0365 42       		.byte	66
 5245 0366 22       		.byte	34
 5246 0367 24       		.byte	36
 5247 0368 24       		.byte	36
 5248 0369 14       		.byte	20
 5249 036a 14       		.byte	20
 5250 036b 18       		.byte	24
 5251 036c 08       		.byte	8
 5252 036d 08       		.byte	8
 5253 036e 00       		.byte	0
 5254 036f 00       		.byte	0
 5255 0370 00       		.byte	0
GAS LISTING C:\Users\Karzan\AppData\Local\Temp\ccedaamX.s 			page 113


 5256 0371 00       		.byte	0
 5257 0372 00       		.byte	0
 5258 0373 6B       		.byte	107
 5259 0374 49       		.byte	73
 5260 0375 49       		.byte	73
 5261 0376 49       		.byte	73
 5262 0377 49       		.byte	73
 5263 0378 55       		.byte	85
 5264 0379 55       		.byte	85
 5265 037a 36       		.byte	54
 5266 037b 22       		.byte	34
 5267 037c 22       		.byte	34
 5268 037d 22       		.byte	34
 5269 037e 00       		.byte	0
 5270 037f 00       		.byte	0
 5271 0380 00       		.byte	0
 5272 0381 00       		.byte	0
 5273 0382 00       		.byte	0
 5274 0383 E7       		.byte	-25
 5275 0384 42       		.byte	66
 5276 0385 24       		.byte	36
 5277 0386 24       		.byte	36
 5278 0387 18       		.byte	24
 5279 0388 18       		.byte	24
 5280 0389 18       		.byte	24
 5281 038a 24       		.byte	36
 5282 038b 24       		.byte	36
 5283 038c 42       		.byte	66
 5284 038d E7       		.byte	-25
 5285 038e 00       		.byte	0
 5286 038f 00       		.byte	0
 5287 0390 00       		.byte	0
 5288 0391 00       		.byte	0
 5289 0392 00       		.byte	0
 5290 0393 77       		.byte	119
 5291 0394 22       		.byte	34
 5292 0395 22       		.byte	34
 5293 0396 14       		.byte	20
 5294 0397 14       		.byte	20
 5295 0398 08       		.byte	8
 5296 0399 08       		.byte	8
 5297 039a 08       		.byte	8
 5298 039b 08       		.byte	8
 5299 039c 08       		.byte	8
 5300 039d 1C       		.byte	28
 5301 039e 00       		.byte	0
 5302 039f 00       		.byte	0
 5303 03a0 00       		.byte	0
 5304 03a1 00       		.byte	0
 5305 03a2 00       		.byte	0
 5306 03a3 7E       		.byte	126
 5307 03a4 21       		.byte	33
 5308 03a5 20       		.byte	32
 5309 03a6 10       		.byte	16
 5310 03a7 10       		.byte	16
 5311 03a8 08       		.byte	8
 5312 03a9 04       		.byte	4
GAS LISTING C:\Users\Karzan\AppData\Local\Temp\ccedaamX.s 			page 114


 5313 03aa 04       		.byte	4
 5314 03ab 42       		.byte	66
 5315 03ac 42       		.byte	66
 5316 03ad 3F       		.byte	63
 5317 03ae 00       		.byte	0
 5318 03af 00       		.byte	0
 5319 03b0 00       		.byte	0
 5320 03b1 78       		.byte	120
 5321 03b2 08       		.byte	8
 5322 03b3 08       		.byte	8
 5323 03b4 08       		.byte	8
 5324 03b5 08       		.byte	8
 5325 03b6 08       		.byte	8
 5326 03b7 08       		.byte	8
 5327 03b8 08       		.byte	8
 5328 03b9 08       		.byte	8
 5329 03ba 08       		.byte	8
 5330 03bb 08       		.byte	8
 5331 03bc 08       		.byte	8
 5332 03bd 08       		.byte	8
 5333 03be 78       		.byte	120
 5334 03bf 00       		.byte	0
 5335 03c0 00       		.byte	0
 5336 03c1 00       		.byte	0
 5337 03c2 02       		.byte	2
 5338 03c3 02       		.byte	2
 5339 03c4 04       		.byte	4
 5340 03c5 04       		.byte	4
 5341 03c6 08       		.byte	8
 5342 03c7 08       		.byte	8
 5343 03c8 08       		.byte	8
 5344 03c9 10       		.byte	16
 5345 03ca 10       		.byte	16
 5346 03cb 20       		.byte	32
 5347 03cc 20       		.byte	32
 5348 03cd 20       		.byte	32
 5349 03ce 40       		.byte	64
 5350 03cf 40       		.byte	64
 5351 03d0 00       		.byte	0
 5352 03d1 1E       		.byte	30
 5353 03d2 10       		.byte	16
 5354 03d3 10       		.byte	16
 5355 03d4 10       		.byte	16
 5356 03d5 10       		.byte	16
 5357 03d6 10       		.byte	16
 5358 03d7 10       		.byte	16
 5359 03d8 10       		.byte	16
 5360 03d9 10       		.byte	16
 5361 03da 10       		.byte	16
 5362 03db 10       		.byte	16
 5363 03dc 10       		.byte	16
 5364 03dd 10       		.byte	16
 5365 03de 1E       		.byte	30
 5366 03df 00       		.byte	0
 5367 03e0 00       		.byte	0
 5368 03e1 38       		.byte	56
 5369 03e2 44       		.byte	68
GAS LISTING C:\Users\Karzan\AppData\Local\Temp\ccedaamX.s 			page 115


 5370 03e3 00       		.byte	0
 5371 03e4 00       		.byte	0
 5372 03e5 00       		.byte	0
 5373 03e6 00       		.byte	0
 5374 03e7 00       		.byte	0
 5375 03e8 00       		.byte	0
 5376 03e9 00       		.byte	0
 5377 03ea 00       		.byte	0
 5378 03eb 00       		.byte	0
 5379 03ec 00       		.byte	0
 5380 03ed 00       		.byte	0
 5381 03ee 00       		.byte	0
 5382 03ef 00       		.byte	0
 5383 03f0 00       		.byte	0
 5384 03f1 00       		.byte	0
 5385 03f2 00       		.byte	0
 5386 03f3 00       		.byte	0
 5387 03f4 00       		.byte	0
 5388 03f5 00       		.byte	0
 5389 03f6 00       		.byte	0
 5390 03f7 00       		.byte	0
 5391 03f8 00       		.byte	0
 5392 03f9 00       		.byte	0
 5393 03fa 00       		.byte	0
 5394 03fb 00       		.byte	0
 5395 03fc 00       		.byte	0
 5396 03fd 00       		.byte	0
 5397 03fe 00       		.byte	0
 5398 03ff FF       		.byte	-1
 5399 0400 00       		.byte	0
 5400 0401 06       		.byte	6
 5401 0402 08       		.byte	8
 5402 0403 00       		.byte	0
 5403 0404 00       		.byte	0
 5404 0405 00       		.byte	0
 5405 0406 00       		.byte	0
 5406 0407 00       		.byte	0
 5407 0408 00       		.byte	0
 5408 0409 00       		.byte	0
 5409 040a 00       		.byte	0
 5410 040b 00       		.byte	0
 5411 040c 00       		.byte	0
 5412 040d 00       		.byte	0
 5413 040e 00       		.byte	0
 5414 040f 00       		.byte	0
 5415 0410 00       		.byte	0
 5416 0411 00       		.byte	0
 5417 0412 00       		.byte	0
 5418 0413 00       		.byte	0
 5419 0414 00       		.byte	0
 5420 0415 00       		.byte	0
 5421 0416 00       		.byte	0
 5422 0417 3C       		.byte	60
 5423 0418 42       		.byte	66
 5424 0419 78       		.byte	120
 5425 041a 44       		.byte	68
 5426 041b 42       		.byte	66
GAS LISTING C:\Users\Karzan\AppData\Local\Temp\ccedaamX.s 			page 116


 5427 041c 42       		.byte	66
 5428 041d FC       		.byte	-4
 5429 041e 00       		.byte	0
 5430 041f 00       		.byte	0
 5431 0420 00       		.byte	0
 5432 0421 00       		.byte	0
 5433 0422 00       		.byte	0
 5434 0423 03       		.byte	3
 5435 0424 02       		.byte	2
 5436 0425 02       		.byte	2
 5437 0426 02       		.byte	2
 5438 0427 1A       		.byte	26
 5439 0428 26       		.byte	38
 5440 0429 42       		.byte	66
 5441 042a 42       		.byte	66
 5442 042b 42       		.byte	66
 5443 042c 26       		.byte	38
 5444 042d 1A       		.byte	26
 5445 042e 00       		.byte	0
 5446 042f 00       		.byte	0
 5447 0430 00       		.byte	0
 5448 0431 00       		.byte	0
 5449 0432 00       		.byte	0
 5450 0433 00       		.byte	0
 5451 0434 00       		.byte	0
 5452 0435 00       		.byte	0
 5453 0436 00       		.byte	0
 5454 0437 38       		.byte	56
 5455 0438 44       		.byte	68
 5456 0439 02       		.byte	2
 5457 043a 02       		.byte	2
 5458 043b 02       		.byte	2
 5459 043c 44       		.byte	68
 5460 043d 38       		.byte	56
 5461 043e 00       		.byte	0
 5462 043f 00       		.byte	0
 5463 0440 00       		.byte	0
 5464 0441 00       		.byte	0
 5465 0442 00       		.byte	0
 5466 0443 60       		.byte	96
 5467 0444 40       		.byte	64
 5468 0445 40       		.byte	64
 5469 0446 40       		.byte	64
 5470 0447 78       		.byte	120
 5471 0448 44       		.byte	68
 5472 0449 42       		.byte	66
 5473 044a 42       		.byte	66
 5474 044b 42       		.byte	66
 5475 044c 64       		.byte	100
 5476 044d D8       		.byte	-40
 5477 044e 00       		.byte	0
 5478 044f 00       		.byte	0
 5479 0450 00       		.byte	0
 5480 0451 00       		.byte	0
 5481 0452 00       		.byte	0
 5482 0453 00       		.byte	0
 5483 0454 00       		.byte	0
GAS LISTING C:\Users\Karzan\AppData\Local\Temp\ccedaamX.s 			page 117


 5484 0455 00       		.byte	0
 5485 0456 00       		.byte	0
 5486 0457 3C       		.byte	60
 5487 0458 42       		.byte	66
 5488 0459 7E       		.byte	126
 5489 045a 02       		.byte	2
 5490 045b 02       		.byte	2
 5491 045c 42       		.byte	66
 5492 045d 3C       		.byte	60
 5493 045e 00       		.byte	0
 5494 045f 00       		.byte	0
 5495 0460 00       		.byte	0
 5496 0461 00       		.byte	0
 5497 0462 00       		.byte	0
 5498 0463 F0       		.byte	-16
 5499 0464 88       		.byte	-120
 5500 0465 08       		.byte	8
 5501 0466 08       		.byte	8
 5502 0467 7E       		.byte	126
 5503 0468 08       		.byte	8
 5504 0469 08       		.byte	8
 5505 046a 08       		.byte	8
 5506 046b 08       		.byte	8
 5507 046c 08       		.byte	8
 5508 046d 3E       		.byte	62
 5509 046e 00       		.byte	0
 5510 046f 00       		.byte	0
 5511 0470 00       		.byte	0
 5512 0471 00       		.byte	0
 5513 0472 00       		.byte	0
 5514 0473 00       		.byte	0
 5515 0474 00       		.byte	0
 5516 0475 00       		.byte	0
 5517 0476 00       		.byte	0
 5518 0477 7C       		.byte	124
 5519 0478 22       		.byte	34
 5520 0479 22       		.byte	34
 5521 047a 1C       		.byte	28
 5522 047b 02       		.byte	2
 5523 047c 3C       		.byte	60
 5524 047d 42       		.byte	66
 5525 047e 42       		.byte	66
 5526 047f 3C       		.byte	60
 5527 0480 00       		.byte	0
 5528 0481 00       		.byte	0
 5529 0482 00       		.byte	0
 5530 0483 03       		.byte	3
 5531 0484 02       		.byte	2
 5532 0485 02       		.byte	2
 5533 0486 02       		.byte	2
 5534 0487 3A       		.byte	58
 5535 0488 46       		.byte	70
 5536 0489 42       		.byte	66
 5537 048a 42       		.byte	66
 5538 048b 42       		.byte	66
 5539 048c 42       		.byte	66
 5540 048d E7       		.byte	-25
GAS LISTING C:\Users\Karzan\AppData\Local\Temp\ccedaamX.s 			page 118


 5541 048e 00       		.byte	0
 5542 048f 00       		.byte	0
 5543 0490 00       		.byte	0
 5544 0491 00       		.byte	0
 5545 0492 00       		.byte	0
 5546 0493 0C       		.byte	12
 5547 0494 0C       		.byte	12
 5548 0495 00       		.byte	0
 5549 0496 00       		.byte	0
 5550 0497 0E       		.byte	14
 5551 0498 08       		.byte	8
 5552 0499 08       		.byte	8
 5553 049a 08       		.byte	8
 5554 049b 08       		.byte	8
 5555 049c 08       		.byte	8
 5556 049d 3E       		.byte	62
 5557 049e 00       		.byte	0
 5558 049f 00       		.byte	0
 5559 04a0 00       		.byte	0
 5560 04a1 00       		.byte	0
 5561 04a2 00       		.byte	0
 5562 04a3 30       		.byte	48
 5563 04a4 30       		.byte	48
 5564 04a5 00       		.byte	0
 5565 04a6 00       		.byte	0
 5566 04a7 38       		.byte	56
 5567 04a8 20       		.byte	32
 5568 04a9 20       		.byte	32
 5569 04aa 20       		.byte	32
 5570 04ab 20       		.byte	32
 5571 04ac 20       		.byte	32
 5572 04ad 20       		.byte	32
 5573 04ae 22       		.byte	34
 5574 04af 1E       		.byte	30
 5575 04b0 00       		.byte	0
 5576 04b1 00       		.byte	0
 5577 04b2 00       		.byte	0
 5578 04b3 03       		.byte	3
 5579 04b4 02       		.byte	2
 5580 04b5 02       		.byte	2
 5581 04b6 02       		.byte	2
 5582 04b7 72       		.byte	114
 5583 04b8 12       		.byte	18
 5584 04b9 0A       		.byte	10
 5585 04ba 16       		.byte	22
 5586 04bb 12       		.byte	18
 5587 04bc 22       		.byte	34
 5588 04bd 77       		.byte	119
 5589 04be 00       		.byte	0
 5590 04bf 00       		.byte	0
 5591 04c0 00       		.byte	0
 5592 04c1 00       		.byte	0
 5593 04c2 00       		.byte	0
 5594 04c3 0E       		.byte	14
 5595 04c4 08       		.byte	8
 5596 04c5 08       		.byte	8
 5597 04c6 08       		.byte	8
GAS LISTING C:\Users\Karzan\AppData\Local\Temp\ccedaamX.s 			page 119


 5598 04c7 08       		.byte	8
 5599 04c8 08       		.byte	8
 5600 04c9 08       		.byte	8
 5601 04ca 08       		.byte	8
 5602 04cb 08       		.byte	8
 5603 04cc 08       		.byte	8
 5604 04cd 3E       		.byte	62
 5605 04ce 00       		.byte	0
 5606 04cf 00       		.byte	0
 5607 04d0 00       		.byte	0
 5608 04d1 00       		.byte	0
 5609 04d2 00       		.byte	0
 5610 04d3 00       		.byte	0
 5611 04d4 00       		.byte	0
 5612 04d5 00       		.byte	0
 5613 04d6 00       		.byte	0
 5614 04d7 7F       		.byte	127
 5615 04d8 92       		.byte	-110
 5616 04d9 92       		.byte	-110
 5617 04da 92       		.byte	-110
 5618 04db 92       		.byte	-110
 5619 04dc 92       		.byte	-110
 5620 04dd B7       		.byte	-73
 5621 04de 00       		.byte	0
 5622 04df 00       		.byte	0
 5623 04e0 00       		.byte	0
 5624 04e1 00       		.byte	0
 5625 04e2 00       		.byte	0
 5626 04e3 00       		.byte	0
 5627 04e4 00       		.byte	0
 5628 04e5 00       		.byte	0
 5629 04e6 00       		.byte	0
 5630 04e7 3B       		.byte	59
 5631 04e8 46       		.byte	70
 5632 04e9 42       		.byte	66
 5633 04ea 42       		.byte	66
 5634 04eb 42       		.byte	66
 5635 04ec 42       		.byte	66
 5636 04ed E7       		.byte	-25
 5637 04ee 00       		.byte	0
 5638 04ef 00       		.byte	0
 5639 04f0 00       		.byte	0
 5640 04f1 00       		.byte	0
 5641 04f2 00       		.byte	0
 5642 04f3 00       		.byte	0
 5643 04f4 00       		.byte	0
 5644 04f5 00       		.byte	0
 5645 04f6 00       		.byte	0
 5646 04f7 3C       		.byte	60
 5647 04f8 42       		.byte	66
 5648 04f9 42       		.byte	66
 5649 04fa 42       		.byte	66
 5650 04fb 42       		.byte	66
 5651 04fc 42       		.byte	66
 5652 04fd 3C       		.byte	60
 5653 04fe 00       		.byte	0
 5654 04ff 00       		.byte	0
GAS LISTING C:\Users\Karzan\AppData\Local\Temp\ccedaamX.s 			page 120


 5655 0500 00       		.byte	0
 5656 0501 00       		.byte	0
 5657 0502 00       		.byte	0
 5658 0503 00       		.byte	0
 5659 0504 00       		.byte	0
 5660 0505 00       		.byte	0
 5661 0506 00       		.byte	0
 5662 0507 1B       		.byte	27
 5663 0508 26       		.byte	38
 5664 0509 42       		.byte	66
 5665 050a 42       		.byte	66
 5666 050b 42       		.byte	66
 5667 050c 22       		.byte	34
 5668 050d 1E       		.byte	30
 5669 050e 02       		.byte	2
 5670 050f 07       		.byte	7
 5671 0510 00       		.byte	0
 5672 0511 00       		.byte	0
 5673 0512 00       		.byte	0
 5674 0513 00       		.byte	0
 5675 0514 00       		.byte	0
 5676 0515 00       		.byte	0
 5677 0516 00       		.byte	0
 5678 0517 78       		.byte	120
 5679 0518 44       		.byte	68
 5680 0519 42       		.byte	66
 5681 051a 42       		.byte	66
 5682 051b 42       		.byte	66
 5683 051c 44       		.byte	68
 5684 051d 78       		.byte	120
 5685 051e 40       		.byte	64
 5686 051f E0       		.byte	-32
 5687 0520 00       		.byte	0
 5688 0521 00       		.byte	0
 5689 0522 00       		.byte	0
 5690 0523 00       		.byte	0
 5691 0524 00       		.byte	0
 5692 0525 00       		.byte	0
 5693 0526 00       		.byte	0
 5694 0527 77       		.byte	119
 5695 0528 4C       		.byte	76
 5696 0529 04       		.byte	4
 5697 052a 04       		.byte	4
 5698 052b 04       		.byte	4
 5699 052c 04       		.byte	4
 5700 052d 1F       		.byte	31
 5701 052e 00       		.byte	0
 5702 052f 00       		.byte	0
 5703 0530 00       		.byte	0
 5704 0531 00       		.byte	0
 5705 0532 00       		.byte	0
 5706 0533 00       		.byte	0
 5707 0534 00       		.byte	0
 5708 0535 00       		.byte	0
 5709 0536 00       		.byte	0
 5710 0537 7C       		.byte	124
 5711 0538 42       		.byte	66
GAS LISTING C:\Users\Karzan\AppData\Local\Temp\ccedaamX.s 			page 121


 5712 0539 02       		.byte	2
 5713 053a 3C       		.byte	60
 5714 053b 40       		.byte	64
 5715 053c 42       		.byte	66
 5716 053d 3E       		.byte	62
 5717 053e 00       		.byte	0
 5718 053f 00       		.byte	0
 5719 0540 00       		.byte	0
 5720 0541 00       		.byte	0
 5721 0542 00       		.byte	0
 5722 0543 00       		.byte	0
 5723 0544 00       		.byte	0
 5724 0545 08       		.byte	8
 5725 0546 08       		.byte	8
 5726 0547 3E       		.byte	62
 5727 0548 08       		.byte	8
 5728 0549 08       		.byte	8
 5729 054a 08       		.byte	8
 5730 054b 08       		.byte	8
 5731 054c 08       		.byte	8
 5732 054d 30       		.byte	48
 5733 054e 00       		.byte	0
 5734 054f 00       		.byte	0
 5735 0550 00       		.byte	0
 5736 0551 00       		.byte	0
 5737 0552 00       		.byte	0
 5738 0553 00       		.byte	0
 5739 0554 00       		.byte	0
 5740 0555 00       		.byte	0
 5741 0556 00       		.byte	0
 5742 0557 63       		.byte	99
 5743 0558 42       		.byte	66
 5744 0559 42       		.byte	66
 5745 055a 42       		.byte	66
 5746 055b 42       		.byte	66
 5747 055c 62       		.byte	98
 5748 055d DC       		.byte	-36
 5749 055e 00       		.byte	0
 5750 055f 00       		.byte	0
 5751 0560 00       		.byte	0
 5752 0561 00       		.byte	0
 5753 0562 00       		.byte	0
 5754 0563 00       		.byte	0
 5755 0564 00       		.byte	0
 5756 0565 00       		.byte	0
 5757 0566 00       		.byte	0
 5758 0567 E7       		.byte	-25
 5759 0568 42       		.byte	66
 5760 0569 24       		.byte	36
 5761 056a 24       		.byte	36
 5762 056b 14       		.byte	20
 5763 056c 08       		.byte	8
 5764 056d 08       		.byte	8
 5765 056e 00       		.byte	0
 5766 056f 00       		.byte	0
 5767 0570 00       		.byte	0
 5768 0571 00       		.byte	0
GAS LISTING C:\Users\Karzan\AppData\Local\Temp\ccedaamX.s 			page 122


 5769 0572 00       		.byte	0
 5770 0573 00       		.byte	0
 5771 0574 00       		.byte	0
 5772 0575 00       		.byte	0
 5773 0576 00       		.byte	0
 5774 0577 EB       		.byte	-21
 5775 0578 49       		.byte	73
 5776 0579 49       		.byte	73
 5777 057a 55       		.byte	85
 5778 057b 55       		.byte	85
 5779 057c 22       		.byte	34
 5780 057d 22       		.byte	34
 5781 057e 00       		.byte	0
 5782 057f 00       		.byte	0
 5783 0580 00       		.byte	0
 5784 0581 00       		.byte	0
 5785 0582 00       		.byte	0
 5786 0583 00       		.byte	0
 5787 0584 00       		.byte	0
 5788 0585 00       		.byte	0
 5789 0586 00       		.byte	0
 5790 0587 76       		.byte	118
 5791 0588 24       		.byte	36
 5792 0589 18       		.byte	24
 5793 058a 18       		.byte	24
 5794 058b 18       		.byte	24
 5795 058c 24       		.byte	36
 5796 058d 6E       		.byte	110
 5797 058e 00       		.byte	0
 5798 058f 00       		.byte	0
 5799 0590 00       		.byte	0
 5800 0591 00       		.byte	0
 5801 0592 00       		.byte	0
 5802 0593 00       		.byte	0
 5803 0594 00       		.byte	0
 5804 0595 00       		.byte	0
 5805 0596 00       		.byte	0
 5806 0597 E7       		.byte	-25
 5807 0598 42       		.byte	66
 5808 0599 24       		.byte	36
 5809 059a 24       		.byte	36
 5810 059b 14       		.byte	20
 5811 059c 18       		.byte	24
 5812 059d 08       		.byte	8
 5813 059e 08       		.byte	8
 5814 059f 07       		.byte	7
 5815 05a0 00       		.byte	0
 5816 05a1 00       		.byte	0
 5817 05a2 00       		.byte	0
 5818 05a3 00       		.byte	0
 5819 05a4 00       		.byte	0
 5820 05a5 00       		.byte	0
 5821 05a6 00       		.byte	0
 5822 05a7 7E       		.byte	126
 5823 05a8 22       		.byte	34
 5824 05a9 10       		.byte	16
 5825 05aa 08       		.byte	8
