GAS LISTING C:\Users\Karzan\AppData\Local\Temp\cc75Aivq.s 			page 1


   1              		.file	"lcd_light_gui.c"
   2              		.option nopic
   3              		.attribute arch, "rv32i2p0_m2p0_a2p0_c2p0"
   4              		.attribute unaligned_access, 0
   5              		.attribute stack_align, 16
   6              		.text
   7              	.Ltext0:
   8              		.cfi_sections	.debug_frame
   9              		.section	.text.gui_init_graph,"ax",@progbits
  10              		.align	1
  11              		.globl	gui_init_graph
  13              	gui_init_graph:
  14              	.LFB5:
  15              		.file 1 "lcd_light_gui.c"
   1:lcd_light_gui.c **** #include "lcd_light_gui.h"
   2:lcd_light_gui.c **** #include "stdlib.h"
   3:lcd_light_gui.c **** 
   4:lcd_light_gui.c **** #define DONT_GRAPH  0x7FFFFFFF
   5:lcd_light_gui.c **** 
   6:lcd_light_gui.c **** #define NO_WRITE    0xFF
   7:lcd_light_gui.c **** 
   8:lcd_light_gui.c **** 
   9:lcd_light_gui.c **** static
  10:lcd_light_gui.c **** void minmax_int(int32_t* p_min, int32_t* p_max, graph_internals_t* graph);
  11:lcd_light_gui.c **** 
  12:lcd_light_gui.c **** int gui_init_graph(graph_config_t* graph, uint32_t width, uint32_t height){
  16              		.loc 1 12 75
  17              		.cfi_startproc
  18              	.LVL0:
  13:lcd_light_gui.c ****     graph->internals = malloc(sizeof(graph_internals_t));
  19              		.loc 1 13 5
  12:lcd_light_gui.c ****     graph->internals = malloc(sizeof(graph_internals_t));
  20              		.loc 1 12 75 is_stmt 0
  21 0000 0111     		addi	sp,sp,-32
  22              	.LCFI0:
  23              		.cfi_def_cfa_offset 32
  24 0002 4AC8     		sw	s2,16(sp)
  25              		.cfi_offset 18, -16
  26 0004 2A89     		mv	s2,a0
  27              		.loc 1 13 24
  28 0006 5145     		li	a0,20
  29              	.LVL1:
  12:lcd_light_gui.c ****     graph->internals = malloc(sizeof(graph_internals_t));
  30              		.loc 1 12 75
  31 0008 06CE     		sw	ra,28(sp)
  32 000a 22CC     		sw	s0,24(sp)
  33 000c 26CA     		sw	s1,20(sp)
  34              		.cfi_offset 1, -4
  35              		.cfi_offset 8, -8
  36              		.cfi_offset 9, -12
  12:lcd_light_gui.c ****     graph->internals = malloc(sizeof(graph_internals_t));
  37              		.loc 1 12 75
  38 000e 32C6     		sw	a2,12(sp)
  39 0010 AE84     		mv	s1,a1
  40              		.loc 1 13 24
  41 0012 97000000 		call	malloc
  41      E7800000 
GAS LISTING C:\Users\Karzan\AppData\Local\Temp\cc75Aivq.s 			page 2


  42              	.LVL2:
  14:lcd_light_gui.c ****     graph->internals->width = width;
  15:lcd_light_gui.c ****     graph->internals->height = height;
  43              		.loc 1 15 30
  44 001a 3246     		lw	a2,12(sp)
  13:lcd_light_gui.c ****     graph->internals->width = width;
  45              		.loc 1 13 24
  46 001c 2A84     		mv	s0,a0
  13:lcd_light_gui.c ****     graph->internals->width = width;
  47              		.loc 1 13 22
  48 001e 232CA900 		sw	a0,24(s2)
  14:lcd_light_gui.c ****     graph->internals->width = width;
  49              		.loc 1 14 5 is_stmt 1
  50              		.loc 1 15 30 is_stmt 0
  51 0022 10C9     		sw	a2,16(a0)
  14:lcd_light_gui.c ****     graph->internals->width = width;
  52              		.loc 1 14 29
  53 0024 44C5     		sw	s1,12(a0)
  54              		.loc 1 15 5 is_stmt 1
  16:lcd_light_gui.c ****     graph->internals->index = 0;
  55              		.loc 1 16 5
  56              		.loc 1 16 29 is_stmt 0
  57 0026 23220500 		sw	zero,4(a0)
  17:lcd_light_gui.c ****     graph->internals->graph_buffer = malloc(sizeof(int32_t) * width);
  58              		.loc 1 17 5 is_stmt 1
  59              		.loc 1 17 38 is_stmt 0
  60 002a 13952400 		slli	a0,s1,2
  61 002e 97000000 		call	malloc
  61      E7800000 
  62              	.LVL3:
  63              		.loc 1 17 36
  64 0036 08C0     		sw	a0,0(s0)
  18:lcd_light_gui.c ****     graph->internals->last_write = malloc(sizeof(uint8_t) * width);
  65              		.loc 1 18 5 is_stmt 1
  66              		.loc 1 18 36 is_stmt 0
  67 0038 2685     		mv	a0,s1
  68 003a 97000000 		call	malloc
  68      E7800000 
  69              	.LVL4:
  70              	.LBB2:
  19:lcd_light_gui.c **** 
  20:lcd_light_gui.c ****     for(int i = 0; i < width; i++){
  21:lcd_light_gui.c ****         graph->internals->last_write[i] = NO_WRITE;
  22:lcd_light_gui.c ****         graph->internals->graph_buffer[i] = DONT_GRAPH;
  71              		.loc 1 22 43
  72 0042 37070080 		li	a4,-2147483648
  73              	.LBE2:
  18:lcd_light_gui.c ****     graph->internals->last_write = malloc(sizeof(uint8_t) * width);
  74              		.loc 1 18 34
  75 0046 08C4     		sw	a0,8(s0)
  20:lcd_light_gui.c ****         graph->internals->last_write[i] = NO_WRITE;
  76              		.loc 1 20 5 is_stmt 1
  77              	.LBB3:
  20:lcd_light_gui.c ****         graph->internals->last_write[i] = NO_WRITE;
  78              		.loc 1 20 9
  79              	.LVL5:
  20:lcd_light_gui.c ****         graph->internals->last_write[i] = NO_WRITE;
GAS LISTING C:\Users\Karzan\AppData\Local\Temp\cc75Aivq.s 			page 3


  80              		.loc 1 20 13 is_stmt 0
  81 0048 8147     		li	a5,0
  21:lcd_light_gui.c ****         graph->internals->graph_buffer[i] = DONT_GRAPH;
  82              		.loc 1 21 41
  83 004a 7D56     		li	a2,-1
  84              		.loc 1 22 43
  85 004c 1347F7FF 		xori	a4,a4,-1
  86              	.LVL6:
  87              	.L2:
  20:lcd_light_gui.c ****         graph->internals->last_write[i] = NO_WRITE;
  88              		.loc 1 20 5 discriminator 1
  89 0050 63999700 		bne	a5,s1,.L3
  90              	.LBE3:
  23:lcd_light_gui.c ****     }
  24:lcd_light_gui.c **** 
  25:lcd_light_gui.c ****     return 1;
  91              		.loc 1 25 5 is_stmt 1
  26:lcd_light_gui.c **** }
  92              		.loc 1 26 1 is_stmt 0
  93 0054 F240     		lw	ra,28(sp)
  94              		.cfi_remember_state
  95              		.cfi_restore 1
  96 0056 6244     		lw	s0,24(sp)
  97              		.cfi_restore 8
  98 0058 D244     		lw	s1,20(sp)
  99              		.cfi_restore 9
 100              	.LVL7:
 101 005a 4249     		lw	s2,16(sp)
 102              		.cfi_restore 18
 103              	.LVL8:
 104 005c 0545     		li	a0,1
 105 005e 0561     		addi	sp,sp,32
 106              	.LCFI1:
 107              		.cfi_def_cfa_offset 0
 108              	.LVL9:
 109 0060 8280     		jr	ra
 110              	.LVL10:
 111              	.L3:
 112              	.LCFI2:
 113              		.cfi_restore_state
 114              	.LBB4:
  21:lcd_light_gui.c ****         graph->internals->graph_buffer[i] = DONT_GRAPH;
 115              		.loc 1 21 9 is_stmt 1 discriminator 3
  21:lcd_light_gui.c ****         graph->internals->graph_buffer[i] = DONT_GRAPH;
 116              		.loc 1 21 25 is_stmt 0 discriminator 3
 117 0062 83268901 		lw	a3,24(s2)
  22:lcd_light_gui.c ****     }
 118              		.loc 1 22 43 discriminator 3
 119 0066 93952700 		slli	a1,a5,2
  21:lcd_light_gui.c ****         graph->internals->graph_buffer[i] = DONT_GRAPH;
 120              		.loc 1 21 41 discriminator 3
 121 006a 9446     		lw	a3,8(a3)
 122 006c BE96     		add	a3,a3,a5
 123 006e 2380C600 		sb	a2,0(a3)
  22:lcd_light_gui.c ****     }
 124              		.loc 1 22 9 is_stmt 1 discriminator 3
  22:lcd_light_gui.c ****     }
GAS LISTING C:\Users\Karzan\AppData\Local\Temp\cc75Aivq.s 			page 4


 125              		.loc 1 22 25 is_stmt 0 discriminator 3
 126 0072 83268901 		lw	a3,24(s2)
  20:lcd_light_gui.c ****         graph->internals->last_write[i] = NO_WRITE;
 127              		.loc 1 20 32 discriminator 3
 128 0076 8507     		addi	a5,a5,1
 129              	.LVL11:
  22:lcd_light_gui.c ****     }
 130              		.loc 1 22 43 discriminator 3
 131 0078 9442     		lw	a3,0(a3)
 132 007a AE96     		add	a3,a3,a1
 133 007c 98C2     		sw	a4,0(a3)
 134 007e C9BF     		j	.L2
 135              	.LBE4:
 136              		.cfi_endproc
 137              	.LFE5:
 139              		.section	.text.gui_remove_graph,"ax",@progbits
 140              		.align	1
 141              		.globl	gui_remove_graph
 143              	gui_remove_graph:
 144              	.LFB6:
  27:lcd_light_gui.c **** 
  28:lcd_light_gui.c **** int gui_remove_graph(graph_config_t* graph){
 145              		.loc 1 28 44 is_stmt 1
 146              		.cfi_startproc
 147              	.LVL12:
  29:lcd_light_gui.c ****     free(graph->internals->last_write);
 148              		.loc 1 29 5
 149              		.loc 1 29 26 is_stmt 0
 150 0000 1C4D     		lw	a5,24(a0)
  28:lcd_light_gui.c ****     free(graph->internals->last_write);
 151              		.loc 1 28 44
 152 0002 4111     		addi	sp,sp,-16
 153              	.LCFI3:
 154              		.cfi_def_cfa_offset 16
 155 0004 22C4     		sw	s0,8(sp)
 156              		.cfi_offset 8, -8
 157 0006 2A84     		mv	s0,a0
 158              		.loc 1 29 5
 159 0008 8847     		lw	a0,8(a5)
 160              	.LVL13:
  28:lcd_light_gui.c ****     free(graph->internals->last_write);
 161              		.loc 1 28 44
 162 000a 06C6     		sw	ra,12(sp)
 163              		.cfi_offset 1, -4
 164              		.loc 1 29 5
 165 000c 97000000 		call	free
 165      E7800000 
 166              	.LVL14:
  30:lcd_light_gui.c ****     free(graph->internals->graph_buffer);
 167              		.loc 1 30 5 is_stmt 1
 168              		.loc 1 30 26 is_stmt 0
 169 0014 1C4C     		lw	a5,24(s0)
 170              		.loc 1 30 5
 171 0016 8843     		lw	a0,0(a5)
 172 0018 97000000 		call	free
 172      E7800000 
 173              	.LVL15:
GAS LISTING C:\Users\Karzan\AppData\Local\Temp\cc75Aivq.s 			page 5


  31:lcd_light_gui.c ****     free(graph->internals);
 174              		.loc 1 31 5 is_stmt 1
 175 0020 084C     		lw	a0,24(s0)
 176 0022 97000000 		call	free
 176      E7800000 
 177              	.LVL16:
  32:lcd_light_gui.c ****     return 0;
 178              		.loc 1 32 5
  33:lcd_light_gui.c **** }
 179              		.loc 1 33 1 is_stmt 0
 180 002a B240     		lw	ra,12(sp)
 181              		.cfi_restore 1
 182 002c 2244     		lw	s0,8(sp)
 183              		.cfi_restore 8
 184              	.LVL17:
 185 002e 0145     		li	a0,0
 186 0030 4101     		addi	sp,sp,16
 187              	.LCFI4:
 188              		.cfi_def_cfa_offset 0
 189 0032 8280     		jr	ra
 190              		.cfi_endproc
 191              	.LFE6:
 193              		.section	.text.gui_append_graph,"ax",@progbits
 194              		.align	1
 195              		.globl	gui_append_graph
 197              	gui_append_graph:
 198              	.LFB7:
  34:lcd_light_gui.c **** 
  35:lcd_light_gui.c **** 
  36:lcd_light_gui.c **** int gui_append_graph(graph_config_t* graph, int32_t* values, size_t append_n){
 199              		.loc 1 36 78 is_stmt 1
 200              		.cfi_startproc
 201              	.LVL18:
  37:lcd_light_gui.c **** 
  38:lcd_light_gui.c ****     graph_internals_t *p_graph = graph->internals;
 202              		.loc 1 38 5
 203              		.loc 1 38 24 is_stmt 0
 204 0000 1C4D     		lw	a5,24(a0)
 205              	.LVL19:
  39:lcd_light_gui.c **** 
  40:lcd_light_gui.c ****     for(int i = 0; i < append_n; i++){
 206              		.loc 1 40 5 is_stmt 1
 207              	.LBB5:
 208              		.loc 1 40 9
 209              		.loc 1 40 13 is_stmt 0
 210 0002 8146     		li	a3,0
 211              	.LVL20:
 212              	.L8:
 213              		.loc 1 40 5 discriminator 1
 214 0004 6394C600 		bne	a3,a2,.L9
 215              	.LBE5:
  41:lcd_light_gui.c ****         p_graph->graph_buffer[p_graph->index] = values[i];
  42:lcd_light_gui.c ****         p_graph->index = (p_graph->index + 1) % p_graph->width;
  43:lcd_light_gui.c ****     }
  44:lcd_light_gui.c ****     
  45:lcd_light_gui.c ****     return 0;
 216              		.loc 1 45 5 is_stmt 1
GAS LISTING C:\Users\Karzan\AppData\Local\Temp\cc75Aivq.s 			page 6


  46:lcd_light_gui.c **** }
 217              		.loc 1 46 1 is_stmt 0
 218 0008 0145     		li	a0,0
 219 000a 8280     		ret
 220              	.L9:
 221              	.LBB6:
  41:lcd_light_gui.c ****         p_graph->graph_buffer[p_graph->index] = values[i];
 222              		.loc 1 41 9 is_stmt 1 discriminator 3
  41:lcd_light_gui.c ****         p_graph->graph_buffer[p_graph->index] = values[i];
 223              		.loc 1 41 55 is_stmt 0 discriminator 3
 224 000c 13972600 		slli	a4,a3,2
  41:lcd_light_gui.c ****         p_graph->graph_buffer[p_graph->index] = values[i];
 225              		.loc 1 41 30 discriminator 3
 226 0010 C843     		lw	a0,4(a5)
  41:lcd_light_gui.c ****         p_graph->graph_buffer[p_graph->index] = values[i];
 227              		.loc 1 41 55 discriminator 3
 228 0012 2E97     		add	a4,a1,a4
 229 0014 03280700 		lw	a6,0(a4)
  41:lcd_light_gui.c ****         p_graph->graph_buffer[p_graph->index] = values[i];
 230              		.loc 1 41 47 discriminator 3
 231 0018 9843     		lw	a4,0(a5)
 232 001a 0A05     		slli	a0,a0,2
  40:lcd_light_gui.c ****         p_graph->graph_buffer[p_graph->index] = values[i];
 233              		.loc 1 40 35 discriminator 3
 234 001c 8506     		addi	a3,a3,1
 235              	.LVL21:
  41:lcd_light_gui.c ****         p_graph->graph_buffer[p_graph->index] = values[i];
 236              		.loc 1 41 47 discriminator 3
 237 001e 2A97     		add	a4,a4,a0
 238 0020 23200701 		sw	a6,0(a4)
  42:lcd_light_gui.c ****     }
 239              		.loc 1 42 9 is_stmt 1 discriminator 3
 240              	.LVL22:
  42:lcd_light_gui.c ****     }
 241              		.loc 1 42 42 is_stmt 0 discriminator 3
 242 0024 D843     		lw	a4,4(a5)
  42:lcd_light_gui.c ****     }
 243              		.loc 1 42 47 discriminator 3
 244 0026 C847     		lw	a0,12(a5)
  42:lcd_light_gui.c ****     }
 245              		.loc 1 42 42 discriminator 3
 246 0028 0507     		addi	a4,a4,1
  42:lcd_light_gui.c ****     }
 247              		.loc 1 42 47 discriminator 3
 248 002a 3377A702 		remu	a4,a4,a0
  42:lcd_light_gui.c ****     }
 249              		.loc 1 42 24 discriminator 3
 250 002e D8C3     		sw	a4,4(a5)
 251 0030 D1BF     		j	.L8
 252              	.LBE6:
 253              		.cfi_endproc
 254              	.LFE7:
 256              		.section	.text.gui_render_graph,"ax",@progbits
 257              		.align	1
 258              		.globl	gui_render_graph
 260              	gui_render_graph:
 261              	.LFB8:
GAS LISTING C:\Users\Karzan\AppData\Local\Temp\cc75Aivq.s 			page 7


  47:lcd_light_gui.c **** int gui_render_graph(graph_config_t* graph){
 262              		.loc 1 47 44 is_stmt 1
 263              		.cfi_startproc
 264              	.LVL23:
  48:lcd_light_gui.c **** 
  49:lcd_light_gui.c ****     graph_internals_t *p_graph = graph->internals;  //Handle to make adressing less of a hassle
 265              		.loc 1 49 5
  47:lcd_light_gui.c **** int gui_render_graph(graph_config_t* graph){
 266              		.loc 1 47 44 is_stmt 0
 267 0000 7971     		addi	sp,sp,-48
 268              	.LCFI5:
 269              		.cfi_def_cfa_offset 48
 270 0002 22D4     		sw	s0,40(sp)
 271              		.cfi_offset 8, -8
 272              		.loc 1 49 24
 273 0004 004D     		lw	s0,24(a0)
 274              	.LVL24:
  50:lcd_light_gui.c ****     int32_t y, x, min, max, scaling;
 275              		.loc 1 50 5 is_stmt 1
  51:lcd_light_gui.c ****     
  52:lcd_light_gui.c ****     x = graph->x_origin;
 276              		.loc 1 52 5
  47:lcd_light_gui.c **** 
 277              		.loc 1 47 44 is_stmt 0
 278 0006 56CA     		sw	s5,20(sp)
 279              		.cfi_offset 21, -28
 280              		.loc 1 52 14
 281 0008 832A4500 		lw	s5,4(a0)
 282              	.LBB12:
 283              	.LBB13:
  53:lcd_light_gui.c **** 
  54:lcd_light_gui.c ****     minmax_int(&min, &max, p_graph);
  55:lcd_light_gui.c **** 
  56:lcd_light_gui.c ****     if(min == INT32_MAX) return -1; //Graph empty, exit
  57:lcd_light_gui.c **** 
  58:lcd_light_gui.c ****     if(graph->scale_setting == SCALE_TO_FIT){
  59:lcd_light_gui.c **** 
  60:lcd_light_gui.c ****         graph->scaling = (max - min) / p_graph->height;
  61:lcd_light_gui.c ****         graph->scaling = graph->scaling == 0 ? 1 : graph->scaling;
  62:lcd_light_gui.c **** 
  63:lcd_light_gui.c ****         for(int i = 0; i < p_graph->width; x++, i++){
  64:lcd_light_gui.c **** 
  65:lcd_light_gui.c ****             if(p_graph->graph_buffer[(p_graph->index + i) % p_graph->width] != DONT_GRAPH){
  66:lcd_light_gui.c **** 
  67:lcd_light_gui.c ****                 y = graph->y_origin + p_graph->height - ((p_graph->graph_buffer[(p_graph->index + i
  68:lcd_light_gui.c **** 
  69:lcd_light_gui.c ****                 if(!(y < graph->y_origin || y > graph->y_origin + p_graph->height)){
  70:lcd_light_gui.c **** 
  71:lcd_light_gui.c ****                     p_graph->last_write[i] = y;
  72:lcd_light_gui.c ****                     lio_lcd_draw_pixel(x, y, graph->color);
  73:lcd_light_gui.c **** 
  74:lcd_light_gui.c ****                 } else {
  75:lcd_light_gui.c ****                     p_graph->last_write[i] = NO_WRITE;
  76:lcd_light_gui.c ****                 }
  77:lcd_light_gui.c ****             } else {
  78:lcd_light_gui.c ****                 p_graph->last_write[i] = NO_WRITE;
  79:lcd_light_gui.c ****             }
GAS LISTING C:\Users\Karzan\AppData\Local\Temp\cc75Aivq.s 			page 8


  80:lcd_light_gui.c ****         }
  81:lcd_light_gui.c ****     }
  82:lcd_light_gui.c **** 
  83:lcd_light_gui.c ****     if(graph->scale_setting == USE_CUSTOM || graph->scale_setting == NO_SCALING){ 
  84:lcd_light_gui.c **** 
  85:lcd_light_gui.c ****         scaling = graph->scaling;
  86:lcd_light_gui.c ****         if(graph->scale_setting == NO_SCALING) scaling = 1;
  87:lcd_light_gui.c **** 
  88:lcd_light_gui.c ****         for(int i = 0; i < p_graph->width; x++, i++){
  89:lcd_light_gui.c **** 
  90:lcd_light_gui.c ****             if(p_graph->graph_buffer[p_graph->index + i % p_graph->width] != DONT_GRAPH){
  91:lcd_light_gui.c **** 
  92:lcd_light_gui.c ****                 y = graph->y_origin + p_graph->height - ((p_graph->graph_buffer[(p_graph->index + i
  93:lcd_light_gui.c **** 
  94:lcd_light_gui.c ****                 if(!(y < graph->y_origin || y > graph->y_origin + p_graph->height)){
  95:lcd_light_gui.c ****                     
  96:lcd_light_gui.c ****                     p_graph->last_write[i] = y;
  97:lcd_light_gui.c ****                     lio_lcd_draw_pixel(x, y, graph->color);
  98:lcd_light_gui.c ****                     
  99:lcd_light_gui.c ****                 } else {
 100:lcd_light_gui.c ****                     p_graph->last_write[i] = NO_WRITE;
 101:lcd_light_gui.c ****                 }
 102:lcd_light_gui.c ****             } else {
 103:lcd_light_gui.c ****                 p_graph->last_write[i] = NO_WRITE;
 104:lcd_light_gui.c ****             }
 105:lcd_light_gui.c ****             
 106:lcd_light_gui.c ****         }
 107:lcd_light_gui.c **** 
 108:lcd_light_gui.c ****     }
 109:lcd_light_gui.c **** 
 110:lcd_light_gui.c ****     return 1;
 111:lcd_light_gui.c **** }
 112:lcd_light_gui.c **** 
 113:lcd_light_gui.c **** int gui_erase_graph(graph_config_t* graph){
 114:lcd_light_gui.c ****     graph_internals_t *p_graph = graph->internals;
 115:lcd_light_gui.c **** 
 116:lcd_light_gui.c ****     for(int i = 0; i < p_graph->width; i++){
 117:lcd_light_gui.c ****         if(p_graph->last_write[i] != NO_WRITE){
 118:lcd_light_gui.c ****             lio_lcd_draw_pixel(i + graph->x_origin, p_graph->last_write[i], graph->background);
 119:lcd_light_gui.c ****         }
 120:lcd_light_gui.c ****     }
 121:lcd_light_gui.c ****     return 0;
 122:lcd_light_gui.c **** }
 123:lcd_light_gui.c **** 
 124:lcd_light_gui.c **** static
 125:lcd_light_gui.c **** void minmax_int(int32_t* p_min, int32_t* p_max, graph_internals_t* graph){
 126:lcd_light_gui.c ****     int min = INT32_MAX;
 127:lcd_light_gui.c ****     int max = INT32_MIN;
 284              		.loc 1 127 9
 285 000c B7070080 		li	a5,-2147483648
 286              	.LBB14:
 128:lcd_light_gui.c ****     int temp;
 129:lcd_light_gui.c ****     for(int i = 0; i < graph->width; i++){
 287              		.loc 1 129 29
 288 0010 4C44     		lw	a1,12(s0)
 289              	.LBE14:
 290              	.LBE13:
GAS LISTING C:\Users\Karzan\AppData\Local\Temp\cc75Aivq.s 			page 9


 291              	.LBE12:
  47:lcd_light_gui.c **** 
 292              		.loc 1 47 44
 293 0012 52CC     		sw	s4,24(sp)
 294              		.cfi_offset 20, -24
 295              	.LBB20:
 296              	.LBB17:
 126:lcd_light_gui.c ****     int max = INT32_MIN;
 297              		.loc 1 126 9
 298 0014 13CAF7FF 		xori	s4,a5,-1
 299              	.LBE17:
 300              	.LBE20:
  47:lcd_light_gui.c **** 
 301              		.loc 1 47 44
 302 0018 26D2     		sw	s1,36(sp)
 303 001a 4ECE     		sw	s3,28(sp)
 304              		.cfi_offset 9, -12
 305              		.cfi_offset 19, -20
 306 001c AA84     		mv	s1,a0
 307 001e 06D6     		sw	ra,44(sp)
 308 0020 4AD0     		sw	s2,32(sp)
 309 0022 5AC8     		sw	s6,16(sp)
 310 0024 5EC6     		sw	s7,12(sp)
 311              		.cfi_offset 1, -4
 312              		.cfi_offset 18, -16
 313              		.cfi_offset 22, -32
 314              		.cfi_offset 23, -36
  52:lcd_light_gui.c **** 
 315              		.loc 1 52 7
 316 0026 D689     		mv	s3,s5
 317              	.LVL25:
  54:lcd_light_gui.c **** 
 318              		.loc 1 54 5 is_stmt 1
 319              	.LBB21:
 320              	.LBB18:
 126:lcd_light_gui.c ****     int max = INT32_MIN;
 321              		.loc 1 126 5
 127:lcd_light_gui.c ****     int temp;
 322              		.loc 1 127 5
 128:lcd_light_gui.c ****     for(int i = 0; i < graph->width; i++){
 323              		.loc 1 128 5
 324              		.loc 1 129 5
 325              	.LBB15:
 326              		.loc 1 129 9
 327              		.loc 1 129 13 is_stmt 0
 328 0028 8146     		li	a3,0
 130:lcd_light_gui.c ****         temp = graph->graph_buffer[(graph->index + i) % graph->width];
 131:lcd_light_gui.c ****         if(temp != DONT_GRAPH){
 329              		.loc 1 131 11
 330 002a 5285     		mv	a0,s4
 331              	.LVL26:
 332              	.L11:
 129:lcd_light_gui.c ****         temp = graph->graph_buffer[(graph->index + i) % graph->width];
 333              		.loc 1 129 5
 334 002c 6390B606 		bne	a3,a1,.L15
 335              	.LBE15:
 132:lcd_light_gui.c ****             min = temp < min ? temp : min;
GAS LISTING C:\Users\Karzan\AppData\Local\Temp\cc75Aivq.s 			page 10


 133:lcd_light_gui.c ****             max = temp > max ? temp : max;
 134:lcd_light_gui.c ****         }
 135:lcd_light_gui.c ****         
 136:lcd_light_gui.c ****     }
 137:lcd_light_gui.c ****     *p_min = min;
 336              		.loc 1 137 5 is_stmt 1
 337              	.LVL27:
 138:lcd_light_gui.c ****     *p_max = max;
 338              		.loc 1 138 5
 339              	.LBE18:
 340              	.LBE21:
  56:lcd_light_gui.c **** 
 341              		.loc 1 56 5
  56:lcd_light_gui.c **** 
 342              		.loc 1 56 7 is_stmt 0
 343 0030 37070080 		li	a4,-2147483648
 344 0034 1347F7FF 		xori	a4,a4,-1
  56:lcd_light_gui.c **** 
 345              		.loc 1 56 33
 346 0038 7D55     		li	a0,-1
  56:lcd_light_gui.c **** 
 347              		.loc 1 56 7
 348 003a 630EEA02 		beq	s4,a4,.L10
  58:lcd_light_gui.c **** 
 349              		.loc 1 58 5 is_stmt 1
  58:lcd_light_gui.c **** 
 350              		.loc 1 58 13 is_stmt 0
 351 003e D844     		lw	a4,12(s1)
  58:lcd_light_gui.c **** 
 352              		.loc 1 58 7
 353 0040 8546     		li	a3,1
 354 0042 6315D702 		bne	a4,a3,.L17
  60:lcd_light_gui.c ****         graph->scaling = graph->scaling == 0 ? 1 : graph->scaling;
 355              		.loc 1 60 9 is_stmt 1
  60:lcd_light_gui.c ****         graph->scaling = graph->scaling == 0 ? 1 : graph->scaling;
 356              		.loc 1 60 47 is_stmt 0
 357 0046 1448     		lw	a3,16(s0)
  61:lcd_light_gui.c **** 
 358              		.loc 1 61 9 is_stmt 1
  60:lcd_light_gui.c ****         graph->scaling = graph->scaling == 0 ? 1 : graph->scaling;
 359              		.loc 1 60 31 is_stmt 0
 360 0048 B3874741 		sub	a5,a5,s4
 361              	.LVL28:
  61:lcd_light_gui.c **** 
 362              		.loc 1 61 50
 363 004c 63E4D700 		bltu	a5,a3,.L18
  60:lcd_light_gui.c ****         graph->scaling = graph->scaling == 0 ? 1 : graph->scaling;
 364              		.loc 1 60 38
 365 0050 33D7D702 		divu	a4,a5,a3
 366              	.L18:
 367              	.LBB22:
  65:lcd_light_gui.c **** 
 368              		.loc 1 65 15 discriminator 4
 369 0054 370B0080 		li	s6,-2147483648
 370              	.LBE22:
  61:lcd_light_gui.c **** 
 371              		.loc 1 61 24 discriminator 4
GAS LISTING C:\Users\Karzan\AppData\Local\Temp\cc75Aivq.s 			page 11


 372 0058 98C8     		sw	a4,16(s1)
  63:lcd_light_gui.c **** 
 373              		.loc 1 63 9 is_stmt 1 discriminator 4
 374              	.LBB23:
  63:lcd_light_gui.c **** 
 375              		.loc 1 63 13 discriminator 4
 376              	.LVL29:
  63:lcd_light_gui.c **** 
 377              		.loc 1 63 17 is_stmt 0 discriminator 4
 378 005a 0149     		li	s2,0
  65:lcd_light_gui.c **** 
 379              		.loc 1 65 15 discriminator 4
 380 005c 134BFBFF 		xori	s6,s6,-1
  78:lcd_light_gui.c ****             }
 381              		.loc 1 78 40 discriminator 4
 382 0060 FD5B     		li	s7,-1
 383              	.LVL30:
 384              	.L19:
  63:lcd_light_gui.c **** 
 385              		.loc 1 63 35 discriminator 1
 386 0062 5844     		lw	a4,12(s0)
 387 0064 B3892A01 		add	s3,s5,s2
 388              	.LVL31:
  63:lcd_light_gui.c **** 
 389              		.loc 1 63 9 discriminator 1
 390 0068 6364E904 		bltu	s2,a4,.L23
 391              	.LVL32:
 392              	.L17:
 393              	.LBE23:
  83:lcd_light_gui.c **** 
 394              		.loc 1 83 5 is_stmt 1
  83:lcd_light_gui.c **** 
 395              		.loc 1 83 13 is_stmt 0
 396 006c DC44     		lw	a5,12(s1)
  83:lcd_light_gui.c **** 
 397              		.loc 1 83 43
 398 006e 13F7D7FF 		andi	a4,a5,-3
 399 0072 59CB     		beq	a4,zero,.L24
 400              	.LVL33:
 401              	.L31:
 110:lcd_light_gui.c **** }
 402              		.loc 1 110 12
 403 0074 0545     		li	a0,1
 404              	.L10:
 111:lcd_light_gui.c **** 
 405              		.loc 1 111 1
 406 0076 B250     		lw	ra,44(sp)
 407              		.cfi_remember_state
 408              		.cfi_restore 1
 409 0078 2254     		lw	s0,40(sp)
 410              		.cfi_restore 8
 411              	.LVL34:
 412 007a 9254     		lw	s1,36(sp)
 413              		.cfi_restore 9
 414              	.LVL35:
 415 007c 0259     		lw	s2,32(sp)
 416              		.cfi_restore 18
GAS LISTING C:\Users\Karzan\AppData\Local\Temp\cc75Aivq.s 			page 12


 417 007e F249     		lw	s3,28(sp)
 418              		.cfi_restore 19
 419 0080 624A     		lw	s4,24(sp)
 420              		.cfi_restore 20
 421 0082 D24A     		lw	s5,20(sp)
 422              		.cfi_restore 21
 423 0084 424B     		lw	s6,16(sp)
 424              		.cfi_restore 22
 425 0086 B24B     		lw	s7,12(sp)
 426              		.cfi_restore 23
 427 0088 4561     		addi	sp,sp,48
 428              	.LCFI6:
 429              		.cfi_def_cfa_offset 0
 430 008a 8280     		jr	ra
 431              	.LVL36:
 432              	.L15:
 433              	.LCFI7:
 434              		.cfi_restore_state
 435              	.LBB24:
 436              	.LBB19:
 437              	.LBB16:
 130:lcd_light_gui.c ****         if(temp != DONT_GRAPH){
 438              		.loc 1 130 9 is_stmt 1
 130:lcd_light_gui.c ****         if(temp != DONT_GRAPH){
 439              		.loc 1 130 50 is_stmt 0
 440 008c 5840     		lw	a4,4(s0)
 130:lcd_light_gui.c ****         if(temp != DONT_GRAPH){
 441              		.loc 1 130 14
 442 008e 1040     		lw	a2,0(s0)
 130:lcd_light_gui.c ****         if(temp != DONT_GRAPH){
 443              		.loc 1 130 50
 444 0090 3697     		add	a4,a3,a4
 130:lcd_light_gui.c ****         if(temp != DONT_GRAPH){
 445              		.loc 1 130 55
 446 0092 3377B702 		remu	a4,a4,a1
 130:lcd_light_gui.c ****         if(temp != DONT_GRAPH){
 447              		.loc 1 130 14
 448 0096 0A07     		slli	a4,a4,2
 449 0098 3297     		add	a4,a2,a4
 450 009a 1843     		lw	a4,0(a4)
 451              	.LVL37:
 131:lcd_light_gui.c ****             min = temp < min ? temp : min;
 452              		.loc 1 131 9 is_stmt 1
 131:lcd_light_gui.c ****             min = temp < min ? temp : min;
 453              		.loc 1 131 11 is_stmt 0
 454 009c 6308A700 		beq	a4,a0,.L12
 132:lcd_light_gui.c ****             max = temp > max ? temp : max;
 455              		.loc 1 132 13 is_stmt 1
 132:lcd_light_gui.c ****             max = temp > max ? temp : max;
 456              		.loc 1 132 17 is_stmt 0
 457 00a0 63534701 		ble	s4,a4,.L13
 458 00a4 3A8A     		mv	s4,a4
 459              	.LVL38:
 460              	.L13:
 133:lcd_light_gui.c ****         }
 461              		.loc 1 133 13 is_stmt 1
 133:lcd_light_gui.c ****         }
GAS LISTING C:\Users\Karzan\AppData\Local\Temp\cc75Aivq.s 			page 13


 462              		.loc 1 133 17 is_stmt 0
 463 00a6 63D3E700 		bge	a5,a4,.L12
 464 00aa BA87     		mv	a5,a4
 465              	.LVL39:
 466              	.L12:
 129:lcd_light_gui.c ****         temp = graph->graph_buffer[(graph->index + i) % graph->width];
 467              		.loc 1 129 39
 468 00ac 8506     		addi	a3,a3,1
 469              	.LVL40:
 470 00ae BDBF     		j	.L11
 471              	.LVL41:
 472              	.L23:
 473              	.LBE16:
 474              	.LBE19:
 475              	.LBE24:
 476              	.LBB25:
  65:lcd_light_gui.c **** 
 477              		.loc 1 65 13 is_stmt 1
  65:lcd_light_gui.c **** 
 478              		.loc 1 65 54 is_stmt 0
 479 00b0 5C40     		lw	a5,4(s0)
 480 00b2 CA97     		add	a5,s2,a5
  65:lcd_light_gui.c **** 
 481              		.loc 1 65 59
 482 00b4 B3F7E702 		remu	a5,a5,a4
  65:lcd_light_gui.c **** 
 483              		.loc 1 65 37
 484 00b8 1840     		lw	a4,0(s0)
 485 00ba 8A07     		slli	a5,a5,2
 486 00bc BA97     		add	a5,a4,a5
 487 00be 8C43     		lw	a1,0(a5)
 488 00c0 1C44     		lw	a5,8(s0)
 489 00c2 CA97     		add	a5,a5,s2
  65:lcd_light_gui.c **** 
 490              		.loc 1 65 15
 491 00c4 638F6503 		beq	a1,s6,.L20
  67:lcd_light_gui.c **** 
 492              		.loc 1 67 17 is_stmt 1
  67:lcd_light_gui.c **** 
 493              		.loc 1 67 127 is_stmt 0
 494 00c8 9048     		lw	a2,16(s1)
  67:lcd_light_gui.c **** 
 495              		.loc 1 67 120
 496 00ca B3854541 		sub	a1,a1,s4
  67:lcd_light_gui.c **** 
 497              		.loc 1 67 26
 498 00ce 9444     		lw	a3,8(s1)
  67:lcd_light_gui.c **** 
 499              		.loc 1 67 127
 500 00d0 B3D5C502 		divu	a1,a1,a2
  67:lcd_light_gui.c **** 
 501              		.loc 1 67 37
 502 00d4 1848     		lw	a4,16(s0)
 503 00d6 3697     		add	a4,a3,a4
  67:lcd_light_gui.c **** 
 504              		.loc 1 67 55
 505 00d8 B305B740 		sub	a1,a4,a1
GAS LISTING C:\Users\Karzan\AppData\Local\Temp\cc75Aivq.s 			page 14


 506              	.LVL42:
  69:lcd_light_gui.c **** 
 507              		.loc 1 69 17 is_stmt 1
  69:lcd_light_gui.c **** 
 508              		.loc 1 69 19 is_stmt 0
 509 00dc 63E3D502 		bgtu	a3,a1,.L20
  69:lcd_light_gui.c **** 
 510              		.loc 1 69 20 discriminator 1
 511 00e0 6361B702 		bltu	a4,a1,.L20
  71:lcd_light_gui.c ****                     lio_lcd_draw_pixel(x, y, graph->color);
 512              		.loc 1 71 21 is_stmt 1
  71:lcd_light_gui.c ****                     lio_lcd_draw_pixel(x, y, graph->color);
 513              		.loc 1 71 44 is_stmt 0
 514 00e4 2380B700 		sb	a1,0(a5)
  72:lcd_light_gui.c **** 
 515              		.loc 1 72 21 is_stmt 1
 516 00e8 03D60400 		lhu	a2,0(s1)
 517 00ec C205     		slli	a1,a1,16
 518              	.LVL43:
 519 00ee 13950901 		slli	a0,s3,16
 520 00f2 C181     		srli	a1,a1,16
 521 00f4 4181     		srli	a0,a0,16
 522 00f6 97000000 		call	lio_lcd_draw_pixel
 522      E7800000 
 523              	.LVL44:
 524              	.L22:
  63:lcd_light_gui.c **** 
 525              		.loc 1 63 50 is_stmt 0 discriminator 2
 526 00fe 0509     		addi	s2,s2,1
 527              	.LVL45:
 528 0100 8DB7     		j	.L19
 529              	.LVL46:
 530              	.L20:
  78:lcd_light_gui.c ****             }
 531              		.loc 1 78 17 is_stmt 1
  78:lcd_light_gui.c ****             }
 532              		.loc 1 78 40 is_stmt 0
 533 0102 23807701 		sb	s7,0(a5)
 534 0106 E5BF     		j	.L22
 535              	.LVL47:
 536              	.L24:
 537              	.LBE25:
  85:lcd_light_gui.c ****         if(graph->scale_setting == NO_SCALING) scaling = 1;
 538              		.loc 1 85 9 is_stmt 1
  85:lcd_light_gui.c ****         if(graph->scale_setting == NO_SCALING) scaling = 1;
 539              		.loc 1 85 24 is_stmt 0
 540 0108 83AA0401 		lw	s5,16(s1)
 541              	.LVL48:
  86:lcd_light_gui.c **** 
 542              		.loc 1 86 9 is_stmt 1
  86:lcd_light_gui.c **** 
 543              		.loc 1 86 11 is_stmt 0
 544 010c 91E3     		bne	a5,zero,.L25
 545              	.LVL49:
 546 010e 854A     		li	s5,1
 547              	.LVL50:
 548              	.L25:
GAS LISTING C:\Users\Karzan\AppData\Local\Temp\cc75Aivq.s 			page 15


  88:lcd_light_gui.c **** 
 549              		.loc 1 88 9 is_stmt 1
 550              	.LBB26:
  88:lcd_light_gui.c **** 
 551              		.loc 1 88 13
  90:lcd_light_gui.c **** 
 552              		.loc 1 90 15 is_stmt 0
 553 0110 370A0080 		li	s4,-2147483648
 554              	.LVL51:
  88:lcd_light_gui.c **** 
 555              		.loc 1 88 17
 556 0114 0149     		li	s2,0
  90:lcd_light_gui.c **** 
 557              		.loc 1 90 15
 558 0116 134AFAFF 		xori	s4,s4,-1
 103:lcd_light_gui.c ****             }
 559              		.loc 1 103 40
 560 011a 7D5B     		li	s6,-1
 561              	.LVL52:
 562              	.L26:
  88:lcd_light_gui.c **** 
 563              		.loc 1 88 35 discriminator 1
 564 011c 4C44     		lw	a1,12(s0)
  88:lcd_light_gui.c **** 
 565              		.loc 1 88 9 discriminator 1
 566 011e E37BB9F4 		bgeu	s2,a1,.L31
  90:lcd_light_gui.c **** 
 567              		.loc 1 90 13 is_stmt 1
  90:lcd_light_gui.c **** 
 568              		.loc 1 90 57 is_stmt 0
 569 0122 3377B902 		remu	a4,s2,a1
  90:lcd_light_gui.c **** 
 570              		.loc 1 90 45
 571 0126 5C40     		lw	a5,4(s0)
  90:lcd_light_gui.c **** 
 572              		.loc 1 90 23
 573 0128 1040     		lw	a2,0(s0)
 574 012a 1444     		lw	a3,8(s0)
 575 012c CA96     		add	a3,a3,s2
  90:lcd_light_gui.c **** 
 576              		.loc 1 90 37
 577 012e 3E97     		add	a4,a4,a5
 578 0130 0A07     		slli	a4,a4,2
 579 0132 3297     		add	a4,a2,a4
  90:lcd_light_gui.c **** 
 580              		.loc 1 90 15
 581 0134 1843     		lw	a4,0(a4)
 582 0136 63054705 		beq	a4,s4,.L27
  92:lcd_light_gui.c **** 
 583              		.loc 1 92 17 is_stmt 1
  92:lcd_light_gui.c **** 
 584              		.loc 1 92 97 is_stmt 0
 585 013a CA97     		add	a5,a5,s2
  92:lcd_light_gui.c **** 
 586              		.loc 1 92 102
 587 013c B3F7B702 		remu	a5,a5,a1
  92:lcd_light_gui.c **** 
GAS LISTING C:\Users\Karzan\AppData\Local\Temp\cc75Aivq.s 			page 16


 588              		.loc 1 92 26
 589 0140 8844     		lw	a0,8(s1)
  92:lcd_light_gui.c **** 
 590              		.loc 1 92 37
 591 0142 1848     		lw	a4,16(s0)
 592 0144 2A97     		add	a4,a0,a4
  92:lcd_light_gui.c **** 
 593              		.loc 1 92 80
 594 0146 8A07     		slli	a5,a5,2
 595 0148 B297     		add	a5,a2,a5
  92:lcd_light_gui.c **** 
 596              		.loc 1 92 120
 597 014a 8C43     		lw	a1,0(a5)
 598 014c DC48     		lw	a5,20(s1)
 599 014e 9D8D     		sub	a1,a1,a5
  92:lcd_light_gui.c **** 
 600              		.loc 1 92 141
 601 0150 B3C55503 		div	a1,a1,s5
  92:lcd_light_gui.c **** 
 602              		.loc 1 92 55
 603 0154 B305B740 		sub	a1,a4,a1
 604              	.LVL53:
  94:lcd_light_gui.c ****                     
 605              		.loc 1 94 17 is_stmt 1
  94:lcd_light_gui.c ****                     
 606              		.loc 1 94 19 is_stmt 0
 607 0158 63E4A502 		bgtu	a0,a1,.L27
  94:lcd_light_gui.c ****                     
 608              		.loc 1 94 20 discriminator 1
 609 015c 6362B702 		bltu	a4,a1,.L27
  96:lcd_light_gui.c ****                     lio_lcd_draw_pixel(x, y, graph->color);
 610              		.loc 1 96 21 is_stmt 1
  96:lcd_light_gui.c ****                     lio_lcd_draw_pixel(x, y, graph->color);
 611              		.loc 1 96 44 is_stmt 0
 612 0160 2380B600 		sb	a1,0(a3)
  97:lcd_light_gui.c ****                     
 613              		.loc 1 97 21 is_stmt 1
 614 0164 33852901 		add	a0,s3,s2
 615              	.LVL54:
 616 0168 03D60400 		lhu	a2,0(s1)
 617 016c C205     		slli	a1,a1,16
 618              	.LVL55:
 619 016e 4205     		slli	a0,a0,16
 620              	.LVL56:
 621 0170 C181     		srli	a1,a1,16
 622 0172 4181     		srli	a0,a0,16
 623 0174 97000000 		call	lio_lcd_draw_pixel
 623      E7800000 
 624              	.LVL57:
 625              	.L29:
  88:lcd_light_gui.c **** 
 626              		.loc 1 88 50 is_stmt 0 discriminator 2
 627 017c 0509     		addi	s2,s2,1
 628              	.LVL58:
 629 017e 79BF     		j	.L26
 630              	.LVL59:
 631              	.L27:
GAS LISTING C:\Users\Karzan\AppData\Local\Temp\cc75Aivq.s 			page 17


 103:lcd_light_gui.c ****             }
 632              		.loc 1 103 17 is_stmt 1
 103:lcd_light_gui.c ****             }
 633              		.loc 1 103 40 is_stmt 0
 634 0180 23806601 		sb	s6,0(a3)
 635 0184 E5BF     		j	.L29
 636              	.LBE26:
 637              		.cfi_endproc
 638              	.LFE8:
 640              		.section	.text.gui_erase_graph,"ax",@progbits
 641              		.align	1
 642              		.globl	gui_erase_graph
 644              	gui_erase_graph:
 645              	.LFB9:
 113:lcd_light_gui.c ****     graph_internals_t *p_graph = graph->internals;
 646              		.loc 1 113 43 is_stmt 1
 647              		.cfi_startproc
 648              	.LVL60:
 114:lcd_light_gui.c **** 
 649              		.loc 1 114 5
 113:lcd_light_gui.c ****     graph_internals_t *p_graph = graph->internals;
 650              		.loc 1 113 43 is_stmt 0
 651 0000 0111     		addi	sp,sp,-32
 652              	.LCFI8:
 653              		.cfi_def_cfa_offset 32
 654 0002 4AC8     		sw	s2,16(sp)
 655              		.cfi_offset 18, -16
 114:lcd_light_gui.c **** 
 656              		.loc 1 114 24
 657 0004 03298501 		lw	s2,24(a0)
 658              	.LVL61:
 116:lcd_light_gui.c ****         if(p_graph->last_write[i] != NO_WRITE){
 659              		.loc 1 116 5 is_stmt 1
 660              	.LBB27:
 116:lcd_light_gui.c ****         if(p_graph->last_write[i] != NO_WRITE){
 661              		.loc 1 116 9
 662              	.LBE27:
 113:lcd_light_gui.c ****     graph_internals_t *p_graph = graph->internals;
 663              		.loc 1 113 43 is_stmt 0
 664 0008 22CC     		sw	s0,24(sp)
 665 000a 26CA     		sw	s1,20(sp)
 666 000c 4EC6     		sw	s3,12(sp)
 667 000e 06CE     		sw	ra,28(sp)
 668              		.cfi_offset 8, -8
 669              		.cfi_offset 9, -12
 670              		.cfi_offset 19, -20
 671              		.cfi_offset 1, -4
 113:lcd_light_gui.c ****     graph_internals_t *p_graph = graph->internals;
 672              		.loc 1 113 43
 673 0010 AA84     		mv	s1,a0
 674              	.LBB28:
 116:lcd_light_gui.c ****         if(p_graph->last_write[i] != NO_WRITE){
 675              		.loc 1 116 13
 676 0012 0144     		li	s0,0
 117:lcd_light_gui.c ****             lio_lcd_draw_pixel(i + graph->x_origin, p_graph->last_write[i], graph->background);
 677              		.loc 1 117 11
 678 0014 9309F00F 		li	s3,255
GAS LISTING C:\Users\Karzan\AppData\Local\Temp\cc75Aivq.s 			page 18


 679              	.LVL62:
 680              	.L35:
 116:lcd_light_gui.c ****         if(p_graph->last_write[i] != NO_WRITE){
 681              		.loc 1 116 5 discriminator 1
 682 0018 8327C900 		lw	a5,12(s2)
 683 001c 636AF400 		bgtu	a5,s0,.L37
 684              	.LBE28:
 121:lcd_light_gui.c **** }
 685              		.loc 1 121 5 is_stmt 1
 122:lcd_light_gui.c **** 
 686              		.loc 1 122 1 is_stmt 0
 687 0020 F240     		lw	ra,28(sp)
 688              		.cfi_remember_state
 689              		.cfi_restore 1
 690 0022 6244     		lw	s0,24(sp)
 691              		.cfi_restore 8
 692              	.LVL63:
 693 0024 D244     		lw	s1,20(sp)
 694              		.cfi_restore 9
 695              	.LVL64:
 696 0026 4249     		lw	s2,16(sp)
 697              		.cfi_restore 18
 698              	.LVL65:
 699 0028 B249     		lw	s3,12(sp)
 700              		.cfi_restore 19
 701 002a 0145     		li	a0,0
 702 002c 0561     		addi	sp,sp,32
 703              	.LCFI9:
 704              		.cfi_def_cfa_offset 0
 705 002e 8280     		jr	ra
 706              	.LVL66:
 707              	.L37:
 708              	.LCFI10:
 709              		.cfi_restore_state
 710              	.LBB29:
 117:lcd_light_gui.c ****             lio_lcd_draw_pixel(i + graph->x_origin, p_graph->last_write[i], graph->background);
 711              		.loc 1 117 9 is_stmt 1
 117:lcd_light_gui.c ****             lio_lcd_draw_pixel(i + graph->x_origin, p_graph->last_write[i], graph->background);
 712              		.loc 1 117 31 is_stmt 0
 713 0030 83278900 		lw	a5,8(s2)
 714 0034 A297     		add	a5,a5,s0
 715 0036 83C50700 		lbu	a1,0(a5)
 117:lcd_light_gui.c ****             lio_lcd_draw_pixel(i + graph->x_origin, p_graph->last_write[i], graph->background);
 716              		.loc 1 117 11
 717 003a 638C3501 		beq	a1,s3,.L36
 118:lcd_light_gui.c ****         }
 718              		.loc 1 118 13 is_stmt 1
 719 003e C840     		lw	a0,4(s1)
 720 0040 03D62400 		lhu	a2,2(s1)
 721 0044 2295     		add	a0,a0,s0
 722 0046 4205     		slli	a0,a0,16
 723 0048 4181     		srli	a0,a0,16
 724 004a 97000000 		call	lio_lcd_draw_pixel
 724      E7800000 
 725              	.LVL67:
 726              	.L36:
 116:lcd_light_gui.c ****         if(p_graph->last_write[i] != NO_WRITE){
GAS LISTING C:\Users\Karzan\AppData\Local\Temp\cc75Aivq.s 			page 19


 727              		.loc 1 116 41 is_stmt 0 discriminator 2
 728 0052 0504     		addi	s0,s0,1
 729              	.LVL68:
 730 0054 D1B7     		j	.L35
 731              	.LBE29:
 732              		.cfi_endproc
 733              	.LFE9:
 735              		.text
 736              	.Letext0:
 737              		.file 2 "c:\\users\\karzan\\downloads\\toolchain-gd32v-v202-win\\toolchain-gd32v-v202-win\\compile
 738              		.file 3 "c:\\users\\karzan\\downloads\\toolchain-gd32v-v202-win\\toolchain-gd32v-v202-win\\compile
 739              		.file 4 "c:\\users\\karzan\\downloads\\toolchain-gd32v-v202-win\\toolchain-gd32v-v202-win\\compile
 740              		.file 5 "c:\\users\\karzan\\downloads\\toolchain-gd32v-v202-win\\toolchain-gd32v-v202-win\\compile
 741              		.file 6 "c:\\users\\karzan\\downloads\\toolchain-gd32v-v202-win\\toolchain-gd32v-v202-win\\compile
 742              		.file 7 "c:\\users\\karzan\\downloads\\toolchain-gd32v-v202-win\\toolchain-gd32v-v202-win\\compile
 743              		.file 8 "./../../firmware/GD32VF103_standard_peripheral/system_gd32vf103.h"
 744              		.file 9 "lcd_light_gui.h"
 745              		.file 10 "c:\\users\\karzan\\downloads\\toolchain-gd32v-v202-win\\toolchain-gd32v-v202-win\\compil
 746              		.file 11 "lio_lcd.h"
GAS LISTING C:\Users\Karzan\AppData\Local\Temp\cc75Aivq.s 			page 20

