GAS LISTING C:\Users\Karzan\AppData\Local\Temp\cc75Aivq.s 			page 1


   1              		.file	"lcd_light_gui.c"
   2              		.option nopic
   3              		.attribute arch, "rv32i2p0_m2p0_a2p0_c2p0"
   4              		.attribute unaligned_access, 0
   5              		.attribute stack_align, 16
   6              		.text
   7              	.Ltext0:
   8              		.cfi_sections	.debug_frame
   9              		.section	.text.gui_init_graph,"ax",@progbits
  10              		.align	1
  11              		.globl	gui_init_graph
  13              	gui_init_graph:
  14              	.LFB5:
  15              		.file 1 "lcd_light_gui.c"
   1:lcd_light_gui.c **** #include "lcd_light_gui.h"
   2:lcd_light_gui.c **** #include "stdlib.h"
   3:lcd_light_gui.c **** 
   4:lcd_light_gui.c **** #define DONT_GRAPH  0x7FFFFFFF
   5:lcd_light_gui.c **** 
   6:lcd_light_gui.c **** #define NO_WRITE    0xFF
   7:lcd_light_gui.c **** 
   8:lcd_light_gui.c **** 
   9:lcd_light_gui.c **** static
  10:lcd_light_gui.c **** void minmax_int(int32_t* p_min, int32_t* p_max, graph_internals_t* graph);
  11:lcd_light_gui.c **** 
  12:lcd_light_gui.c **** int gui_init_graph(graph_config_t* graph, uint32_t width, uint32_t height){
  16              		.loc 1 12 75
  17              		.cfi_startproc
  18              	.LVL0:
  13:lcd_light_gui.c ****     graph->internals = malloc(sizeof(graph_internals_t));
  19              		.loc 1 13 5
  12:lcd_light_gui.c ****     graph->internals = malloc(sizeof(graph_internals_t));
  20              		.loc 1 12 75 is_stmt 0
  21 0000 0111     		addi	sp,sp,-32
  22              	.LCFI0:
  23              		.cfi_def_cfa_offset 32
  24 0002 4AC8     		sw	s2,16(sp)
  25              		.cfi_offset 18, -16
  26 0004 2A89     		mv	s2,a0
  27              		.loc 1 13 24
  28 0006 5145     		li	a0,20
  29              	.LVL1:
  12:lcd_light_gui.c ****     graph->internals = malloc(sizeof(graph_internals_t));
  30              		.loc 1 12 75
  31 0008 06CE     		sw	ra,28(sp)
  32 000a 22CC     		sw	s0,24(sp)
  33 000c 26CA     		sw	s1,20(sp)
  34              		.cfi_offset 1, -4
  35              		.cfi_offset 8, -8
  36              		.cfi_offset 9, -12
  12:lcd_light_gui.c ****     graph->internals = malloc(sizeof(graph_internals_t));
  37              		.loc 1 12 75
  38 000e 32C6     		sw	a2,12(sp)
  39 0010 AE84     		mv	s1,a1
  40              		.loc 1 13 24
  41 0012 97000000 		call	malloc
  41      E7800000 
GAS LISTING C:\Users\Karzan\AppData\Local\Temp\cc75Aivq.s 			page 2


  42              	.LVL2:
  14:lcd_light_gui.c ****     graph->internals->width = width;
  15:lcd_light_gui.c ****     graph->internals->height = height;
  43              		.loc 1 15 30
  44 001a 3246     		lw	a2,12(sp)
  13:lcd_light_gui.c ****     graph->internals->width = width;
  45              		.loc 1 13 24
  46 001c 2A84     		mv	s0,a0
  13:lcd_light_gui.c ****     graph->internals->width = width;
  47              		.loc 1 13 22
  48 001e 232CA900 		sw	a0,24(s2)
  14:lcd_light_gui.c ****     graph->internals->width = width;
  49              		.loc 1 14 5 is_stmt 1
  50              		.loc 1 15 30 is_stmt 0
  51 0022 10C9     		sw	a2,16(a0)
  14:lcd_light_gui.c ****     graph->internals->width = width;
  52              		.loc 1 14 29
  53 0024 44C5     		sw	s1,12(a0)
  54              		.loc 1 15 5 is_stmt 1
  16:lcd_light_gui.c ****     graph->internals->index = 0;
  55              		.loc 1 16 5
  56              		.loc 1 16 29 is_stmt 0
  57 0026 23220500 		sw	zero,4(a0)
  17:lcd_light_gui.c ****     graph->internals->graph_buffer = malloc(sizeof(int32_t) * width);
  58              		.loc 1 17 5 is_stmt 1
  59              		.loc 1 17 38 is_stmt 0
  60 002a 13952400 		slli	a0,s1,2
  61 002e 97000000 		call	malloc
  61      E7800000 
  62              	.LVL3:
  63              		.loc 1 17 36
  64 0036 08C0     		sw	a0,0(s0)
  18:lcd_light_gui.c ****     graph->internals->last_write = malloc(sizeof(uint8_t) * width);
  65              		.loc 1 18 5 is_stmt 1
  66              		.loc 1 18 36 is_stmt 0
  67 0038 2685     		mv	a0,s1
  68 003a 97000000 		call	malloc
  68      E7800000 
  69              	.LVL4:
  70              	.LBB2:
  19:lcd_light_gui.c **** 
  20:lcd_light_gui.c ****     for(int i = 0; i < width; i++){
  21:lcd_light_gui.c ****         graph->internals->last_write[i] = NO_WRITE;
  22:lcd_light_gui.c ****         graph->internals->graph_buffer[i] = DONT_GRAPH;
  71              		.loc 1 22 43
  72 0042 37070080 		li	a4,-2147483648
  73              	.LBE2:
  18:lcd_light_gui.c ****     graph->internals->last_write = malloc(sizeof(uint8_t) * width);
  74              		.loc 1 18 34
  75 0046 08C4     		sw	a0,8(s0)
  20:lcd_light_gui.c ****         graph->internals->last_write[i] = NO_WRITE;
  76              		.loc 1 20 5 is_stmt 1
  77              	.LBB3:
  20:lcd_light_gui.c ****         graph->internals->last_write[i] = NO_WRITE;
  78              		.loc 1 20 9
  79              	.LVL5:
  20:lcd_light_gui.c ****         graph->internals->last_write[i] = NO_WRITE;
GAS LISTING C:\Users\Karzan\AppData\Local\Temp\cc75Aivq.s 			page 3


  80              		.loc 1 20 13 is_stmt 0
  81 0048 8147     		li	a5,0
  21:lcd_light_gui.c ****         graph->internals->graph_buffer[i] = DONT_GRAPH;
  82              		.loc 1 21 41
  83 004a 7D56     		li	a2,-1
  84              		.loc 1 22 43
  85 004c 1347F7FF 		xori	a4,a4,-1
  86              	.LVL6:
  87              	.L2:
  20:lcd_light_gui.c ****         graph->internals->last_write[i] = NO_WRITE;
  88              		.loc 1 20 5 discriminator 1
  89 0050 63999700 		bne	a5,s1,.L3
  90              	.LBE3:
  23:lcd_light_gui.c ****     }
  24:lcd_light_gui.c **** 
  25:lcd_light_gui.c ****     return 1;
  91              		.loc 1 25 5 is_stmt 1
  26:lcd_light_gui.c **** }
  92              		.loc 1 26 1 is_stmt 0
  93 0054 F240     		lw	ra,28(sp)
  94              		.cfi_remember_state
  95              		.cfi_restore 1
  96 0056 6244     		lw	s0,24(sp)
  97              		.cfi_restore 8
  98 0058 D244     		lw	s1,20(sp)
  99              		.cfi_restore 9
 100              	.LVL7:
 101 005a 4249     		lw	s2,16(sp)
 102              		.cfi_restore 18
 103              	.LVL8:
 104 005c 0545     		li	a0,1
 105 005e 0561     		addi	sp,sp,32
 106              	.LCFI1:
 107              		.cfi_def_cfa_offset 0
 108              	.LVL9:
 109 0060 8280     		jr	ra
 110              	.LVL10:
 111              	.L3:
 112              	.LCFI2:
 113              		.cfi_restore_state
 114              	.LBB4:
  21:lcd_light_gui.c ****         graph->internals->graph_buffer[i] = DONT_GRAPH;
 115              		.loc 1 21 9 is_stmt 1 discriminator 3
  21:lcd_light_gui.c ****         graph->internals->graph_buffer[i] = DONT_GRAPH;
 116              		.loc 1 21 25 is_stmt 0 discriminator 3
 117 0062 83268901 		lw	a3,24(s2)
  22:lcd_light_gui.c ****     }
 118              		.loc 1 22 43 discriminator 3
 119 0066 93952700 		slli	a1,a5,2
  21:lcd_light_gui.c ****         graph->internals->graph_buffer[i] = DONT_GRAPH;
 120              		.loc 1 21 41 discriminator 3
 121 006a 9446     		lw	a3,8(a3)
 122 006c BE96     		add	a3,a3,a5
 123 006e 2380C600 		sb	a2,0(a3)
  22:lcd_light_gui.c ****     }
 124              		.loc 1 22 9 is_stmt 1 discriminator 3
  22:lcd_light_gui.c ****     }
GAS LISTING C:\Users\Karzan\AppData\Local\Temp\cc75Aivq.s 			page 4


 125              		.loc 1 22 25 is_stmt 0 discriminator 3
 126 0072 83268901 		lw	a3,24(s2)
  20:lcd_light_gui.c ****         graph->internals->last_write[i] = NO_WRITE;
 127              		.loc 1 20 32 discriminator 3
 128 0076 8507     		addi	a5,a5,1
 129              	.LVL11:
  22:lcd_light_gui.c ****     }
 130              		.loc 1 22 43 discriminator 3
 131 0078 9442     		lw	a3,0(a3)
 132 007a AE96     		add	a3,a3,a1
 133 007c 98C2     		sw	a4,0(a3)
 134 007e C9BF     		j	.L2
 135              	.LBE4:
 136              		.cfi_endproc
 137              	.LFE5:
 139              		.section	.text.gui_remove_graph,"ax",@progbits
 140              		.align	1
 141              		.globl	gui_remove_graph
 143              	gui_remove_graph:
 144              	.LFB6:
  27:lcd_light_gui.c **** 
  28:lcd_light_gui.c **** int gui_remove_graph(graph_config_t* graph){
 145              		.loc 1 28 44 is_stmt 1
 146              		.cfi_startproc
 147              	.LVL12:
  29:lcd_light_gui.c ****     free(graph->internals->last_write);
 148              		.loc 1 29 5
 149              		.loc 1 29 26 is_stmt 0
 150 0000 1C4D     		lw	a5,24(a0)
  28:lcd_light_gui.c ****     free(graph->internals->last_write);
 151              		.loc 1 28 44
 152 0002 4111     		addi	sp,sp,-16
 153              	.LCFI3:
 154              		.cfi_def_cfa_offset 16
 155 0004 22C4     		sw	s0,8(sp)
 156              		.cfi_offset 8, -8
 157 0006 2A84     		mv	s0,a0
 158              		.loc 1 29 5
 159 0008 8847     		lw	a0,8(a5)
 160              	.LVL13:
  28:lcd_light_gui.c ****     free(graph->internals->last_write);
 161              		.loc 1 28 44
 162 000a 06C6     		sw	ra,12(sp)
 163              		.cfi_offset 1, -4
 164              		.loc 1 29 5
 165 000c 97000000 		call	free
 165      E7800000 
 166              	.LVL14:
  30:lcd_light_gui.c ****     free(graph->internals->graph_buffer);
 167              		.loc 1 30 5 is_stmt 1
 168              		.loc 1 30 26 is_stmt 0
 169 0014 1C4C     		lw	a5,24(s0)
 170              		.loc 1 30 5
 171 0016 8843     		lw	a0,0(a5)
 172 0018 97000000 		call	free
 172      E7800000 
 173              	.LVL15:
GAS LISTING C:\Users\Karzan\AppData\Local\Temp\cc75Aivq.s 			page 5


  31:lcd_light_gui.c ****     free(graph->internals);
 174              		.loc 1 31 5 is_stmt 1
 175 0020 084C     		lw	a0,24(s0)
 176 0022 97000000 		call	free
 176      E7800000 
 177              	.LVL16:
  32:lcd_light_gui.c ****     return 0;
 178              		.loc 1 32 5
  33:lcd_light_gui.c **** }
 179              		.loc 1 33 1 is_stmt 0
 180 002a B240     		lw	ra,12(sp)
 181              		.cfi_restore 1
 182 002c 2244     		lw	s0,8(sp)
 183              		.cfi_restore 8
 184              	.LVL17:
 185 002e 0145     		li	a0,0
 186 0030 4101     		addi	sp,sp,16
 187              	.LCFI4:
 188              		.cfi_def_cfa_offset 0
 189 0032 8280     		jr	ra
 190              		.cfi_endproc
 191              	.LFE6:
 193              		.section	.text.gui_append_graph,"ax",@progbits
 194              		.align	1
 195              		.globl	gui_append_graph
 197              	gui_append_graph:
 198              	.LFB7:
  34:lcd_light_gui.c **** 
  35:lcd_light_gui.c **** 
  36:lcd_light_gui.c **** int gui_append_graph(graph_config_t* graph, int32_t* values, size_t append_n){
 199              		.loc 1 36 78 is_stmt 1
 200              		.cfi_startproc
 201              	.LVL18:
  37:lcd_light_gui.c **** 
  38:lcd_light_gui.c ****     graph_internals_t *p_graph = graph->internals;
 202              		.loc 1 38 5
 203              		.loc 1 38 24 is_stmt 0
 204 0000 1C4D     		lw	a5,24(a0)
 205              	.LVL19:
  39:lcd_light_gui.c **** 
  40:lcd_light_gui.c ****     for(int i = 0; i < append_n; i++){
 206              		.loc 1 40 5 is_stmt 1
 207              	.LBB5:
 208              		.loc 1 40 9
 209              		.loc 1 40 13 is_stmt 0
 210 0002 8146     		li	a3,0
 211              	.LVL20:
 212              	.L8:
 213              		.loc 1 40 5 discriminator 1
 214 0004 6394C600 		bne	a3,a2,.L9
 215              	.LBE5:
  41:lcd_light_gui.c ****         p_graph->graph_buffer[p_graph->index] = values[i];
  42:lcd_light_gui.c ****         p_graph->index = (p_graph->index + 1) % p_graph->width;
  43:lcd_light_gui.c ****     }
  44:lcd_light_gui.c ****     
  45:lcd_light_gui.c ****     return 0;
 216              		.loc 1 45 5 is_stmt 1
GAS LISTING C:\Users\Karzan\AppData\Local\Temp\cc75Aivq.s 			page 6


  46:lcd_light_gui.c **** }
 217              		.loc 1 46 1 is_stmt 0
 218 0008 0145     		li	a0,0
 219 000a 8280     		ret
 220              	.L9:
 221              	.LBB6:
  41:lcd_light_gui.c ****         p_graph->graph_buffer[p_graph->index] = values[i];
 222              		.loc 1 41 9 is_stmt 1 discriminator 3
  41:lcd_light_gui.c ****         p_graph->graph_buffer[p_graph->index] = values[i];
 223              		.loc 1 41 55 is_stmt 0 discriminator 3
 224 000c 13972600 		slli	a4,a3,2
  41:lcd_light_gui.c ****         p_graph->graph_buffer[p_graph->index] = values[i];
 225              		.loc 1 41 30 discriminator 3
 226 0010 C843     		lw	a0,4(a5)
  41:lcd_light_gui.c ****         p_graph->graph_buffer[p_graph->index] = values[i];
 227              		.loc 1 41 55 discriminator 3
 228 0012 2E97     		add	a4,a1,a4
 229 0014 03280700 		lw	a6,0(a4)
  41:lcd_light_gui.c ****         p_graph->graph_buffer[p_graph->index] = values[i];
 230              		.loc 1 41 47 discriminator 3
 231 0018 9843     		lw	a4,0(a5)
 232 001a 0A05     		slli	a0,a0,2
  40:lcd_light_gui.c ****         p_graph->graph_buffer[p_graph->index] = values[i];
 233              		.loc 1 40 35 discriminator 3
 234 001c 8506     		addi	a3,a3,1
 235              	.LVL21:
  41:lcd_light_gui.c ****         p_graph->graph_buffer[p_graph->index] = values[i];
 236              		.loc 1 41 47 discriminator 3
 237 001e 2A97     		add	a4,a4,a0
 238 0020 23200701 		sw	a6,0(a4)
  42:lcd_light_gui.c ****     }
 239              		.loc 1 42 9 is_stmt 1 discriminator 3
 240              	.LVL22:
  42:lcd_light_gui.c ****     }
 241              		.loc 1 42 42 is_stmt 0 discriminator 3
 242 0024 D843     		lw	a4,4(a5)
  42:lcd_light_gui.c ****     }
 243              		.loc 1 42 47 discriminator 3
 244 0026 C847     		lw	a0,12(a5)
  42:lcd_light_gui.c ****     }
 245              		.loc 1 42 42 discriminator 3
 246 0028 0507     		addi	a4,a4,1
  42:lcd_light_gui.c ****     }
 247              		.loc 1 42 47 discriminator 3
 248 002a 3377A702 		remu	a4,a4,a0
  42:lcd_light_gui.c ****     }
 249              		.loc 1 42 24 discriminator 3
 250 002e D8C3     		sw	a4,4(a5)
 251 0030 D1BF     		j	.L8
 252              	.LBE6:
 253              		.cfi_endproc
 254              	.LFE7:
 256              		.section	.text.gui_render_graph,"ax",@progbits
 257              		.align	1
 258              		.globl	gui_render_graph
 260              	gui_render_graph:
 261              	.LFB8:
GAS LISTING C:\Users\Karzan\AppData\Local\Temp\cc75Aivq.s 			page 7


  47:lcd_light_gui.c **** int gui_render_graph(graph_config_t* graph){
 262              		.loc 1 47 44 is_stmt 1
 263              		.cfi_startproc
 264              	.LVL23:
  48:lcd_light_gui.c **** 
  49:lcd_light_gui.c ****     graph_internals_t *p_graph = graph->internals;  //Handle to make adressing less of a hassle
 265              		.loc 1 49 5
  47:lcd_light_gui.c **** int gui_render_graph(graph_config_t* graph){
 266              		.loc 1 47 44 is_stmt 0
 267 0000 7971     		addi	sp,sp,-48
 268              	.LCFI5:
 269              		.cfi_def_cfa_offset 48
 270 0002 22D4     		sw	s0,40(sp)
 271              		.cfi_offset 8, -8
 272              		.loc 1 49 24
 273 0004 004D     		lw	s0,24(a0)
 274              	.LVL24:
  50:lcd_light_gui.c ****     int32_t y, x, min, max, scaling;
 275              		.loc 1 50 5 is_stmt 1
  51:lcd_light_gui.c ****     
  52:lcd_light_gui.c ****     x = graph->x_origin;
 276              		.loc 1 52 5
  47:lcd_light_gui.c **** 
 277              		.loc 1 47 44 is_stmt 0
 278 0006 56CA     		sw	s5,20(sp)
 279              		.cfi_offset 21, -28
 280              		.loc 1 52 14
 281 0008 832A4500 		lw	s5,4(a0)
 282              	.LBB12:
 283              	.LBB13:
  53:lcd_light_gui.c **** 
  54:lcd_light_gui.c ****     minmax_int(&min, &max, p_graph);
  55:lcd_light_gui.c **** 
  56:lcd_light_gui.c ****     if(min == INT32_MAX) return -1; //Graph empty, exit
  57:lcd_light_gui.c **** 
  58:lcd_light_gui.c ****     if(graph->scale_setting == SCALE_TO_FIT){
  59:lcd_light_gui.c **** 
  60:lcd_light_gui.c ****         graph->scaling = (max - min) / p_graph->height;
  61:lcd_light_gui.c ****         graph->scaling = graph->scaling == 0 ? 1 : graph->scaling;
  62:lcd_light_gui.c **** 
  63:lcd_light_gui.c ****         for(int i = 0; i < p_graph->width; x++, i++){
  64:lcd_light_gui.c **** 
  65:lcd_light_gui.c ****             if(p_graph->graph_buffer[(p_graph->index + i) % p_graph->width] != DONT_GRAPH){
  66:lcd_light_gui.c **** 
  67:lcd_light_gui.c ****                 y = graph->y_origin + p_graph->height - ((p_graph->graph_buffer[(p_graph->index + i
  68:lcd_light_gui.c **** 
  69:lcd_light_gui.c ****                 if(!(y < graph->y_origin || y > graph->y_origin + p_graph->height)){
  70:lcd_light_gui.c **** 
  71:lcd_light_gui.c ****                     p_graph->last_write[i] = y;
  72:lcd_light_gui.c ****                     lio_lcd_draw_pixel(x, y, graph->color);
  73:lcd_light_gui.c **** 
  74:lcd_light_gui.c ****                 } else {
  75:lcd_light_gui.c ****                     p_graph->last_write[i] = NO_WRITE;
  76:lcd_light_gui.c ****                 }
  77:lcd_light_gui.c ****             } else {
  78:lcd_light_gui.c ****                 p_graph->last_write[i] = NO_WRITE;
  79:lcd_light_gui.c ****             }
GAS LISTING C:\Users\Karzan\AppData\Local\Temp\cc75Aivq.s 			page 8


  80:lcd_light_gui.c ****         }
  81:lcd_light_gui.c ****     }
  82:lcd_light_gui.c **** 
  83:lcd_light_gui.c ****     if(graph->scale_setting == USE_CUSTOM || graph->scale_setting == NO_SCALING){ 
  84:lcd_light_gui.c **** 
  85:lcd_light_gui.c ****         scaling = graph->scaling;
  86:lcd_light_gui.c ****         if(graph->scale_setting == NO_SCALING) scaling = 1;
  87:lcd_light_gui.c **** 
  88:lcd_light_gui.c ****         for(int i = 0; i < p_graph->width; x++, i++){
  89:lcd_light_gui.c **** 
  90:lcd_light_gui.c ****             if(p_graph->graph_buffer[p_graph->index + i % p_graph->width] != DONT_GRAPH){
  91:lcd_light_gui.c **** 
  92:lcd_light_gui.c ****                 y = graph->y_origin + p_graph->height - ((p_graph->graph_buffer[(p_graph->index + i
  93:lcd_light_gui.c **** 
  94:lcd_light_gui.c ****                 if(!(y < graph->y_origin || y > graph->y_origin + p_graph->height)){
  95:lcd_light_gui.c ****                     
  96:lcd_light_gui.c ****                     p_graph->last_write[i] = y;
  97:lcd_light_gui.c ****                     lio_lcd_draw_pixel(x, y, graph->color);
  98:lcd_light_gui.c ****                     
  99:lcd_light_gui.c ****                 } else {
 100:lcd_light_gui.c ****                     p_graph->last_write[i] = NO_WRITE;
 101:lcd_light_gui.c ****                 }
 102:lcd_light_gui.c ****             } else {
 103:lcd_light_gui.c ****                 p_graph->last_write[i] = NO_WRITE;
 104:lcd_light_gui.c ****             }
 105:lcd_light_gui.c ****             
 106:lcd_light_gui.c ****         }
 107:lcd_light_gui.c **** 
 108:lcd_light_gui.c ****     }
 109:lcd_light_gui.c **** 
 110:lcd_light_gui.c ****     return 1;
 111:lcd_light_gui.c **** }
 112:lcd_light_gui.c **** 
 113:lcd_light_gui.c **** int gui_erase_graph(graph_config_t* graph){
 114:lcd_light_gui.c ****     graph_internals_t *p_graph = graph->internals;
 115:lcd_light_gui.c **** 
 116:lcd_light_gui.c ****     for(int i = 0; i < p_graph->width; i++){
 117:lcd_light_gui.c ****         if(p_graph->last_write[i] != NO_WRITE){
 118:lcd_light_gui.c ****             lio_lcd_draw_pixel(i + graph->x_origin, p_graph->last_write[i], graph->background);
 119:lcd_light_gui.c ****         }
 120:lcd_light_gui.c ****     }
 121:lcd_light_gui.c ****     return 0;
 122:lcd_light_gui.c **** }
 123:lcd_light_gui.c **** 
 124:lcd_light_gui.c **** static
 125:lcd_light_gui.c **** void minmax_int(int32_t* p_min, int32_t* p_max, graph_internals_t* graph){
 126:lcd_light_gui.c ****     int min = INT32_MAX;
 127:lcd_light_gui.c ****     int max = INT32_MIN;
 284              		.loc 1 127 9
 285 000c B7070080 		li	a5,-2147483648
 286              	.LBB14:
 128:lcd_light_gui.c ****     int temp;
 129:lcd_light_gui.c ****     for(int i = 0; i < graph->width; i++){
 287              		.loc 1 129 29
 288 0010 4C44     		lw	a1,12(s0)
 289              	.LBE14:
 290              	.LBE13:
GAS LISTING C:\Users\Karzan\AppData\Local\Temp\cc75Aivq.s 			page 9


 291              	.LBE12:
  47:lcd_light_gui.c **** 
 292              		.loc 1 47 44
 293 0012 52CC     		sw	s4,24(sp)
 294              		.cfi_offset 20, -24
 295              	.LBB20:
 296              	.LBB17:
 126:lcd_light_gui.c ****     int max = INT32_MIN;
 297              		.loc 1 126 9
 298 0014 13CAF7FF 		xori	s4,a5,-1
 299              	.LBE17:
 300              	.LBE20:
  47:lcd_light_gui.c **** 
 301              		.loc 1 47 44
 302 0018 26D2     		sw	s1,36(sp)
 303 001a 4ECE     		sw	s3,28(sp)
 304              		.cfi_offset 9, -12
 305              		.cfi_offset 19, -20
 306 001c AA84     		mv	s1,a0
 307 001e 06D6     		sw	ra,44(sp)
 308 0020 4AD0     		sw	s2,32(sp)
 309 0022 5AC8     		sw	s6,16(sp)
 310 0024 5EC6     		sw	s7,12(sp)
 311              		.cfi_offset 1, -4
 312              		.cfi_offset 18, -16
 313              		.cfi_offset 22, -32
 314              		.cfi_offset 23, -36
  52:lcd_light_gui.c **** 
 315              		.loc 1 52 7
 316 0026 D689     		mv	s3,s5
 317              	.LVL25:
  54:lcd_light_gui.c **** 
 318              		.loc 1 54 5 is_stmt 1
 319              	.LBB21:
 320              	.LBB18:
 126:lcd_light_gui.c ****     int max = INT32_MIN;
 321              		.loc 1 126 5
 127:lcd_light_gui.c ****     int temp;
 322              		.loc 1 127 5
 128:lcd_light_gui.c ****     for(int i = 0; i < graph->width; i++){
 323              		.loc 1 128 5
 324              		.loc 1 129 5
 325              	.LBB15:
 326              		.loc 1 129 9
 327              		.loc 1 129 13 is_stmt 0
 328 0028 8146     		li	a3,0
 130:lcd_light_gui.c ****         temp = graph->graph_buffer[(graph->index + i) % graph->width];
 131:lcd_light_gui.c ****         if(temp != DONT_GRAPH){
 329              		.loc 1 131 11
 330 002a 5285     		mv	a0,s4
 331              	.LVL26:
 332              	.L11:
 129:lcd_light_gui.c ****         temp = graph->graph_buffer[(graph->index + i) % graph->width];
 333              		.loc 1 129 5
 334 002c 6390B606 		bne	a3,a1,.L15
 335              	.LBE15:
 132:lcd_light_gui.c ****             min = temp < min ? temp : min;
GAS LISTING C:\Users\Karzan\AppData\Local\Temp\cc75Aivq.s 			page 10


 133:lcd_light_gui.c ****             max = temp > max ? temp : max;
 134:lcd_light_gui.c ****         }
 135:lcd_light_gui.c ****         
 136:lcd_light_gui.c ****     }
 137:lcd_light_gui.c ****     *p_min = min;
 336              		.loc 1 137 5 is_stmt 1
 337              	.LVL27:
 138:lcd_light_gui.c ****     *p_max = max;
 338              		.loc 1 138 5
 339              	.LBE18:
 340              	.LBE21:
  56:lcd_light_gui.c **** 
 341              		.loc 1 56 5
  56:lcd_light_gui.c **** 
 342              		.loc 1 56 7 is_stmt 0
 343 0030 37070080 		li	a4,-2147483648
 344 0034 1347F7FF 		xori	a4,a4,-1
  56:lcd_light_gui.c **** 
 345              		.loc 1 56 33
 346 0038 7D55     		li	a0,-1
  56:lcd_light_gui.c **** 
 347              		.loc 1 56 7
 348 003a 630EEA02 		beq	s4,a4,.L10
  58:lcd_light_gui.c **** 
 349              		.loc 1 58 5 is_stmt 1
  58:lcd_light_gui.c **** 
 350              		.loc 1 58 13 is_stmt 0
 351 003e D844     		lw	a4,12(s1)
  58:lcd_light_gui.c **** 
 352              		.loc 1 58 7
 353 0040 8546     		li	a3,1
 354 0042 6315D702 		bne	a4,a3,.L17
  60:lcd_light_gui.c ****         graph->scaling = graph->scaling == 0 ? 1 : graph->scaling;
 355              		.loc 1 60 9 is_stmt 1
  60:lcd_light_gui.c ****         graph->scaling = graph->scaling == 0 ? 1 : graph->scaling;
 356              		.loc 1 60 47 is_stmt 0
 357 0046 1448     		lw	a3,16(s0)
  61:lcd_light_gui.c **** 
 358              		.loc 1 61 9 is_stmt 1
  60:lcd_light_gui.c ****         graph->scaling = graph->scaling == 0 ? 1 : graph->scaling;
 359              		.loc 1 60 31 is_stmt 0
 360 0048 B3874741 		sub	a5,a5,s4
 361              	.LVL28:
  61:lcd_light_gui.c **** 
 362              		.loc 1 61 50
 363 004c 63E4D700 		bltu	a5,a3,.L18
  60:lcd_light_gui.c ****         graph->scaling = graph->scaling == 0 ? 1 : graph->scaling;
 364              		.loc 1 60 38
 365 0050 33D7D702 		divu	a4,a5,a3
 366              	.L18:
 367              	.LBB22:
  65:lcd_light_gui.c **** 
 368              		.loc 1 65 15 discriminator 4
 369 0054 370B0080 		li	s6,-2147483648
 370              	.LBE22:
  61:lcd_light_gui.c **** 
 371              		.loc 1 61 24 discriminator 4
GAS LISTING C:\Users\Karzan\AppData\Local\Temp\cc75Aivq.s 			page 11


 372 0058 98C8     		sw	a4,16(s1)
  63:lcd_light_gui.c **** 
 373              		.loc 1 63 9 is_stmt 1 discriminator 4
 374              	.LBB23:
  63:lcd_light_gui.c **** 
 375              		.loc 1 63 13 discriminator 4
 376              	.LVL29:
  63:lcd_light_gui.c **** 
 377              		.loc 1 63 17 is_stmt 0 discriminator 4
 378 005a 0149     		li	s2,0
  65:lcd_light_gui.c **** 
 379              		.loc 1 65 15 discriminator 4
 380 005c 134BFBFF 		xori	s6,s6,-1
  78:lcd_light_gui.c ****             }
 381              		.loc 1 78 40 discriminator 4
 382 0060 FD5B     		li	s7,-1
 383              	.LVL30:
 384              	.L19:
  63:lcd_light_gui.c **** 
 385              		.loc 1 63 35 discriminator 1
 386 0062 5844     		lw	a4,12(s0)
 387 0064 B3892A01 		add	s3,s5,s2
 388              	.LVL31:
  63:lcd_light_gui.c **** 
 389              		.loc 1 63 9 discriminator 1
 390 0068 6364E904 		bltu	s2,a4,.L23
 391              	.LVL32:
 392              	.L17:
 393              	.LBE23:
  83:lcd_light_gui.c **** 
 394              		.loc 1 83 5 is_stmt 1
  83:lcd_light_gui.c **** 
 395              		.loc 1 83 13 is_stmt 0
 396 006c DC44     		lw	a5,12(s1)
  83:lcd_light_gui.c **** 
 397              		.loc 1 83 43
 398 006e 13F7D7FF 		andi	a4,a5,-3
 399 0072 59CB     		beq	a4,zero,.L24
 400              	.LVL33:
 401              	.L31:
 110:lcd_light_gui.c **** }
 402              		.loc 1 110 12
 403 0074 0545     		li	a0,1
 404              	.L10:
 111:lcd_light_gui.c **** 
 405              		.loc 1 111 1
 406 0076 B250     		lw	ra,44(sp)
 407              		.cfi_remember_state
 408              		.cfi_restore 1
 409 0078 2254     		lw	s0,40(sp)
 410              		.cfi_restore 8
 411              	.LVL34:
 412 007a 9254     		lw	s1,36(sp)
 413              		.cfi_restore 9
 414              	.LVL35:
 415 007c 0259     		lw	s2,32(sp)
 416              		.cfi_restore 18
GAS LISTING C:\Users\Karzan\AppData\Local\Temp\cc75Aivq.s 			page 12


 417 007e F249     		lw	s3,28(sp)
 418              		.cfi_restore 19
 419 0080 624A     		lw	s4,24(sp)
 420              		.cfi_restore 20
 421 0082 D24A     		lw	s5,20(sp)
 422              		.cfi_restore 21
 423 0084 424B     		lw	s6,16(sp)
 424              		.cfi_restore 22
 425 0086 B24B     		lw	s7,12(sp)
 426              		.cfi_restore 23
 427 0088 4561     		addi	sp,sp,48
 428              	.LCFI6:
 429              		.cfi_def_cfa_offset 0
 430 008a 8280     		jr	ra
 431              	.LVL36:
 432              	.L15:
 433              	.LCFI7:
 434              		.cfi_restore_state
 435              	.LBB24:
 436              	.LBB19:
 437              	.LBB16:
 130:lcd_light_gui.c ****         if(temp != DONT_GRAPH){
 438              		.loc 1 130 9 is_stmt 1
 130:lcd_light_gui.c ****         if(temp != DONT_GRAPH){
 439              		.loc 1 130 50 is_stmt 0
 440 008c 5840     		lw	a4,4(s0)
 130:lcd_light_gui.c ****         if(temp != DONT_GRAPH){
 441              		.loc 1 130 14
 442 008e 1040     		lw	a2,0(s0)
 130:lcd_light_gui.c ****         if(temp != DONT_GRAPH){
 443              		.loc 1 130 50
 444 0090 3697     		add	a4,a3,a4
 130:lcd_light_gui.c ****         if(temp != DONT_GRAPH){
 445              		.loc 1 130 55
 446 0092 3377B702 		remu	a4,a4,a1
 130:lcd_light_gui.c ****         if(temp != DONT_GRAPH){
 447              		.loc 1 130 14
 448 0096 0A07     		slli	a4,a4,2
 449 0098 3297     		add	a4,a2,a4
 450 009a 1843     		lw	a4,0(a4)
 451              	.LVL37:
 131:lcd_light_gui.c ****             min = temp < min ? temp : min;
 452              		.loc 1 131 9 is_stmt 1
 131:lcd_light_gui.c ****             min = temp < min ? temp : min;
 453              		.loc 1 131 11 is_stmt 0
 454 009c 6308A700 		beq	a4,a0,.L12
 132:lcd_light_gui.c ****             max = temp > max ? temp : max;
 455              		.loc 1 132 13 is_stmt 1
 132:lcd_light_gui.c ****             max = temp > max ? temp : max;
 456              		.loc 1 132 17 is_stmt 0
 457 00a0 63534701 		ble	s4,a4,.L13
 458 00a4 3A8A     		mv	s4,a4
 459              	.LVL38:
 460              	.L13:
 133:lcd_light_gui.c ****         }
 461              		.loc 1 133 13 is_stmt 1
 133:lcd_light_gui.c ****         }
GAS LISTING C:\Users\Karzan\AppData\Local\Temp\cc75Aivq.s 			page 13


 462              		.loc 1 133 17 is_stmt 0
 463 00a6 63D3E700 		bge	a5,a4,.L12
 464 00aa BA87     		mv	a5,a4
 465              	.LVL39:
 466              	.L12:
 129:lcd_light_gui.c ****         temp = graph->graph_buffer[(graph->index + i) % graph->width];
 467              		.loc 1 129 39
 468 00ac 8506     		addi	a3,a3,1
 469              	.LVL40:
 470 00ae BDBF     		j	.L11
 471              	.LVL41:
 472              	.L23:
 473              	.LBE16:
 474              	.LBE19:
 475              	.LBE24:
 476              	.LBB25:
  65:lcd_light_gui.c **** 
 477              		.loc 1 65 13 is_stmt 1
  65:lcd_light_gui.c **** 
 478              		.loc 1 65 54 is_stmt 0
 479 00b0 5C40     		lw	a5,4(s0)
 480 00b2 CA97     		add	a5,s2,a5
  65:lcd_light_gui.c **** 
 481              		.loc 1 65 59
 482 00b4 B3F7E702 		remu	a5,a5,a4
  65:lcd_light_gui.c **** 
 483              		.loc 1 65 37
 484 00b8 1840     		lw	a4,0(s0)
 485 00ba 8A07     		slli	a5,a5,2
 486 00bc BA97     		add	a5,a4,a5
 487 00be 8C43     		lw	a1,0(a5)
 488 00c0 1C44     		lw	a5,8(s0)
 489 00c2 CA97     		add	a5,a5,s2
  65:lcd_light_gui.c **** 
 490              		.loc 1 65 15
 491 00c4 638F6503 		beq	a1,s6,.L20
  67:lcd_light_gui.c **** 
 492              		.loc 1 67 17 is_stmt 1
  67:lcd_light_gui.c **** 
 493              		.loc 1 67 127 is_stmt 0
 494 00c8 9048     		lw	a2,16(s1)
  67:lcd_light_gui.c **** 
 495              		.loc 1 67 120
 496 00ca B3854541 		sub	a1,a1,s4
  67:lcd_light_gui.c **** 
 497              		.loc 1 67 26
 498 00ce 9444     		lw	a3,8(s1)
  67:lcd_light_gui.c **** 
 499              		.loc 1 67 127
 500 00d0 B3D5C502 		divu	a1,a1,a2
  67:lcd_light_gui.c **** 
 501              		.loc 1 67 37
 502 00d4 1848     		lw	a4,16(s0)
 503 00d6 3697     		add	a4,a3,a4
  67:lcd_light_gui.c **** 
 504              		.loc 1 67 55
 505 00d8 B305B740 		sub	a1,a4,a1
GAS LISTING C:\Users\Karzan\AppData\Local\Temp\cc75Aivq.s 			page 14


 506              	.LVL42:
  69:lcd_light_gui.c **** 
 507              		.loc 1 69 17 is_stmt 1
  69:lcd_light_gui.c **** 
 508              		.loc 1 69 19 is_stmt 0
 509 00dc 63E3D502 		bgtu	a3,a1,.L20
  69:lcd_light_gui.c **** 
 510              		.loc 1 69 20 discriminator 1
 511 00e0 6361B702 		bltu	a4,a1,.L20
  71:lcd_light_gui.c ****                     lio_lcd_draw_pixel(x, y, graph->color);
 512              		.loc 1 71 21 is_stmt 1
  71:lcd_light_gui.c ****                     lio_lcd_draw_pixel(x, y, graph->color);
 513              		.loc 1 71 44 is_stmt 0
 514 00e4 2380B700 		sb	a1,0(a5)
  72:lcd_light_gui.c **** 
 515              		.loc 1 72 21 is_stmt 1
 516 00e8 03D60400 		lhu	a2,0(s1)
 517 00ec C205     		slli	a1,a1,16
 518              	.LVL43:
 519 00ee 13950901 		slli	a0,s3,16
 520 00f2 C181     		srli	a1,a1,16
 521 00f4 4181     		srli	a0,a0,16
 522 00f6 97000000 		call	lio_lcd_draw_pixel
 522      E7800000 
 523              	.LVL44:
 524              	.L22:
  63:lcd_light_gui.c **** 
 525              		.loc 1 63 50 is_stmt 0 discriminator 2
 526 00fe 0509     		addi	s2,s2,1
 527              	.LVL45:
 528 0100 8DB7     		j	.L19
 529              	.LVL46:
 530              	.L20:
  78:lcd_light_gui.c ****             }
 531              		.loc 1 78 17 is_stmt 1
  78:lcd_light_gui.c ****             }
 532              		.loc 1 78 40 is_stmt 0
 533 0102 23807701 		sb	s7,0(a5)
 534 0106 E5BF     		j	.L22
 535              	.LVL47:
 536              	.L24:
 537              	.LBE25:
  85:lcd_light_gui.c ****         if(graph->scale_setting == NO_SCALING) scaling = 1;
 538              		.loc 1 85 9 is_stmt 1
  85:lcd_light_gui.c ****         if(graph->scale_setting == NO_SCALING) scaling = 1;
 539              		.loc 1 85 24 is_stmt 0
 540 0108 83AA0401 		lw	s5,16(s1)
 541              	.LVL48:
  86:lcd_light_gui.c **** 
 542              		.loc 1 86 9 is_stmt 1
  86:lcd_light_gui.c **** 
 543              		.loc 1 86 11 is_stmt 0
 544 010c 91E3     		bne	a5,zero,.L25
 545              	.LVL49:
 546 010e 854A     		li	s5,1
 547              	.LVL50:
 548              	.L25:
GAS LISTING C:\Users\Karzan\AppData\Local\Temp\cc75Aivq.s 			page 15


  88:lcd_light_gui.c **** 
 549              		.loc 1 88 9 is_stmt 1
 550              	.LBB26:
  88:lcd_light_gui.c **** 
 551              		.loc 1 88 13
  90:lcd_light_gui.c **** 
 552              		.loc 1 90 15 is_stmt 0
 553 0110 370A0080 		li	s4,-2147483648
 554              	.LVL51:
  88:lcd_light_gui.c **** 
 555              		.loc 1 88 17
 556 0114 0149     		li	s2,0
  90:lcd_light_gui.c **** 
 557              		.loc 1 90 15
 558 0116 134AFAFF 		xori	s4,s4,-1
 103:lcd_light_gui.c ****             }
 559              		.loc 1 103 40
 560 011a 7D5B     		li	s6,-1
 561              	.LVL52:
 562              	.L26:
  88:lcd_light_gui.c **** 
 563              		.loc 1 88 35 discriminator 1
 564 011c 4C44     		lw	a1,12(s0)
  88:lcd_light_gui.c **** 
 565              		.loc 1 88 9 discriminator 1
 566 011e E37BB9F4 		bgeu	s2,a1,.L31
  90:lcd_light_gui.c **** 
 567              		.loc 1 90 13 is_stmt 1
  90:lcd_light_gui.c **** 
 568              		.loc 1 90 57 is_stmt 0
 569 0122 3377B902 		remu	a4,s2,a1
  90:lcd_light_gui.c **** 
 570              		.loc 1 90 45
 571 0126 5C40     		lw	a5,4(s0)
  90:lcd_light_gui.c **** 
 572              		.loc 1 90 23
 573 0128 1040     		lw	a2,0(s0)
 574 012a 1444     		lw	a3,8(s0)
 575 012c CA96     		add	a3,a3,s2
  90:lcd_light_gui.c **** 
 576              		.loc 1 90 37
 577 012e 3E97     		add	a4,a4,a5
 578 0130 0A07     		slli	a4,a4,2
 579 0132 3297     		add	a4,a2,a4
  90:lcd_light_gui.c **** 
 580              		.loc 1 90 15
 581 0134 1843     		lw	a4,0(a4)
 582 0136 63054705 		beq	a4,s4,.L27
  92:lcd_light_gui.c **** 
 583              		.loc 1 92 17 is_stmt 1
  92:lcd_light_gui.c **** 
 584              		.loc 1 92 97 is_stmt 0
 585 013a CA97     		add	a5,a5,s2
  92:lcd_light_gui.c **** 
 586              		.loc 1 92 102
 587 013c B3F7B702 		remu	a5,a5,a1
  92:lcd_light_gui.c **** 
GAS LISTING C:\Users\Karzan\AppData\Local\Temp\cc75Aivq.s 			page 16


 588              		.loc 1 92 26
 589 0140 8844     		lw	a0,8(s1)
  92:lcd_light_gui.c **** 
 590              		.loc 1 92 37
 591 0142 1848     		lw	a4,16(s0)
 592 0144 2A97     		add	a4,a0,a4
  92:lcd_light_gui.c **** 
 593              		.loc 1 92 80
 594 0146 8A07     		slli	a5,a5,2
 595 0148 B297     		add	a5,a2,a5
  92:lcd_light_gui.c **** 
 596              		.loc 1 92 120
 597 014a 8C43     		lw	a1,0(a5)
 598 014c DC48     		lw	a5,20(s1)
 599 014e 9D8D     		sub	a1,a1,a5
  92:lcd_light_gui.c **** 
 600              		.loc 1 92 141
 601 0150 B3C55503 		div	a1,a1,s5
  92:lcd_light_gui.c **** 
 602              		.loc 1 92 55
 603 0154 B305B740 		sub	a1,a4,a1
 604              	.LVL53:
  94:lcd_light_gui.c ****                     
 605              		.loc 1 94 17 is_stmt 1
  94:lcd_light_gui.c ****                     
 606              		.loc 1 94 19 is_stmt 0
 607 0158 63E4A502 		bgtu	a0,a1,.L27
  94:lcd_light_gui.c ****                     
 608              		.loc 1 94 20 discriminator 1
 609 015c 6362B702 		bltu	a4,a1,.L27
  96:lcd_light_gui.c ****                     lio_lcd_draw_pixel(x, y, graph->color);
 610              		.loc 1 96 21 is_stmt 1
  96:lcd_light_gui.c ****                     lio_lcd_draw_pixel(x, y, graph->color);
 611              		.loc 1 96 44 is_stmt 0
 612 0160 2380B600 		sb	a1,0(a3)
  97:lcd_light_gui.c ****                     
 613              		.loc 1 97 21 is_stmt 1
 614 0164 33852901 		add	a0,s3,s2
 615              	.LVL54:
 616 0168 03D60400 		lhu	a2,0(s1)
 617 016c C205     		slli	a1,a1,16
 618              	.LVL55:
 619 016e 4205     		slli	a0,a0,16
 620              	.LVL56:
 621 0170 C181     		srli	a1,a1,16
 622 0172 4181     		srli	a0,a0,16
 623 0174 97000000 		call	lio_lcd_draw_pixel
 623      E7800000 
 624              	.LVL57:
 625              	.L29:
  88:lcd_light_gui.c **** 
 626              		.loc 1 88 50 is_stmt 0 discriminator 2
 627 017c 0509     		addi	s2,s2,1
 628              	.LVL58:
 629 017e 79BF     		j	.L26
 630              	.LVL59:
 631              	.L27:
GAS LISTING C:\Users\Karzan\AppData\Local\Temp\cc75Aivq.s 			page 17


 103:lcd_light_gui.c ****             }
 632              		.loc 1 103 17 is_stmt 1
 103:lcd_light_gui.c ****             }
 633              		.loc 1 103 40 is_stmt 0
 634 0180 23806601 		sb	s6,0(a3)
 635 0184 E5BF     		j	.L29
 636              	.LBE26:
 637              		.cfi_endproc
 638              	.LFE8:
 640              		.section	.text.gui_erase_graph,"ax",@progbits
 641              		.align	1
 642              		.globl	gui_erase_graph
 644              	gui_erase_graph:
 645              	.LFB9:
 113:lcd_light_gui.c ****     graph_internals_t *p_graph = graph->internals;
 646              		.loc 1 113 43 is_stmt 1
 647              		.cfi_startproc
 648              	.LVL60:
 114:lcd_light_gui.c **** 
 649              		.loc 1 114 5
 113:lcd_light_gui.c ****     graph_internals_t *p_graph = graph->internals;
 650              		.loc 1 113 43 is_stmt 0
 651 0000 0111     		addi	sp,sp,-32
 652              	.LCFI8:
 653              		.cfi_def_cfa_offset 32
 654 0002 4AC8     		sw	s2,16(sp)
 655              		.cfi_offset 18, -16
 114:lcd_light_gui.c **** 
 656              		.loc 1 114 24
 657 0004 03298501 		lw	s2,24(a0)
 658              	.LVL61:
 116:lcd_light_gui.c ****         if(p_graph->last_write[i] != NO_WRITE){
 659              		.loc 1 116 5 is_stmt 1
 660              	.LBB27:
 116:lcd_light_gui.c ****         if(p_graph->last_write[i] != NO_WRITE){
 661              		.loc 1 116 9
 662              	.LBE27:
 113:lcd_light_gui.c ****     graph_internals_t *p_graph = graph->internals;
 663              		.loc 1 113 43 is_stmt 0
 664 0008 22CC     		sw	s0,24(sp)
 665 000a 26CA     		sw	s1,20(sp)
 666 000c 4EC6     		sw	s3,12(sp)
 667 000e 06CE     		sw	ra,28(sp)
 668              		.cfi_offset 8, -8
 669              		.cfi_offset 9, -12
 670              		.cfi_offset 19, -20
 671              		.cfi_offset 1, -4
 113:lcd_light_gui.c ****     graph_internals_t *p_graph = graph->internals;
 672              		.loc 1 113 43
 673 0010 AA84     		mv	s1,a0
 674              	.LBB28:
 116:lcd_light_gui.c ****         if(p_graph->last_write[i] != NO_WRITE){
 675              		.loc 1 116 13
 676 0012 0144     		li	s0,0
 117:lcd_light_gui.c ****             lio_lcd_draw_pixel(i + graph->x_origin, p_graph->last_write[i], graph->background);
 677              		.loc 1 117 11
 678 0014 9309F00F 		li	s3,255
GAS LISTING C:\Users\Karzan\AppData\Local\Temp\cc75Aivq.s 			page 18


 679              	.LVL62:
 680              	.L35:
 116:lcd_light_gui.c ****         if(p_graph->last_write[i] != NO_WRITE){
 681              		.loc 1 116 5 discriminator 1
 682 0018 8327C900 		lw	a5,12(s2)
 683 001c 636AF400 		bgtu	a5,s0,.L37
 684              	.LBE28:
 121:lcd_light_gui.c **** }
 685              		.loc 1 121 5 is_stmt 1
 122:lcd_light_gui.c **** 
 686              		.loc 1 122 1 is_stmt 0
 687 0020 F240     		lw	ra,28(sp)
 688              		.cfi_remember_state
 689              		.cfi_restore 1
 690 0022 6244     		lw	s0,24(sp)
 691              		.cfi_restore 8
 692              	.LVL63:
 693 0024 D244     		lw	s1,20(sp)
 694              		.cfi_restore 9
 695              	.LVL64:
 696 0026 4249     		lw	s2,16(sp)
 697              		.cfi_restore 18
 698              	.LVL65:
 699 0028 B249     		lw	s3,12(sp)
 700              		.cfi_restore 19
 701 002a 0145     		li	a0,0
 702 002c 0561     		addi	sp,sp,32
 703              	.LCFI9:
 704              		.cfi_def_cfa_offset 0
 705 002e 8280     		jr	ra
 706              	.LVL66:
 707              	.L37:
 708              	.LCFI10:
 709              		.cfi_restore_state
 710              	.LBB29:
 117:lcd_light_gui.c ****             lio_lcd_draw_pixel(i + graph->x_origin, p_graph->last_write[i], graph->background);
 711              		.loc 1 117 9 is_stmt 1
 117:lcd_light_gui.c ****             lio_lcd_draw_pixel(i + graph->x_origin, p_graph->last_write[i], graph->background);
 712              		.loc 1 117 31 is_stmt 0
 713 0030 83278900 		lw	a5,8(s2)
 714 0034 A297     		add	a5,a5,s0
 715 0036 83C50700 		lbu	a1,0(a5)
 117:lcd_light_gui.c ****             lio_lcd_draw_pixel(i + graph->x_origin, p_graph->last_write[i], graph->background);
 716              		.loc 1 117 11
 717 003a 638C3501 		beq	a1,s3,.L36
 118:lcd_light_gui.c ****         }
 718              		.loc 1 118 13 is_stmt 1
 719 003e C840     		lw	a0,4(s1)
 720 0040 03D62400 		lhu	a2,2(s1)
 721 0044 2295     		add	a0,a0,s0
 722 0046 4205     		slli	a0,a0,16
 723 0048 4181     		srli	a0,a0,16
 724 004a 97000000 		call	lio_lcd_draw_pixel
 724      E7800000 
 725              	.LVL67:
 726              	.L36:
 116:lcd_light_gui.c ****         if(p_graph->last_write[i] != NO_WRITE){
GAS LISTING C:\Users\Karzan\AppData\Local\Temp\cc75Aivq.s 			page 19


 727              		.loc 1 116 41 is_stmt 0 discriminator 2
 728 0052 0504     		addi	s0,s0,1
 729              	.LVL68:
 730 0054 D1B7     		j	.L35
 731              	.LBE29:
 732              		.cfi_endproc
 733              	.LFE9:
 735              		.text
 736              	.Letext0:
 737              		.file 2 "c:\\users\\karzan\\downloads\\toolchain-gd32v-v202-win\\toolchain-gd32v-v202-win\\compile
 738              		.file 3 "c:\\users\\karzan\\downloads\\toolchain-gd32v-v202-win\\toolchain-gd32v-v202-win\\compile
 739              		.file 4 "c:\\users\\karzan\\downloads\\toolchain-gd32v-v202-win\\toolchain-gd32v-v202-win\\compile
 740              		.file 5 "c:\\users\\karzan\\downloads\\toolchain-gd32v-v202-win\\toolchain-gd32v-v202-win\\compile
 741              		.file 6 "c:\\users\\karzan\\downloads\\toolchain-gd32v-v202-win\\toolchain-gd32v-v202-win\\compile
 742              		.file 7 "c:\\users\\karzan\\downloads\\toolchain-gd32v-v202-win\\toolchain-gd32v-v202-win\\compile
 743              		.file 8 "./../../firmware/GD32VF103_standard_peripheral/system_gd32vf103.h"
 744              		.file 9 "lcd_light_gui.h"
 745              		.file 10 "c:\\users\\karzan\\downloads\\toolchain-gd32v-v202-win\\toolchain-gd32v-v202-win\\compil
 746              		.file 11 "lio_lcd.h"
GAS LISTING C:\Users\Karzan\AppData\Local\Temp\cc75Aivq.s 			page 20


DEFINED SYMBOLS
                            *ABS*:0000000000000000 lcd_light_gui.c
C:\Users\Karzan\AppData\Local\Temp\cc75Aivq.s:13     .text.gui_init_graph:0000000000000000 gui_init_graph
C:\Users\Karzan\AppData\Local\Temp\cc75Aivq.s:17     .text.gui_init_graph:0000000000000000 .L0 
C:\Users\Karzan\AppData\Local\Temp\cc75Aivq.s:19     .text.gui_init_graph:0000000000000000 .L0 
C:\Users\Karzan\AppData\Local\Temp\cc75Aivq.s:20     .text.gui_init_graph:0000000000000000 .L0 
C:\Users\Karzan\AppData\Local\Temp\cc75Aivq.s:21     .text.gui_init_graph:0000000000000000 .L0 
C:\Users\Karzan\AppData\Local\Temp\cc75Aivq.s:23     .text.gui_init_graph:0000000000000002 .L0 
C:\Users\Karzan\AppData\Local\Temp\cc75Aivq.s:25     .text.gui_init_graph:0000000000000004 .L0 
C:\Users\Karzan\AppData\Local\Temp\cc75Aivq.s:28     .text.gui_init_graph:0000000000000006 .L0 
C:\Users\Karzan\AppData\Local\Temp\cc75Aivq.s:31     .text.gui_init_graph:0000000000000008 .L0 
C:\Users\Karzan\AppData\Local\Temp\cc75Aivq.s:34     .text.gui_init_graph:000000000000000e .L0 
C:\Users\Karzan\AppData\Local\Temp\cc75Aivq.s:35     .text.gui_init_graph:000000000000000e .L0 
C:\Users\Karzan\AppData\Local\Temp\cc75Aivq.s:36     .text.gui_init_graph:000000000000000e .L0 
C:\Users\Karzan\AppData\Local\Temp\cc75Aivq.s:38     .text.gui_init_graph:000000000000000e .L0 
C:\Users\Karzan\AppData\Local\Temp\cc75Aivq.s:41     .text.gui_init_graph:0000000000000012 .L0 
C:\Users\Karzan\AppData\Local\Temp\cc75Aivq.s:44     .text.gui_init_graph:000000000000001a .L0 
C:\Users\Karzan\AppData\Local\Temp\cc75Aivq.s:46     .text.gui_init_graph:000000000000001c .L0 
C:\Users\Karzan\AppData\Local\Temp\cc75Aivq.s:48     .text.gui_init_graph:000000000000001e .L0 
C:\Users\Karzan\AppData\Local\Temp\cc75Aivq.s:50     .text.gui_init_graph:0000000000000022 .L0 
C:\Users\Karzan\AppData\Local\Temp\cc75Aivq.s:51     .text.gui_init_graph:0000000000000022 .L0 
C:\Users\Karzan\AppData\Local\Temp\cc75Aivq.s:53     .text.gui_init_graph:0000000000000024 .L0 
C:\Users\Karzan\AppData\Local\Temp\cc75Aivq.s:55     .text.gui_init_graph:0000000000000026 .L0 
C:\Users\Karzan\AppData\Local\Temp\cc75Aivq.s:56     .text.gui_init_graph:0000000000000026 .L0 
C:\Users\Karzan\AppData\Local\Temp\cc75Aivq.s:57     .text.gui_init_graph:0000000000000026 .L0 
C:\Users\Karzan\AppData\Local\Temp\cc75Aivq.s:59     .text.gui_init_graph:000000000000002a .L0 
C:\Users\Karzan\AppData\Local\Temp\cc75Aivq.s:60     .text.gui_init_graph:000000000000002a .L0 
C:\Users\Karzan\AppData\Local\Temp\cc75Aivq.s:64     .text.gui_init_graph:0000000000000036 .L0 
C:\Users\Karzan\AppData\Local\Temp\cc75Aivq.s:66     .text.gui_init_graph:0000000000000038 .L0 
C:\Users\Karzan\AppData\Local\Temp\cc75Aivq.s:67     .text.gui_init_graph:0000000000000038 .L0 
C:\Users\Karzan\AppData\Local\Temp\cc75Aivq.s:72     .text.gui_init_graph:0000000000000042 .L0 
C:\Users\Karzan\AppData\Local\Temp\cc75Aivq.s:75     .text.gui_init_graph:0000000000000046 .L0 
C:\Users\Karzan\AppData\Local\Temp\cc75Aivq.s:78     .text.gui_init_graph:0000000000000048 .L0 
C:\Users\Karzan\AppData\Local\Temp\cc75Aivq.s:80     .text.gui_init_graph:0000000000000048 .L0 
C:\Users\Karzan\AppData\Local\Temp\cc75Aivq.s:81     .text.gui_init_graph:0000000000000048 .L0 
C:\Users\Karzan\AppData\Local\Temp\cc75Aivq.s:83     .text.gui_init_graph:000000000000004a .L0 
C:\Users\Karzan\AppData\Local\Temp\cc75Aivq.s:85     .text.gui_init_graph:000000000000004c .L0 
C:\Users\Karzan\AppData\Local\Temp\cc75Aivq.s:89     .text.gui_init_graph:0000000000000050 .L0 
C:\Users\Karzan\AppData\Local\Temp\cc75Aivq.s:92     .text.gui_init_graph:0000000000000054 .L0 
C:\Users\Karzan\AppData\Local\Temp\cc75Aivq.s:93     .text.gui_init_graph:0000000000000054 .L0 
C:\Users\Karzan\AppData\Local\Temp\cc75Aivq.s:94     .text.gui_init_graph:0000000000000056 .L0 
C:\Users\Karzan\AppData\Local\Temp\cc75Aivq.s:95     .text.gui_init_graph:0000000000000056 .L0 
C:\Users\Karzan\AppData\Local\Temp\cc75Aivq.s:97     .text.gui_init_graph:0000000000000058 .L0 
C:\Users\Karzan\AppData\Local\Temp\cc75Aivq.s:99     .text.gui_init_graph:000000000000005a .L0 
C:\Users\Karzan\AppData\Local\Temp\cc75Aivq.s:102    .text.gui_init_graph:000000000000005c .L0 
C:\Users\Karzan\AppData\Local\Temp\cc75Aivq.s:107    .text.gui_init_graph:0000000000000060 .L0 
C:\Users\Karzan\AppData\Local\Temp\cc75Aivq.s:113    .text.gui_init_graph:0000000000000062 .L0 
C:\Users\Karzan\AppData\Local\Temp\cc75Aivq.s:116    .text.gui_init_graph:0000000000000062 .L0 
C:\Users\Karzan\AppData\Local\Temp\cc75Aivq.s:117    .text.gui_init_graph:0000000000000062 .L0 
C:\Users\Karzan\AppData\Local\Temp\cc75Aivq.s:119    .text.gui_init_graph:0000000000000066 .L0 
C:\Users\Karzan\AppData\Local\Temp\cc75Aivq.s:121    .text.gui_init_graph:000000000000006a .L0 
C:\Users\Karzan\AppData\Local\Temp\cc75Aivq.s:125    .text.gui_init_graph:0000000000000072 .L0 
C:\Users\Karzan\AppData\Local\Temp\cc75Aivq.s:126    .text.gui_init_graph:0000000000000072 .L0 
C:\Users\Karzan\AppData\Local\Temp\cc75Aivq.s:128    .text.gui_init_graph:0000000000000076 .L0 
C:\Users\Karzan\AppData\Local\Temp\cc75Aivq.s:131    .text.gui_init_graph:0000000000000078 .L0 
C:\Users\Karzan\AppData\Local\Temp\cc75Aivq.s:136    .text.gui_init_graph:0000000000000080 .L0 
C:\Users\Karzan\AppData\Local\Temp\cc75Aivq.s:143    .text.gui_remove_graph:0000000000000000 gui_remove_graph
GAS LISTING C:\Users\Karzan\AppData\Local\Temp\cc75Aivq.s 			page 21


C:\Users\Karzan\AppData\Local\Temp\cc75Aivq.s:146    .text.gui_remove_graph:0000000000000000 .L0 
C:\Users\Karzan\AppData\Local\Temp\cc75Aivq.s:148    .text.gui_remove_graph:0000000000000000 .L0 
C:\Users\Karzan\AppData\Local\Temp\cc75Aivq.s:149    .text.gui_remove_graph:0000000000000000 .L0 
C:\Users\Karzan\AppData\Local\Temp\cc75Aivq.s:150    .text.gui_remove_graph:0000000000000000 .L0 
C:\Users\Karzan\AppData\Local\Temp\cc75Aivq.s:152    .text.gui_remove_graph:0000000000000002 .L0 
C:\Users\Karzan\AppData\Local\Temp\cc75Aivq.s:154    .text.gui_remove_graph:0000000000000004 .L0 
C:\Users\Karzan\AppData\Local\Temp\cc75Aivq.s:156    .text.gui_remove_graph:0000000000000006 .L0 
C:\Users\Karzan\AppData\Local\Temp\cc75Aivq.s:159    .text.gui_remove_graph:0000000000000008 .L0 
C:\Users\Karzan\AppData\Local\Temp\cc75Aivq.s:162    .text.gui_remove_graph:000000000000000a .L0 
C:\Users\Karzan\AppData\Local\Temp\cc75Aivq.s:163    .text.gui_remove_graph:000000000000000c .L0 
C:\Users\Karzan\AppData\Local\Temp\cc75Aivq.s:165    .text.gui_remove_graph:000000000000000c .L0 
C:\Users\Karzan\AppData\Local\Temp\cc75Aivq.s:168    .text.gui_remove_graph:0000000000000014 .L0 
C:\Users\Karzan\AppData\Local\Temp\cc75Aivq.s:169    .text.gui_remove_graph:0000000000000014 .L0 
C:\Users\Karzan\AppData\Local\Temp\cc75Aivq.s:171    .text.gui_remove_graph:0000000000000016 .L0 
C:\Users\Karzan\AppData\Local\Temp\cc75Aivq.s:175    .text.gui_remove_graph:0000000000000020 .L0 
C:\Users\Karzan\AppData\Local\Temp\cc75Aivq.s:179    .text.gui_remove_graph:000000000000002a .L0 
C:\Users\Karzan\AppData\Local\Temp\cc75Aivq.s:180    .text.gui_remove_graph:000000000000002a .L0 
C:\Users\Karzan\AppData\Local\Temp\cc75Aivq.s:181    .text.gui_remove_graph:000000000000002c .L0 
C:\Users\Karzan\AppData\Local\Temp\cc75Aivq.s:183    .text.gui_remove_graph:000000000000002e .L0 
C:\Users\Karzan\AppData\Local\Temp\cc75Aivq.s:188    .text.gui_remove_graph:0000000000000032 .L0 
C:\Users\Karzan\AppData\Local\Temp\cc75Aivq.s:190    .text.gui_remove_graph:0000000000000034 .L0 
C:\Users\Karzan\AppData\Local\Temp\cc75Aivq.s:197    .text.gui_append_graph:0000000000000000 gui_append_graph
C:\Users\Karzan\AppData\Local\Temp\cc75Aivq.s:200    .text.gui_append_graph:0000000000000000 .L0 
C:\Users\Karzan\AppData\Local\Temp\cc75Aivq.s:202    .text.gui_append_graph:0000000000000000 .L0 
C:\Users\Karzan\AppData\Local\Temp\cc75Aivq.s:203    .text.gui_append_graph:0000000000000000 .L0 
C:\Users\Karzan\AppData\Local\Temp\cc75Aivq.s:204    .text.gui_append_graph:0000000000000000 .L0 
C:\Users\Karzan\AppData\Local\Temp\cc75Aivq.s:208    .text.gui_append_graph:0000000000000002 .L0 
C:\Users\Karzan\AppData\Local\Temp\cc75Aivq.s:209    .text.gui_append_graph:0000000000000002 .L0 
C:\Users\Karzan\AppData\Local\Temp\cc75Aivq.s:210    .text.gui_append_graph:0000000000000002 .L0 
C:\Users\Karzan\AppData\Local\Temp\cc75Aivq.s:214    .text.gui_append_graph:0000000000000004 .L0 
C:\Users\Karzan\AppData\Local\Temp\cc75Aivq.s:217    .text.gui_append_graph:0000000000000008 .L0 
C:\Users\Karzan\AppData\Local\Temp\cc75Aivq.s:218    .text.gui_append_graph:0000000000000008 .L0 
C:\Users\Karzan\AppData\Local\Temp\cc75Aivq.s:223    .text.gui_append_graph:000000000000000c .L0 
C:\Users\Karzan\AppData\Local\Temp\cc75Aivq.s:224    .text.gui_append_graph:000000000000000c .L0 
C:\Users\Karzan\AppData\Local\Temp\cc75Aivq.s:226    .text.gui_append_graph:0000000000000010 .L0 
C:\Users\Karzan\AppData\Local\Temp\cc75Aivq.s:228    .text.gui_append_graph:0000000000000012 .L0 
C:\Users\Karzan\AppData\Local\Temp\cc75Aivq.s:231    .text.gui_append_graph:0000000000000018 .L0 
C:\Users\Karzan\AppData\Local\Temp\cc75Aivq.s:234    .text.gui_append_graph:000000000000001c .L0 
C:\Users\Karzan\AppData\Local\Temp\cc75Aivq.s:237    .text.gui_append_graph:000000000000001e .L0 
C:\Users\Karzan\AppData\Local\Temp\cc75Aivq.s:241    .text.gui_append_graph:0000000000000024 .L0 
C:\Users\Karzan\AppData\Local\Temp\cc75Aivq.s:242    .text.gui_append_graph:0000000000000024 .L0 
C:\Users\Karzan\AppData\Local\Temp\cc75Aivq.s:244    .text.gui_append_graph:0000000000000026 .L0 
C:\Users\Karzan\AppData\Local\Temp\cc75Aivq.s:246    .text.gui_append_graph:0000000000000028 .L0 
C:\Users\Karzan\AppData\Local\Temp\cc75Aivq.s:248    .text.gui_append_graph:000000000000002a .L0 
C:\Users\Karzan\AppData\Local\Temp\cc75Aivq.s:250    .text.gui_append_graph:000000000000002e .L0 
C:\Users\Karzan\AppData\Local\Temp\cc75Aivq.s:253    .text.gui_append_graph:0000000000000032 .L0 
C:\Users\Karzan\AppData\Local\Temp\cc75Aivq.s:260    .text.gui_render_graph:0000000000000000 gui_render_graph
C:\Users\Karzan\AppData\Local\Temp\cc75Aivq.s:263    .text.gui_render_graph:0000000000000000 .L0 
C:\Users\Karzan\AppData\Local\Temp\cc75Aivq.s:265    .text.gui_render_graph:0000000000000000 .L0 
C:\Users\Karzan\AppData\Local\Temp\cc75Aivq.s:266    .text.gui_render_graph:0000000000000000 .L0 
C:\Users\Karzan\AppData\Local\Temp\cc75Aivq.s:267    .text.gui_render_graph:0000000000000000 .L0 
C:\Users\Karzan\AppData\Local\Temp\cc75Aivq.s:269    .text.gui_render_graph:0000000000000002 .L0 
C:\Users\Karzan\AppData\Local\Temp\cc75Aivq.s:271    .text.gui_render_graph:0000000000000004 .L0 
C:\Users\Karzan\AppData\Local\Temp\cc75Aivq.s:273    .text.gui_render_graph:0000000000000004 .L0 
C:\Users\Karzan\AppData\Local\Temp\cc75Aivq.s:276    .text.gui_render_graph:0000000000000006 .L0 
C:\Users\Karzan\AppData\Local\Temp\cc75Aivq.s:277    .text.gui_render_graph:0000000000000006 .L0 
C:\Users\Karzan\AppData\Local\Temp\cc75Aivq.s:278    .text.gui_render_graph:0000000000000006 .L0 
GAS LISTING C:\Users\Karzan\AppData\Local\Temp\cc75Aivq.s 			page 22


C:\Users\Karzan\AppData\Local\Temp\cc75Aivq.s:279    .text.gui_render_graph:0000000000000008 .L0 
C:\Users\Karzan\AppData\Local\Temp\cc75Aivq.s:281    .text.gui_render_graph:0000000000000008 .L0 
C:\Users\Karzan\AppData\Local\Temp\cc75Aivq.s:285    .text.gui_render_graph:000000000000000c .L0 
C:\Users\Karzan\AppData\Local\Temp\cc75Aivq.s:288    .text.gui_render_graph:0000000000000010 .L0 
C:\Users\Karzan\AppData\Local\Temp\cc75Aivq.s:293    .text.gui_render_graph:0000000000000012 .L0 
C:\Users\Karzan\AppData\Local\Temp\cc75Aivq.s:294    .text.gui_render_graph:0000000000000014 .L0 
C:\Users\Karzan\AppData\Local\Temp\cc75Aivq.s:298    .text.gui_render_graph:0000000000000014 .L0 
C:\Users\Karzan\AppData\Local\Temp\cc75Aivq.s:302    .text.gui_render_graph:0000000000000018 .L0 
C:\Users\Karzan\AppData\Local\Temp\cc75Aivq.s:304    .text.gui_render_graph:000000000000001c .L0 
C:\Users\Karzan\AppData\Local\Temp\cc75Aivq.s:305    .text.gui_render_graph:000000000000001c .L0 
C:\Users\Karzan\AppData\Local\Temp\cc75Aivq.s:311    .text.gui_render_graph:0000000000000026 .L0 
C:\Users\Karzan\AppData\Local\Temp\cc75Aivq.s:312    .text.gui_render_graph:0000000000000026 .L0 
C:\Users\Karzan\AppData\Local\Temp\cc75Aivq.s:313    .text.gui_render_graph:0000000000000026 .L0 
C:\Users\Karzan\AppData\Local\Temp\cc75Aivq.s:314    .text.gui_render_graph:0000000000000026 .L0 
C:\Users\Karzan\AppData\Local\Temp\cc75Aivq.s:316    .text.gui_render_graph:0000000000000026 .L0 
C:\Users\Karzan\AppData\Local\Temp\cc75Aivq.s:321    .text.gui_render_graph:0000000000000028 .L0 
C:\Users\Karzan\AppData\Local\Temp\cc75Aivq.s:322    .text.gui_render_graph:0000000000000028 .L0 
C:\Users\Karzan\AppData\Local\Temp\cc75Aivq.s:323    .text.gui_render_graph:0000000000000028 .L0 
C:\Users\Karzan\AppData\Local\Temp\cc75Aivq.s:324    .text.gui_render_graph:0000000000000028 .L0 
C:\Users\Karzan\AppData\Local\Temp\cc75Aivq.s:326    .text.gui_render_graph:0000000000000028 .L0 
C:\Users\Karzan\AppData\Local\Temp\cc75Aivq.s:327    .text.gui_render_graph:0000000000000028 .L0 
C:\Users\Karzan\AppData\Local\Temp\cc75Aivq.s:328    .text.gui_render_graph:0000000000000028 .L0 
C:\Users\Karzan\AppData\Local\Temp\cc75Aivq.s:330    .text.gui_render_graph:000000000000002a .L0 
C:\Users\Karzan\AppData\Local\Temp\cc75Aivq.s:334    .text.gui_render_graph:000000000000002c .L0 
C:\Users\Karzan\AppData\Local\Temp\cc75Aivq.s:338    .text.gui_render_graph:0000000000000030 .L0 
C:\Users\Karzan\AppData\Local\Temp\cc75Aivq.s:341    .text.gui_render_graph:0000000000000030 .L0 
C:\Users\Karzan\AppData\Local\Temp\cc75Aivq.s:342    .text.gui_render_graph:0000000000000030 .L0 
C:\Users\Karzan\AppData\Local\Temp\cc75Aivq.s:343    .text.gui_render_graph:0000000000000030 .L0 
C:\Users\Karzan\AppData\Local\Temp\cc75Aivq.s:346    .text.gui_render_graph:0000000000000038 .L0 
C:\Users\Karzan\AppData\Local\Temp\cc75Aivq.s:348    .text.gui_render_graph:000000000000003a .L0 
C:\Users\Karzan\AppData\Local\Temp\cc75Aivq.s:350    .text.gui_render_graph:000000000000003e .L0 
C:\Users\Karzan\AppData\Local\Temp\cc75Aivq.s:351    .text.gui_render_graph:000000000000003e .L0 
C:\Users\Karzan\AppData\Local\Temp\cc75Aivq.s:353    .text.gui_render_graph:0000000000000040 .L0 
C:\Users\Karzan\AppData\Local\Temp\cc75Aivq.s:356    .text.gui_render_graph:0000000000000046 .L0 
C:\Users\Karzan\AppData\Local\Temp\cc75Aivq.s:357    .text.gui_render_graph:0000000000000046 .L0 
C:\Users\Karzan\AppData\Local\Temp\cc75Aivq.s:359    .text.gui_render_graph:0000000000000048 .L0 
C:\Users\Karzan\AppData\Local\Temp\cc75Aivq.s:360    .text.gui_render_graph:0000000000000048 .L0 
C:\Users\Karzan\AppData\Local\Temp\cc75Aivq.s:363    .text.gui_render_graph:000000000000004c .L0 
C:\Users\Karzan\AppData\Local\Temp\cc75Aivq.s:365    .text.gui_render_graph:0000000000000050 .L0 
C:\Users\Karzan\AppData\Local\Temp\cc75Aivq.s:369    .text.gui_render_graph:0000000000000054 .L0 
C:\Users\Karzan\AppData\Local\Temp\cc75Aivq.s:372    .text.gui_render_graph:0000000000000058 .L0 
C:\Users\Karzan\AppData\Local\Temp\cc75Aivq.s:375    .text.gui_render_graph:000000000000005a .L0 
C:\Users\Karzan\AppData\Local\Temp\cc75Aivq.s:377    .text.gui_render_graph:000000000000005a .L0 
C:\Users\Karzan\AppData\Local\Temp\cc75Aivq.s:378    .text.gui_render_graph:000000000000005a .L0 
C:\Users\Karzan\AppData\Local\Temp\cc75Aivq.s:380    .text.gui_render_graph:000000000000005c .L0 
C:\Users\Karzan\AppData\Local\Temp\cc75Aivq.s:382    .text.gui_render_graph:0000000000000060 .L0 
C:\Users\Karzan\AppData\Local\Temp\cc75Aivq.s:386    .text.gui_render_graph:0000000000000062 .L0 
C:\Users\Karzan\AppData\Local\Temp\cc75Aivq.s:390    .text.gui_render_graph:0000000000000068 .L0 
C:\Users\Karzan\AppData\Local\Temp\cc75Aivq.s:395    .text.gui_render_graph:000000000000006c .L0 
C:\Users\Karzan\AppData\Local\Temp\cc75Aivq.s:396    .text.gui_render_graph:000000000000006c .L0 
C:\Users\Karzan\AppData\Local\Temp\cc75Aivq.s:398    .text.gui_render_graph:000000000000006e .L0 
C:\Users\Karzan\AppData\Local\Temp\cc75Aivq.s:403    .text.gui_render_graph:0000000000000074 .L0 
C:\Users\Karzan\AppData\Local\Temp\cc75Aivq.s:406    .text.gui_render_graph:0000000000000076 .L0 
C:\Users\Karzan\AppData\Local\Temp\cc75Aivq.s:407    .text.gui_render_graph:0000000000000078 .L0 
C:\Users\Karzan\AppData\Local\Temp\cc75Aivq.s:408    .text.gui_render_graph:0000000000000078 .L0 
C:\Users\Karzan\AppData\Local\Temp\cc75Aivq.s:410    .text.gui_render_graph:000000000000007a .L0 
C:\Users\Karzan\AppData\Local\Temp\cc75Aivq.s:413    .text.gui_render_graph:000000000000007c .L0 
GAS LISTING C:\Users\Karzan\AppData\Local\Temp\cc75Aivq.s 			page 23


C:\Users\Karzan\AppData\Local\Temp\cc75Aivq.s:416    .text.gui_render_graph:000000000000007e .L0 
C:\Users\Karzan\AppData\Local\Temp\cc75Aivq.s:418    .text.gui_render_graph:0000000000000080 .L0 
C:\Users\Karzan\AppData\Local\Temp\cc75Aivq.s:420    .text.gui_render_graph:0000000000000082 .L0 
C:\Users\Karzan\AppData\Local\Temp\cc75Aivq.s:422    .text.gui_render_graph:0000000000000084 .L0 
C:\Users\Karzan\AppData\Local\Temp\cc75Aivq.s:424    .text.gui_render_graph:0000000000000086 .L0 
C:\Users\Karzan\AppData\Local\Temp\cc75Aivq.s:426    .text.gui_render_graph:0000000000000088 .L0 
C:\Users\Karzan\AppData\Local\Temp\cc75Aivq.s:429    .text.gui_render_graph:000000000000008a .L0 
C:\Users\Karzan\AppData\Local\Temp\cc75Aivq.s:434    .text.gui_render_graph:000000000000008c .L0 
C:\Users\Karzan\AppData\Local\Temp\cc75Aivq.s:439    .text.gui_render_graph:000000000000008c .L0 
C:\Users\Karzan\AppData\Local\Temp\cc75Aivq.s:440    .text.gui_render_graph:000000000000008c .L0 
C:\Users\Karzan\AppData\Local\Temp\cc75Aivq.s:442    .text.gui_render_graph:000000000000008e .L0 
C:\Users\Karzan\AppData\Local\Temp\cc75Aivq.s:444    .text.gui_render_graph:0000000000000090 .L0 
C:\Users\Karzan\AppData\Local\Temp\cc75Aivq.s:446    .text.gui_render_graph:0000000000000092 .L0 
C:\Users\Karzan\AppData\Local\Temp\cc75Aivq.s:448    .text.gui_render_graph:0000000000000096 .L0 
C:\Users\Karzan\AppData\Local\Temp\cc75Aivq.s:453    .text.gui_render_graph:000000000000009c .L0 
C:\Users\Karzan\AppData\Local\Temp\cc75Aivq.s:454    .text.gui_render_graph:000000000000009c .L0 
C:\Users\Karzan\AppData\Local\Temp\cc75Aivq.s:456    .text.gui_render_graph:00000000000000a0 .L0 
C:\Users\Karzan\AppData\Local\Temp\cc75Aivq.s:457    .text.gui_render_graph:00000000000000a0 .L0 
C:\Users\Karzan\AppData\Local\Temp\cc75Aivq.s:462    .text.gui_render_graph:00000000000000a6 .L0 
C:\Users\Karzan\AppData\Local\Temp\cc75Aivq.s:463    .text.gui_render_graph:00000000000000a6 .L0 
C:\Users\Karzan\AppData\Local\Temp\cc75Aivq.s:468    .text.gui_render_graph:00000000000000ac .L0 
C:\Users\Karzan\AppData\Local\Temp\cc75Aivq.s:478    .text.gui_render_graph:00000000000000b0 .L0 
C:\Users\Karzan\AppData\Local\Temp\cc75Aivq.s:479    .text.gui_render_graph:00000000000000b0 .L0 
C:\Users\Karzan\AppData\Local\Temp\cc75Aivq.s:482    .text.gui_render_graph:00000000000000b4 .L0 
C:\Users\Karzan\AppData\Local\Temp\cc75Aivq.s:484    .text.gui_render_graph:00000000000000b8 .L0 
C:\Users\Karzan\AppData\Local\Temp\cc75Aivq.s:491    .text.gui_render_graph:00000000000000c4 .L0 
C:\Users\Karzan\AppData\Local\Temp\cc75Aivq.s:493    .text.gui_render_graph:00000000000000c8 .L0 
C:\Users\Karzan\AppData\Local\Temp\cc75Aivq.s:494    .text.gui_render_graph:00000000000000c8 .L0 
C:\Users\Karzan\AppData\Local\Temp\cc75Aivq.s:496    .text.gui_render_graph:00000000000000ca .L0 
C:\Users\Karzan\AppData\Local\Temp\cc75Aivq.s:498    .text.gui_render_graph:00000000000000ce .L0 
C:\Users\Karzan\AppData\Local\Temp\cc75Aivq.s:500    .text.gui_render_graph:00000000000000d0 .L0 
C:\Users\Karzan\AppData\Local\Temp\cc75Aivq.s:502    .text.gui_render_graph:00000000000000d4 .L0 
C:\Users\Karzan\AppData\Local\Temp\cc75Aivq.s:505    .text.gui_render_graph:00000000000000d8 .L0 
C:\Users\Karzan\AppData\Local\Temp\cc75Aivq.s:508    .text.gui_render_graph:00000000000000dc .L0 
C:\Users\Karzan\AppData\Local\Temp\cc75Aivq.s:509    .text.gui_render_graph:00000000000000dc .L0 
C:\Users\Karzan\AppData\Local\Temp\cc75Aivq.s:511    .text.gui_render_graph:00000000000000e0 .L0 
C:\Users\Karzan\AppData\Local\Temp\cc75Aivq.s:513    .text.gui_render_graph:00000000000000e4 .L0 
C:\Users\Karzan\AppData\Local\Temp\cc75Aivq.s:514    .text.gui_render_graph:00000000000000e4 .L0 
C:\Users\Karzan\AppData\Local\Temp\cc75Aivq.s:516    .text.gui_render_graph:00000000000000e8 .L0 
C:\Users\Karzan\AppData\Local\Temp\cc75Aivq.s:526    .text.gui_render_graph:00000000000000fe .L0 
C:\Users\Karzan\AppData\Local\Temp\cc75Aivq.s:532    .text.gui_render_graph:0000000000000102 .L0 
C:\Users\Karzan\AppData\Local\Temp\cc75Aivq.s:533    .text.gui_render_graph:0000000000000102 .L0 
C:\Users\Karzan\AppData\Local\Temp\cc75Aivq.s:539    .text.gui_render_graph:0000000000000108 .L0 
C:\Users\Karzan\AppData\Local\Temp\cc75Aivq.s:540    .text.gui_render_graph:0000000000000108 .L0 
C:\Users\Karzan\AppData\Local\Temp\cc75Aivq.s:543    .text.gui_render_graph:000000000000010c .L0 
C:\Users\Karzan\AppData\Local\Temp\cc75Aivq.s:544    .text.gui_render_graph:000000000000010c .L0 
C:\Users\Karzan\AppData\Local\Temp\cc75Aivq.s:551    .text.gui_render_graph:0000000000000110 .L0 
C:\Users\Karzan\AppData\Local\Temp\cc75Aivq.s:552    .text.gui_render_graph:0000000000000110 .L0 
C:\Users\Karzan\AppData\Local\Temp\cc75Aivq.s:553    .text.gui_render_graph:0000000000000110 .L0 
C:\Users\Karzan\AppData\Local\Temp\cc75Aivq.s:556    .text.gui_render_graph:0000000000000114 .L0 
C:\Users\Karzan\AppData\Local\Temp\cc75Aivq.s:558    .text.gui_render_graph:0000000000000116 .L0 
C:\Users\Karzan\AppData\Local\Temp\cc75Aivq.s:560    .text.gui_render_graph:000000000000011a .L0 
C:\Users\Karzan\AppData\Local\Temp\cc75Aivq.s:564    .text.gui_render_graph:000000000000011c .L0 
C:\Users\Karzan\AppData\Local\Temp\cc75Aivq.s:566    .text.gui_render_graph:000000000000011e .L0 
C:\Users\Karzan\AppData\Local\Temp\cc75Aivq.s:568    .text.gui_render_graph:0000000000000122 .L0 
C:\Users\Karzan\AppData\Local\Temp\cc75Aivq.s:569    .text.gui_render_graph:0000000000000122 .L0 
C:\Users\Karzan\AppData\Local\Temp\cc75Aivq.s:571    .text.gui_render_graph:0000000000000126 .L0 
GAS LISTING C:\Users\Karzan\AppData\Local\Temp\cc75Aivq.s 			page 24


C:\Users\Karzan\AppData\Local\Temp\cc75Aivq.s:573    .text.gui_render_graph:0000000000000128 .L0 
C:\Users\Karzan\AppData\Local\Temp\cc75Aivq.s:577    .text.gui_render_graph:000000000000012e .L0 
C:\Users\Karzan\AppData\Local\Temp\cc75Aivq.s:581    .text.gui_render_graph:0000000000000134 .L0 
C:\Users\Karzan\AppData\Local\Temp\cc75Aivq.s:584    .text.gui_render_graph:000000000000013a .L0 
C:\Users\Karzan\AppData\Local\Temp\cc75Aivq.s:585    .text.gui_render_graph:000000000000013a .L0 
C:\Users\Karzan\AppData\Local\Temp\cc75Aivq.s:587    .text.gui_render_graph:000000000000013c .L0 
C:\Users\Karzan\AppData\Local\Temp\cc75Aivq.s:589    .text.gui_render_graph:0000000000000140 .L0 
C:\Users\Karzan\AppData\Local\Temp\cc75Aivq.s:591    .text.gui_render_graph:0000000000000142 .L0 
C:\Users\Karzan\AppData\Local\Temp\cc75Aivq.s:594    .text.gui_render_graph:0000000000000146 .L0 
C:\Users\Karzan\AppData\Local\Temp\cc75Aivq.s:597    .text.gui_render_graph:000000000000014a .L0 
C:\Users\Karzan\AppData\Local\Temp\cc75Aivq.s:601    .text.gui_render_graph:0000000000000150 .L0 
C:\Users\Karzan\AppData\Local\Temp\cc75Aivq.s:603    .text.gui_render_graph:0000000000000154 .L0 
C:\Users\Karzan\AppData\Local\Temp\cc75Aivq.s:606    .text.gui_render_graph:0000000000000158 .L0 
C:\Users\Karzan\AppData\Local\Temp\cc75Aivq.s:607    .text.gui_render_graph:0000000000000158 .L0 
C:\Users\Karzan\AppData\Local\Temp\cc75Aivq.s:609    .text.gui_render_graph:000000000000015c .L0 
C:\Users\Karzan\AppData\Local\Temp\cc75Aivq.s:611    .text.gui_render_graph:0000000000000160 .L0 
C:\Users\Karzan\AppData\Local\Temp\cc75Aivq.s:612    .text.gui_render_graph:0000000000000160 .L0 
C:\Users\Karzan\AppData\Local\Temp\cc75Aivq.s:614    .text.gui_render_graph:0000000000000164 .L0 
C:\Users\Karzan\AppData\Local\Temp\cc75Aivq.s:627    .text.gui_render_graph:000000000000017c .L0 
C:\Users\Karzan\AppData\Local\Temp\cc75Aivq.s:633    .text.gui_render_graph:0000000000000180 .L0 
C:\Users\Karzan\AppData\Local\Temp\cc75Aivq.s:634    .text.gui_render_graph:0000000000000180 .L0 
C:\Users\Karzan\AppData\Local\Temp\cc75Aivq.s:637    .text.gui_render_graph:0000000000000186 .L0 
C:\Users\Karzan\AppData\Local\Temp\cc75Aivq.s:644    .text.gui_erase_graph:0000000000000000 gui_erase_graph
C:\Users\Karzan\AppData\Local\Temp\cc75Aivq.s:647    .text.gui_erase_graph:0000000000000000 .L0 
C:\Users\Karzan\AppData\Local\Temp\cc75Aivq.s:649    .text.gui_erase_graph:0000000000000000 .L0 
C:\Users\Karzan\AppData\Local\Temp\cc75Aivq.s:650    .text.gui_erase_graph:0000000000000000 .L0 
C:\Users\Karzan\AppData\Local\Temp\cc75Aivq.s:651    .text.gui_erase_graph:0000000000000000 .L0 
C:\Users\Karzan\AppData\Local\Temp\cc75Aivq.s:653    .text.gui_erase_graph:0000000000000002 .L0 
C:\Users\Karzan\AppData\Local\Temp\cc75Aivq.s:655    .text.gui_erase_graph:0000000000000004 .L0 
C:\Users\Karzan\AppData\Local\Temp\cc75Aivq.s:657    .text.gui_erase_graph:0000000000000004 .L0 
C:\Users\Karzan\AppData\Local\Temp\cc75Aivq.s:661    .text.gui_erase_graph:0000000000000008 .L0 
C:\Users\Karzan\AppData\Local\Temp\cc75Aivq.s:663    .text.gui_erase_graph:0000000000000008 .L0 
C:\Users\Karzan\AppData\Local\Temp\cc75Aivq.s:664    .text.gui_erase_graph:0000000000000008 .L0 
C:\Users\Karzan\AppData\Local\Temp\cc75Aivq.s:668    .text.gui_erase_graph:0000000000000010 .L0 
C:\Users\Karzan\AppData\Local\Temp\cc75Aivq.s:669    .text.gui_erase_graph:0000000000000010 .L0 
C:\Users\Karzan\AppData\Local\Temp\cc75Aivq.s:670    .text.gui_erase_graph:0000000000000010 .L0 
C:\Users\Karzan\AppData\Local\Temp\cc75Aivq.s:671    .text.gui_erase_graph:0000000000000010 .L0 
C:\Users\Karzan\AppData\Local\Temp\cc75Aivq.s:673    .text.gui_erase_graph:0000000000000010 .L0 
C:\Users\Karzan\AppData\Local\Temp\cc75Aivq.s:676    .text.gui_erase_graph:0000000000000012 .L0 
C:\Users\Karzan\AppData\Local\Temp\cc75Aivq.s:678    .text.gui_erase_graph:0000000000000014 .L0 
C:\Users\Karzan\AppData\Local\Temp\cc75Aivq.s:682    .text.gui_erase_graph:0000000000000018 .L0 
C:\Users\Karzan\AppData\Local\Temp\cc75Aivq.s:686    .text.gui_erase_graph:0000000000000020 .L0 
C:\Users\Karzan\AppData\Local\Temp\cc75Aivq.s:687    .text.gui_erase_graph:0000000000000020 .L0 
C:\Users\Karzan\AppData\Local\Temp\cc75Aivq.s:688    .text.gui_erase_graph:0000000000000022 .L0 
C:\Users\Karzan\AppData\Local\Temp\cc75Aivq.s:689    .text.gui_erase_graph:0000000000000022 .L0 
C:\Users\Karzan\AppData\Local\Temp\cc75Aivq.s:691    .text.gui_erase_graph:0000000000000024 .L0 
C:\Users\Karzan\AppData\Local\Temp\cc75Aivq.s:694    .text.gui_erase_graph:0000000000000026 .L0 
C:\Users\Karzan\AppData\Local\Temp\cc75Aivq.s:697    .text.gui_erase_graph:0000000000000028 .L0 
C:\Users\Karzan\AppData\Local\Temp\cc75Aivq.s:700    .text.gui_erase_graph:000000000000002a .L0 
C:\Users\Karzan\AppData\Local\Temp\cc75Aivq.s:704    .text.gui_erase_graph:000000000000002e .L0 
C:\Users\Karzan\AppData\Local\Temp\cc75Aivq.s:709    .text.gui_erase_graph:0000000000000030 .L0 
C:\Users\Karzan\AppData\Local\Temp\cc75Aivq.s:712    .text.gui_erase_graph:0000000000000030 .L0 
C:\Users\Karzan\AppData\Local\Temp\cc75Aivq.s:713    .text.gui_erase_graph:0000000000000030 .L0 
C:\Users\Karzan\AppData\Local\Temp\cc75Aivq.s:717    .text.gui_erase_graph:000000000000003a .L0 
C:\Users\Karzan\AppData\Local\Temp\cc75Aivq.s:719    .text.gui_erase_graph:000000000000003e .L0 
C:\Users\Karzan\AppData\Local\Temp\cc75Aivq.s:728    .text.gui_erase_graph:0000000000000052 .L0 
C:\Users\Karzan\AppData\Local\Temp\cc75Aivq.s:732    .text.gui_erase_graph:0000000000000056 .L0 
GAS LISTING C:\Users\Karzan\AppData\Local\Temp\cc75Aivq.s 			page 25


C:\Users\Karzan\AppData\Local\Temp\cc75Aivq.s:139    .text.gui_init_graph:0000000000000080 .L0 
C:\Users\Karzan\AppData\Local\Temp\cc75Aivq.s:193    .text.gui_remove_graph:0000000000000034 .L0 
C:\Users\Karzan\AppData\Local\Temp\cc75Aivq.s:256    .text.gui_append_graph:0000000000000032 .L0 
C:\Users\Karzan\AppData\Local\Temp\cc75Aivq.s:640    .text.gui_render_graph:0000000000000186 .L0 
C:\Users\Karzan\AppData\Local\Temp\cc75Aivq.s:735    .text.gui_erase_graph:0000000000000056 .L0 
                     .debug_frame:0000000000000000 .L0 
C:\Users\Karzan\AppData\Local\Temp\cc75Aivq.s:111    .text.gui_init_graph:0000000000000062 .L3
C:\Users\Karzan\AppData\Local\Temp\cc75Aivq.s:87     .text.gui_init_graph:0000000000000050 .L2
C:\Users\Karzan\AppData\Local\Temp\cc75Aivq.s:220    .text.gui_append_graph:000000000000000c .L9
C:\Users\Karzan\AppData\Local\Temp\cc75Aivq.s:212    .text.gui_append_graph:0000000000000004 .L8
C:\Users\Karzan\AppData\Local\Temp\cc75Aivq.s:432    .text.gui_render_graph:000000000000008c .L15
C:\Users\Karzan\AppData\Local\Temp\cc75Aivq.s:404    .text.gui_render_graph:0000000000000076 .L10
C:\Users\Karzan\AppData\Local\Temp\cc75Aivq.s:392    .text.gui_render_graph:000000000000006c .L17
C:\Users\Karzan\AppData\Local\Temp\cc75Aivq.s:366    .text.gui_render_graph:0000000000000054 .L18
C:\Users\Karzan\AppData\Local\Temp\cc75Aivq.s:472    .text.gui_render_graph:00000000000000b0 .L23
C:\Users\Karzan\AppData\Local\Temp\cc75Aivq.s:536    .text.gui_render_graph:0000000000000108 .L24
C:\Users\Karzan\AppData\Local\Temp\cc75Aivq.s:466    .text.gui_render_graph:00000000000000ac .L12
C:\Users\Karzan\AppData\Local\Temp\cc75Aivq.s:460    .text.gui_render_graph:00000000000000a6 .L13
C:\Users\Karzan\AppData\Local\Temp\cc75Aivq.s:332    .text.gui_render_graph:000000000000002c .L11
C:\Users\Karzan\AppData\Local\Temp\cc75Aivq.s:530    .text.gui_render_graph:0000000000000102 .L20
C:\Users\Karzan\AppData\Local\Temp\cc75Aivq.s:384    .text.gui_render_graph:0000000000000062 .L19
C:\Users\Karzan\AppData\Local\Temp\cc75Aivq.s:524    .text.gui_render_graph:00000000000000fe .L22
C:\Users\Karzan\AppData\Local\Temp\cc75Aivq.s:548    .text.gui_render_graph:0000000000000110 .L25
C:\Users\Karzan\AppData\Local\Temp\cc75Aivq.s:401    .text.gui_render_graph:0000000000000074 .L31
C:\Users\Karzan\AppData\Local\Temp\cc75Aivq.s:631    .text.gui_render_graph:0000000000000180 .L27
C:\Users\Karzan\AppData\Local\Temp\cc75Aivq.s:562    .text.gui_render_graph:000000000000011c .L26
C:\Users\Karzan\AppData\Local\Temp\cc75Aivq.s:625    .text.gui_render_graph:000000000000017c .L29
C:\Users\Karzan\AppData\Local\Temp\cc75Aivq.s:707    .text.gui_erase_graph:0000000000000030 .L37
C:\Users\Karzan\AppData\Local\Temp\cc75Aivq.s:726    .text.gui_erase_graph:0000000000000052 .L36
C:\Users\Karzan\AppData\Local\Temp\cc75Aivq.s:680    .text.gui_erase_graph:0000000000000018 .L35
C:\Users\Karzan\AppData\Local\Temp\cc75Aivq.s:2822   .debug_abbrev:0000000000000000 .Ldebug_abbrev0
C:\Users\Karzan\AppData\Local\Temp\cc75Aivq.s:4523   .debug_str:00000000000005a4 .LASF165
C:\Users\Karzan\AppData\Local\Temp\cc75Aivq.s:4437   .debug_str:0000000000000402 .LASF166
C:\Users\Karzan\AppData\Local\Temp\cc75Aivq.s:4409   .debug_str:000000000000030b .LASF167
C:\Users\Karzan\AppData\Local\Temp\cc75Aivq.s:4179   .debug_ranges:0000000000000000 .Ldebug_ranges0
C:\Users\Karzan\AppData\Local\Temp\cc75Aivq.s:4241   .debug_line:0000000000000000 .Ldebug_line0
C:\Users\Karzan\AppData\Local\Temp\cc75Aivq.s:4509   .debug_str:0000000000000560 .LASF0
C:\Users\Karzan\AppData\Local\Temp\cc75Aivq.s:4297   .debug_str:000000000000011b .LASF1
C:\Users\Karzan\AppData\Local\Temp\cc75Aivq.s:4263   .debug_str:0000000000000057 .LASF4
C:\Users\Karzan\AppData\Local\Temp\cc75Aivq.s:4445   .debug_str:0000000000000434 .LASF2
C:\Users\Karzan\AppData\Local\Temp\cc75Aivq.s:4245   .debug_str:000000000000000c .LASF3
C:\Users\Karzan\AppData\Local\Temp\cc75Aivq.s:4511   .debug_str:000000000000056d .LASF5
C:\Users\Karzan\AppData\Local\Temp\cc75Aivq.s:4529   .debug_str:000000000000063d .LASF6
C:\Users\Karzan\AppData\Local\Temp\cc75Aivq.s:4399   .debug_str:00000000000002e1 .LASF7
C:\Users\Karzan\AppData\Local\Temp\cc75Aivq.s:4313   .debug_str:0000000000000160 .LASF8
C:\Users\Karzan\AppData\Local\Temp\cc75Aivq.s:4341   .debug_str:00000000000001e8 .LASF9
C:\Users\Karzan\AppData\Local\Temp\cc75Aivq.s:4371   .debug_str:0000000000000261 .LASF10
C:\Users\Karzan\AppData\Local\Temp\cc75Aivq.s:4325   .debug_str:0000000000000190 .LASF11
C:\Users\Karzan\AppData\Local\Temp\cc75Aivq.s:4275   .debug_str:00000000000000a3 .LASF12
C:\Users\Karzan\AppData\Local\Temp\cc75Aivq.s:4517   .debug_str:0000000000000589 .LASF13
C:\Users\Karzan\AppData\Local\Temp\cc75Aivq.s:4327   .debug_str:000000000000019e .LASF14
C:\Users\Karzan\AppData\Local\Temp\cc75Aivq.s:4443   .debug_str:000000000000042c .LASF15
C:\Users\Karzan\AppData\Local\Temp\cc75Aivq.s:4539   .debug_str:000000000000067d .LASF16
C:\Users\Karzan\AppData\Local\Temp\cc75Aivq.s:4429   .debug_str:00000000000003cb .LASF127
C:\Users\Karzan\AppData\Local\Temp\cc75Aivq.s:4255   .debug_str:0000000000000037 .LASF17
C:\Users\Karzan\AppData\Local\Temp\cc75Aivq.s:4499   .debug_str:0000000000000539 .LASF18
C:\Users\Karzan\AppData\Local\Temp\cc75Aivq.s:4427   .debug_str:00000000000003c4 .LASF19
GAS LISTING C:\Users\Karzan\AppData\Local\Temp\cc75Aivq.s 			page 26


C:\Users\Karzan\AppData\Local\Temp\cc75Aivq.s:4293   .debug_str:000000000000010d .LASF20
C:\Users\Karzan\AppData\Local\Temp\cc75Aivq.s:4495   .debug_str:0000000000000523 .LASF21
C:\Users\Karzan\AppData\Local\Temp\cc75Aivq.s:4549   .debug_str:00000000000006ac .LASF22
C:\Users\Karzan\AppData\Local\Temp\cc75Aivq.s:4389   .debug_str:00000000000002b8 .LASF23
C:\Users\Karzan\AppData\Local\Temp\cc75Aivq.s:4361   .debug_str:000000000000023b .LASF24
C:\Users\Karzan\AppData\Local\Temp\cc75Aivq.s:4485   .debug_str:00000000000004f2 .LASF25
C:\Users\Karzan\AppData\Local\Temp\cc75Aivq.s:4487   .debug_str:00000000000004fa .LASF26
C:\Users\Karzan\AppData\Local\Temp\cc75Aivq.s:4433   .debug_str:00000000000003e5 .LASF27
C:\Users\Karzan\AppData\Local\Temp\cc75Aivq.s:4533   .debug_str:0000000000000655 .LASF28
C:\Users\Karzan\AppData\Local\Temp\cc75Aivq.s:4435   .debug_str:00000000000003f0 .LASF29
C:\Users\Karzan\AppData\Local\Temp\cc75Aivq.s:4451   .debug_str:0000000000000451 .LASF30
C:\Users\Karzan\AppData\Local\Temp\cc75Aivq.s:4349   .debug_str:000000000000020d .LASF35
C:\Users\Karzan\AppData\Local\Temp\cc75Aivq.s:4519   .debug_str:0000000000000591 .LASF31
C:\Users\Karzan\AppData\Local\Temp\cc75Aivq.s:4479   .debug_str:00000000000004dd .LASF32
C:\Users\Karzan\AppData\Local\Temp\cc75Aivq.s:4343   .debug_str:00000000000001f3 .LASF33
C:\Users\Karzan\AppData\Local\Temp\cc75Aivq.s:4545   .debug_str:00000000000006a1 .LASF34
C:\Users\Karzan\AppData\Local\Temp\cc75Aivq.s:4359   .debug_str:0000000000000236 .LASF36
C:\Users\Karzan\AppData\Local\Temp\cc75Aivq.s:4289   .debug_str:00000000000000f7 .LASF37
C:\Users\Karzan\AppData\Local\Temp\cc75Aivq.s:4569   .debug_str:0000000000000723 .LASF38
C:\Users\Karzan\AppData\Local\Temp\cc75Aivq.s:4303   .debug_str:0000000000000133 .LASF39
C:\Users\Karzan\AppData\Local\Temp\cc75Aivq.s:4581   .debug_str:0000000000000755 .LASF40
C:\Users\Karzan\AppData\Local\Temp\cc75Aivq.s:4417   .debug_str:000000000000038f .LASF41
C:\Users\Karzan\AppData\Local\Temp\cc75Aivq.s:4405   .debug_str:00000000000002f8 .LASF42
C:\Users\Karzan\AppData\Local\Temp\cc75Aivq.s:4493   .debug_str:0000000000000519 .LASF43
C:\Users\Karzan\AppData\Local\Temp\cc75Aivq.s:4453   .debug_str:000000000000045a .LASF44
C:\Users\Karzan\AppData\Local\Temp\cc75Aivq.s:4565   .debug_str:0000000000000709 .LASF45
C:\Users\Karzan\AppData\Local\Temp\cc75Aivq.s:4307   .debug_str:0000000000000142 .LASF46
C:\Users\Karzan\AppData\Local\Temp\cc75Aivq.s:4253   .debug_str:000000000000002f .LASF47
C:\Users\Karzan\AppData\Local\Temp\cc75Aivq.s:4243   .debug_str:0000000000000000 .LASF48
C:\Users\Karzan\AppData\Local\Temp\cc75Aivq.s:4525   .debug_str:000000000000062c .LASF49
C:\Users\Karzan\AppData\Local\Temp\cc75Aivq.s:4317   .debug_str:0000000000000170 .LASF50
C:\Users\Karzan\AppData\Local\Temp\cc75Aivq.s:4419   .debug_str:0000000000000398 .LASF51
C:\Users\Karzan\AppData\Local\Temp\cc75Aivq.s:4471   .debug_str:00000000000004ad .LASF52
C:\Users\Karzan\AppData\Local\Temp\cc75Aivq.s:4339   .debug_str:00000000000001e3 .LASF53
C:\Users\Karzan\AppData\Local\Temp\cc75Aivq.s:4455   .debug_str:0000000000000464 .LASF54
C:\Users\Karzan\AppData\Local\Temp\cc75Aivq.s:4301   .debug_str:000000000000012d .LASF55
C:\Users\Karzan\AppData\Local\Temp\cc75Aivq.s:4507   .debug_str:000000000000055a .LASF56
C:\Users\Karzan\AppData\Local\Temp\cc75Aivq.s:4461   .debug_str:0000000000000479 .LASF57
C:\Users\Karzan\AppData\Local\Temp\cc75Aivq.s:4315   .debug_str:0000000000000169 .LASF58
C:\Users\Karzan\AppData\Local\Temp\cc75Aivq.s:4373   .debug_str:0000000000000273 .LASF59
C:\Users\Karzan\AppData\Local\Temp\cc75Aivq.s:4277   .debug_str:00000000000000ba .LASF60
C:\Users\Karzan\AppData\Local\Temp\cc75Aivq.s:4309   .debug_str:0000000000000150 .LASF61
C:\Users\Karzan\AppData\Local\Temp\cc75Aivq.s:4353   .debug_str:0000000000000220 .LASF62
C:\Users\Karzan\AppData\Local\Temp\cc75Aivq.s:4403   .debug_str:00000000000002f1 .LASF63
C:\Users\Karzan\AppData\Local\Temp\cc75Aivq.s:4491   .debug_str:0000000000000513 .LASF64
C:\Users\Karzan\AppData\Local\Temp\cc75Aivq.s:4295   .debug_str:0000000000000114 .LASF65
C:\Users\Karzan\AppData\Local\Temp\cc75Aivq.s:4299   .debug_str:0000000000000127 .LASF66
C:\Users\Karzan\AppData\Local\Temp\cc75Aivq.s:4559   .debug_str:00000000000006eb .LASF67
C:\Users\Karzan\AppData\Local\Temp\cc75Aivq.s:4505   .debug_str:0000000000000551 .LASF68
C:\Users\Karzan\AppData\Local\Temp\cc75Aivq.s:4333   .debug_str:00000000000001bc .LASF69
C:\Users\Karzan\AppData\Local\Temp\cc75Aivq.s:4375   .debug_str:0000000000000279 .LASF70
C:\Users\Karzan\AppData\Local\Temp\cc75Aivq.s:4393   .debug_str:00000000000002c3 .LASF71
C:\Users\Karzan\AppData\Local\Temp\cc75Aivq.s:4463   .debug_str:0000000000000481 .LASF72
C:\Users\Karzan\AppData\Local\Temp\cc75Aivq.s:4457   .debug_str:000000000000046b .LASF73
C:\Users\Karzan\AppData\Local\Temp\cc75Aivq.s:4481   .debug_str:00000000000004e5 .LASF74
C:\Users\Karzan\AppData\Local\Temp\cc75Aivq.s:4501   .debug_str:0000000000000545 .LASF75
C:\Users\Karzan\AppData\Local\Temp\cc75Aivq.s:4319   .debug_str:0000000000000178 .LASF76
GAS LISTING C:\Users\Karzan\AppData\Local\Temp\cc75Aivq.s 			page 27


C:\Users\Karzan\AppData\Local\Temp\cc75Aivq.s:4365   .debug_str:000000000000024a .LASF77
C:\Users\Karzan\AppData\Local\Temp\cc75Aivq.s:4347   .debug_str:0000000000000205 .LASF78
C:\Users\Karzan\AppData\Local\Temp\cc75Aivq.s:4469   .debug_str:00000000000004a8 .LASF79
C:\Users\Karzan\AppData\Local\Temp\cc75Aivq.s:4259   .debug_str:0000000000000046 .LASF80
C:\Users\Karzan\AppData\Local\Temp\cc75Aivq.s:4477   .debug_str:00000000000004c4 .LASF81
C:\Users\Karzan\AppData\Local\Temp\cc75Aivq.s:4473   .debug_str:00000000000004b2 .LASF82
C:\Users\Karzan\AppData\Local\Temp\cc75Aivq.s:4423   .debug_str:00000000000003aa .LASF83
C:\Users\Karzan\AppData\Local\Temp\cc75Aivq.s:4475   .debug_str:00000000000004ba .LASF84
C:\Users\Karzan\AppData\Local\Temp\cc75Aivq.s:4387   .debug_str:00000000000002b0 .LASF85
C:\Users\Karzan\AppData\Local\Temp\cc75Aivq.s:4323   .debug_str:0000000000000186 .LASF86
C:\Users\Karzan\AppData\Local\Temp\cc75Aivq.s:4575   .debug_str:000000000000073f .LASF87
C:\Users\Karzan\AppData\Local\Temp\cc75Aivq.s:4431   .debug_str:00000000000003db .LASF88
C:\Users\Karzan\AppData\Local\Temp\cc75Aivq.s:4369   .debug_str:0000000000000259 .LASF89
C:\Users\Karzan\AppData\Local\Temp\cc75Aivq.s:4331   .debug_str:00000000000001b4 .LASF90
C:\Users\Karzan\AppData\Local\Temp\cc75Aivq.s:4391   .debug_str:00000000000002be .LASF91
C:\Users\Karzan\AppData\Local\Temp\cc75Aivq.s:4269   .debug_str:000000000000007a .LASF92
C:\Users\Karzan\AppData\Local\Temp\cc75Aivq.s:4553   .debug_str:00000000000006bf .LASF93
C:\Users\Karzan\AppData\Local\Temp\cc75Aivq.s:4311   .debug_str:0000000000000158 .LASF94
C:\Users\Karzan\AppData\Local\Temp\cc75Aivq.s:4305   .debug_str:000000000000013d .LASF95
C:\Users\Karzan\AppData\Local\Temp\cc75Aivq.s:4503   .debug_str:000000000000054c .LASF96
C:\Users\Karzan\AppData\Local\Temp\cc75Aivq.s:4321   .debug_str:000000000000017f .LASF97
C:\Users\Karzan\AppData\Local\Temp\cc75Aivq.s:4547   .debug_str:00000000000006a6 .LASF98
C:\Users\Karzan\AppData\Local\Temp\cc75Aivq.s:4377   .debug_str:000000000000027f .LASF99
C:\Users\Karzan\AppData\Local\Temp\cc75Aivq.s:4447   .debug_str:0000000000000442 .LASF100
C:\Users\Karzan\AppData\Local\Temp\cc75Aivq.s:4257   .debug_str:000000000000003e .LASF101
C:\Users\Karzan\AppData\Local\Temp\cc75Aivq.s:4483   .debug_str:00000000000004ec .LASF102
C:\Users\Karzan\AppData\Local\Temp\cc75Aivq.s:4397   .debug_str:00000000000002db .LASF103
C:\Users\Karzan\AppData\Local\Temp\cc75Aivq.s:4531   .debug_str:0000000000000650 .LASF104
C:\Users\Karzan\AppData\Local\Temp\cc75Aivq.s:4541   .debug_str:0000000000000686 .LASF105
C:\Users\Karzan\AppData\Local\Temp\cc75Aivq.s:4521   .debug_str:0000000000000597 .LASF106
C:\Users\Karzan\AppData\Local\Temp\cc75Aivq.s:4385   .debug_str:00000000000002a3 .LASF107
C:\Users\Karzan\AppData\Local\Temp\cc75Aivq.s:4567   .debug_str:0000000000000714 .LASF108
C:\Users\Karzan\AppData\Local\Temp\cc75Aivq.s:4425   .debug_str:00000000000003b5 .LASF109
C:\Users\Karzan\AppData\Local\Temp\cc75Aivq.s:4381   .debug_str:000000000000028c .LASF110
C:\Users\Karzan\AppData\Local\Temp\cc75Aivq.s:4571   .debug_str:000000000000072c .LASF111
C:\Users\Karzan\AppData\Local\Temp\cc75Aivq.s:4467   .debug_str:000000000000049b .LASF112
C:\Users\Karzan\AppData\Local\Temp\cc75Aivq.s:4573   .debug_str:0000000000000731 .LASF113
C:\Users\Karzan\AppData\Local\Temp\cc75Aivq.s:4287   .debug_str:00000000000000e9 .LASF114
C:\Users\Karzan\AppData\Local\Temp\cc75Aivq.s:4551   .debug_str:00000000000006b5 .LASF115
C:\Users\Karzan\AppData\Local\Temp\cc75Aivq.s:4383   .debug_str:0000000000000297 .LASF116
C:\Users\Karzan\AppData\Local\Temp\cc75Aivq.s:4535   .debug_str:000000000000065d .LASF117
C:\Users\Karzan\AppData\Local\Temp\cc75Aivq.s:4337   .debug_str:00000000000001d5 .LASF118
C:\Users\Karzan\AppData\Local\Temp\cc75Aivq.s:4283   .debug_str:00000000000000d5 .LASF119
C:\Users\Karzan\AppData\Local\Temp\cc75Aivq.s:4335   .debug_str:00000000000001c4 .LASF120
C:\Users\Karzan\AppData\Local\Temp\cc75Aivq.s:4271   .debug_str:0000000000000083 .LASF121
C:\Users\Karzan\AppData\Local\Temp\cc75Aivq.s:4273   .debug_str:0000000000000092 .LASF122
C:\Users\Karzan\AppData\Local\Temp\cc75Aivq.s:4449   .debug_str:0000000000000448 .LASF123
C:\Users\Karzan\AppData\Local\Temp\cc75Aivq.s:4415   .debug_str:0000000000000388 .LASF124
C:\Users\Karzan\AppData\Local\Temp\cc75Aivq.s:4407   .debug_str:0000000000000302 .LASF125
C:\Users\Karzan\AppData\Local\Temp\cc75Aivq.s:4561   .debug_str:00000000000006f1 .LASF126
C:\Users\Karzan\AppData\Local\Temp\cc75Aivq.s:4281   .debug_str:00000000000000ca .LASF168
C:\Users\Karzan\AppData\Local\Temp\cc75Aivq.s:4345   .debug_str:00000000000001f9 .LASF128
C:\Users\Karzan\AppData\Local\Temp\cc75Aivq.s:4537   .debug_str:000000000000066a .LASF129
C:\Users\Karzan\AppData\Local\Temp\cc75Aivq.s:4513   .debug_str:0000000000000578 .LASF130
C:\Users\Karzan\AppData\Local\Temp\cc75Aivq.s:4329   .debug_str:00000000000001a7 .LASF131
C:\Users\Karzan\AppData\Local\Temp\cc75Aivq.s:4411   .debug_str:0000000000000371 .LASF132
C:\Users\Karzan\AppData\Local\Temp\cc75Aivq.s:4497   .debug_str:000000000000052b .LASF133
GAS LISTING C:\Users\Karzan\AppData\Local\Temp\cc75Aivq.s 			page 28


C:\Users\Karzan\AppData\Local\Temp\cc75Aivq.s:4291   .debug_str:0000000000000100 .LASF134
C:\Users\Karzan\AppData\Local\Temp\cc75Aivq.s:4515   .debug_str:0000000000000583 .LASF135
C:\Users\Karzan\AppData\Local\Temp\cc75Aivq.s:4351   .debug_str:0000000000000215 .LASF136
C:\Users\Karzan\AppData\Local\Temp\cc75Aivq.s:4379   .debug_str:0000000000000286 .LASF137
C:\Users\Karzan\AppData\Local\Temp\cc75Aivq.s:4367   .debug_str:0000000000000252 .LASF138
C:\Users\Karzan\AppData\Local\Temp\cc75Aivq.s:4395   .debug_str:00000000000002c9 .LASF139
C:\Users\Karzan\AppData\Local\Temp\cc75Aivq.s:4401   .debug_str:00000000000002eb .LASF140
C:\Users\Karzan\AppData\Local\Temp\cc75Aivq.s:4577   .debug_str:0000000000000744 .LASF141
C:\Users\Karzan\AppData\Local\Temp\cc75Aivq.s:4247   .debug_str:0000000000000016 .LASF142
C:\Users\Karzan\AppData\Local\Temp\cc75Aivq.s:4251   .debug_str:0000000000000026 .LASF143
C:\Users\Karzan\AppData\Local\Temp\cc75Aivq.s:4543   .debug_str:0000000000000693 .LASF144
C:\Users\Karzan\AppData\Local\Temp\cc75Aivq.s:4363   .debug_str:0000000000000242 .LASF145
C:\Users\Karzan\AppData\Local\Temp\cc75Aivq.s:4413   .debug_str:000000000000037c .LASF146
C:\Users\Karzan\AppData\Local\Temp\cc75Aivq.s:4265   .debug_str:0000000000000061 .LASF147
C:\Users\Karzan\AppData\Local\Temp\cc75Aivq.s:4557   .debug_str:00000000000006dc .LASF148
C:\Users\Karzan\AppData\Local\Temp\cc75Aivq.s:4421   .debug_str:00000000000003a0 .LASF149
C:\Users\Karzan\AppData\Local\Temp\cc75Aivq.s:4357   .debug_str:000000000000022b .LASF169
C:\Users\Karzan\AppData\Local\Temp\cc75Aivq.s:4579   .debug_str:000000000000074f .LASF150
C:\Users\Karzan\AppData\Local\Temp\cc75Aivq.s:4459   .debug_str:0000000000000473 .LASF151
C:\Users\Karzan\AppData\Local\Temp\cc75Aivq.s:4261   .debug_str:0000000000000051 .LASF152
C:\Users\Karzan\AppData\Local\Temp\cc75Aivq.s:4355   .debug_str:0000000000000226 .LASF153
C:\Users\Karzan\AppData\Local\Temp\cc75Aivq.s:4563   .debug_str:00000000000006f9 .LASF155
C:\Users\Karzan\AppData\Local\Temp\cc75Aivq.s:645    .text.gui_erase_graph:0000000000000000 .LFB9
C:\Users\Karzan\AppData\Local\Temp\cc75Aivq.s:733    .text.gui_erase_graph:0000000000000056 .LFE9
C:\Users\Karzan\AppData\Local\Temp\cc75Aivq.s:3598   .debug_loc:0000000000000000 .LLST26
C:\Users\Karzan\AppData\Local\Temp\cc75Aivq.s:3621   .debug_loc:0000000000000038 .LLST27
C:\Users\Karzan\AppData\Local\Temp\cc75Aivq.s:4527   .debug_str:0000000000000635 .LASF154
C:\Users\Karzan\AppData\Local\Temp\cc75Aivq.s:3643   .debug_loc:000000000000006f .LLST28
C:\Users\Karzan\AppData\Local\Temp\cc75Aivq.s:3654   .debug_loc:000000000000008d .LLST29
C:\Users\Karzan\AppData\Local\Temp\cc75Aivq.s:725    .text.gui_erase_graph:0000000000000052 .LVL67
C:\Users\Karzan\AppData\Local\Temp\cc75Aivq.s:4439   .debug_str:0000000000000412 .LASF156
C:\Users\Karzan\AppData\Local\Temp\cc75Aivq.s:261    .text.gui_render_graph:0000000000000000 .LFB8
C:\Users\Karzan\AppData\Local\Temp\cc75Aivq.s:638    .text.gui_render_graph:0000000000000186 .LFE8
C:\Users\Karzan\AppData\Local\Temp\cc75Aivq.s:3670   .debug_loc:00000000000000b7 .LLST9
C:\Users\Karzan\AppData\Local\Temp\cc75Aivq.s:3693   .debug_loc:00000000000000ef .LLST10
C:\Users\Karzan\AppData\Local\Temp\cc75Aivq.s:3715   .debug_loc:0000000000000126 .LLST11
C:\Users\Karzan\AppData\Local\Temp\cc75Aivq.s:3726   .debug_loc:0000000000000144 .LLST12
C:\Users\Karzan\AppData\Local\Temp\cc75Aivq.s:3737   .debug_loc:0000000000000162 .LLST13
C:\Users\Karzan\AppData\Local\Temp\cc75Aivq.s:3827   .debug_loc:0000000000000215 .LLST14
C:\Users\Karzan\AppData\Local\Temp\cc75Aivq.s:3838   .debug_loc:0000000000000233 .LLST15
C:\Users\Karzan\AppData\Local\Temp\cc75Aivq.s:3845   .debug_loc:0000000000000246 .LLST16
C:\Users\Karzan\AppData\Local\Temp\cc75Aivq.s:3857   .debug_loc:0000000000000265 .LLST24
C:\Users\Karzan\AppData\Local\Temp\cc75Aivq.s:523    .text.gui_render_graph:00000000000000fe .LVL44
C:\Users\Karzan\AppData\Local\Temp\cc75Aivq.s:550    .text.gui_render_graph:0000000000000110 .LBB26
C:\Users\Karzan\AppData\Local\Temp\cc75Aivq.s:636    .text.gui_render_graph:0000000000000186 .LBE26
C:\Users\Karzan\AppData\Local\Temp\cc75Aivq.s:3873   .debug_loc:000000000000028f .LLST25
C:\Users\Karzan\AppData\Local\Temp\cc75Aivq.s:624    .text.gui_render_graph:000000000000017c .LVL57
C:\Users\Karzan\AppData\Local\Temp\cc75Aivq.s:282    .text.gui_render_graph:000000000000000c .LBB12
C:\Users\Karzan\AppData\Local\Temp\cc75Aivq.s:3885   .debug_loc:00000000000002ae .LLST17
C:\Users\Karzan\AppData\Local\Temp\cc75Aivq.s:3896   .debug_loc:00000000000002cc .LLST18
C:\Users\Karzan\AppData\Local\Temp\cc75Aivq.s:3911   .debug_loc:00000000000002f4 .LLST19
C:\Users\Karzan\AppData\Local\Temp\cc75Aivq.s:3926   .debug_loc:000000000000031c .LLST20
C:\Users\Karzan\AppData\Local\Temp\cc75Aivq.s:3943   .debug_loc:000000000000034a .LLST21
C:\Users\Karzan\AppData\Local\Temp\cc75Aivq.s:3962   .debug_loc:0000000000000377 .LLST22
C:\Users\Karzan\AppData\Local\Temp\cc75Aivq.s:3969   .debug_loc:000000000000038a .LLST23
C:\Users\Karzan\AppData\Local\Temp\cc75Aivq.s:4465   .debug_str:000000000000048a .LASF157
C:\Users\Karzan\AppData\Local\Temp\cc75Aivq.s:198    .text.gui_append_graph:0000000000000000 .LFB7
GAS LISTING C:\Users\Karzan\AppData\Local\Temp\cc75Aivq.s 			page 29


C:\Users\Karzan\AppData\Local\Temp\cc75Aivq.s:254    .text.gui_append_graph:0000000000000032 .LFE7
C:\Users\Karzan\AppData\Local\Temp\cc75Aivq.s:3985   .debug_loc:00000000000003b4 .LLST7
C:\Users\Karzan\AppData\Local\Temp\cc75Aivq.s:4279   .debug_str:00000000000000c3 .LASF158
C:\Users\Karzan\AppData\Local\Temp\cc75Aivq.s:4441   .debug_str:0000000000000423 .LASF159
C:\Users\Karzan\AppData\Local\Temp\cc75Aivq.s:3999   .debug_loc:00000000000003d5 .LLST8
C:\Users\Karzan\AppData\Local\Temp\cc75Aivq.s:4489   .debug_str:0000000000000502 .LASF160
C:\Users\Karzan\AppData\Local\Temp\cc75Aivq.s:144    .text.gui_remove_graph:0000000000000000 .LFB6
C:\Users\Karzan\AppData\Local\Temp\cc75Aivq.s:191    .text.gui_remove_graph:0000000000000034 .LFE6
C:\Users\Karzan\AppData\Local\Temp\cc75Aivq.s:4021   .debug_loc:000000000000040c .LLST5
C:\Users\Karzan\AppData\Local\Temp\cc75Aivq.s:4039   .debug_loc:0000000000000438 .LLST6
C:\Users\Karzan\AppData\Local\Temp\cc75Aivq.s:166    .text.gui_remove_graph:0000000000000014 .LVL14
C:\Users\Karzan\AppData\Local\Temp\cc75Aivq.s:173    .text.gui_remove_graph:0000000000000020 .LVL15
C:\Users\Karzan\AppData\Local\Temp\cc75Aivq.s:177    .text.gui_remove_graph:000000000000002a .LVL16
C:\Users\Karzan\AppData\Local\Temp\cc75Aivq.s:4267   .debug_str:000000000000006b .LASF161
C:\Users\Karzan\AppData\Local\Temp\cc75Aivq.s:14     .text.gui_init_graph:0000000000000000 .LFB5
C:\Users\Karzan\AppData\Local\Temp\cc75Aivq.s:137    .text.gui_init_graph:0000000000000080 .LFE5
C:\Users\Karzan\AppData\Local\Temp\cc75Aivq.s:4057   .debug_loc:0000000000000464 .LLST0
C:\Users\Karzan\AppData\Local\Temp\cc75Aivq.s:4080   .debug_loc:000000000000049c .LLST1
C:\Users\Karzan\AppData\Local\Temp\cc75Aivq.s:4102   .debug_loc:00000000000004d3 .LLST2
C:\Users\Karzan\AppData\Local\Temp\cc75Aivq.s:4124   .debug_loc:000000000000050a .LLST3
C:\Users\Karzan\AppData\Local\Temp\cc75Aivq.s:4146   .debug_loc:0000000000000541 .LLST4
C:\Users\Karzan\AppData\Local\Temp\cc75Aivq.s:42     .text.gui_init_graph:000000000000001a .LVL2
C:\Users\Karzan\AppData\Local\Temp\cc75Aivq.s:62     .text.gui_init_graph:0000000000000036 .LVL3
C:\Users\Karzan\AppData\Local\Temp\cc75Aivq.s:69     .text.gui_init_graph:0000000000000042 .LVL4
C:\Users\Karzan\AppData\Local\Temp\cc75Aivq.s:4555   .debug_str:00000000000006c9 .LASF162
C:\Users\Karzan\AppData\Local\Temp\cc75Aivq.s:4285   .debug_str:00000000000000e4 .LASF163
C:\Users\Karzan\AppData\Local\Temp\cc75Aivq.s:4249   .debug_str:000000000000001f .LASF164
C:\Users\Karzan\AppData\Local\Temp\cc75Aivq.s:652    .text.gui_erase_graph:0000000000000002 .LCFI8
C:\Users\Karzan\AppData\Local\Temp\cc75Aivq.s:703    .text.gui_erase_graph:000000000000002e .LCFI9
C:\Users\Karzan\AppData\Local\Temp\cc75Aivq.s:708    .text.gui_erase_graph:0000000000000030 .LCFI10
C:\Users\Karzan\AppData\Local\Temp\cc75Aivq.s:648    .text.gui_erase_graph:0000000000000000 .LVL60
C:\Users\Karzan\AppData\Local\Temp\cc75Aivq.s:679    .text.gui_erase_graph:0000000000000018 .LVL62
C:\Users\Karzan\AppData\Local\Temp\cc75Aivq.s:695    .text.gui_erase_graph:0000000000000026 .LVL64
C:\Users\Karzan\AppData\Local\Temp\cc75Aivq.s:706    .text.gui_erase_graph:0000000000000030 .LVL66
C:\Users\Karzan\AppData\Local\Temp\cc75Aivq.s:658    .text.gui_erase_graph:0000000000000008 .LVL61
C:\Users\Karzan\AppData\Local\Temp\cc75Aivq.s:698    .text.gui_erase_graph:0000000000000028 .LVL65
C:\Users\Karzan\AppData\Local\Temp\cc75Aivq.s:692    .text.gui_erase_graph:0000000000000024 .LVL63
C:\Users\Karzan\AppData\Local\Temp\cc75Aivq.s:268    .text.gui_render_graph:0000000000000002 .LCFI5
C:\Users\Karzan\AppData\Local\Temp\cc75Aivq.s:428    .text.gui_render_graph:000000000000008a .LCFI6
C:\Users\Karzan\AppData\Local\Temp\cc75Aivq.s:433    .text.gui_render_graph:000000000000008c .LCFI7
C:\Users\Karzan\AppData\Local\Temp\cc75Aivq.s:264    .text.gui_render_graph:0000000000000000 .LVL23
C:\Users\Karzan\AppData\Local\Temp\cc75Aivq.s:331    .text.gui_render_graph:000000000000002c .LVL26
C:\Users\Karzan\AppData\Local\Temp\cc75Aivq.s:414    .text.gui_render_graph:000000000000007c .LVL35
C:\Users\Karzan\AppData\Local\Temp\cc75Aivq.s:431    .text.gui_render_graph:000000000000008c .LVL36
C:\Users\Karzan\AppData\Local\Temp\cc75Aivq.s:274    .text.gui_render_graph:0000000000000006 .LVL24
C:\Users\Karzan\AppData\Local\Temp\cc75Aivq.s:411    .text.gui_render_graph:000000000000007a .LVL34
C:\Users\Karzan\AppData\Local\Temp\cc75Aivq.s:506    .text.gui_render_graph:00000000000000dc .LVL42
C:\Users\Karzan\AppData\Local\Temp\cc75Aivq.s:518    .text.gui_render_graph:00000000000000ee .LVL43
C:\Users\Karzan\AppData\Local\Temp\cc75Aivq.s:604    .text.gui_render_graph:0000000000000158 .LVL53
C:\Users\Karzan\AppData\Local\Temp\cc75Aivq.s:618    .text.gui_render_graph:000000000000016e .LVL55
C:\Users\Karzan\AppData\Local\Temp\cc75Aivq.s:317    .text.gui_render_graph:0000000000000028 .LVL25
C:\Users\Karzan\AppData\Local\Temp\cc75Aivq.s:383    .text.gui_render_graph:0000000000000062 .LVL30
C:\Users\Karzan\AppData\Local\Temp\cc75Aivq.s:388    .text.gui_render_graph:0000000000000068 .LVL31
C:\Users\Karzan\AppData\Local\Temp\cc75Aivq.s:400    .text.gui_render_graph:0000000000000074 .LVL33
C:\Users\Karzan\AppData\Local\Temp\cc75Aivq.s:527    .text.gui_render_graph:0000000000000100 .LVL45
C:\Users\Karzan\AppData\Local\Temp\cc75Aivq.s:529    .text.gui_render_graph:0000000000000102 .LVL46
C:\Users\Karzan\AppData\Local\Temp\cc75Aivq.s:561    .text.gui_render_graph:000000000000011c .LVL52
GAS LISTING C:\Users\Karzan\AppData\Local\Temp\cc75Aivq.s 			page 30


C:\Users\Karzan\AppData\Local\Temp\cc75Aivq.s:615    .text.gui_render_graph:0000000000000168 .LVL54
C:\Users\Karzan\AppData\Local\Temp\cc75Aivq.s:620    .text.gui_render_graph:0000000000000170 .LVL56
C:\Users\Karzan\AppData\Local\Temp\cc75Aivq.s:628    .text.gui_render_graph:000000000000017e .LVL58
C:\Users\Karzan\AppData\Local\Temp\cc75Aivq.s:630    .text.gui_render_graph:0000000000000180 .LVL59
C:\Users\Karzan\AppData\Local\Temp\cc75Aivq.s:337    .text.gui_render_graph:0000000000000030 .LVL27
C:\Users\Karzan\AppData\Local\Temp\cc75Aivq.s:471    .text.gui_render_graph:00000000000000b0 .LVL41
C:\Users\Karzan\AppData\Local\Temp\cc75Aivq.s:554    .text.gui_render_graph:0000000000000114 .LVL51
C:\Users\Karzan\AppData\Local\Temp\cc75Aivq.s:361    .text.gui_render_graph:000000000000004c .LVL28
C:\Users\Karzan\AppData\Local\Temp\cc75Aivq.s:541    .text.gui_render_graph:000000000000010c .LVL48
C:\Users\Karzan\AppData\Local\Temp\cc75Aivq.s:545    .text.gui_render_graph:000000000000010e .LVL49
C:\Users\Karzan\AppData\Local\Temp\cc75Aivq.s:547    .text.gui_render_graph:0000000000000110 .LVL50
C:\Users\Karzan\AppData\Local\Temp\cc75Aivq.s:376    .text.gui_render_graph:000000000000005a .LVL29
C:\Users\Karzan\AppData\Local\Temp\cc75Aivq.s:391    .text.gui_render_graph:000000000000006c .LVL32
C:\Users\Karzan\AppData\Local\Temp\cc75Aivq.s:535    .text.gui_render_graph:0000000000000108 .LVL47
C:\Users\Karzan\AppData\Local\Temp\cc75Aivq.s:748    .debug_info:0000000000000000 .Ldebug_info0
C:\Users\Karzan\AppData\Local\Temp\cc75Aivq.s:451    .text.gui_render_graph:000000000000009c .LVL37
C:\Users\Karzan\AppData\Local\Temp\cc75Aivq.s:201    .text.gui_append_graph:0000000000000000 .LVL18
C:\Users\Karzan\AppData\Local\Temp\cc75Aivq.s:211    .text.gui_append_graph:0000000000000004 .LVL20
C:\Users\Karzan\AppData\Local\Temp\cc75Aivq.s:205    .text.gui_append_graph:0000000000000002 .LVL19
C:\Users\Karzan\AppData\Local\Temp\cc75Aivq.s:235    .text.gui_append_graph:000000000000001e .LVL21
C:\Users\Karzan\AppData\Local\Temp\cc75Aivq.s:240    .text.gui_append_graph:0000000000000024 .LVL22
C:\Users\Karzan\AppData\Local\Temp\cc75Aivq.s:153    .text.gui_remove_graph:0000000000000004 .LCFI3
C:\Users\Karzan\AppData\Local\Temp\cc75Aivq.s:187    .text.gui_remove_graph:0000000000000032 .LCFI4
C:\Users\Karzan\AppData\Local\Temp\cc75Aivq.s:147    .text.gui_remove_graph:0000000000000000 .LVL12
C:\Users\Karzan\AppData\Local\Temp\cc75Aivq.s:160    .text.gui_remove_graph:000000000000000a .LVL13
C:\Users\Karzan\AppData\Local\Temp\cc75Aivq.s:184    .text.gui_remove_graph:000000000000002e .LVL17
C:\Users\Karzan\AppData\Local\Temp\cc75Aivq.s:22     .text.gui_init_graph:0000000000000002 .LCFI0
C:\Users\Karzan\AppData\Local\Temp\cc75Aivq.s:106    .text.gui_init_graph:0000000000000060 .LCFI1
C:\Users\Karzan\AppData\Local\Temp\cc75Aivq.s:112    .text.gui_init_graph:0000000000000062 .LCFI2
C:\Users\Karzan\AppData\Local\Temp\cc75Aivq.s:18     .text.gui_init_graph:0000000000000000 .LVL0
C:\Users\Karzan\AppData\Local\Temp\cc75Aivq.s:29     .text.gui_init_graph:0000000000000008 .LVL1
C:\Users\Karzan\AppData\Local\Temp\cc75Aivq.s:103    .text.gui_init_graph:000000000000005c .LVL8
C:\Users\Karzan\AppData\Local\Temp\cc75Aivq.s:110    .text.gui_init_graph:0000000000000062 .LVL10
C:\Users\Karzan\AppData\Local\Temp\cc75Aivq.s:100    .text.gui_init_graph:000000000000005a .LVL7
C:\Users\Karzan\AppData\Local\Temp\cc75Aivq.s:108    .text.gui_init_graph:0000000000000060 .LVL9
C:\Users\Karzan\AppData\Local\Temp\cc75Aivq.s:79     .text.gui_init_graph:0000000000000048 .LVL5
C:\Users\Karzan\AppData\Local\Temp\cc75Aivq.s:86     .text.gui_init_graph:0000000000000050 .LVL6
C:\Users\Karzan\AppData\Local\Temp\cc75Aivq.s:70     .text.gui_init_graph:0000000000000042 .LBB2
C:\Users\Karzan\AppData\Local\Temp\cc75Aivq.s:73     .text.gui_init_graph:0000000000000046 .LBE2
C:\Users\Karzan\AppData\Local\Temp\cc75Aivq.s:77     .text.gui_init_graph:0000000000000048 .LBB3
C:\Users\Karzan\AppData\Local\Temp\cc75Aivq.s:90     .text.gui_init_graph:0000000000000054 .LBE3
C:\Users\Karzan\AppData\Local\Temp\cc75Aivq.s:114    .text.gui_init_graph:0000000000000062 .LBB4
C:\Users\Karzan\AppData\Local\Temp\cc75Aivq.s:135    .text.gui_init_graph:0000000000000080 .LBE4
C:\Users\Karzan\AppData\Local\Temp\cc75Aivq.s:207    .text.gui_append_graph:0000000000000002 .LBB5
C:\Users\Karzan\AppData\Local\Temp\cc75Aivq.s:215    .text.gui_append_graph:0000000000000008 .LBE5
C:\Users\Karzan\AppData\Local\Temp\cc75Aivq.s:221    .text.gui_append_graph:000000000000000c .LBB6
C:\Users\Karzan\AppData\Local\Temp\cc75Aivq.s:252    .text.gui_append_graph:0000000000000032 .LBE6
C:\Users\Karzan\AppData\Local\Temp\cc75Aivq.s:291    .text.gui_render_graph:0000000000000012 .LBE12
C:\Users\Karzan\AppData\Local\Temp\cc75Aivq.s:295    .text.gui_render_graph:0000000000000014 .LBB20
C:\Users\Karzan\AppData\Local\Temp\cc75Aivq.s:300    .text.gui_render_graph:0000000000000018 .LBE20
C:\Users\Karzan\AppData\Local\Temp\cc75Aivq.s:319    .text.gui_render_graph:0000000000000028 .LBB21
C:\Users\Karzan\AppData\Local\Temp\cc75Aivq.s:340    .text.gui_render_graph:0000000000000030 .LBE21
C:\Users\Karzan\AppData\Local\Temp\cc75Aivq.s:435    .text.gui_render_graph:000000000000008c .LBB24
C:\Users\Karzan\AppData\Local\Temp\cc75Aivq.s:475    .text.gui_render_graph:00000000000000b0 .LBE24
C:\Users\Karzan\AppData\Local\Temp\cc75Aivq.s:286    .text.gui_render_graph:0000000000000010 .LBB14
C:\Users\Karzan\AppData\Local\Temp\cc75Aivq.s:289    .text.gui_render_graph:0000000000000012 .LBE14
C:\Users\Karzan\AppData\Local\Temp\cc75Aivq.s:325    .text.gui_render_graph:0000000000000028 .LBB15
GAS LISTING C:\Users\Karzan\AppData\Local\Temp\cc75Aivq.s 			page 31


C:\Users\Karzan\AppData\Local\Temp\cc75Aivq.s:335    .text.gui_render_graph:0000000000000030 .LBE15
C:\Users\Karzan\AppData\Local\Temp\cc75Aivq.s:437    .text.gui_render_graph:000000000000008c .LBB16
C:\Users\Karzan\AppData\Local\Temp\cc75Aivq.s:473    .text.gui_render_graph:00000000000000b0 .LBE16
C:\Users\Karzan\AppData\Local\Temp\cc75Aivq.s:367    .text.gui_render_graph:0000000000000054 .LBB22
C:\Users\Karzan\AppData\Local\Temp\cc75Aivq.s:370    .text.gui_render_graph:0000000000000058 .LBE22
C:\Users\Karzan\AppData\Local\Temp\cc75Aivq.s:374    .text.gui_render_graph:000000000000005a .LBB23
C:\Users\Karzan\AppData\Local\Temp\cc75Aivq.s:393    .text.gui_render_graph:000000000000006c .LBE23
C:\Users\Karzan\AppData\Local\Temp\cc75Aivq.s:476    .text.gui_render_graph:00000000000000b0 .LBB25
C:\Users\Karzan\AppData\Local\Temp\cc75Aivq.s:537    .text.gui_render_graph:0000000000000108 .LBE25
C:\Users\Karzan\AppData\Local\Temp\cc75Aivq.s:660    .text.gui_erase_graph:0000000000000008 .LBB27
C:\Users\Karzan\AppData\Local\Temp\cc75Aivq.s:662    .text.gui_erase_graph:0000000000000008 .LBE27
C:\Users\Karzan\AppData\Local\Temp\cc75Aivq.s:674    .text.gui_erase_graph:0000000000000012 .LBB28
C:\Users\Karzan\AppData\Local\Temp\cc75Aivq.s:684    .text.gui_erase_graph:0000000000000020 .LBE28
C:\Users\Karzan\AppData\Local\Temp\cc75Aivq.s:710    .text.gui_erase_graph:0000000000000030 .LBB29
C:\Users\Karzan\AppData\Local\Temp\cc75Aivq.s:731    .text.gui_erase_graph:0000000000000056 .LBE29

UNDEFINED SYMBOLS
malloc
free
lio_lcd_draw_pixel
