GAS LISTING C:\Users\Karzan\AppData\Local\Temp\ccyAl7yf.s 			page 1


   1              		.file	"lio_lcd.c"
   2              		.option nopic
   3              		.attribute arch, "rv32i2p0_m2p0_a2p0_c2p0"
   4              		.attribute unaligned_access, 0
   5              		.attribute stack_align, 16
   6              		.text
   7              	.Ltext0:
   8              		.cfi_sections	.debug_frame
   9              		.section	.text.lio_lcd_set_background,"ax",@progbits
  10              		.align	1
  11              		.globl	lio_lcd_set_background
  13              	lio_lcd_set_background:
  14              	.LFB21:
  15              		.file 1 "lio_lcd.c"
   1:lio_lcd.c     **** #include "lio_lcd.h"
   2:lio_lcd.c     **** #include "lio_lcd_regs.h"
   3:lio_lcd.c     **** #include "lio_font.h"
   4:lio_lcd.c     **** #include "gd32vf103.h"
   5:lio_lcd.c     **** #include "stdlib.h"
   6:lio_lcd.c     **** #include "stdarg.h"
   7:lio_lcd.c     **** #include "stdio.h"
   8:lio_lcd.c     **** 
   9:lio_lcd.c     **** /* Private declarations */
  10:lio_lcd.c     **** void lcd_bus_init();
  11:lio_lcd.c     **** void spi_write_bus(uint8_t data);
  12:lio_lcd.c     **** void lcd_write_data(uint32_t len, uint8_t* buf);
  13:lio_lcd.c     **** void lcd_write_command(uint8_t command);
  14:lio_lcd.c     **** void lcd_CS_set();
  15:lio_lcd.c     **** void lcd_CS_reset();
  16:lio_lcd.c     **** void lcd_DC_set();
  17:lio_lcd.c     **** void lcd_DC_reset();
  18:lio_lcd.c     **** void lcd_delay_1ms(uint32_t count);
  19:lio_lcd.c     **** void lio_lcd_address_set(uint16_t x1, uint16_t x2, uint16_t y1, uint16_t y2);
  20:lio_lcd.c     **** /*End private declarations*/
  21:lio_lcd.c     **** 
  22:lio_lcd.c     **** /*Private variables*/ 
  23:lio_lcd.c     **** lio_lcd_config_t _config;
  24:lio_lcd.c     **** /*End private variables*/
  25:lio_lcd.c     **** 
  26:lio_lcd.c     **** 
  27:lio_lcd.c     **** /*Public interface*/
  28:lio_lcd.c     **** void lio_lcd_init(lio_lcd_config_t config){
  29:lio_lcd.c     **** 
  30:lio_lcd.c     **** 	_config = config;
  31:lio_lcd.c     **** 
  32:lio_lcd.c     **** 	uint8_t buf[32] = {0};
  33:lio_lcd.c     **** 
  34:lio_lcd.c     **** 	lcd_bus_init();
  35:lio_lcd.c     **** 	lcd_DC_reset();
  36:lio_lcd.c     **** 	lcd_CS_reset();
  37:lio_lcd.c     **** 	lcd_delay_1ms(200);
  38:lio_lcd.c     **** 
  39:lio_lcd.c     **** 	lcd_write_command(LIO_LCD_SW_RST); 	//Software reset
  40:lio_lcd.c     **** 	lcd_delay_1ms(120);
  41:lio_lcd.c     **** 
  42:lio_lcd.c     **** 	lcd_write_command(LIO_LCD_SLPOUT); 	//Turn off sleep mode
  43:lio_lcd.c     **** 	lcd_delay_1ms(120);
GAS LISTING C:\Users\Karzan\AppData\Local\Temp\ccyAl7yf.s 			page 2


  44:lio_lcd.c     **** 
  45:lio_lcd.c     **** 	if(_config.invert)lcd_write_command(LIO_LCD_INVON);
  46:lio_lcd.c     **** 	else 			  lcd_write_command(LIO_LCD_INVOFF);
  47:lio_lcd.c     **** 
  48:lio_lcd.c     **** 	//Frame rate control
  49:lio_lcd.c     **** 	//Frame rate=fosc/((RTNA + 20) x (LINE + FPA + BPA))
  50:lio_lcd.c     **** 
  51:lio_lcd.c     **** 	buf[0] = LIO_LCD_FRMCTRL1_RTNA;
  52:lio_lcd.c     **** 	buf[1] = LIO_LCD_FRMCTRL1_FPA;
  53:lio_lcd.c     **** 	buf[2] = LIO_LCD_FRMCTRL1_BNA;
  54:lio_lcd.c     **** 
  55:lio_lcd.c     **** 	lcd_write_command(LIO_LCD_FRMCTRL1); 	
  56:lio_lcd.c     **** 	lcd_write_data(3, buf);
  57:lio_lcd.c     **** 
  58:lio_lcd.c     **** 	buf[0] = LIO_LCD_FRMCTRL2_RTNA;
  59:lio_lcd.c     **** 	buf[1] = LIO_LCD_FRMCTRL2_FPA;
  60:lio_lcd.c     **** 	buf[2] = LIO_LCD_FRMCTRL2_BNA;
  61:lio_lcd.c     **** 
  62:lio_lcd.c     **** 	lcd_write_command(LIO_LCD_FRMCTRL2); 	
  63:lio_lcd.c     **** 	lcd_write_data(3, buf);
  64:lio_lcd.c     **** 
  65:lio_lcd.c     **** 	buf[0] = LIO_LCD_FRMCTRL3_RTNAL;
  66:lio_lcd.c     **** 	buf[1] = LIO_LCD_FRMCTRL3_FPAL;
  67:lio_lcd.c     **** 	buf[2] = LIO_LCD_FRMCTRL3_BNAL;
  68:lio_lcd.c     **** 	buf[3] = LIO_LCD_FRMCTRL3_RTNAF;
  69:lio_lcd.c     **** 	buf[4] = LIO_LCD_FRMCTRL3_FPAF;
  70:lio_lcd.c     **** 	buf[5] = LIO_LCD_FRMCTRL3_BNAF;
  71:lio_lcd.c     **** 
  72:lio_lcd.c     **** 	lcd_write_command(LIO_LCD_FRMCTRL3); 	//FRMCTRL1 - Full color
  73:lio_lcd.c     **** 	lcd_write_data(6, buf);
  74:lio_lcd.c     **** 
  75:lio_lcd.c     **** 	buf[0] = LIO_LCD_INVCTR_LNINV;
  76:lio_lcd.c     **** 
  77:lio_lcd.c     **** 	lcd_write_command(LIO_LCD_INVCTR); 	//FRMCTRL1 - Full color
  78:lio_lcd.c     **** 	lcd_write_data(1, buf);	
  79:lio_lcd.c     **** 
  80:lio_lcd.c     **** 	buf[0] = LIO_LCD_PWRCTR1_AVDD_VRHP;
  81:lio_lcd.c     **** 	buf[1] = LIO_LCD_PWRCTR1_VRHN;
  82:lio_lcd.c     **** 	buf[2] = LIO_LCD_PWRCTR1_MODE_VRH5;
  83:lio_lcd.c     **** 
  84:lio_lcd.c     **** 	lcd_write_command(LIO_LCD_PWRCTR1); 	//FRMCTRL1 - Full color
  85:lio_lcd.c     **** 	lcd_write_data(3, buf);	
  86:lio_lcd.c     **** 
  87:lio_lcd.c     **** 	buf[0] = LIO_LCD_PWRCTR2_VGH_VGLSEL;
  88:lio_lcd.c     **** 
  89:lio_lcd.c     **** 	lcd_write_command(LIO_LCD_PWRCTR2); 	//FRMCTRL1 - Full color
  90:lio_lcd.c     **** 	lcd_write_data(1, buf);	
  91:lio_lcd.c     **** 
  92:lio_lcd.c     **** 	buf[0] = LIO_LCD_PWRCTR3_APA;
  93:lio_lcd.c     **** 	buf[1] = LIO_LCD_PWRCTR3_DCA;
  94:lio_lcd.c     **** 
  95:lio_lcd.c     **** 	lcd_write_command(LIO_LCD_PWRCTR3); 
  96:lio_lcd.c     **** 	lcd_write_data(2, buf);
  97:lio_lcd.c     **** 
  98:lio_lcd.c     **** 	buf[0] = LIO_LCD_PWRCTR4_APB;
  99:lio_lcd.c     **** 	buf[1] = LIO_LCD_PWRCTR4_DCB;
 100:lio_lcd.c     **** 
GAS LISTING C:\Users\Karzan\AppData\Local\Temp\ccyAl7yf.s 			page 3


 101:lio_lcd.c     **** 	lcd_write_command(LIO_LCD_PWRCTR4); 
 102:lio_lcd.c     **** 	lcd_write_data(2, buf);
 103:lio_lcd.c     **** 
 104:lio_lcd.c     **** 	buf[0] = LIO_LCD_PWRCTR5_APC;
 105:lio_lcd.c     **** 	buf[1] = LIO_LCD_PWRCTR5_DCC;
 106:lio_lcd.c     **** 
 107:lio_lcd.c     **** 	lcd_write_command(LIO_LCD_PWRCTR5); 
 108:lio_lcd.c     **** 	lcd_write_data(2, buf);
 109:lio_lcd.c     **** 
 110:lio_lcd.c     **** 	buf[0] = LIO_LCD_VMCTR1_VCOM;
 111:lio_lcd.c     **** 
 112:lio_lcd.c     **** 	lcd_write_command(LIO_LCD_VMCTR1); 
 113:lio_lcd.c     **** 	lcd_write_data(1, buf);
 114:lio_lcd.c     **** 
 115:lio_lcd.c     **** 	buf[0]  = LIO_LCD_GMCTRP_0;
 116:lio_lcd.c     **** 	buf[1]  = LIO_LCD_GMCTRP_1;
 117:lio_lcd.c     **** 	buf[2]  = LIO_LCD_GMCTRP_2;
 118:lio_lcd.c     **** 	buf[3]  = LIO_LCD_GMCTRP_3;
 119:lio_lcd.c     **** 	buf[4]  = LIO_LCD_GMCTRP_4;
 120:lio_lcd.c     **** 	buf[5]  = LIO_LCD_GMCTRP_5;
 121:lio_lcd.c     **** 	buf[6]  = LIO_LCD_GMCTRP_6;
 122:lio_lcd.c     **** 	buf[7]  = LIO_LCD_GMCTRP_7;
 123:lio_lcd.c     **** 	buf[8]  = LIO_LCD_GMCTRP_8;
 124:lio_lcd.c     **** 	buf[9]  = LIO_LCD_GMCTRP_9;
 125:lio_lcd.c     **** 	buf[10] = LIO_LCD_GMCTRP_A;
 126:lio_lcd.c     **** 	buf[11] = LIO_LCD_GMCTRP_B;
 127:lio_lcd.c     **** 	buf[12] = LIO_LCD_GMCTRP_C;
 128:lio_lcd.c     **** 	buf[13] = LIO_LCD_GMCTRP_D;
 129:lio_lcd.c     **** 	buf[14] = LIO_LCD_GMCTRP_E;
 130:lio_lcd.c     **** 	buf[15] = LIO_LCD_GMCTRP_F;
 131:lio_lcd.c     **** 
 132:lio_lcd.c     **** 	lcd_write_command(LIO_LCD_GMCTRP); 
 133:lio_lcd.c     **** 	lcd_write_data(16, buf);	
 134:lio_lcd.c     **** 
 135:lio_lcd.c     **** 	buf[0]  = LIO_LCD_GMCTRN_0;
 136:lio_lcd.c     **** 	buf[1]  = LIO_LCD_GMCTRN_1;
 137:lio_lcd.c     **** 	buf[2]  = LIO_LCD_GMCTRN_2;
 138:lio_lcd.c     **** 	buf[3]  = LIO_LCD_GMCTRN_3;
 139:lio_lcd.c     **** 	buf[4]  = LIO_LCD_GMCTRN_4;
 140:lio_lcd.c     **** 	buf[5]  = LIO_LCD_GMCTRN_5;
 141:lio_lcd.c     **** 	buf[6]  = LIO_LCD_GMCTRN_6;
 142:lio_lcd.c     **** 	buf[7]  = LIO_LCD_GMCTRN_7;
 143:lio_lcd.c     **** 	buf[8]  = LIO_LCD_GMCTRN_8;
 144:lio_lcd.c     **** 	buf[9]  = LIO_LCD_GMCTRN_9;
 145:lio_lcd.c     **** 	buf[10] = LIO_LCD_GMCTRN_A;
 146:lio_lcd.c     **** 	buf[11] = LIO_LCD_GMCTRN_B;
 147:lio_lcd.c     **** 	buf[12] = LIO_LCD_GMCTRN_C;
 148:lio_lcd.c     **** 	buf[13] = LIO_LCD_GMCTRN_D;
 149:lio_lcd.c     **** 	buf[14] = LIO_LCD_GMCTRN_E;
 150:lio_lcd.c     **** 	buf[15] = LIO_LCD_GMCTRN_F;
 151:lio_lcd.c     **** 
 152:lio_lcd.c     **** 	lcd_write_command(LIO_LCD_GMCTRN); 
 153:lio_lcd.c     **** 	lcd_write_data(16, buf);
 154:lio_lcd.c     **** 
 155:lio_lcd.c     **** 	buf[0] = LIO_LCD_COLMOD_IFPF;
 156:lio_lcd.c     **** 
 157:lio_lcd.c     **** 	lcd_write_command(LIO_LCD_COLMOD); 
GAS LISTING C:\Users\Karzan\AppData\Local\Temp\ccyAl7yf.s 			page 4


 158:lio_lcd.c     **** 	lcd_write_data(1, buf);
 159:lio_lcd.c     **** 
 160:lio_lcd.c     **** 	buf[0] = LIO_LCD_MADCTL_CFG;
 161:lio_lcd.c     **** 
 162:lio_lcd.c     **** 	lcd_write_command(LIO_LCD_MADCTL); 
 163:lio_lcd.c     **** 	lcd_write_data(1, buf);
 164:lio_lcd.c     **** 
 165:lio_lcd.c     **** 	lcd_write_command(LIO_LCD_DISPON);
 166:lio_lcd.c     **** }
 167:lio_lcd.c     **** 
 168:lio_lcd.c     **** void lio_lcd_clear(uint16_t color){
 169:lio_lcd.c     **** 	uint8_t buf[] = {(0xFF00 & color) >> 8, color & 0xFF};
 170:lio_lcd.c     **** 	lio_lcd_address_set( 0, _config.width-1, 0, _config.height-1);
 171:lio_lcd.c     **** 	for(int i = _config.width*_config.height; i > 0; i--) lcd_write_data(2, buf);
 172:lio_lcd.c     **** }
 173:lio_lcd.c     **** 
 174:lio_lcd.c     **** void lio_lcd_rect_fill(int16_t x1, int16_t x2, int16_t y1, int16_t y2, uint16_t color){
 175:lio_lcd.c     **** 	lio_lcd_address_set(x1,x2,y1,y2);
 176:lio_lcd.c     **** 	lcd_write_color((x2-x1+1)*(y2-y1+1), color);
 177:lio_lcd.c     **** }
 178:lio_lcd.c     **** 
 179:lio_lcd.c     **** void lio_lcd_rect_lines(int16_t x1, int16_t x2, int16_t y1, int16_t y2, uint16_t color){
 180:lio_lcd.c     **** 	//Upper
 181:lio_lcd.c     **** 	lio_lcd_address_set(x1,x1,y1,y2);
 182:lio_lcd.c     **** 	lcd_write_color(y2-y1, color);
 183:lio_lcd.c     **** 	//Lower
 184:lio_lcd.c     **** 	lio_lcd_address_set(x2,x2,y1,y2);
 185:lio_lcd.c     **** 	lcd_write_color(y2-y1, color);
 186:lio_lcd.c     **** 	//Left
 187:lio_lcd.c     **** 	lio_lcd_address_set(x1,x2,y1,y1);
 188:lio_lcd.c     **** 	lcd_write_color(x2-x1, color);
 189:lio_lcd.c     **** 	//Right
 190:lio_lcd.c     **** 	lio_lcd_address_set(x1,x2,y2,y2);
 191:lio_lcd.c     **** 	lcd_write_color(x2-x1, color);
 192:lio_lcd.c     **** }
 193:lio_lcd.c     **** 
 194:lio_lcd.c     **** void lio_lcd_draw_pixel(uint16_t x, uint16_t y, uint16_t color){
 195:lio_lcd.c     **** 	lio_lcd_address_set(x,x,y,y);
 196:lio_lcd.c     **** 	lcd_write_color(1, color);
 197:lio_lcd.c     **** }
 198:lio_lcd.c     **** 
 199:lio_lcd.c     **** void lio_lcd_draw_next_pixel(uint16_t color){
 200:lio_lcd.c     **** 	uint8_t buf[] = {(0xFF00 & color) >> 8, color & 0xFF};
 201:lio_lcd.c     **** 	lcd_write_data(2, buf);
 202:lio_lcd.c     **** }
 203:lio_lcd.c     **** 
 204:lio_lcd.c     **** void lio_lcd_set_area(int16_t x1, int16_t x2, int16_t y1, int16_t y2){
 205:lio_lcd.c     **** 	lio_lcd_address_set(x1,x2,y1,y2);
 206:lio_lcd.c     **** }
 207:lio_lcd.c     **** 
 208:lio_lcd.c     **** void lcd_write_colors(uint32_t len, uint16_t* p_color){
 209:lio_lcd.c     **** 	uint8_t* buf = (uint8_t*) p_color;
 210:lio_lcd.c     **** 
 211:lio_lcd.c     **** 	lcd_DC_set();
 212:lio_lcd.c     **** 	//Claim the LCD
 213:lio_lcd.c     **** 	lcd_CS_reset();
 214:lio_lcd.c     **** 
GAS LISTING C:\Users\Karzan\AppData\Local\Temp\ccyAl7yf.s 			page 5


 215:lio_lcd.c     **** 	for(; len > 0; len--){
 216:lio_lcd.c     **** 		spi_write_bus(buf[1]);
 217:lio_lcd.c     **** 		spi_write_bus(buf[0]);
 218:lio_lcd.c     **** 		buf += 2;
 219:lio_lcd.c     **** 	}
 220:lio_lcd.c     **** 	while(spi_i2s_flag_get(SPI1, SPI_FLAG_TRANS) == SET);
 221:lio_lcd.c     **** 	lcd_CS_set();
 222:lio_lcd.c     **** }
 223:lio_lcd.c     **** 
 224:lio_lcd.c     **** void lcd_write_color(uint32_t len, uint16_t color){
 225:lio_lcd.c     **** 	uint8_t* buf = (uint8_t*) &color;
 226:lio_lcd.c     **** 
 227:lio_lcd.c     **** 	lcd_DC_set();
 228:lio_lcd.c     **** 	//Claim the LCD
 229:lio_lcd.c     **** 	lcd_CS_reset();
 230:lio_lcd.c     **** 
 231:lio_lcd.c     **** 	for(; len > 0; len--){
 232:lio_lcd.c     **** 		spi_write_bus(buf[1]);
 233:lio_lcd.c     **** 		spi_write_bus(buf[0]);
 234:lio_lcd.c     **** 	}
 235:lio_lcd.c     **** 	while(spi_i2s_flag_get(SPI1, SPI_FLAG_TRANS) == SET);
 236:lio_lcd.c     **** 	lcd_CS_set();
 237:lio_lcd.c     **** }
 238:lio_lcd.c     **** 
 239:lio_lcd.c     **** void lio_lcd_draw_bitmask(int16_t x1, int16_t x2, int16_t y1, int16_t y2, const uint8_t *p_bitmask,
 240:lio_lcd.c     **** 	uint8_t mask = 0;
 241:lio_lcd.c     **** 	lio_lcd_address_set(x1, x2, y1, y2);
 242:lio_lcd.c     **** 	for(int i = (x2-x1+1)*(y2-y1+1); i >= 0;){
 243:lio_lcd.c     **** 		mask = *p_bitmask;
 244:lio_lcd.c     **** 		for(int j = 8; j > 0; j--, i--){
 245:lio_lcd.c     **** 			if(mask & 0x01) lio_lcd_draw_next_pixel(color);
 246:lio_lcd.c     **** 			else			lio_lcd_draw_next_pixel(_config.background); //[FIXME] - Should be background
 247:lio_lcd.c     **** 			mask = mask >> 1;
 248:lio_lcd.c     **** 		}
 249:lio_lcd.c     **** 		p_bitmask++;
 250:lio_lcd.c     **** 	}
 251:lio_lcd.c     **** }
 252:lio_lcd.c     **** 
 253:lio_lcd.c     **** 
 254:lio_lcd.c     **** void lio_lcd_draw_bitmask_scaled(int16_t x1, int16_t x2, int16_t y1, int16_t y2, uint16_t scale, co
 255:lio_lcd.c     **** 	uint8_t mask = 0;
 256:lio_lcd.c     **** 	uint8_t toggle = 0;
 257:lio_lcd.c     **** 	if(scale < 1) scale = 1;
 258:lio_lcd.c     **** 	lio_lcd_address_set(x1, x2, y1, y2);
 259:lio_lcd.c     **** 	for(int i = (x2-x1+1)*(y2-y1+1)/scale; i >= 0;){
 260:lio_lcd.c     **** 		mask = *p_bitmask;
 261:lio_lcd.c     **** 		for(int j = 8; j > 0; j--, i--){
 262:lio_lcd.c     **** 			if(mask & 0x01) lcd_write_color(scale,color);
 263:lio_lcd.c     **** 			else			lcd_write_color(scale,_config.background); //[FIXME] - Should be background
 264:lio_lcd.c     **** 			mask = mask >> 1;
 265:lio_lcd.c     **** 		}
 266:lio_lcd.c     **** 		p_bitmask += (toggle == scale-1 ? 1 : 0);
 267:lio_lcd.c     **** 		toggle++;
 268:lio_lcd.c     **** 		toggle %= scale;
 269:lio_lcd.c     **** 	}
 270:lio_lcd.c     **** }
 271:lio_lcd.c     **** 
GAS LISTING C:\Users\Karzan\AppData\Local\Temp\ccyAl7yf.s 			page 6


 272:lio_lcd.c     **** void lio_lcd_draw_char(int16_t x, int16_t y, char c, uint16_t color){
 273:lio_lcd.c     **** 	if(c < 32) return;
 274:lio_lcd.c     **** 	c = c - 32;
 275:lio_lcd.c     **** 	lio_lcd_draw_bitmask(x, x + 7, y, y + 15, (uint8_t*)&font_1608[c][0], color);
 276:lio_lcd.c     **** }
 277:lio_lcd.c     **** 
 278:lio_lcd.c     **** void lio_lcd_draw_char_scaled(int16_t x, int16_t y, char c, uint16_t scale, uint16_t color){
 279:lio_lcd.c     **** 	if(c < 32) return;
 280:lio_lcd.c     **** 	if(scale == 0) scale = 1;
 281:lio_lcd.c     **** 	c = c - 32;
 282:lio_lcd.c     **** 	lio_lcd_draw_bitmask_scaled(x, x + (8 * scale) - 1, y, y + (16*scale) -1, scale, (uint8_t*)&font_1
 283:lio_lcd.c     **** }
 284:lio_lcd.c     **** 
 285:lio_lcd.c     **** void lio_lcd_draw_string_scaled(int16_t x, int16_t y, uint16_t scale, const char* str, uint16_t col
 286:lio_lcd.c     **** 	for(; *str != '\0'; str++, x += 8 * scale){
 287:lio_lcd.c     **** 		if(x > _config.width - 8*scale){
 288:lio_lcd.c     **** 			x = 0;
 289:lio_lcd.c     **** 			y += 16*scale;
 290:lio_lcd.c     **** 		}
 291:lio_lcd.c     **** 		lio_lcd_draw_char_scaled(x, y, *str, scale, color);
 292:lio_lcd.c     **** 	}
 293:lio_lcd.c     **** }
 294:lio_lcd.c     **** 
 295:lio_lcd.c     **** void lio_lcd_draw_string(int16_t x, int16_t y, const char* str, uint16_t color){
 296:lio_lcd.c     **** 	for(; *str != '\0'; str++, x += 8){
 297:lio_lcd.c     **** 		if(x > _config.width - 8){
 298:lio_lcd.c     **** 			x = 0;
 299:lio_lcd.c     **** 			y += 16;
 300:lio_lcd.c     **** 		}
 301:lio_lcd.c     **** 		lio_lcd_draw_char(x, y, *str, color);
 302:lio_lcd.c     **** 	}
 303:lio_lcd.c     **** }
 304:lio_lcd.c     **** 
 305:lio_lcd.c     **** void lio_lcd_draw_num(int16_t x, int16_t y, int32_t num, int base, uint16_t color){
 306:lio_lcd.c     **** 	char string_buffer[32];
 307:lio_lcd.c     **** 	itoa(num, string_buffer, base);
 308:lio_lcd.c     **** 	lio_lcd_draw_string(x, y, string_buffer, color);
 309:lio_lcd.c     **** }
 310:lio_lcd.c     **** 
 311:lio_lcd.c     **** void lio_lcd_set_background(uint16_t color){
  16              		.loc 1 311 44
  17              		.cfi_startproc
  18              	.LVL0:
 312:lio_lcd.c     **** 	_config.background = color;
  19              		.loc 1 312 2
  20              		.loc 1 312 21 is_stmt 0
  21 0000 B7070000 		lui	a5,%hi(_config+10)
  22 0004 2395A700 		sh	a0,%lo(_config+10)(a5)
 313:lio_lcd.c     **** }
  23              		.loc 1 313 1
  24 0008 8280     		ret
  25              		.cfi_endproc
  26              	.LFE21:
  28              		.section	.text.spi_write_bus,"ax",@progbits
  29              		.align	1
  30              		.globl	spi_write_bus
  32              	spi_write_bus:
GAS LISTING C:\Users\Karzan\AppData\Local\Temp\ccyAl7yf.s 			page 7


  33              	.LFB26:
 314:lio_lcd.c     **** 
 315:lio_lcd.c     **** void lio_lcd_draw_line(int32_t x1, int32_t x2, int32_t y1, int32_t y2, uint16_t color){
 316:lio_lcd.c     ****     //Based on bresenhams line algorithm
 317:lio_lcd.c     ****     int32_t err = 0;
 318:lio_lcd.c     ****     int32_t x_steps = (x2-x1) > 0 ? (x2-x1) : -(x2-x1);
 319:lio_lcd.c     ****     int32_t y_steps = (y2-y1) > 0 ? (y2-y1) : -(y2-y1);
 320:lio_lcd.c     ****     int32_t x_pos = x1;
 321:lio_lcd.c     ****     int32_t y_pos = y1;
 322:lio_lcd.c     ****     int32_t x_dir = x2 > x1 ? 1 : -1;
 323:lio_lcd.c     ****     int32_t y_dir = y2 > y1 ? 1 : -1;
 324:lio_lcd.c     **** 
 325:lio_lcd.c     ****     int32_t *pLead, *pFol, *pFDir, *pLDir, *pLPos, *pFPos;
 326:lio_lcd.c     ****     
 327:lio_lcd.c     ****     if(x_steps > y_steps){
 328:lio_lcd.c     ****         pLead = &x_steps;
 329:lio_lcd.c     ****         pLDir = &x_dir;
 330:lio_lcd.c     ****         pLPos = &x_pos;
 331:lio_lcd.c     ****         pFol = &y_steps;
 332:lio_lcd.c     ****         pFDir = &y_dir;
 333:lio_lcd.c     ****         pFPos = &y_pos;
 334:lio_lcd.c     ****     } else {
 335:lio_lcd.c     ****         pLead = &y_steps;
 336:lio_lcd.c     ****         pLDir = &y_dir;
 337:lio_lcd.c     ****         pLPos = &y_pos;
 338:lio_lcd.c     ****         pFol = &x_steps;
 339:lio_lcd.c     ****         pFDir = &x_dir;
 340:lio_lcd.c     ****         pFPos = &x_pos;
 341:lio_lcd.c     ****     }
 342:lio_lcd.c     ****     for(int i = *pLead + 1; i > 0; i--){
 343:lio_lcd.c     ****     	lio_lcd_draw_pixel(x_pos, y_pos, color);
 344:lio_lcd.c     ****     	err += 2*(*pFol);
 345:lio_lcd.c     ****     	*pLPos += *pLDir;
 346:lio_lcd.c     ****     	if(err > 0){
 347:lio_lcd.c     ****         	*pFPos += *pFDir;
 348:lio_lcd.c     ****         	err -= (2*(*pLead));
 349:lio_lcd.c     ****     	}
 350:lio_lcd.c     ****     }
 351:lio_lcd.c     ****     
 352:lio_lcd.c     **** }
 353:lio_lcd.c     **** 
 354:lio_lcd.c     **** #define LCD_PRINT_BUFFER_SIZE 256
 355:lio_lcd.c     **** 
 356:lio_lcd.c     **** void lio_lcd_printf(int16_t x, int16_t y, uint16_t color, char *format, ...){
 357:lio_lcd.c     **** 	char buffer[LCD_PRINT_BUFFER_SIZE] = {'\0'};
 358:lio_lcd.c     **** 	va_list aptr;
 359:lio_lcd.c     **** 	va_start(aptr, format);
 360:lio_lcd.c     ****    	vsnprintf(buffer, LCD_PRINT_BUFFER_SIZE, format, aptr);
 361:lio_lcd.c     ****    	va_end(aptr);
 362:lio_lcd.c     ****    	lio_lcd_draw_string(x, y, buffer, color);
 363:lio_lcd.c     **** }
 364:lio_lcd.c     **** 
 365:lio_lcd.c     **** void lio_lcd_printf_scaled(int16_t x, int16_t y, uint16_t color, uint16_t scale, char *format, ...)
 366:lio_lcd.c     **** 	char buffer[LCD_PRINT_BUFFER_SIZE] = {'\0'};
 367:lio_lcd.c     **** 	va_list aptr;
 368:lio_lcd.c     **** 	va_start(aptr, format);
 369:lio_lcd.c     ****    	vsnprintf(buffer, LCD_PRINT_BUFFER_SIZE, format, aptr);
GAS LISTING C:\Users\Karzan\AppData\Local\Temp\ccyAl7yf.s 			page 8


 370:lio_lcd.c     ****    	va_end(aptr);
 371:lio_lcd.c     ****    	lio_lcd_draw_string_scaled(x, y, scale, buffer, color);
 372:lio_lcd.c     **** }
 373:lio_lcd.c     **** 
 374:lio_lcd.c     **** /*End public interface*/
 375:lio_lcd.c     **** 
 376:lio_lcd.c     **** /*Hardware interface*/
 377:lio_lcd.c     **** void lcd_bus_init(){
 378:lio_lcd.c     **** 
 379:lio_lcd.c     **** 	spi_parameter_struct spi_config;
 380:lio_lcd.c     **** 
 381:lio_lcd.c     **** 	rcu_periph_clock_enable(RCU_GPIOB);
 382:lio_lcd.c     **** 	rcu_periph_clock_enable(RCU_GPIOC);
 383:lio_lcd.c     **** 
 384:lio_lcd.c     ****  	rcu_periph_clock_enable(RCU_AF);
 385:lio_lcd.c     **** 	rcu_periph_clock_enable(RCU_SPI1);
 386:lio_lcd.c     **** 	
 387:lio_lcd.c     ****     gpio_init(GPIOB, GPIO_MODE_AF_PP, GPIO_OSPEED_50MHZ, GPIO_PIN_13 |GPIO_PIN_14| GPIO_PIN_15);
 388:lio_lcd.c     **** 	gpio_init(GPIOC, GPIO_MODE_OUT_PP, GPIO_OSPEED_50MHZ, GPIO_PIN_13 | GPIO_PIN_15);
 389:lio_lcd.c     **** 
 390:lio_lcd.c     **** 	spi_struct_para_init(&spi_config);
 391:lio_lcd.c     **** 
 392:lio_lcd.c     **** 	spi_config.trans_mode           = SPI_TRANSMODE_FULLDUPLEX;
 393:lio_lcd.c     ****     spi_config.device_mode          = SPI_MASTER;
 394:lio_lcd.c     ****     spi_config.frame_size           = SPI_FRAMESIZE_8BIT;
 395:lio_lcd.c     ****     spi_config.clock_polarity_phase = SPI_CK_PL_HIGH_PH_2EDGE;
 396:lio_lcd.c     ****     spi_config.nss                  = SPI_NSS_SOFT;
 397:lio_lcd.c     ****     spi_config.prescale             = SPI_PSC_4;
 398:lio_lcd.c     ****     spi_config.endian               = SPI_ENDIAN_MSB;
 399:lio_lcd.c     **** 
 400:lio_lcd.c     **** 	lcd_CS_set();
 401:lio_lcd.c     ****    
 402:lio_lcd.c     ****     spi_init(SPI1, &spi_config);
 403:lio_lcd.c     **** 
 404:lio_lcd.c     **** 	spi_enable(SPI1);
 405:lio_lcd.c     **** }
 406:lio_lcd.c     **** 
 407:lio_lcd.c     **** void spi_write_bus(uint8_t data){
  34              		.loc 1 407 33 is_stmt 1
  35              		.cfi_startproc
  36              	.LVL1:
 408:lio_lcd.c     **** 	//Wait for incomplete transfer in case we are still sending something!
 409:lio_lcd.c     **** 	while(spi_i2s_flag_get(SPI1, SPI_FLAG_TBE) == RESET);
  37              		.loc 1 409 2
 407:lio_lcd.c     **** 	//Wait for incomplete transfer in case we are still sending something!
  38              		.loc 1 407 33 is_stmt 0
  39 0000 4111     		addi	sp,sp,-16
  40              	.LCFI0:
  41              		.cfi_def_cfa_offset 16
  42 0002 22C4     		sw	s0,8(sp)
  43              		.cfi_offset 8, -8
  44              		.loc 1 409 8
  45 0004 37440040 		li	s0,1073758208
 407:lio_lcd.c     **** 	//Wait for incomplete transfer in case we are still sending something!
  46              		.loc 1 407 33
  47 0008 26C2     		sw	s1,4(sp)
  48 000a 4AC0     		sw	s2,0(sp)
GAS LISTING C:\Users\Karzan\AppData\Local\Temp\ccyAl7yf.s 			page 9


  49 000c 06C6     		sw	ra,12(sp)
  50              		.cfi_offset 9, -12
  51              		.cfi_offset 18, -16
  52              		.cfi_offset 1, -4
 407:lio_lcd.c     **** 	//Wait for incomplete transfer in case we are still sending something!
  53              		.loc 1 407 33
  54 000e AA84     		mv	s1,a0
  55              		.loc 1 409 8
  56 0010 13090480 		addi	s2,s0,-2048
  57              	.LVL2:
  58              	.L3:
  59              		.loc 1 409 54 is_stmt 1 discriminator 1
  60              		.loc 1 409 8 is_stmt 0 discriminator 1
  61 0014 8945     		li	a1,2
  62 0016 4A85     		mv	a0,s2
  63 0018 97000000 		call	spi_i2s_flag_get
  63      E7800000 
  64              	.LVL3:
  65              		.loc 1 409 7 discriminator 1
  66 0020 75D9     		beq	a0,zero,.L3
 410:lio_lcd.c     **** 	//Send
 411:lio_lcd.c     **** 	spi_i2s_data_transmit(SPI1, data);
  67              		.loc 1 411 2 is_stmt 1
  68 0022 13050480 		addi	a0,s0,-2048
 412:lio_lcd.c     **** 
 413:lio_lcd.c     **** }
  69              		.loc 1 413 1 is_stmt 0
  70 0026 2244     		lw	s0,8(sp)
  71              		.cfi_restore 8
  72 0028 B240     		lw	ra,12(sp)
  73              		.cfi_restore 1
  74 002a 0249     		lw	s2,0(sp)
  75              		.cfi_restore 18
 411:lio_lcd.c     **** 
  76              		.loc 1 411 2
  77 002c A685     		mv	a1,s1
  78              		.loc 1 413 1
  79 002e 9244     		lw	s1,4(sp)
  80              		.cfi_restore 9
  81 0030 4101     		addi	sp,sp,16
  82              	.LCFI1:
  83              		.cfi_def_cfa_offset 0
 411:lio_lcd.c     **** 
  84              		.loc 1 411 2
  85 0032 17030000 		tail	spi_i2s_data_transmit
  85      67000300 
  86              	.LVL4:
  87              		.cfi_endproc
  88              	.LFE26:
  90              		.section	.text.lcd_CS_set,"ax",@progbits
  91              		.align	1
  92              		.globl	lcd_CS_set
  94              	lcd_CS_set:
  95              	.LFB30:
 414:lio_lcd.c     **** 
 415:lio_lcd.c     **** void lio_lcd_address_set(uint16_t x1, uint16_t x2, uint16_t y1, uint16_t y2){
 416:lio_lcd.c     **** 	x1 += _config.offset_x;
GAS LISTING C:\Users\Karzan\AppData\Local\Temp\ccyAl7yf.s 			page 10


 417:lio_lcd.c     **** 	x2 += _config.offset_x;
 418:lio_lcd.c     **** 	y1 += _config.offset_y;
 419:lio_lcd.c     **** 	y2 += _config.offset_y;
 420:lio_lcd.c     **** 
 421:lio_lcd.c     **** 	uint8_t buf[4];
 422:lio_lcd.c     **** 
 423:lio_lcd.c     **** 	buf[0] = (x1 >> 8) & 0xFF;
 424:lio_lcd.c     **** 	buf[1] =  x1 	   & 0xFF;
 425:lio_lcd.c     **** 	buf[2] = (x2 >> 8) & 0xFF;
 426:lio_lcd.c     **** 	buf[3] =  x2 	   & 0xFF;
 427:lio_lcd.c     **** 	lcd_write_command(LIO_LCD_SET_COLUMN);
 428:lio_lcd.c     **** 	lcd_write_data(4, buf);
 429:lio_lcd.c     **** 
 430:lio_lcd.c     **** 	buf[0] = (y1 >> 8) & 0xFF;
 431:lio_lcd.c     **** 	buf[1] =  y1 	   & 0xFF;
 432:lio_lcd.c     **** 	buf[2] = (y2 >> 8) & 0xFF;
 433:lio_lcd.c     **** 	buf[3] =  y2 	   & 0xFF;
 434:lio_lcd.c     **** 	lcd_write_command(LIO_LCD_SET_ROW);
 435:lio_lcd.c     **** 	lcd_write_data(4, buf);
 436:lio_lcd.c     **** 	lcd_write_command(LIO_LCD_WR_MEMORY);
 437:lio_lcd.c     **** }
 438:lio_lcd.c     **** 
 439:lio_lcd.c     **** void lcd_write_data(uint32_t len, uint8_t* buf){
 440:lio_lcd.c     **** 	//Specify send data
 441:lio_lcd.c     **** 	lcd_DC_set();
 442:lio_lcd.c     **** 	//Claim the LCD
 443:lio_lcd.c     **** 	lcd_CS_reset();
 444:lio_lcd.c     **** 	//send the data
 445:lio_lcd.c     **** 	for(; len > 0; len--) spi_write_bus(*buf++);
 446:lio_lcd.c     **** 	//Let go of the LCD
 447:lio_lcd.c     **** 	while(spi_i2s_flag_get(SPI1, SPI_FLAG_TRANS) == SET);
 448:lio_lcd.c     **** 	lcd_CS_set();
 449:lio_lcd.c     **** }
 450:lio_lcd.c     **** 
 451:lio_lcd.c     **** void lcd_write_command(uint8_t command){
 452:lio_lcd.c     **** 	lcd_DC_reset();
 453:lio_lcd.c     **** 	lcd_CS_reset();
 454:lio_lcd.c     **** 	spi_write_bus(command);
 455:lio_lcd.c     **** 	while(spi_i2s_flag_get(SPI1, SPI_FLAG_TRANS) == SET);
 456:lio_lcd.c     **** 	lcd_CS_set();
 457:lio_lcd.c     **** }
 458:lio_lcd.c     **** 
 459:lio_lcd.c     **** void lcd_CS_set(){
  96              		.loc 1 459 18 is_stmt 1
  97              		.cfi_startproc
 460:lio_lcd.c     **** 	gpio_bit_set(GPIOC,GPIO_PIN_13);
  98              		.loc 1 460 2
  99 0000 8965     		li	a1,8192
 100 0002 37150140 		li	a0,1073811456
 101 0006 17030000 		tail	gpio_bit_set
 101      67000300 
 102              	.LVL5:
 103              		.cfi_endproc
 104              	.LFE30:
 106              		.section	.text.lcd_bus_init,"ax",@progbits
 107              		.align	1
 108              		.globl	lcd_bus_init
GAS LISTING C:\Users\Karzan\AppData\Local\Temp\ccyAl7yf.s 			page 11


 110              	lcd_bus_init:
 111              	.LFB25:
 377:lio_lcd.c     **** 
 112              		.loc 1 377 20
 113              		.cfi_startproc
 379:lio_lcd.c     **** 
 114              		.loc 1 379 2
 381:lio_lcd.c     **** 	rcu_periph_clock_enable(RCU_GPIOC);
 115              		.loc 1 381 2
 377:lio_lcd.c     **** 
 116              		.loc 1 377 20 is_stmt 0
 117 0000 7971     		addi	sp,sp,-48
 118              	.LCFI2:
 119              		.cfi_def_cfa_offset 48
 381:lio_lcd.c     **** 	rcu_periph_clock_enable(RCU_GPIOC);
 120              		.loc 1 381 2
 121 0002 13053060 		li	a0,1539
 377:lio_lcd.c     **** 
 122              		.loc 1 377 20
 123 0006 06D6     		sw	ra,44(sp)
 124 0008 22D4     		sw	s0,40(sp)
 125              		.cfi_offset 1, -4
 126              		.cfi_offset 8, -8
 381:lio_lcd.c     **** 	rcu_periph_clock_enable(RCU_GPIOC);
 127              		.loc 1 381 2
 128 000a 97000000 		call	rcu_periph_clock_enable
 128      E7800000 
 129              	.LVL6:
 382:lio_lcd.c     **** 
 130              		.loc 1 382 2 is_stmt 1
 131 0012 13054060 		li	a0,1540
 132 0016 97000000 		call	rcu_periph_clock_enable
 132      E7800000 
 133              	.LVL7:
 384:lio_lcd.c     **** 	rcu_periph_clock_enable(RCU_SPI1);
 134              		.loc 1 384 3
 135 001e 13050060 		li	a0,1536
 136 0022 97000000 		call	rcu_periph_clock_enable
 136      E7800000 
 137              	.LVL8:
 385:lio_lcd.c     **** 	
 138              		.loc 1 385 2
 139 002a 1305E070 		li	a0,1806
 140 002e 97000000 		call	rcu_periph_clock_enable
 140      E7800000 
 141              	.LVL9:
 387:lio_lcd.c     **** 	gpio_init(GPIOC, GPIO_MODE_OUT_PP, GPIO_OSPEED_50MHZ, GPIO_PIN_13 | GPIO_PIN_15);
 142              		.loc 1 387 5
 143 0036 37150140 		li	a0,1073811456
 144 003a B966     		li	a3,57344
 145 003c 0D46     		li	a2,3
 146 003e E145     		li	a1,24
 147 0040 130505C0 		addi	a0,a0,-1024
 148 0044 97000000 		call	gpio_init
 148      E7800000 
 149              	.LVL10:
 388:lio_lcd.c     **** 
GAS LISTING C:\Users\Karzan\AppData\Local\Temp\ccyAl7yf.s 			page 12


 150              		.loc 1 388 2
 151 004c A966     		li	a3,40960
 152 004e 0D46     		li	a2,3
 153 0050 C145     		li	a1,16
 154 0052 37150140 		li	a0,1073811456
 155 0056 97000000 		call	gpio_init
 155      E7800000 
 156              	.LVL11:
 390:lio_lcd.c     **** 
 157              		.loc 1 390 2
 158 005e 4800     		addi	a0,sp,4
 159 0060 97000000 		call	spi_struct_para_init
 159      E7800000 
 160              	.LVL12:
 392:lio_lcd.c     ****     spi_config.device_mode          = SPI_MASTER;
 161              		.loc 1 392 2
 393:lio_lcd.c     ****     spi_config.frame_size           = SPI_FRAMESIZE_8BIT;
 162              		.loc 1 393 37 is_stmt 0
 163 0068 93074010 		li	a5,260
 164 006c 3EC2     		sw	a5,4(sp)
 395:lio_lcd.c     ****     spi_config.nss                  = SPI_NSS_SOFT;
 165              		.loc 1 395 37
 166 006e 8D47     		li	a5,3
 167 0070 3ECC     		sw	a5,24(sp)
 396:lio_lcd.c     ****     spi_config.prescale             = SPI_PSC_4;
 168              		.loc 1 396 37
 169 0072 93070020 		li	a5,512
 170 0076 3EC8     		sw	a5,16(sp)
 397:lio_lcd.c     ****     spi_config.endian               = SPI_ENDIAN_MSB;
 171              		.loc 1 397 37
 172 0078 A147     		li	a5,8
 173 007a 3ECE     		sw	a5,28(sp)
 402:lio_lcd.c     **** 
 174              		.loc 1 402 5
 175 007c 37440040 		li	s0,1073758208
 392:lio_lcd.c     ****     spi_config.device_mode          = SPI_MASTER;
 176              		.loc 1 392 34
 177 0080 02C4     		sw	zero,8(sp)
 393:lio_lcd.c     ****     spi_config.frame_size           = SPI_FRAMESIZE_8BIT;
 178              		.loc 1 393 5 is_stmt 1
 394:lio_lcd.c     ****     spi_config.clock_polarity_phase = SPI_CK_PL_HIGH_PH_2EDGE;
 179              		.loc 1 394 5
 394:lio_lcd.c     ****     spi_config.clock_polarity_phase = SPI_CK_PL_HIGH_PH_2EDGE;
 180              		.loc 1 394 37 is_stmt 0
 181 0082 02C6     		sw	zero,12(sp)
 395:lio_lcd.c     ****     spi_config.nss                  = SPI_NSS_SOFT;
 182              		.loc 1 395 5 is_stmt 1
 396:lio_lcd.c     ****     spi_config.prescale             = SPI_PSC_4;
 183              		.loc 1 396 5
 397:lio_lcd.c     ****     spi_config.endian               = SPI_ENDIAN_MSB;
 184              		.loc 1 397 5
 398:lio_lcd.c     **** 
 185              		.loc 1 398 5
 398:lio_lcd.c     **** 
 186              		.loc 1 398 37 is_stmt 0
 187 0084 02CA     		sw	zero,20(sp)
 400:lio_lcd.c     ****    
GAS LISTING C:\Users\Karzan\AppData\Local\Temp\ccyAl7yf.s 			page 13


 188              		.loc 1 400 2 is_stmt 1
 189 0086 97000000 		call	lcd_CS_set
 189      E7800000 
 190              	.LVL13:
 402:lio_lcd.c     **** 
 191              		.loc 1 402 5
 192 008e 4C00     		addi	a1,sp,4
 193 0090 13050480 		addi	a0,s0,-2048
 194 0094 97000000 		call	spi_init
 194      E7800000 
 195              	.LVL14:
 404:lio_lcd.c     **** }
 196              		.loc 1 404 2
 197 009c 13050480 		addi	a0,s0,-2048
 198 00a0 97000000 		call	spi_enable
 198      E7800000 
 199              	.LVL15:
 405:lio_lcd.c     **** 
 200              		.loc 1 405 1 is_stmt 0
 201 00a8 B250     		lw	ra,44(sp)
 202              		.cfi_restore 1
 203 00aa 2254     		lw	s0,40(sp)
 204              		.cfi_restore 8
 205 00ac 4561     		addi	sp,sp,48
 206              	.LCFI3:
 207              		.cfi_def_cfa_offset 0
 208 00ae 8280     		jr	ra
 209              		.cfi_endproc
 210              	.LFE25:
 212              		.section	.text.lcd_CS_reset,"ax",@progbits
 213              		.align	1
 214              		.globl	lcd_CS_reset
 216              	lcd_CS_reset:
 217              	.LFB31:
 461:lio_lcd.c     **** }
 462:lio_lcd.c     **** 
 463:lio_lcd.c     **** void lcd_CS_reset(){
 218              		.loc 1 463 20 is_stmt 1
 219              		.cfi_startproc
 464:lio_lcd.c     **** 	gpio_bit_reset(GPIOC,GPIO_PIN_13);
 220              		.loc 1 464 2
 221 0000 8965     		li	a1,8192
 222 0002 37150140 		li	a0,1073811456
 223 0006 17030000 		tail	gpio_bit_reset
 223      67000300 
 224              	.LVL16:
 225              		.cfi_endproc
 226              	.LFE31:
 228              		.section	.text.lcd_DC_set,"ax",@progbits
 229              		.align	1
 230              		.globl	lcd_DC_set
 232              	lcd_DC_set:
 233              	.LFB32:
 465:lio_lcd.c     **** }
 466:lio_lcd.c     **** 
 467:lio_lcd.c     **** void lcd_DC_set(){
 234              		.loc 1 467 18
GAS LISTING C:\Users\Karzan\AppData\Local\Temp\ccyAl7yf.s 			page 14


 235              		.cfi_startproc
 468:lio_lcd.c     **** 	gpio_bit_set(GPIOC,GPIO_PIN_15);
 236              		.loc 1 468 2
 237 0000 A165     		li	a1,32768
 238 0002 37150140 		li	a0,1073811456
 239 0006 17030000 		tail	gpio_bit_set
 239      67000300 
 240              	.LVL17:
 241              		.cfi_endproc
 242              	.LFE32:
 244              		.section	.text.lcd_write_colors,"ax",@progbits
 245              		.align	1
 246              		.globl	lcd_write_colors
 248              	lcd_write_colors:
 249              	.LFB12:
 208:lio_lcd.c     **** 	uint8_t* buf = (uint8_t*) p_color;
 250              		.loc 1 208 55
 251              		.cfi_startproc
 252              	.LVL18:
 209:lio_lcd.c     **** 
 253              		.loc 1 209 2
 208:lio_lcd.c     **** 	uint8_t* buf = (uint8_t*) p_color;
 254              		.loc 1 208 55 is_stmt 0
 255 0000 4111     		addi	sp,sp,-16
 256              	.LCFI4:
 257              		.cfi_def_cfa_offset 16
 258 0002 06C6     		sw	ra,12(sp)
 259 0004 22C4     		sw	s0,8(sp)
 260 0006 26C2     		sw	s1,4(sp)
 261              		.cfi_offset 1, -4
 262              		.cfi_offset 8, -8
 263              		.cfi_offset 9, -12
 208:lio_lcd.c     **** 	uint8_t* buf = (uint8_t*) p_color;
 264              		.loc 1 208 55
 265 0008 2E84     		mv	s0,a1
 266              	.LVL19:
 211:lio_lcd.c     **** 	//Claim the LCD
 267              		.loc 1 211 2 is_stmt 1
 208:lio_lcd.c     **** 	uint8_t* buf = (uint8_t*) p_color;
 268              		.loc 1 208 55 is_stmt 0
 269 000a AA84     		mv	s1,a0
 211:lio_lcd.c     **** 	//Claim the LCD
 270              		.loc 1 211 2
 271 000c 97000000 		call	lcd_DC_set
 271      E7800000 
 272              	.LVL20:
 213:lio_lcd.c     **** 
 273              		.loc 1 213 2 is_stmt 1
 274 0014 97000000 		call	lcd_CS_reset
 274      E7800000 
 275              	.LVL21:
 215:lio_lcd.c     **** 		spi_write_bus(buf[1]);
 276              		.loc 1 215 2
 277              	.L13:
 215:lio_lcd.c     **** 		spi_write_bus(buf[1]);
 278              		.loc 1 215 2 is_stmt 0 discriminator 1
 279 001c 9DE4     		bne	s1,zero,.L14
GAS LISTING C:\Users\Karzan\AppData\Local\Temp\ccyAl7yf.s 			page 15


 220:lio_lcd.c     **** 	lcd_CS_set();
 280              		.loc 1 220 8
 281 001e 37440040 		li	s0,1073758208
 282              	.LVL22:
 283 0022 13040480 		addi	s0,s0,-2048
 220:lio_lcd.c     **** 	lcd_CS_set();
 284              		.loc 1 220 7
 285 0026 8544     		li	s1,1
 286              	.LVL23:
 287              	.L15:
 220:lio_lcd.c     **** 	lcd_CS_set();
 288              		.loc 1 220 54 is_stmt 1 discriminator 1
 220:lio_lcd.c     **** 	lcd_CS_set();
 289              		.loc 1 220 8 is_stmt 0 discriminator 1
 290 0028 93050008 		li	a1,128
 291 002c 2285     		mv	a0,s0
 292 002e 97000000 		call	spi_i2s_flag_get
 292      E7800000 
 293              	.LVL24:
 220:lio_lcd.c     **** 	lcd_CS_set();
 294              		.loc 1 220 7 discriminator 1
 295 0036 E30995FE 		beq	a0,s1,.L15
 221:lio_lcd.c     **** }
 296              		.loc 1 221 2 is_stmt 1
 222:lio_lcd.c     **** 
 297              		.loc 1 222 1 is_stmt 0
 298 003a 2244     		lw	s0,8(sp)
 299              		.cfi_remember_state
 300              		.cfi_restore 8
 301 003c B240     		lw	ra,12(sp)
 302              		.cfi_restore 1
 303 003e 9244     		lw	s1,4(sp)
 304              		.cfi_restore 9
 305 0040 4101     		addi	sp,sp,16
 306              	.LCFI5:
 307              		.cfi_def_cfa_offset 0
 221:lio_lcd.c     **** }
 308              		.loc 1 221 2
 309 0042 17030000 		tail	lcd_CS_set
 309      67000300 
 310              	.LVL25:
 311              	.L14:
 312              	.LCFI6:
 313              		.cfi_restore_state
 216:lio_lcd.c     **** 		spi_write_bus(buf[0]);
 314              		.loc 1 216 3 is_stmt 1 discriminator 2
 315 004a 03451400 		lbu	a0,1(s0)
 215:lio_lcd.c     **** 		spi_write_bus(buf[1]);
 316              		.loc 1 215 20 is_stmt 0 discriminator 2
 317 004e FD14     		addi	s1,s1,-1
 318              	.LVL26:
 218:lio_lcd.c     **** 	}
 319              		.loc 1 218 7 discriminator 2
 320 0050 0904     		addi	s0,s0,2
 321              	.LVL27:
 216:lio_lcd.c     **** 		spi_write_bus(buf[0]);
 322              		.loc 1 216 3 discriminator 2
GAS LISTING C:\Users\Karzan\AppData\Local\Temp\ccyAl7yf.s 			page 16


 323 0052 97000000 		call	spi_write_bus
 323      E7800000 
 324              	.LVL28:
 217:lio_lcd.c     **** 		buf += 2;
 325              		.loc 1 217 3 is_stmt 1 discriminator 2
 326 005a 0345E4FF 		lbu	a0,-2(s0)
 327 005e 97000000 		call	spi_write_bus
 327      E7800000 
 328              	.LVL29:
 218:lio_lcd.c     **** 	}
 329              		.loc 1 218 3 discriminator 2
 330 0066 5DBF     		j	.L13
 331              		.cfi_endproc
 332              	.LFE12:
 334              		.section	.text.lcd_write_color,"ax",@progbits
 335              		.align	1
 336              		.globl	lcd_write_color
 338              	lcd_write_color:
 339              	.LFB13:
 224:lio_lcd.c     **** 	uint8_t* buf = (uint8_t*) &color;
 340              		.loc 1 224 51
 341              		.cfi_startproc
 342              	.LVL30:
 225:lio_lcd.c     **** 
 343              		.loc 1 225 2
 227:lio_lcd.c     **** 	//Claim the LCD
 344              		.loc 1 227 2
 224:lio_lcd.c     **** 	uint8_t* buf = (uint8_t*) &color;
 345              		.loc 1 224 51 is_stmt 0
 346 0000 4111     		addi	sp,sp,-16
 347              	.LCFI7:
 348              		.cfi_def_cfa_offset 16
 349 0002 22C4     		sw	s0,8(sp)
 350              		.cfi_offset 8, -8
 351 0004 2E84     		mv	s0,a1
 352 0006 06C6     		sw	ra,12(sp)
 353 0008 26C2     		sw	s1,4(sp)
 354 000a 4AC0     		sw	s2,0(sp)
 355              		.cfi_offset 1, -4
 356              		.cfi_offset 9, -12
 357              		.cfi_offset 18, -16
 224:lio_lcd.c     **** 	uint8_t* buf = (uint8_t*) &color;
 358              		.loc 1 224 51
 359 000c AA84     		mv	s1,a0
 232:lio_lcd.c     **** 		spi_write_bus(buf[0]);
 360              		.loc 1 232 3
 361 000e 13598400 		srli	s2,s0,8
 227:lio_lcd.c     **** 	//Claim the LCD
 362              		.loc 1 227 2
 363 0012 97000000 		call	lcd_DC_set
 363      E7800000 
 364              	.LVL31:
 229:lio_lcd.c     **** 
 365              		.loc 1 229 2 is_stmt 1
 233:lio_lcd.c     **** 	}
 366              		.loc 1 233 3 is_stmt 0
 367 001a 1374F40F 		andi	s0,s0,0xff
GAS LISTING C:\Users\Karzan\AppData\Local\Temp\ccyAl7yf.s 			page 17


 229:lio_lcd.c     **** 
 368              		.loc 1 229 2
 369 001e 97000000 		call	lcd_CS_reset
 369      E7800000 
 370              	.LVL32:
 231:lio_lcd.c     **** 		spi_write_bus(buf[1]);
 371              		.loc 1 231 2 is_stmt 1
 372              	.L19:
 231:lio_lcd.c     **** 		spi_write_bus(buf[1]);
 373              		.loc 1 231 2 is_stmt 0 discriminator 1
 374 0026 85E8     		bne	s1,zero,.L20
 235:lio_lcd.c     **** 	lcd_CS_set();
 375              		.loc 1 235 8
 376 0028 37440040 		li	s0,1073758208
 377 002c 13040480 		addi	s0,s0,-2048
 235:lio_lcd.c     **** 	lcd_CS_set();
 378              		.loc 1 235 7
 379 0030 8544     		li	s1,1
 380              	.LVL33:
 381              	.L21:
 235:lio_lcd.c     **** 	lcd_CS_set();
 382              		.loc 1 235 54 is_stmt 1 discriminator 1
 235:lio_lcd.c     **** 	lcd_CS_set();
 383              		.loc 1 235 8 is_stmt 0 discriminator 1
 384 0032 93050008 		li	a1,128
 385 0036 2285     		mv	a0,s0
 386 0038 97000000 		call	spi_i2s_flag_get
 386      E7800000 
 387              	.LVL34:
 235:lio_lcd.c     **** 	lcd_CS_set();
 388              		.loc 1 235 7 discriminator 1
 389 0040 E30995FE 		beq	a0,s1,.L21
 236:lio_lcd.c     **** }
 390              		.loc 1 236 2 is_stmt 1
 237:lio_lcd.c     **** 
 391              		.loc 1 237 1 is_stmt 0
 392 0044 2244     		lw	s0,8(sp)
 393              		.cfi_remember_state
 394              		.cfi_restore 8
 395 0046 B240     		lw	ra,12(sp)
 396              		.cfi_restore 1
 397 0048 9244     		lw	s1,4(sp)
 398              		.cfi_restore 9
 399 004a 0249     		lw	s2,0(sp)
 400              		.cfi_restore 18
 401 004c 4101     		addi	sp,sp,16
 402              	.LCFI8:
 403              		.cfi_def_cfa_offset 0
 236:lio_lcd.c     **** }
 404              		.loc 1 236 2
 405 004e 17030000 		tail	lcd_CS_set
 405      67000300 
 406              	.LVL35:
 407              	.L20:
 408              	.LCFI9:
 409              		.cfi_restore_state
 232:lio_lcd.c     **** 		spi_write_bus(buf[0]);
GAS LISTING C:\Users\Karzan\AppData\Local\Temp\ccyAl7yf.s 			page 18


 410              		.loc 1 232 3 is_stmt 1 discriminator 2
 411 0056 4A85     		mv	a0,s2
 412 0058 97000000 		call	spi_write_bus
 412      E7800000 
 413              	.LVL36:
 233:lio_lcd.c     **** 	}
 414              		.loc 1 233 3 discriminator 2
 415 0060 2285     		mv	a0,s0
 416 0062 97000000 		call	spi_write_bus
 416      E7800000 
 417              	.LVL37:
 231:lio_lcd.c     **** 		spi_write_bus(buf[1]);
 418              		.loc 1 231 20 is_stmt 0 discriminator 2
 419 006a FD14     		addi	s1,s1,-1
 420              	.LVL38:
 421 006c 6DBF     		j	.L19
 422              		.cfi_endproc
 423              	.LFE13:
 425              		.section	.text.lcd_write_data,"ax",@progbits
 426              		.align	1
 427              		.globl	lcd_write_data
 429              	lcd_write_data:
 430              	.LFB28:
 439:lio_lcd.c     **** 	//Specify send data
 431              		.loc 1 439 48 is_stmt 1
 432              		.cfi_startproc
 433              	.LVL39:
 441:lio_lcd.c     **** 	//Claim the LCD
 434              		.loc 1 441 2
 439:lio_lcd.c     **** 	//Specify send data
 435              		.loc 1 439 48 is_stmt 0
 436 0000 4111     		addi	sp,sp,-16
 437              	.LCFI10:
 438              		.cfi_def_cfa_offset 16
 439 0002 22C4     		sw	s0,8(sp)
 440 0004 26C2     		sw	s1,4(sp)
 441              		.cfi_offset 8, -8
 442              		.cfi_offset 9, -12
 443 0006 2E84     		mv	s0,a1
 444 0008 AA84     		mv	s1,a0
 445 000a 06C6     		sw	ra,12(sp)
 446              		.cfi_offset 1, -4
 447 000c A294     		add	s1,s0,s1
 441:lio_lcd.c     **** 	//Claim the LCD
 448              		.loc 1 441 2
 449 000e 97000000 		call	lcd_DC_set
 449      E7800000 
 450              	.LVL40:
 443:lio_lcd.c     **** 	//send the data
 451              		.loc 1 443 2 is_stmt 1
 452 0016 97000000 		call	lcd_CS_reset
 452      E7800000 
 453              	.LVL41:
 445:lio_lcd.c     **** 	//Let go of the LCD
 454              		.loc 1 445 2
 455              	.L25:
 445:lio_lcd.c     **** 	//Let go of the LCD
GAS LISTING C:\Users\Karzan\AppData\Local\Temp\ccyAl7yf.s 			page 19


 456              		.loc 1 445 2 is_stmt 0 discriminator 1
 457 001e 63189402 		bne	s0,s1,.L26
 447:lio_lcd.c     **** 	lcd_CS_set();
 458              		.loc 1 447 8
 459 0022 37440040 		li	s0,1073758208
 460              	.LVL42:
 461 0026 13040480 		addi	s0,s0,-2048
 447:lio_lcd.c     **** 	lcd_CS_set();
 462              		.loc 1 447 7
 463 002a 8544     		li	s1,1
 464              	.L27:
 447:lio_lcd.c     **** 	lcd_CS_set();
 465              		.loc 1 447 54 is_stmt 1 discriminator 1
 447:lio_lcd.c     **** 	lcd_CS_set();
 466              		.loc 1 447 8 is_stmt 0 discriminator 1
 467 002c 93050008 		li	a1,128
 468 0030 2285     		mv	a0,s0
 469 0032 97000000 		call	spi_i2s_flag_get
 469      E7800000 
 470              	.LVL43:
 447:lio_lcd.c     **** 	lcd_CS_set();
 471              		.loc 1 447 7 discriminator 1
 472 003a E30995FE 		beq	a0,s1,.L27
 448:lio_lcd.c     **** }
 473              		.loc 1 448 2 is_stmt 1
 449:lio_lcd.c     **** 
 474              		.loc 1 449 1 is_stmt 0
 475 003e 2244     		lw	s0,8(sp)
 476              		.cfi_remember_state
 477              		.cfi_restore 8
 478 0040 B240     		lw	ra,12(sp)
 479              		.cfi_restore 1
 480 0042 9244     		lw	s1,4(sp)
 481              		.cfi_restore 9
 482 0044 4101     		addi	sp,sp,16
 483              	.LCFI11:
 484              		.cfi_def_cfa_offset 0
 448:lio_lcd.c     **** }
 485              		.loc 1 448 2
 486 0046 17030000 		tail	lcd_CS_set
 486      67000300 
 487              	.LVL44:
 488              	.L26:
 489              	.LCFI12:
 490              		.cfi_restore_state
 445:lio_lcd.c     **** 	//Let go of the LCD
 491              		.loc 1 445 24 is_stmt 1 discriminator 2
 445:lio_lcd.c     **** 	//Let go of the LCD
 492              		.loc 1 445 42 is_stmt 0 discriminator 2
 493 004e 0504     		addi	s0,s0,1
 494              	.LVL45:
 445:lio_lcd.c     **** 	//Let go of the LCD
 495              		.loc 1 445 24 discriminator 2
 496 0050 0345F4FF 		lbu	a0,-1(s0)
 497 0054 97000000 		call	spi_write_bus
 497      E7800000 
 498              	.LVL46:
GAS LISTING C:\Users\Karzan\AppData\Local\Temp\ccyAl7yf.s 			page 20


 499 005c C9B7     		j	.L25
 500              		.cfi_endproc
 501              	.LFE28:
 503              		.section	.text.lio_lcd_draw_next_pixel,"ax",@progbits
 504              		.align	1
 505              		.globl	lio_lcd_draw_next_pixel
 507              	lio_lcd_draw_next_pixel:
 508              	.LFB10:
 199:lio_lcd.c     **** 	uint8_t buf[] = {(0xFF00 & color) >> 8, color & 0xFF};
 509              		.loc 1 199 45 is_stmt 1
 510              		.cfi_startproc
 511              	.LVL47:
 200:lio_lcd.c     **** 	lcd_write_data(2, buf);
 512              		.loc 1 200 2
 200:lio_lcd.c     **** 	lcd_write_data(2, buf);
 513              		.loc 1 200 10 is_stmt 0
 514 0000 93178500 		slli	a5,a0,8
 515 0004 2181     		srli	a0,a0,8
 516              	.LVL48:
 199:lio_lcd.c     **** 	uint8_t buf[] = {(0xFF00 & color) >> 8, color & 0xFF};
 517              		.loc 1 199 45
 518 0006 0111     		addi	sp,sp,-32
 519              	.LCFI13:
 520              		.cfi_def_cfa_offset 32
 200:lio_lcd.c     **** 	lcd_write_data(2, buf);
 521              		.loc 1 200 10
 522 0008 5D8D     		or	a0,a5,a0
 523 000a 2316A100 		sh	a0,12(sp)
 201:lio_lcd.c     **** }
 524              		.loc 1 201 2 is_stmt 1
 525 000e 6C00     		addi	a1,sp,12
 526 0010 0945     		li	a0,2
 199:lio_lcd.c     **** 	uint8_t buf[] = {(0xFF00 & color) >> 8, color & 0xFF};
 527              		.loc 1 199 45 is_stmt 0
 528 0012 06CE     		sw	ra,28(sp)
 529              		.cfi_offset 1, -4
 201:lio_lcd.c     **** }
 530              		.loc 1 201 2
 531 0014 97000000 		call	lcd_write_data
 531      E7800000 
 532              	.LVL49:
 202:lio_lcd.c     **** 
 533              		.loc 1 202 1
 534 001c F240     		lw	ra,28(sp)
 535              		.cfi_restore 1
 536 001e 0561     		addi	sp,sp,32
 537              	.LCFI14:
 538              		.cfi_def_cfa_offset 0
 539 0020 8280     		jr	ra
 540              		.cfi_endproc
 541              	.LFE10:
 543              		.section	.text.lcd_DC_reset,"ax",@progbits
 544              		.align	1
 545              		.globl	lcd_DC_reset
 547              	lcd_DC_reset:
 548              	.LFB33:
 469:lio_lcd.c     **** }
GAS LISTING C:\Users\Karzan\AppData\Local\Temp\ccyAl7yf.s 			page 21


 470:lio_lcd.c     **** 
 471:lio_lcd.c     **** void lcd_DC_reset(){
 549              		.loc 1 471 20 is_stmt 1
 550              		.cfi_startproc
 472:lio_lcd.c     **** 	gpio_bit_reset(GPIOC,GPIO_PIN_15);
 551              		.loc 1 472 2
 552 0000 A165     		li	a1,32768
 553 0002 37150140 		li	a0,1073811456
 554 0006 17030000 		tail	gpio_bit_reset
 554      67000300 
 555              	.LVL50:
 556              		.cfi_endproc
 557              	.LFE33:
 559              		.section	.text.lcd_write_command,"ax",@progbits
 560              		.align	1
 561              		.globl	lcd_write_command
 563              	lcd_write_command:
 564              	.LFB29:
 451:lio_lcd.c     **** 	lcd_DC_reset();
 565              		.loc 1 451 40
 566              		.cfi_startproc
 567              	.LVL51:
 452:lio_lcd.c     **** 	lcd_CS_reset();
 568              		.loc 1 452 2
 451:lio_lcd.c     **** 	lcd_DC_reset();
 569              		.loc 1 451 40 is_stmt 0
 570 0000 0111     		addi	sp,sp,-32
 571              	.LCFI15:
 572              		.cfi_def_cfa_offset 32
 573 0002 06CE     		sw	ra,28(sp)
 574 0004 2AC6     		sw	a0,12(sp)
 575 0006 22CC     		sw	s0,24(sp)
 576 0008 26CA     		sw	s1,20(sp)
 577              		.cfi_offset 1, -4
 578              		.cfi_offset 8, -8
 579              		.cfi_offset 9, -12
 452:lio_lcd.c     **** 	lcd_CS_reset();
 580              		.loc 1 452 2
 581 000a 97000000 		call	lcd_DC_reset
 581      E7800000 
 582              	.LVL52:
 453:lio_lcd.c     **** 	spi_write_bus(command);
 583              		.loc 1 453 2 is_stmt 1
 584 0012 97000000 		call	lcd_CS_reset
 584      E7800000 
 585              	.LVL53:
 454:lio_lcd.c     **** 	while(spi_i2s_flag_get(SPI1, SPI_FLAG_TRANS) == SET);
 586              		.loc 1 454 2
 587 001a 3245     		lw	a0,12(sp)
 455:lio_lcd.c     **** 	lcd_CS_set();
 588              		.loc 1 455 8 is_stmt 0
 589 001c 37440040 		li	s0,1073758208
 590 0020 13040480 		addi	s0,s0,-2048
 454:lio_lcd.c     **** 	while(spi_i2s_flag_get(SPI1, SPI_FLAG_TRANS) == SET);
 591              		.loc 1 454 2
 592 0024 97000000 		call	spi_write_bus
 592      E7800000 
GAS LISTING C:\Users\Karzan\AppData\Local\Temp\ccyAl7yf.s 			page 22


 593              	.LVL54:
 455:lio_lcd.c     **** 	lcd_CS_set();
 594              		.loc 1 455 2 is_stmt 1
 455:lio_lcd.c     **** 	lcd_CS_set();
 595              		.loc 1 455 7 is_stmt 0
 596 002c 8544     		li	s1,1
 597              	.L34:
 455:lio_lcd.c     **** 	lcd_CS_set();
 598              		.loc 1 455 54 is_stmt 1 discriminator 1
 455:lio_lcd.c     **** 	lcd_CS_set();
 599              		.loc 1 455 8 is_stmt 0 discriminator 1
 600 002e 93050008 		li	a1,128
 601 0032 2285     		mv	a0,s0
 602 0034 97000000 		call	spi_i2s_flag_get
 602      E7800000 
 603              	.LVL55:
 455:lio_lcd.c     **** 	lcd_CS_set();
 604              		.loc 1 455 7 discriminator 1
 605 003c E30995FE 		beq	a0,s1,.L34
 456:lio_lcd.c     **** }
 606              		.loc 1 456 2 is_stmt 1
 457:lio_lcd.c     **** 
 607              		.loc 1 457 1 is_stmt 0
 608 0040 6244     		lw	s0,24(sp)
 609              		.cfi_restore 8
 610 0042 F240     		lw	ra,28(sp)
 611              		.cfi_restore 1
 612 0044 D244     		lw	s1,20(sp)
 613              		.cfi_restore 9
 614 0046 0561     		addi	sp,sp,32
 615              	.LCFI16:
 616              		.cfi_def_cfa_offset 0
 456:lio_lcd.c     **** }
 617              		.loc 1 456 2
 618 0048 17030000 		tail	lcd_CS_set
 618      67000300 
 619              	.LVL56:
 620              		.cfi_endproc
 621              	.LFE29:
 623              		.section	.text.lio_lcd_address_set,"ax",@progbits
 624              		.align	1
 625              		.globl	lio_lcd_address_set
 627              	lio_lcd_address_set:
 628              	.LFB27:
 415:lio_lcd.c     **** 	x1 += _config.offset_x;
 629              		.loc 1 415 77 is_stmt 1
 630              		.cfi_startproc
 631              	.LVL57:
 416:lio_lcd.c     **** 	x2 += _config.offset_x;
 632              		.loc 1 416 2
 416:lio_lcd.c     **** 	x2 += _config.offset_x;
 633              		.loc 1 416 15 is_stmt 0
 634 0000 B7070000 		lui	a5,%hi(_config)
 635 0004 93870700 		addi	a5,a5,%lo(_config)
 636 0008 03D76700 		lhu	a4,6(a5)
 637              	.LVL58:
 417:lio_lcd.c     **** 	y1 += _config.offset_y;
GAS LISTING C:\Users\Karzan\AppData\Local\Temp\ccyAl7yf.s 			page 23


 638              		.loc 1 417 2 is_stmt 1
 418:lio_lcd.c     **** 	y2 += _config.offset_y;
 639              		.loc 1 418 2
 418:lio_lcd.c     **** 	y2 += _config.offset_y;
 640              		.loc 1 418 15 is_stmt 0
 641 000c 83D78700 		lhu	a5,8(a5)
 415:lio_lcd.c     **** 	x1 += _config.offset_x;
 642              		.loc 1 415 77
 643 0010 0111     		addi	sp,sp,-32
 644              	.LCFI17:
 645              		.cfi_def_cfa_offset 32
 416:lio_lcd.c     **** 	x2 += _config.offset_x;
 646              		.loc 1 416 5
 647 0012 3A95     		add	a0,a4,a0
 648              	.LVL59:
 419:lio_lcd.c     **** 
 649              		.loc 1 419 5
 650 0014 BE96     		add	a3,a5,a3
 651              	.LVL60:
 418:lio_lcd.c     **** 	y2 += _config.offset_y;
 652              		.loc 1 418 5
 653 0016 3E96     		add	a2,a5,a2
 654              	.LVL61:
 417:lio_lcd.c     **** 	y1 += _config.offset_y;
 655              		.loc 1 417 5
 656 0018 BA95     		add	a1,a4,a1
 657              	.LVL62:
 423:lio_lcd.c     **** 	buf[1] =  x1 	   & 0xFF;
 658              		.loc 1 423 9
 659 001a 93178500 		slli	a5,a0,8
 660 001e 4205     		slli	a0,a0,16
 425:lio_lcd.c     **** 	buf[3] =  x2 	   & 0xFF;
 661              		.loc 1 425 9
 662 0020 13978500 		slli	a4,a1,8
 663              	.LVL63:
 423:lio_lcd.c     **** 	buf[1] =  x1 	   & 0xFF;
 664              		.loc 1 423 9
 665 0024 4181     		srli	a0,a0,16
 425:lio_lcd.c     **** 	buf[3] =  x2 	   & 0xFF;
 666              		.loc 1 425 9
 667 0026 C205     		slli	a1,a1,16
 423:lio_lcd.c     **** 	buf[1] =  x1 	   & 0xFF;
 668              		.loc 1 423 9
 669 0028 2181     		srli	a0,a0,8
 425:lio_lcd.c     **** 	buf[3] =  x2 	   & 0xFF;
 670              		.loc 1 425 9
 671 002a C181     		srli	a1,a1,16
 423:lio_lcd.c     **** 	buf[1] =  x1 	   & 0xFF;
 672              		.loc 1 423 9
 673 002c 5D8D     		or	a0,a5,a0
 425:lio_lcd.c     **** 	buf[3] =  x2 	   & 0xFF;
 674              		.loc 1 425 9
 675 002e A181     		srli	a1,a1,8
 676 0030 D98D     		or	a1,a4,a1
 423:lio_lcd.c     **** 	buf[1] =  x1 	   & 0xFF;
 677              		.loc 1 423 9
 678 0032 2316A100 		sh	a0,12(sp)
GAS LISTING C:\Users\Karzan\AppData\Local\Temp\ccyAl7yf.s 			page 24


 427:lio_lcd.c     **** 	lcd_write_data(4, buf);
 679              		.loc 1 427 2
 680 0036 1305A002 		li	a0,42
 415:lio_lcd.c     **** 	x1 += _config.offset_x;
 681              		.loc 1 415 77
 682 003a 06CE     		sw	ra,28(sp)
 683 003c 22CC     		sw	s0,24(sp)
 684 003e 26CA     		sw	s1,20(sp)
 685              		.cfi_offset 1, -4
 686              		.cfi_offset 8, -8
 687              		.cfi_offset 9, -12
 419:lio_lcd.c     **** 
 688              		.loc 1 419 5
 689 0040 13940601 		slli	s0,a3,16
 418:lio_lcd.c     **** 	y2 += _config.offset_y;
 690              		.loc 1 418 5
 691 0044 93140601 		slli	s1,a2,16
 425:lio_lcd.c     **** 	buf[3] =  x2 	   & 0xFF;
 692              		.loc 1 425 9
 693 0048 2317B100 		sh	a1,14(sp)
 427:lio_lcd.c     **** 	lcd_write_data(4, buf);
 694              		.loc 1 427 2
 695 004c 97000000 		call	lcd_write_command
 695      E7800000 
 696              	.LVL64:
 428:lio_lcd.c     **** 
 697              		.loc 1 428 2
 698 0054 6C00     		addi	a1,sp,12
 699 0056 1145     		li	a0,4
 700 0058 97000000 		call	lcd_write_data
 700      E7800000 
 701              	.LVL65:
 418:lio_lcd.c     **** 	y2 += _config.offset_y;
 702              		.loc 1 418 5
 703 0060 C180     		srli	s1,s1,16
 704              	.LVL66:
 419:lio_lcd.c     **** 
 705              		.loc 1 419 2 is_stmt 1
 419:lio_lcd.c     **** 
 706              		.loc 1 419 5 is_stmt 0
 707 0062 4180     		srli	s0,s0,16
 708              	.LVL67:
 421:lio_lcd.c     **** 
 709              		.loc 1 421 2 is_stmt 1
 423:lio_lcd.c     **** 	buf[1] =  x1 	   & 0xFF;
 710              		.loc 1 423 2
 424:lio_lcd.c     **** 	buf[2] = (x2 >> 8) & 0xFF;
 711              		.loc 1 424 2
 425:lio_lcd.c     **** 	buf[3] =  x2 	   & 0xFF;
 712              		.loc 1 425 2
 426:lio_lcd.c     **** 	lcd_write_command(LIO_LCD_SET_COLUMN);
 713              		.loc 1 426 2
 427:lio_lcd.c     **** 	lcd_write_data(4, buf);
 714              		.loc 1 427 2
 428:lio_lcd.c     **** 
 715              		.loc 1 428 2
 430:lio_lcd.c     **** 	buf[1] =  y1 	   & 0xFF;
GAS LISTING C:\Users\Karzan\AppData\Local\Temp\ccyAl7yf.s 			page 25


 716              		.loc 1 430 2
 431:lio_lcd.c     **** 	buf[2] = (y2 >> 8) & 0xFF;
 717              		.loc 1 431 2
 430:lio_lcd.c     **** 	buf[1] =  y1 	   & 0xFF;
 718              		.loc 1 430 9 is_stmt 0
 719 0064 13968400 		slli	a2,s1,8
 432:lio_lcd.c     **** 	buf[3] =  y2 	   & 0xFF;
 720              		.loc 1 432 9
 721 0068 93178400 		slli	a5,s0,8
 430:lio_lcd.c     **** 	buf[1] =  y1 	   & 0xFF;
 722              		.loc 1 430 9
 723 006c A180     		srli	s1,s1,8
 724              	.LVL68:
 432:lio_lcd.c     **** 	buf[3] =  y2 	   & 0xFF;
 725              		.loc 1 432 9
 726 006e 2180     		srli	s0,s0,8
 727              	.LVL69:
 430:lio_lcd.c     **** 	buf[1] =  y1 	   & 0xFF;
 728              		.loc 1 430 9
 729 0070 D18C     		or	s1,a2,s1
 432:lio_lcd.c     **** 	buf[3] =  y2 	   & 0xFF;
 730              		.loc 1 432 9
 731 0072 5D8C     		or	s0,a5,s0
 434:lio_lcd.c     **** 	lcd_write_data(4, buf);
 732              		.loc 1 434 2
 733 0074 1305B002 		li	a0,43
 430:lio_lcd.c     **** 	buf[1] =  y1 	   & 0xFF;
 734              		.loc 1 430 9
 735 0078 23169100 		sh	s1,12(sp)
 432:lio_lcd.c     **** 	buf[3] =  y2 	   & 0xFF;
 736              		.loc 1 432 2 is_stmt 1
 433:lio_lcd.c     **** 	lcd_write_command(LIO_LCD_SET_ROW);
 737              		.loc 1 433 2
 432:lio_lcd.c     **** 	buf[3] =  y2 	   & 0xFF;
 738              		.loc 1 432 9 is_stmt 0
 739 007c 23178100 		sh	s0,14(sp)
 434:lio_lcd.c     **** 	lcd_write_data(4, buf);
 740              		.loc 1 434 2 is_stmt 1
 741 0080 97000000 		call	lcd_write_command
 741      E7800000 
 742              	.LVL70:
 435:lio_lcd.c     **** 	lcd_write_command(LIO_LCD_WR_MEMORY);
 743              		.loc 1 435 2
 744 0088 6C00     		addi	a1,sp,12
 745 008a 1145     		li	a0,4
 746 008c 97000000 		call	lcd_write_data
 746      E7800000 
 747              	.LVL71:
 436:lio_lcd.c     **** }
 748              		.loc 1 436 2
 749 0094 1305C002 		li	a0,44
 750 0098 97000000 		call	lcd_write_command
 750      E7800000 
 751              	.LVL72:
 437:lio_lcd.c     **** 
 752              		.loc 1 437 1 is_stmt 0
 753 00a0 F240     		lw	ra,28(sp)
GAS LISTING C:\Users\Karzan\AppData\Local\Temp\ccyAl7yf.s 			page 26


 754              		.cfi_restore 1
 755 00a2 6244     		lw	s0,24(sp)
 756              		.cfi_restore 8
 757 00a4 D244     		lw	s1,20(sp)
 758              		.cfi_restore 9
 759 00a6 0561     		addi	sp,sp,32
 760              	.LCFI18:
 761              		.cfi_def_cfa_offset 0
 762 00a8 8280     		jr	ra
 763              		.cfi_endproc
 764              	.LFE27:
 766              		.section	.text.lio_lcd_clear,"ax",@progbits
 767              		.align	1
 768              		.globl	lio_lcd_clear
 770              	lio_lcd_clear:
 771              	.LFB6:
 168:lio_lcd.c     **** 	uint8_t buf[] = {(0xFF00 & color) >> 8, color & 0xFF};
 772              		.loc 1 168 35 is_stmt 1
 773              		.cfi_startproc
 774              	.LVL73:
 169:lio_lcd.c     **** 	lio_lcd_address_set( 0, _config.width-1, 0, _config.height-1);
 775              		.loc 1 169 2
 168:lio_lcd.c     **** 	uint8_t buf[] = {(0xFF00 & color) >> 8, color & 0xFF};
 776              		.loc 1 168 35 is_stmt 0
 777 0000 0111     		addi	sp,sp,-32
 778              	.LCFI19:
 779              		.cfi_def_cfa_offset 32
 780 0002 22CC     		sw	s0,24(sp)
 781              		.cfi_offset 8, -8
 170:lio_lcd.c     **** 	for(int i = _config.width*_config.height; i > 0; i--) lcd_write_data(2, buf);
 782              		.loc 1 170 53
 783 0004 37040000 		lui	s0,%hi(_config)
 784 0008 13040400 		addi	s0,s0,%lo(_config)
 170:lio_lcd.c     **** 	for(int i = _config.width*_config.height; i > 0; i--) lcd_write_data(2, buf);
 785              		.loc 1 170 2
 786 000c 83564400 		lhu	a3,4(s0)
 787 0010 83552400 		lhu	a1,2(s0)
 169:lio_lcd.c     **** 	lio_lcd_address_set( 0, _config.width-1, 0, _config.height-1);
 788              		.loc 1 169 10
 789 0014 93178500 		slli	a5,a0,8
 170:lio_lcd.c     **** 	for(int i = _config.width*_config.height; i > 0; i--) lcd_write_data(2, buf);
 790              		.loc 1 170 2
 791 0018 FD16     		addi	a3,a3,-1
 169:lio_lcd.c     **** 	lio_lcd_address_set( 0, _config.width-1, 0, _config.height-1);
 792              		.loc 1 169 10
 793 001a 2181     		srli	a0,a0,8
 794              	.LVL74:
 170:lio_lcd.c     **** 	for(int i = _config.width*_config.height; i > 0; i--) lcd_write_data(2, buf);
 795              		.loc 1 170 2
 796 001c FD15     		addi	a1,a1,-1
 169:lio_lcd.c     **** 	lio_lcd_address_set( 0, _config.width-1, 0, _config.height-1);
 797              		.loc 1 169 10
 798 001e 5D8D     		or	a0,a5,a0
 170:lio_lcd.c     **** 	for(int i = _config.width*_config.height; i > 0; i--) lcd_write_data(2, buf);
 799              		.loc 1 170 2
 800 0020 C206     		slli	a3,a3,16
 801 0022 C205     		slli	a1,a1,16
GAS LISTING C:\Users\Karzan\AppData\Local\Temp\ccyAl7yf.s 			page 27


 169:lio_lcd.c     **** 	lio_lcd_address_set( 0, _config.width-1, 0, _config.height-1);
 802              		.loc 1 169 10
 803 0024 2316A100 		sh	a0,12(sp)
 170:lio_lcd.c     **** 	for(int i = _config.width*_config.height; i > 0; i--) lcd_write_data(2, buf);
 804              		.loc 1 170 2 is_stmt 1
 805 0028 C182     		srli	a3,a3,16
 806 002a 0146     		li	a2,0
 807 002c C181     		srli	a1,a1,16
 808 002e 0145     		li	a0,0
 168:lio_lcd.c     **** 	uint8_t buf[] = {(0xFF00 & color) >> 8, color & 0xFF};
 809              		.loc 1 168 35 is_stmt 0
 810 0030 06CE     		sw	ra,28(sp)
 811              		.cfi_offset 1, -4
 170:lio_lcd.c     **** 	for(int i = _config.width*_config.height; i > 0; i--) lcd_write_data(2, buf);
 812              		.loc 1 170 2
 813 0032 97000000 		call	lio_lcd_address_set
 813      E7800000 
 814              	.LVL75:
 171:lio_lcd.c     **** }
 815              		.loc 1 171 2 is_stmt 1
 816              	.LBB2:
 171:lio_lcd.c     **** }
 817              		.loc 1 171 6
 171:lio_lcd.c     **** }
 818              		.loc 1 171 21 is_stmt 0
 819 003a 83572400 		lhu	a5,2(s0)
 171:lio_lcd.c     **** }
 820              		.loc 1 171 35
 821 003e 03544400 		lhu	s0,4(s0)
 171:lio_lcd.c     **** }
 822              		.loc 1 171 10
 823 0042 33848702 		mul	s0,a5,s0
 824              	.LVL76:
 825              	.L40:
 171:lio_lcd.c     **** }
 826              		.loc 1 171 2 discriminator 1
 827 0046 09E4     		bne	s0,zero,.L41
 828              	.LBE2:
 172:lio_lcd.c     **** 
 829              		.loc 1 172 1
 830 0048 F240     		lw	ra,28(sp)
 831              		.cfi_remember_state
 832              		.cfi_restore 1
 833 004a 6244     		lw	s0,24(sp)
 834              		.cfi_restore 8
 835              	.LVL77:
 836 004c 0561     		addi	sp,sp,32
 837              	.LCFI20:
 838              		.cfi_def_cfa_offset 0
 839 004e 8280     		jr	ra
 840              	.LVL78:
 841              	.L41:
 842              	.LCFI21:
 843              		.cfi_restore_state
 844              	.LBB3:
 171:lio_lcd.c     **** }
 845              		.loc 1 171 56 is_stmt 1 discriminator 3
GAS LISTING C:\Users\Karzan\AppData\Local\Temp\ccyAl7yf.s 			page 28


 846 0050 6C00     		addi	a1,sp,12
 847 0052 0945     		li	a0,2
 848 0054 97000000 		call	lcd_write_data
 848      E7800000 
 849              	.LVL79:
 171:lio_lcd.c     **** }
 850              		.loc 1 171 52 is_stmt 0 discriminator 3
 851 005c 7D14     		addi	s0,s0,-1
 852              	.LVL80:
 853 005e E5B7     		j	.L40
 854              	.LBE3:
 855              		.cfi_endproc
 856              	.LFE6:
 858              		.section	.text.lio_lcd_rect_fill,"ax",@progbits
 859              		.align	1
 860              		.globl	lio_lcd_rect_fill
 862              	lio_lcd_rect_fill:
 863              	.LFB7:
 174:lio_lcd.c     **** 	lio_lcd_address_set(x1,x2,y1,y2);
 864              		.loc 1 174 87 is_stmt 1
 865              		.cfi_startproc
 866              	.LVL81:
 175:lio_lcd.c     **** 	lcd_write_color((x2-x1+1)*(y2-y1+1), color);
 867              		.loc 1 175 2
 174:lio_lcd.c     **** 	lio_lcd_address_set(x1,x2,y1,y2);
 868              		.loc 1 174 87 is_stmt 0
 869 0000 7971     		addi	sp,sp,-48
 870              	.LCFI22:
 871              		.cfi_def_cfa_offset 48
 872 0002 22D4     		sw	s0,40(sp)
 873 0004 26D2     		sw	s1,36(sp)
 874 0006 4AD0     		sw	s2,32(sp)
 875 0008 4ECE     		sw	s3,28(sp)
 876              		.cfi_offset 8, -8
 877              		.cfi_offset 9, -12
 878              		.cfi_offset 18, -16
 879              		.cfi_offset 19, -20
 880 000a AE84     		mv	s1,a1
 881 000c AA89     		mv	s3,a0
 882 000e 3289     		mv	s2,a2
 883 0010 3684     		mv	s0,a3
 175:lio_lcd.c     **** 	lcd_write_color((x2-x1+1)*(y2-y1+1), color);
 884              		.loc 1 175 2
 885 0012 4206     		slli	a2,a2,16
 886              	.LVL82:
 887 0014 C206     		slli	a3,a3,16
 888              	.LVL83:
 889 0016 C205     		slli	a1,a1,16
 890              	.LVL84:
 891 0018 4205     		slli	a0,a0,16
 892              	.LVL85:
 893 001a C181     		srli	a1,a1,16
 894 001c 4181     		srli	a0,a0,16
 895 001e C182     		srli	a3,a3,16
 896 0020 4182     		srli	a2,a2,16
 174:lio_lcd.c     **** 	lio_lcd_address_set(x1,x2,y1,y2);
 897              		.loc 1 174 87
GAS LISTING C:\Users\Karzan\AppData\Local\Temp\ccyAl7yf.s 			page 29


 898 0022 06D6     		sw	ra,44(sp)
 899              		.cfi_offset 1, -4
 174:lio_lcd.c     **** 	lio_lcd_address_set(x1,x2,y1,y2);
 900              		.loc 1 174 87
 901 0024 3AC6     		sw	a4,12(sp)
 175:lio_lcd.c     **** 	lcd_write_color((x2-x1+1)*(y2-y1+1), color);
 902              		.loc 1 175 2
 903 0026 97000000 		call	lio_lcd_address_set
 903      E7800000 
 904              	.LVL86:
 176:lio_lcd.c     **** }
 905              		.loc 1 176 2 is_stmt 1
 176:lio_lcd.c     **** }
 906              		.loc 1 176 21 is_stmt 0
 907 002e 33853441 		sub	a0,s1,s3
 176:lio_lcd.c     **** }
 908              		.loc 1 176 31
 909 0032 33042441 		sub	s0,s0,s2
 176:lio_lcd.c     **** }
 910              		.loc 1 176 34
 911 0036 0504     		addi	s0,s0,1
 176:lio_lcd.c     **** }
 912              		.loc 1 176 24
 913 0038 0505     		addi	a0,a0,1
 176:lio_lcd.c     **** }
 914              		.loc 1 176 2
 915 003a 33058502 		mul	a0,a0,s0
 916 003e 3247     		lw	a4,12(sp)
 177:lio_lcd.c     **** 
 917              		.loc 1 177 1
 918 0040 2254     		lw	s0,40(sp)
 919              		.cfi_restore 8
 920 0042 B250     		lw	ra,44(sp)
 921              		.cfi_restore 1
 922 0044 9254     		lw	s1,36(sp)
 923              		.cfi_restore 9
 924 0046 0259     		lw	s2,32(sp)
 925              		.cfi_restore 18
 926 0048 F249     		lw	s3,28(sp)
 927              		.cfi_restore 19
 176:lio_lcd.c     **** }
 928              		.loc 1 176 2
 929 004a BA85     		mv	a1,a4
 177:lio_lcd.c     **** 
 930              		.loc 1 177 1
 931 004c 4561     		addi	sp,sp,48
 932              	.LCFI23:
 933              		.cfi_def_cfa_offset 0
 176:lio_lcd.c     **** }
 934              		.loc 1 176 2
 935 004e 17030000 		tail	lcd_write_color
 935      67000300 
 936              	.LVL87:
 937              		.cfi_endproc
 938              	.LFE7:
 940              		.section	.text.lio_lcd_rect_lines,"ax",@progbits
 941              		.align	1
GAS LISTING C:\Users\Karzan\AppData\Local\Temp\ccyAl7yf.s 			page 30


 942              		.globl	lio_lcd_rect_lines
 944              	lio_lcd_rect_lines:
 945              	.LFB8:
 179:lio_lcd.c     **** 	//Upper
 946              		.loc 1 179 88 is_stmt 1
 947              		.cfi_startproc
 948              	.LVL88:
 181:lio_lcd.c     **** 	lcd_write_color(y2-y1, color);
 949              		.loc 1 181 2
 179:lio_lcd.c     **** 	//Upper
 950              		.loc 1 179 88 is_stmt 0
 951 0000 7971     		addi	sp,sp,-48
 952              	.LCFI24:
 953              		.cfi_def_cfa_offset 48
 954 0002 4ECE     		sw	s3,28(sp)
 955 0004 56CA     		sw	s5,20(sp)
 956 0006 5AC8     		sw	s6,16(sp)
 957              		.cfi_offset 19, -20
 958              		.cfi_offset 21, -28
 959              		.cfi_offset 22, -32
 181:lio_lcd.c     **** 	lcd_write_color(y2-y1, color);
 960              		.loc 1 181 2
 961 0008 93190501 		slli	s3,a0,16
 962 000c 131B0601 		slli	s6,a2,16
 963 0010 939A0601 		slli	s5,a3,16
 964 0014 93D90901 		srli	s3,s3,16
 965 0018 135B0B01 		srli	s6,s6,16
 966 001c 93DA0A01 		srli	s5,s5,16
 179:lio_lcd.c     **** 	//Upper
 967              		.loc 1 179 88
 968 0020 22D4     		sw	s0,40(sp)
 969 0022 26D2     		sw	s1,36(sp)
 970 0024 52CC     		sw	s4,24(sp)
 971 0026 5EC6     		sw	s7,12(sp)
 972              		.cfi_offset 8, -8
 973              		.cfi_offset 9, -12
 974              		.cfi_offset 20, -24
 975              		.cfi_offset 23, -36
 976 0028 2E84     		mv	s0,a1
 977 002a AA8B     		mv	s7,a0
 978 002c 328A     		mv	s4,a2
 181:lio_lcd.c     **** 	lcd_write_color(y2-y1, color);
 979              		.loc 1 181 2
 980 002e CE85     		mv	a1,s3
 981              	.LVL89:
 982 0030 5A86     		mv	a2,s6
 983              	.LVL90:
 984 0032 4E85     		mv	a0,s3
 985              	.LVL91:
 179:lio_lcd.c     **** 	//Upper
 986              		.loc 1 179 88
 987 0034 B684     		mv	s1,a3
 181:lio_lcd.c     **** 	lcd_write_color(y2-y1, color);
 988              		.loc 1 181 2
 989 0036 D686     		mv	a3,s5
 990              	.LVL92:
 179:lio_lcd.c     **** 	//Upper
GAS LISTING C:\Users\Karzan\AppData\Local\Temp\ccyAl7yf.s 			page 31


 991              		.loc 1 179 88
 992 0038 06D6     		sw	ra,44(sp)
 993 003a 4AD0     		sw	s2,32(sp)
 994              		.cfi_offset 1, -4
 995              		.cfi_offset 18, -16
 182:lio_lcd.c     **** 	//Lower
 996              		.loc 1 182 20
 997 003c B3844441 		sub	s1,s1,s4
 179:lio_lcd.c     **** 	//Upper
 998              		.loc 1 179 88
 999 0040 3A89     		mv	s2,a4
 181:lio_lcd.c     **** 	lcd_write_color(y2-y1, color);
 1000              		.loc 1 181 2
 1001 0042 97000000 		call	lio_lcd_address_set
 1001      E7800000 
 1002              	.LVL93:
 182:lio_lcd.c     **** 	//Lower
 1003              		.loc 1 182 2 is_stmt 1
 1004 004a CA85     		mv	a1,s2
 1005 004c 2685     		mv	a0,s1
 184:lio_lcd.c     **** 	lcd_write_color(y2-y1, color);
 1006              		.loc 1 184 2 is_stmt 0
 1007 004e 131A0401 		slli	s4,s0,16
 182:lio_lcd.c     **** 	//Lower
 1008              		.loc 1 182 2
 1009 0052 97000000 		call	lcd_write_color
 1009      E7800000 
 1010              	.LVL94:
 184:lio_lcd.c     **** 	lcd_write_color(y2-y1, color);
 1011              		.loc 1 184 2 is_stmt 1
 1012 005a 135A0A01 		srli	s4,s4,16
 1013 005e D686     		mv	a3,s5
 1014 0060 5A86     		mv	a2,s6
 1015 0062 D285     		mv	a1,s4
 1016 0064 5285     		mv	a0,s4
 1017 0066 97000000 		call	lio_lcd_address_set
 1017      E7800000 
 1018              	.LVL95:
 185:lio_lcd.c     **** 	//Left
 1019              		.loc 1 185 2
 1020 006e CA85     		mv	a1,s2
 1021 0070 2685     		mv	a0,s1
 1022 0072 97000000 		call	lcd_write_color
 1022      E7800000 
 1023              	.LVL96:
 187:lio_lcd.c     **** 	lcd_write_color(x2-x1, color);
 1024              		.loc 1 187 2
 1025 007a DA86     		mv	a3,s6
 1026 007c 5A86     		mv	a2,s6
 1027 007e D285     		mv	a1,s4
 1028 0080 4E85     		mv	a0,s3
 1029 0082 97000000 		call	lio_lcd_address_set
 1029      E7800000 
 1030              	.LVL97:
 188:lio_lcd.c     **** 	//Right
 1031              		.loc 1 188 2
 188:lio_lcd.c     **** 	//Right
GAS LISTING C:\Users\Karzan\AppData\Local\Temp\ccyAl7yf.s 			page 32


 1032              		.loc 1 188 20 is_stmt 0
 1033 008a 33047441 		sub	s0,s0,s7
 188:lio_lcd.c     **** 	//Right
 1034              		.loc 1 188 2
 1035 008e CA85     		mv	a1,s2
 1036 0090 2285     		mv	a0,s0
 1037 0092 97000000 		call	lcd_write_color
 1037      E7800000 
 1038              	.LVL98:
 190:lio_lcd.c     **** 	lcd_write_color(x2-x1, color);
 1039              		.loc 1 190 2 is_stmt 1
 1040 009a D285     		mv	a1,s4
 1041 009c 4E85     		mv	a0,s3
 1042 009e D686     		mv	a3,s5
 1043 00a0 5686     		mv	a2,s5
 1044 00a2 97000000 		call	lio_lcd_address_set
 1044      E7800000 
 1045              	.LVL99:
 191:lio_lcd.c     **** }
 1046              		.loc 1 191 2
 1047 00aa 2285     		mv	a0,s0
 192:lio_lcd.c     **** 
 1048              		.loc 1 192 1 is_stmt 0
 1049 00ac 2254     		lw	s0,40(sp)
 1050              		.cfi_restore 8
 1051 00ae B250     		lw	ra,44(sp)
 1052              		.cfi_restore 1
 1053 00b0 9254     		lw	s1,36(sp)
 1054              		.cfi_restore 9
 1055 00b2 F249     		lw	s3,28(sp)
 1056              		.cfi_restore 19
 1057 00b4 624A     		lw	s4,24(sp)
 1058              		.cfi_restore 20
 1059 00b6 D24A     		lw	s5,20(sp)
 1060              		.cfi_restore 21
 1061 00b8 424B     		lw	s6,16(sp)
 1062              		.cfi_restore 22
 1063 00ba B24B     		lw	s7,12(sp)
 1064              		.cfi_restore 23
 191:lio_lcd.c     **** }
 1065              		.loc 1 191 2
 1066 00bc CA85     		mv	a1,s2
 192:lio_lcd.c     **** 
 1067              		.loc 1 192 1
 1068 00be 0259     		lw	s2,32(sp)
 1069              		.cfi_restore 18
 1070 00c0 4561     		addi	sp,sp,48
 1071              	.LCFI25:
 1072              		.cfi_def_cfa_offset 0
 191:lio_lcd.c     **** }
 1073              		.loc 1 191 2
 1074 00c2 17030000 		tail	lcd_write_color
 1074      67000300 
 1075              	.LVL100:
 1076              		.cfi_endproc
 1077              	.LFE8:
 1079              		.section	.text.lio_lcd_draw_pixel,"ax",@progbits
GAS LISTING C:\Users\Karzan\AppData\Local\Temp\ccyAl7yf.s 			page 33


 1080              		.align	1
 1081              		.globl	lio_lcd_draw_pixel
 1083              	lio_lcd_draw_pixel:
 1084              	.LFB9:
 194:lio_lcd.c     **** 	lio_lcd_address_set(x,x,y,y);
 1085              		.loc 1 194 64 is_stmt 1
 1086              		.cfi_startproc
 1087              	.LVL101:
 195:lio_lcd.c     **** 	lcd_write_color(1, color);
 1088              		.loc 1 195 2
 194:lio_lcd.c     **** 	lio_lcd_address_set(x,x,y,y);
 1089              		.loc 1 194 64 is_stmt 0
 1090 0000 4111     		addi	sp,sp,-16
 1091              	.LCFI26:
 1092              		.cfi_def_cfa_offset 16
 1093 0002 22C4     		sw	s0,8(sp)
 1094 0004 AE86     		mv	a3,a1
 1095              		.cfi_offset 8, -8
 1096 0006 3284     		mv	s0,a2
 195:lio_lcd.c     **** 	lcd_write_color(1, color);
 1097              		.loc 1 195 2
 1098 0008 2E86     		mv	a2,a1
 1099              	.LVL102:
 1100 000a AA85     		mv	a1,a0
 1101              	.LVL103:
 194:lio_lcd.c     **** 	lio_lcd_address_set(x,x,y,y);
 1102              		.loc 1 194 64
 1103 000c 06C6     		sw	ra,12(sp)
 1104              		.cfi_offset 1, -4
 195:lio_lcd.c     **** 	lcd_write_color(1, color);
 1105              		.loc 1 195 2
 1106 000e 97000000 		call	lio_lcd_address_set
 1106      E7800000 
 1107              	.LVL104:
 196:lio_lcd.c     **** }
 1108              		.loc 1 196 2 is_stmt 1
 1109 0016 A285     		mv	a1,s0
 197:lio_lcd.c     **** 
 1110              		.loc 1 197 1 is_stmt 0
 1111 0018 2244     		lw	s0,8(sp)
 1112              		.cfi_restore 8
 1113 001a B240     		lw	ra,12(sp)
 1114              		.cfi_restore 1
 196:lio_lcd.c     **** }
 1115              		.loc 1 196 2
 1116 001c 0545     		li	a0,1
 197:lio_lcd.c     **** 
 1117              		.loc 1 197 1
 1118 001e 4101     		addi	sp,sp,16
 1119              	.LCFI27:
 1120              		.cfi_def_cfa_offset 0
 196:lio_lcd.c     **** }
 1121              		.loc 1 196 2
 1122 0020 17030000 		tail	lcd_write_color
 1122      67000300 
 1123              	.LVL105:
 1124              		.cfi_endproc
GAS LISTING C:\Users\Karzan\AppData\Local\Temp\ccyAl7yf.s 			page 34


 1125              	.LFE9:
 1127              		.section	.text.lio_lcd_draw_line,"ax",@progbits
 1128              		.align	1
 1129              		.globl	lio_lcd_draw_line
 1131              	lio_lcd_draw_line:
 1132              	.LFB22:
 315:lio_lcd.c     ****     //Based on bresenhams line algorithm
 1133              		.loc 1 315 87 is_stmt 1
 1134              		.cfi_startproc
 1135              	.LVL106:
 317:lio_lcd.c     ****     int32_t x_steps = (x2-x1) > 0 ? (x2-x1) : -(x2-x1);
 1136              		.loc 1 317 5
 318:lio_lcd.c     ****     int32_t y_steps = (y2-y1) > 0 ? (y2-y1) : -(y2-y1);
 1137              		.loc 1 318 5
 318:lio_lcd.c     ****     int32_t y_steps = (y2-y1) > 0 ? (y2-y1) : -(y2-y1);
 1138              		.loc 1 318 40 is_stmt 0
 1139 0000 3388A540 		sub	a6,a1,a0
 318:lio_lcd.c     ****     int32_t y_steps = (y2-y1) > 0 ? (y2-y1) : -(y2-y1);
 1140              		.loc 1 318 45
 1141 0004 9357F841 		srai	a5,a6,31
 1142 0008 33C80701 		xor	a6,a5,a6
 1143 000c 3308F840 		sub	a6,a6,a5
 319:lio_lcd.c     ****     int32_t x_pos = x1;
 1144              		.loc 1 319 40
 1145 0010 B387C640 		sub	a5,a3,a2
 319:lio_lcd.c     ****     int32_t x_pos = x1;
 1146              		.loc 1 319 45
 1147 0014 93D8F741 		srai	a7,a5,31
 1148 0018 B3C7F800 		xor	a5,a7,a5
 315:lio_lcd.c     ****     //Based on bresenhams line algorithm
 1149              		.loc 1 315 87
 1150 001c 1D71     		addi	sp,sp,-96
 1151              	.LCFI28:
 1152              		.cfi_def_cfa_offset 96
 319:lio_lcd.c     ****     int32_t x_pos = x1;
 1153              		.loc 1 319 45
 1154 001e B3871741 		sub	a5,a5,a7
 315:lio_lcd.c     ****     //Based on bresenhams line algorithm
 1155              		.loc 1 315 87
 1156 0022 86CE     		sw	ra,92(sp)
 1157 0024 A2CC     		sw	s0,88(sp)
 1158 0026 A6CA     		sw	s1,84(sp)
 1159 0028 CAC8     		sw	s2,80(sp)
 1160 002a CEC6     		sw	s3,76(sp)
 1161 002c D2C4     		sw	s4,72(sp)
 1162 002e D6C2     		sw	s5,68(sp)
 1163 0030 DAC0     		sw	s6,64(sp)
 1164 0032 5EDE     		sw	s7,60(sp)
 1165              		.cfi_offset 1, -4
 1166              		.cfi_offset 8, -8
 1167              		.cfi_offset 9, -12
 1168              		.cfi_offset 18, -16
 1169              		.cfi_offset 19, -20
 1170              		.cfi_offset 20, -24
 1171              		.cfi_offset 21, -28
 1172              		.cfi_offset 22, -32
 1173              		.cfi_offset 23, -36
GAS LISTING C:\Users\Karzan\AppData\Local\Temp\ccyAl7yf.s 			page 35


 318:lio_lcd.c     ****     int32_t y_steps = (y2-y1) > 0 ? (y2-y1) : -(y2-y1);
 1174              		.loc 1 318 13
 1175 0034 42CC     		sw	a6,24(sp)
 319:lio_lcd.c     ****     int32_t x_pos = x1;
 1176              		.loc 1 319 5 is_stmt 1
 319:lio_lcd.c     ****     int32_t x_pos = x1;
 1177              		.loc 1 319 13 is_stmt 0
 1178 0036 3ECE     		sw	a5,28(sp)
 320:lio_lcd.c     ****     int32_t y_pos = y1;
 1179              		.loc 1 320 5 is_stmt 1
 320:lio_lcd.c     ****     int32_t y_pos = y1;
 1180              		.loc 1 320 13 is_stmt 0
 1181 0038 2AD0     		sw	a0,32(sp)
 321:lio_lcd.c     ****     int32_t x_dir = x2 > x1 ? 1 : -1;
 1182              		.loc 1 321 5 is_stmt 1
 321:lio_lcd.c     ****     int32_t x_dir = x2 > x1 ? 1 : -1;
 1183              		.loc 1 321 13 is_stmt 0
 1184 003a 32D2     		sw	a2,36(sp)
 322:lio_lcd.c     ****     int32_t y_dir = y2 > y1 ? 1 : -1;
 1185              		.loc 1 322 5 is_stmt 1
 322:lio_lcd.c     ****     int32_t y_dir = y2 > y1 ? 1 : -1;
 1186              		.loc 1 322 33 is_stmt 0
 1187 003c FD58     		li	a7,-1
 1188 003e 6353B500 		ble	a1,a0,.L50
 1189 0042 8548     		li	a7,1
 1190              	.L50:
 322:lio_lcd.c     ****     int32_t y_dir = y2 > y1 ? 1 : -1;
 1191              		.loc 1 322 13 discriminator 4
 1192 0044 46D4     		sw	a7,40(sp)
 323:lio_lcd.c     **** 
 1193              		.loc 1 323 5 is_stmt 1 discriminator 4
 323:lio_lcd.c     **** 
 1194              		.loc 1 323 33 is_stmt 0 discriminator 4
 1195 0046 8545     		li	a1,1
 1196              	.LVL107:
 1197 0048 6343D600 		bgt	a3,a2,.L51
 323:lio_lcd.c     **** 
 1198              		.loc 1 323 33
 1199 004c FD55     		li	a1,-1
 1200              	.L51:
 323:lio_lcd.c     **** 
 1201              		.loc 1 323 13 discriminator 4
 1202 004e 2ED6     		sw	a1,44(sp)
 325:lio_lcd.c     ****     
 1203              		.loc 1 325 5 is_stmt 1 discriminator 4
 327:lio_lcd.c     ****         pLead = &x_steps;
 1204              		.loc 1 327 5 discriminator 4
 327:lio_lcd.c     ****         pLead = &x_steps;
 1205              		.loc 1 327 7 is_stmt 0 discriminator 4
 1206 0050 63DE0707 		ble	a6,a5,.L57
 327:lio_lcd.c     ****         pLead = &x_steps;
 1207              		.loc 1 327 7
 1208 0054 C287     		mv	a5,a6
 333:lio_lcd.c     ****     } else {
 1209              		.loc 1 333 15
 1210 0056 930A4102 		addi	s5,sp,36
 330:lio_lcd.c     ****         pFol = &y_steps;
GAS LISTING C:\Users\Karzan\AppData\Local\Temp\ccyAl7yf.s 			page 36


 1211              		.loc 1 330 15
 1212 005a 0410     		addi	s1,sp,32
 329:lio_lcd.c     ****         pLPos = &x_pos;
 1213              		.loc 1 329 15
 1214 005c 930B8102 		addi	s7,sp,40
 332:lio_lcd.c     ****         pFPos = &y_pos;
 1215              		.loc 1 332 15
 1216 0060 9309C102 		addi	s3,sp,44
 331:lio_lcd.c     ****         pFDir = &y_dir;
 1217              		.loc 1 331 14
 1218 0064 130BC101 		addi	s6,sp,28
 1219              	.L52:
 1220              	.LVL108:
 342:lio_lcd.c     ****     	lio_lcd_draw_pixel(x_pos, y_pos, color);
 1221              		.loc 1 342 5 is_stmt 1
 1222              	.LBB4:
 342:lio_lcd.c     ****     	lio_lcd_draw_pixel(x_pos, y_pos, color);
 1223              		.loc 1 342 9
 342:lio_lcd.c     ****     	lio_lcd_draw_pixel(x_pos, y_pos, color);
 1224              		.loc 1 342 13 is_stmt 0
 1225 0068 138A1700 		addi	s4,a5,1
 1226              	.LVL109:
 348:lio_lcd.c     ****     	}
 1227              		.loc 1 348 19
 1228 006c 13941700 		slli	s0,a5,1
 1229              	.LBE4:
 317:lio_lcd.c     ****     int32_t x_steps = (x2-x1) > 0 ? (x2-x1) : -(x2-x1);
 1230              		.loc 1 317 13
 1231 0070 0149     		li	s2,0
 1232              	.LVL110:
 1233              	.L54:
 1234              	.LBB5:
 343:lio_lcd.c     ****     	err += 2*(*pFol);
 1235              		.loc 1 343 6 is_stmt 1
 1236 0072 83554102 		lhu	a1,36(sp)
 1237 0076 03550102 		lhu	a0,32(sp)
 1238 007a 3A86     		mv	a2,a4
 1239 007c 3AC6     		sw	a4,12(sp)
 1240 007e 97000000 		call	lio_lcd_draw_pixel
 1240      E7800000 
 1241              	.LVL111:
 344:lio_lcd.c     ****     	*pLPos += *pLDir;
 1242              		.loc 1 344 6
 344:lio_lcd.c     ****     	*pLPos += *pLDir;
 1243              		.loc 1 344 14 is_stmt 0
 1244 0086 83270B00 		lw	a5,0(s6)
 345:lio_lcd.c     ****     	if(err > 0){
 1245              		.loc 1 345 13
 1246 008a 83A60B00 		lw	a3,0(s7)
 346:lio_lcd.c     ****         	*pFPos += *pFDir;
 1247              		.loc 1 346 8
 1248 008e 3247     		lw	a4,12(sp)
 344:lio_lcd.c     ****     	*pLPos += *pLDir;
 1249              		.loc 1 344 14
 1250 0090 8607     		slli	a5,a5,1
 344:lio_lcd.c     ****     	*pLPos += *pLDir;
 1251              		.loc 1 344 10
GAS LISTING C:\Users\Karzan\AppData\Local\Temp\ccyAl7yf.s 			page 37


 1252 0092 3E99     		add	s2,s2,a5
 1253              	.LVL112:
 345:lio_lcd.c     ****     	if(err > 0){
 1254              		.loc 1 345 6 is_stmt 1
 345:lio_lcd.c     ****     	if(err > 0){
 1255              		.loc 1 345 13 is_stmt 0
 1256 0094 9C40     		lw	a5,0(s1)
 1257 0096 B697     		add	a5,a5,a3
 1258 0098 9CC0     		sw	a5,0(s1)
 346:lio_lcd.c     ****         	*pFPos += *pFDir;
 1259              		.loc 1 346 6 is_stmt 1
 346:lio_lcd.c     ****         	*pFPos += *pFDir;
 1260              		.loc 1 346 8 is_stmt 0
 1261 009a 635B2001 		ble	s2,zero,.L53
 347:lio_lcd.c     ****         	err -= (2*(*pLead));
 1262              		.loc 1 347 10 is_stmt 1
 347:lio_lcd.c     ****         	err -= (2*(*pLead));
 1263              		.loc 1 347 17 is_stmt 0
 1264 009e 83A70A00 		lw	a5,0(s5)
 1265 00a2 83A60900 		lw	a3,0(s3)
 348:lio_lcd.c     ****     	}
 1266              		.loc 1 348 14
 1267 00a6 33098940 		sub	s2,s2,s0
 1268              	.LVL113:
 347:lio_lcd.c     ****         	err -= (2*(*pLead));
 1269              		.loc 1 347 17
 1270 00aa B697     		add	a5,a5,a3
 1271 00ac 23A0FA00 		sw	a5,0(s5)
 348:lio_lcd.c     ****     	}
 1272              		.loc 1 348 10 is_stmt 1
 1273              	.LVL114:
 1274              	.L53:
 342:lio_lcd.c     ****     	lio_lcd_draw_pixel(x_pos, y_pos, color);
 1275              		.loc 1 342 37 is_stmt 0 discriminator 2
 1276 00b0 7D1A     		addi	s4,s4,-1
 1277              	.LVL115:
 342:lio_lcd.c     ****     	lio_lcd_draw_pixel(x_pos, y_pos, color);
 1278              		.loc 1 342 5 discriminator 2
 1279 00b2 E3100AFC 		bne	s4,zero,.L54
 1280              	.LBE5:
 352:lio_lcd.c     **** 
 1281              		.loc 1 352 1
 1282 00b6 F640     		lw	ra,92(sp)
 1283              		.cfi_remember_state
 1284              		.cfi_restore 1
 1285 00b8 6644     		lw	s0,88(sp)
 1286              		.cfi_restore 8
 1287 00ba D644     		lw	s1,84(sp)
 1288              		.cfi_restore 9
 1289              	.LVL116:
 1290 00bc 4649     		lw	s2,80(sp)
 1291              		.cfi_restore 18
 1292              	.LVL117:
 1293 00be B649     		lw	s3,76(sp)
 1294              		.cfi_restore 19
 1295              	.LVL118:
 1296 00c0 264A     		lw	s4,72(sp)
GAS LISTING C:\Users\Karzan\AppData\Local\Temp\ccyAl7yf.s 			page 38


 1297              		.cfi_restore 20
 1298              	.LVL119:
 1299 00c2 964A     		lw	s5,68(sp)
 1300              		.cfi_restore 21
 1301              	.LVL120:
 1302 00c4 064B     		lw	s6,64(sp)
 1303              		.cfi_restore 22
 1304              	.LVL121:
 1305 00c6 F25B     		lw	s7,60(sp)
 1306              		.cfi_restore 23
 1307              	.LVL122:
 1308 00c8 2561     		addi	sp,sp,96
 1309              	.LCFI29:
 1310              		.cfi_def_cfa_offset 0
 1311 00ca 8280     		jr	ra
 1312              	.LVL123:
 1313              	.L57:
 1314              	.LCFI30:
 1315              		.cfi_restore_state
 340:lio_lcd.c     ****     }
 1316              		.loc 1 340 15
 1317 00cc 930A0102 		addi	s5,sp,32
 337:lio_lcd.c     ****         pFol = &x_steps;
 1318              		.loc 1 337 15
 1319 00d0 4410     		addi	s1,sp,36
 336:lio_lcd.c     ****         pLPos = &y_pos;
 1320              		.loc 1 336 15
 1321 00d2 930BC102 		addi	s7,sp,44
 339:lio_lcd.c     ****         pFPos = &x_pos;
 1322              		.loc 1 339 15
 1323 00d6 93098102 		addi	s3,sp,40
 338:lio_lcd.c     ****         pFDir = &x_dir;
 1324              		.loc 1 338 14
 1325 00da 130B8101 		addi	s6,sp,24
 1326 00de 69B7     		j	.L52
 1327              		.cfi_endproc
 1328              	.LFE22:
 1330              		.section	.text.lio_lcd_set_area,"ax",@progbits
 1331              		.align	1
 1332              		.globl	lio_lcd_set_area
 1334              	lio_lcd_set_area:
 1335              	.LFB11:
 204:lio_lcd.c     **** 	lio_lcd_address_set(x1,x2,y1,y2);
 1336              		.loc 1 204 70 is_stmt 1
 1337              		.cfi_startproc
 1338              	.LVL124:
 205:lio_lcd.c     **** }
 1339              		.loc 1 205 2
 1340 0000 C206     		slli	a3,a3,16
 1341              	.LVL125:
 1342 0002 4206     		slli	a2,a2,16
 1343              	.LVL126:
 1344 0004 C205     		slli	a1,a1,16
 1345              	.LVL127:
 1346 0006 4205     		slli	a0,a0,16
 1347              	.LVL128:
 1348 0008 C182     		srli	a3,a3,16
GAS LISTING C:\Users\Karzan\AppData\Local\Temp\ccyAl7yf.s 			page 39


 1349 000a 4182     		srli	a2,a2,16
 1350 000c C181     		srli	a1,a1,16
 1351 000e 4181     		srli	a0,a0,16
 1352 0010 17030000 		tail	lio_lcd_address_set
 1352      67000300 
 1353              	.LVL129:
 1354              		.cfi_endproc
 1355              	.LFE11:
 1357              		.section	.text.lio_lcd_draw_bitmask,"ax",@progbits
 1358              		.align	1
 1359              		.globl	lio_lcd_draw_bitmask
 1361              	lio_lcd_draw_bitmask:
 1362              	.LFB14:
 239:lio_lcd.c     **** 	uint8_t mask = 0;
 1363              		.loc 1 239 116
 1364              		.cfi_startproc
 1365              	.LVL130:
 240:lio_lcd.c     **** 	lio_lcd_address_set(x1, x2, y1, y2);
 1366              		.loc 1 240 2
 241:lio_lcd.c     **** 	for(int i = (x2-x1+1)*(y2-y1+1); i >= 0;){
 1367              		.loc 1 241 2
 239:lio_lcd.c     **** 	uint8_t mask = 0;
 1368              		.loc 1 239 116 is_stmt 0
 1369 0000 0111     		addi	sp,sp,-32
 1370              	.LCFI31:
 1371              		.cfi_def_cfa_offset 32
 1372 0002 22CC     		sw	s0,24(sp)
 1373 0004 26CA     		sw	s1,20(sp)
 1374 0006 4AC8     		sw	s2,16(sp)
 1375              		.cfi_offset 8, -8
 1376              		.cfi_offset 9, -12
 1377              		.cfi_offset 18, -16
 1378 0008 AE84     		mv	s1,a1
 1379 000a 56C2     		sw	s5,4(sp)
 1380 000c 2A84     		mv	s0,a0
 1381              		.cfi_offset 21, -28
 1382 000e B28A     		mv	s5,a2
 1383 0010 3689     		mv	s2,a3
 1384              	.LBB6:
 242:lio_lcd.c     **** 		mask = *p_bitmask;
 1385              		.loc 1 242 17
 1386 0012 33848440 		sub	s0,s1,s0
 242:lio_lcd.c     **** 		mask = *p_bitmask;
 1387              		.loc 1 242 27
 1388 0016 33095941 		sub	s2,s2,s5
 242:lio_lcd.c     **** 		mask = *p_bitmask;
 1389              		.loc 1 242 20
 1390 001a 0504     		addi	s0,s0,1
 242:lio_lcd.c     **** 		mask = *p_bitmask;
 1391              		.loc 1 242 30
 1392 001c 0509     		addi	s2,s2,1
 242:lio_lcd.c     **** 		mask = *p_bitmask;
 1393              		.loc 1 242 10
 1394 001e 33042403 		mul	s0,s0,s2
 1395              	.LBE6:
 241:lio_lcd.c     **** 	for(int i = (x2-x1+1)*(y2-y1+1); i >= 0;){
 1396              		.loc 1 241 2
GAS LISTING C:\Users\Karzan\AppData\Local\Temp\ccyAl7yf.s 			page 40


 1397 0022 C206     		slli	a3,a3,16
 1398              	.LVL131:
 1399 0024 4206     		slli	a2,a2,16
 1400              	.LVL132:
 1401 0026 C205     		slli	a1,a1,16
 1402              	.LVL133:
 1403 0028 4205     		slli	a0,a0,16
 1404              	.LVL134:
 1405 002a C182     		srli	a3,a3,16
 1406 002c 4182     		srli	a2,a2,16
 1407 002e C181     		srli	a1,a1,16
 1408 0030 4181     		srli	a0,a0,16
 1409              	.LBB11:
 1410              	.LBB7:
 246:lio_lcd.c     **** 			mask = mask >> 1;
 1411              		.loc 1 246 11
 1412 0032 B7040000 		lui	s1,%hi(_config)
 1413              	.LBE7:
 1414              	.LBE11:
 239:lio_lcd.c     **** 	uint8_t mask = 0;
 1415              		.loc 1 239 116
 1416 0036 4EC6     		sw	s3,12(sp)
 1417 0038 52C4     		sw	s4,8(sp)
 1418 003a 06CE     		sw	ra,28(sp)
 1419              		.cfi_offset 19, -20
 1420              		.cfi_offset 20, -24
 1421              		.cfi_offset 1, -4
 239:lio_lcd.c     **** 	uint8_t mask = 0;
 1422              		.loc 1 239 116
 1423 003c BA89     		mv	s3,a4
 1424 003e 3E8A     		mv	s4,a5
 1425              	.LBB12:
 1426              	.LBB8:
 246:lio_lcd.c     **** 			mask = mask >> 1;
 1427              		.loc 1 246 11
 1428 0040 93840400 		addi	s1,s1,%lo(_config)
 1429              	.LBE8:
 1430              	.LBE12:
 241:lio_lcd.c     **** 	for(int i = (x2-x1+1)*(y2-y1+1); i >= 0;){
 1431              		.loc 1 241 2
 1432 0044 97000000 		call	lio_lcd_address_set
 1432      E7800000 
 1433              	.LVL135:
 242:lio_lcd.c     **** 		mask = *p_bitmask;
 1434              		.loc 1 242 2 is_stmt 1
 1435              	.LBB13:
 242:lio_lcd.c     **** 		mask = *p_bitmask;
 1436              		.loc 1 242 6
 1437              	.L63:
 242:lio_lcd.c     **** 		mask = *p_bitmask;
 1438              		.loc 1 242 2 is_stmt 0 discriminator 1
 1439 004c 635B0400 		bge	s0,zero,.L67
 1440              	.LBE13:
 251:lio_lcd.c     **** 
 1441              		.loc 1 251 1
 1442 0050 F240     		lw	ra,28(sp)
 1443              		.cfi_remember_state
GAS LISTING C:\Users\Karzan\AppData\Local\Temp\ccyAl7yf.s 			page 41


 1444              		.cfi_restore 1
 1445 0052 6244     		lw	s0,24(sp)
 1446              		.cfi_restore 8
 1447              	.LVL136:
 1448 0054 D244     		lw	s1,20(sp)
 1449              		.cfi_restore 9
 1450 0056 4249     		lw	s2,16(sp)
 1451              		.cfi_restore 18
 1452 0058 B249     		lw	s3,12(sp)
 1453              		.cfi_restore 19
 1454              	.LVL137:
 1455 005a 224A     		lw	s4,8(sp)
 1456              		.cfi_restore 20
 1457 005c 924A     		lw	s5,4(sp)
 1458              		.cfi_restore 21
 1459 005e 0561     		addi	sp,sp,32
 1460              	.LCFI32:
 1461              		.cfi_def_cfa_offset 0
 1462 0060 8280     		jr	ra
 1463              	.LVL138:
 1464              	.L67:
 1465              	.LCFI33:
 1466              		.cfi_restore_state
 1467              	.LBB14:
 243:lio_lcd.c     **** 		for(int j = 8; j > 0; j--, i--){
 1468              		.loc 1 243 3 is_stmt 1
 243:lio_lcd.c     **** 		for(int j = 8; j > 0; j--, i--){
 1469              		.loc 1 243 8 is_stmt 0
 1470 0062 83CA0900 		lbu	s5,0(s3)
 1471              	.LVL139:
 244:lio_lcd.c     **** 			if(mask & 0x01) lio_lcd_draw_next_pixel(color);
 1472              		.loc 1 244 3 is_stmt 1
 1473              	.LBB9:
 244:lio_lcd.c     **** 			if(mask & 0x01) lio_lcd_draw_next_pixel(color);
 1474              		.loc 1 244 7
 1475              	.LBE9:
 243:lio_lcd.c     **** 		for(int j = 8; j > 0; j--, i--){
 1476              		.loc 1 243 8 is_stmt 0
 1477 0066 2149     		li	s2,8
 1478              	.LVL140:
 1479              	.L66:
 1480              	.LBB10:
 245:lio_lcd.c     **** 			else			lio_lcd_draw_next_pixel(_config.background); //[FIXME] - Should be background
 1481              		.loc 1 245 4 is_stmt 1
 245:lio_lcd.c     **** 			else			lio_lcd_draw_next_pixel(_config.background); //[FIXME] - Should be background
 1482              		.loc 1 245 6 is_stmt 0
 1483 0068 93F71A00 		andi	a5,s5,1
 245:lio_lcd.c     **** 			else			lio_lcd_draw_next_pixel(_config.background); //[FIXME] - Should be background
 1484              		.loc 1 245 20
 1485 006c 5285     		mv	a0,s4
 245:lio_lcd.c     **** 			else			lio_lcd_draw_next_pixel(_config.background); //[FIXME] - Should be background
 1486              		.loc 1 245 6
 1487 006e 99E3     		bne	a5,zero,.L70
 246:lio_lcd.c     **** 			mask = mask >> 1;
 1488              		.loc 1 246 11 is_stmt 1
 1489 0070 03D5A400 		lhu	a0,10(s1)
 1490              	.L70:
GAS LISTING C:\Users\Karzan\AppData\Local\Temp\ccyAl7yf.s 			page 42


 1491 0074 7D19     		addi	s2,s2,-1
 1492              	.LVL141:
 1493 0076 97000000 		call	lio_lcd_draw_next_pixel
 1493      E7800000 
 1494              	.LVL142:
 247:lio_lcd.c     **** 		}
 1495              		.loc 1 247 4
 247:lio_lcd.c     **** 		}
 1496              		.loc 1 247 9 is_stmt 0
 1497 007e 93DA1A00 		srli	s5,s5,1
 1498              	.LVL143:
 244:lio_lcd.c     **** 			if(mask & 0x01) lio_lcd_draw_next_pixel(color);
 1499              		.loc 1 244 3
 1500 0082 E31309FE 		bne	s2,zero,.L66
 1501 0086 6114     		addi	s0,s0,-8
 1502              	.LBE10:
 249:lio_lcd.c     **** 	}
 1503              		.loc 1 249 3 is_stmt 1
 249:lio_lcd.c     **** 	}
 1504              		.loc 1 249 12 is_stmt 0
 1505 0088 8509     		addi	s3,s3,1
 1506              	.LVL144:
 1507 008a C9B7     		j	.L63
 1508              	.LBE14:
 1509              		.cfi_endproc
 1510              	.LFE14:
 1512              		.section	.text.lio_lcd_draw_char,"ax",@progbits
 1513              		.align	1
 1514              		.globl	lio_lcd_draw_char
 1516              	lio_lcd_draw_char:
 1517              	.LFB16:
 272:lio_lcd.c     **** 	if(c < 32) return;
 1518              		.loc 1 272 69 is_stmt 1
 1519              		.cfi_startproc
 1520              	.LVL145:
 273:lio_lcd.c     **** 	c = c - 32;
 1521              		.loc 1 273 2
 273:lio_lcd.c     **** 	c = c - 32;
 1522              		.loc 1 273 4 is_stmt 0
 1523 0000 7D47     		li	a4,31
 272:lio_lcd.c     **** 	if(c < 32) return;
 1524              		.loc 1 272 69
 1525 0002 B687     		mv	a5,a3
 273:lio_lcd.c     **** 	c = c - 32;
 1526              		.loc 1 273 4
 1527 0004 6379C702 		bleu	a2,a4,.L71
 1528              	.LVL146:
 1529              	.LBB17:
 1530              	.LBB18:
 274:lio_lcd.c     **** 	lio_lcd_draw_bitmask(x, x + 7, y, y + 15, (uint8_t*)&font_1608[c][0], color);
 1531              		.loc 1 274 2 is_stmt 1
 275:lio_lcd.c     **** }
 1532              		.loc 1 275 2
 274:lio_lcd.c     **** 	lio_lcd_draw_bitmask(x, x + 7, y, y + 15, (uint8_t*)&font_1608[c][0], color);
 1533              		.loc 1 274 4 is_stmt 0
 1534 0008 0116     		addi	a2,a2,-32
 1535              	.LVL147:
GAS LISTING C:\Users\Karzan\AppData\Local\Temp\ccyAl7yf.s 			page 43


 275:lio_lcd.c     **** }
 1536              		.loc 1 275 54
 1537 000a 1376F60F 		andi	a2,a2,0xff
 275:lio_lcd.c     **** }
 1538              		.loc 1 275 2
 1539 000e 37070000 		lui	a4,%hi(.LANCHOR0)
 275:lio_lcd.c     **** }
 1540              		.loc 1 275 54
 1541 0012 1206     		slli	a2,a2,4
 275:lio_lcd.c     **** }
 1542              		.loc 1 275 38
 1543 0014 9386F500 		addi	a3,a1,15
 1544              	.LVL148:
 275:lio_lcd.c     **** }
 1545              		.loc 1 275 28
 1546 0018 13087500 		addi	a6,a0,7
 275:lio_lcd.c     **** }
 1547              		.loc 1 275 2
 1548 001c 13070700 		addi	a4,a4,%lo(.LANCHOR0)
 1549 0020 3297     		add	a4,a4,a2
 1550 0022 C206     		slli	a3,a3,16
 1551 0024 2E86     		mv	a2,a1
 1552 0026 93150801 		slli	a1,a6,16
 1553              	.LVL149:
 1554 002a C186     		srai	a3,a3,16
 1555 002c C185     		srai	a1,a1,16
 1556 002e 17030000 		tail	lio_lcd_draw_bitmask
 1556      67000300 
 1557              	.LVL150:
 1558              	.L71:
 1559              	.LBE18:
 1560              	.LBE17:
 276:lio_lcd.c     **** 
 1561              		.loc 1 276 1
 1562 0036 8280     		ret
 1563              		.cfi_endproc
 1564              	.LFE16:
 1566              		.section	.text.lio_lcd_draw_string,"ax",@progbits
 1567              		.align	1
 1568              		.globl	lio_lcd_draw_string
 1570              	lio_lcd_draw_string:
 1571              	.LFB19:
 295:lio_lcd.c     **** 	for(; *str != '\0'; str++, x += 8){
 1572              		.loc 1 295 80 is_stmt 1
 1573              		.cfi_startproc
 1574              	.LVL151:
 296:lio_lcd.c     **** 		if(x > _config.width - 8){
 1575              		.loc 1 296 2
 295:lio_lcd.c     **** 	for(; *str != '\0'; str++, x += 8){
 1576              		.loc 1 295 80 is_stmt 0
 1577 0000 0111     		addi	sp,sp,-32
 1578              	.LCFI34:
 1579              		.cfi_def_cfa_offset 32
 1580 0002 4EC6     		sw	s3,12(sp)
 1581              		.cfi_offset 19, -20
 297:lio_lcd.c     **** 			x = 0;
 1582              		.loc 1 297 17
GAS LISTING C:\Users\Karzan\AppData\Local\Temp\ccyAl7yf.s 			page 44


 1583 0004 B7090000 		lui	s3,%hi(_config)
 295:lio_lcd.c     **** 	for(; *str != '\0'; str++, x += 8){
 1584              		.loc 1 295 80
 1585 0008 22CC     		sw	s0,24(sp)
 1586 000a 26CA     		sw	s1,20(sp)
 1587 000c 4AC8     		sw	s2,16(sp)
 1588 000e 52C4     		sw	s4,8(sp)
 1589 0010 06CE     		sw	ra,28(sp)
 1590              		.cfi_offset 8, -8
 1591              		.cfi_offset 9, -12
 1592              		.cfi_offset 18, -16
 1593              		.cfi_offset 20, -24
 1594              		.cfi_offset 1, -4
 295:lio_lcd.c     **** 	for(; *str != '\0'; str++, x += 8){
 1595              		.loc 1 295 80
 1596 0012 2A84     		mv	s0,a0
 1597 0014 AE84     		mv	s1,a1
 1598 0016 3289     		mv	s2,a2
 1599 0018 368A     		mv	s4,a3
 297:lio_lcd.c     **** 			x = 0;
 1600              		.loc 1 297 17
 1601 001a 93890900 		addi	s3,s3,%lo(_config)
 1602              	.LVL152:
 1603              	.L74:
 296:lio_lcd.c     **** 		if(x > _config.width - 8){
 1604              		.loc 1 296 8 discriminator 1
 1605 001e 03460900 		lbu	a2,0(s2)
 296:lio_lcd.c     **** 		if(x > _config.width - 8){
 1606              		.loc 1 296 2 discriminator 1
 1607 0022 09EA     		bne	a2,zero,.L76
 303:lio_lcd.c     **** 
 1608              		.loc 1 303 1
 1609 0024 F240     		lw	ra,28(sp)
 1610              		.cfi_remember_state
 1611              		.cfi_restore 1
 1612 0026 6244     		lw	s0,24(sp)
 1613              		.cfi_restore 8
 1614              	.LVL153:
 1615 0028 D244     		lw	s1,20(sp)
 1616              		.cfi_restore 9
 1617              	.LVL154:
 1618 002a 4249     		lw	s2,16(sp)
 1619              		.cfi_restore 18
 1620              	.LVL155:
 1621 002c B249     		lw	s3,12(sp)
 1622              		.cfi_restore 19
 1623 002e 224A     		lw	s4,8(sp)
 1624              		.cfi_restore 20
 1625 0030 0561     		addi	sp,sp,32
 1626              	.LCFI35:
 1627              		.cfi_def_cfa_offset 0
 1628 0032 8280     		jr	ra
 1629              	.LVL156:
 1630              	.L76:
 1631              	.LCFI36:
 1632              		.cfi_restore_state
 297:lio_lcd.c     **** 			x = 0;
GAS LISTING C:\Users\Karzan\AppData\Local\Temp\ccyAl7yf.s 			page 45


 1633              		.loc 1 297 3 is_stmt 1
 297:lio_lcd.c     **** 			x = 0;
 1634              		.loc 1 297 17 is_stmt 0
 1635 0034 83D72900 		lhu	a5,2(s3)
 297:lio_lcd.c     **** 			x = 0;
 1636              		.loc 1 297 8
 1637 0038 E517     		addi	a5,a5,-7
 297:lio_lcd.c     **** 			x = 0;
 1638              		.loc 1 297 5
 1639 003a 6346F400 		bgt	a5,s0,.L75
 298:lio_lcd.c     **** 			y += 16;
 1640              		.loc 1 298 4 is_stmt 1
 1641              	.LVL157:
 299:lio_lcd.c     **** 		}
 1642              		.loc 1 299 4
 299:lio_lcd.c     **** 		}
 1643              		.loc 1 299 6 is_stmt 0
 1644 003e C104     		addi	s1,s1,16
 1645              	.LVL158:
 1646 0040 C204     		slli	s1,s1,16
 1647 0042 C184     		srai	s1,s1,16
 1648              	.LVL159:
 298:lio_lcd.c     **** 			y += 16;
 1649              		.loc 1 298 6
 1650 0044 0144     		li	s0,0
 1651              	.LVL160:
 1652              	.L75:
 301:lio_lcd.c     **** 	}
 1653              		.loc 1 301 3 is_stmt 1
 1654 0046 2285     		mv	a0,s0
 296:lio_lcd.c     **** 		if(x > _config.width - 8){
 1655              		.loc 1 296 31 is_stmt 0
 1656 0048 2104     		addi	s0,s0,8
 1657              	.LVL161:
 301:lio_lcd.c     **** 	}
 1658              		.loc 1 301 3
 1659 004a D286     		mv	a3,s4
 1660 004c A685     		mv	a1,s1
 296:lio_lcd.c     **** 		if(x > _config.width - 8){
 1661              		.loc 1 296 31
 1662 004e 4204     		slli	s0,s0,16
 301:lio_lcd.c     **** 	}
 1663              		.loc 1 301 3
 1664 0050 97000000 		call	lio_lcd_draw_char
 1664      E7800000 
 1665              	.LVL162:
 296:lio_lcd.c     **** 		if(x > _config.width - 8){
 1666              		.loc 1 296 25
 1667 0058 0509     		addi	s2,s2,1
 1668              	.LVL163:
 296:lio_lcd.c     **** 		if(x > _config.width - 8){
 1669              		.loc 1 296 31
 1670 005a 4184     		srai	s0,s0,16
 1671              	.LVL164:
 1672 005c C9B7     		j	.L74
 1673              		.cfi_endproc
 1674              	.LFE19:
GAS LISTING C:\Users\Karzan\AppData\Local\Temp\ccyAl7yf.s 			page 46


 1676              		.section	.text.lio_lcd_draw_num,"ax",@progbits
 1677              		.align	1
 1678              		.globl	lio_lcd_draw_num
 1680              	lio_lcd_draw_num:
 1681              	.LFB20:
 305:lio_lcd.c     **** 	char string_buffer[32];
 1682              		.loc 1 305 83 is_stmt 1
 1683              		.cfi_startproc
 1684              	.LVL165:
 306:lio_lcd.c     **** 	itoa(num, string_buffer, base);
 1685              		.loc 1 306 2
 307:lio_lcd.c     **** 	lio_lcd_draw_string(x, y, string_buffer, color);
 1686              		.loc 1 307 2
 305:lio_lcd.c     **** 	char string_buffer[32];
 1687              		.loc 1 305 83 is_stmt 0
 1688 0000 3971     		addi	sp,sp,-64
 1689              	.LCFI37:
 1690              		.cfi_def_cfa_offset 64
 1691 0002 22DC     		sw	s0,56(sp)
 1692 0004 26DA     		sw	s1,52(sp)
 1693              		.cfi_offset 8, -8
 1694              		.cfi_offset 9, -12
 1695 0006 2A84     		mv	s0,a0
 1696 0008 AE84     		mv	s1,a1
 1697 000a 3285     		mv	a0,a2
 1698              	.LVL166:
 307:lio_lcd.c     **** 	lio_lcd_draw_string(x, y, string_buffer, color);
 1699              		.loc 1 307 2
 1700 000c 0C08     		addi	a1,sp,16
 1701              	.LVL167:
 1702 000e 3686     		mv	a2,a3
 1703              	.LVL168:
 305:lio_lcd.c     **** 	char string_buffer[32];
 1704              		.loc 1 305 83
 1705 0010 06DE     		sw	ra,60(sp)
 1706              		.cfi_offset 1, -4
 305:lio_lcd.c     **** 	char string_buffer[32];
 1707              		.loc 1 305 83
 1708 0012 3AC6     		sw	a4,12(sp)
 307:lio_lcd.c     **** 	lio_lcd_draw_string(x, y, string_buffer, color);
 1709              		.loc 1 307 2
 1710 0014 97000000 		call	itoa
 1710      E7800000 
 1711              	.LVL169:
 308:lio_lcd.c     **** }
 1712              		.loc 1 308 2 is_stmt 1
 1713 001c 3247     		lw	a4,12(sp)
 1714 001e 1008     		addi	a2,sp,16
 1715 0020 A685     		mv	a1,s1
 1716 0022 2285     		mv	a0,s0
 1717 0024 BA86     		mv	a3,a4
 1718 0026 97000000 		call	lio_lcd_draw_string
 1718      E7800000 
 1719              	.LVL170:
 309:lio_lcd.c     **** 
 1720              		.loc 1 309 1 is_stmt 0
 1721 002e F250     		lw	ra,60(sp)
GAS LISTING C:\Users\Karzan\AppData\Local\Temp\ccyAl7yf.s 			page 47


 1722              		.cfi_restore 1
 1723 0030 6254     		lw	s0,56(sp)
 1724              		.cfi_restore 8
 1725 0032 D254     		lw	s1,52(sp)
 1726              		.cfi_restore 9
 1727 0034 2161     		addi	sp,sp,64
 1728              	.LCFI38:
 1729              		.cfi_def_cfa_offset 0
 1730 0036 8280     		jr	ra
 1731              		.cfi_endproc
 1732              	.LFE20:
 1734              		.section	.text.lio_lcd_printf,"ax",@progbits
 1735              		.align	1
 1736              		.globl	lio_lcd_printf
 1738              	lio_lcd_printf:
 1739              	.LFB23:
 356:lio_lcd.c     **** 	char buffer[LCD_PRINT_BUFFER_SIZE] = {'\0'};
 1740              		.loc 1 356 77 is_stmt 1
 1741              		.cfi_startproc
 1742              	.LVL171:
 357:lio_lcd.c     **** 	va_list aptr;
 1743              		.loc 1 357 2
 356:lio_lcd.c     **** 	char buffer[LCD_PRINT_BUFFER_SIZE] = {'\0'};
 1744              		.loc 1 356 77 is_stmt 0
 1745 0000 2971     		addi	sp,sp,-320
 1746              	.LCFI39:
 1747              		.cfi_def_cfa_offset 320
 1748 0002 23248112 		sw	s0,296(sp)
 1749 0006 23229112 		sw	s1,292(sp)
 1750 000a 23202113 		sw	s2,288(sp)
 1751              		.cfi_offset 8, -24
 1752              		.cfi_offset 9, -28
 1753              		.cfi_offset 18, -32
 1754 000e 2A84     		mv	s0,a0
 1755 0010 AE84     		mv	s1,a1
 1756 0012 3289     		mv	s2,a2
 357:lio_lcd.c     **** 	va_list aptr;
 1757              		.loc 1 357 7
 1758 0014 8145     		li	a1,0
 1759              	.LVL172:
 1760 0016 13060010 		li	a2,256
 1761              	.LVL173:
 1762 001a 0808     		addi	a0,sp,16
 1763              	.LVL174:
 356:lio_lcd.c     **** 	char buffer[LCD_PRINT_BUFFER_SIZE] = {'\0'};
 1764              		.loc 1 356 77
 1765 001c 23261112 		sw	ra,300(sp)
 1766 0020 232E3111 		sw	s3,284(sp)
 1767              		.cfi_offset 1, -20
 1768              		.cfi_offset 19, -36
 356:lio_lcd.c     **** 	char buffer[LCD_PRINT_BUFFER_SIZE] = {'\0'};
 1769              		.loc 1 356 77
 1770 0024 2328E112 		sw	a4,304(sp)
 1771 0028 B689     		mv	s3,a3
 1772 002a 232AF112 		sw	a5,308(sp)
 1773 002e 232C0113 		sw	a6,312(sp)
 1774 0032 232E1113 		sw	a7,316(sp)
GAS LISTING C:\Users\Karzan\AppData\Local\Temp\ccyAl7yf.s 			page 48


 357:lio_lcd.c     **** 	va_list aptr;
 1775              		.loc 1 357 7
 1776 0036 97000000 		call	memset
 1776      E7800000 
 1777              	.LVL175:
 358:lio_lcd.c     **** 	va_start(aptr, format);
 1778              		.loc 1 358 2 is_stmt 1
 359:lio_lcd.c     ****    	vsnprintf(buffer, LCD_PRINT_BUFFER_SIZE, format, aptr);
 1779              		.loc 1 359 2
 1780 003e 141A     		addi	a3,sp,304
 360:lio_lcd.c     ****    	va_end(aptr);
 1781              		.loc 1 360 5 is_stmt 0
 1782 0040 4E86     		mv	a2,s3
 1783 0042 93050010 		li	a1,256
 1784 0046 0808     		addi	a0,sp,16
 359:lio_lcd.c     ****    	vsnprintf(buffer, LCD_PRINT_BUFFER_SIZE, format, aptr);
 1785              		.loc 1 359 2
 1786 0048 36C6     		sw	a3,12(sp)
 360:lio_lcd.c     ****    	va_end(aptr);
 1787              		.loc 1 360 5 is_stmt 1
 1788 004a 97000000 		call	vsnprintf
 1788      E7800000 
 1789              	.LVL176:
 361:lio_lcd.c     ****    	lio_lcd_draw_string(x, y, buffer, color);
 1790              		.loc 1 361 5
 362:lio_lcd.c     **** }
 1791              		.loc 1 362 5
 1792 0052 CA86     		mv	a3,s2
 1793 0054 1008     		addi	a2,sp,16
 1794 0056 A685     		mv	a1,s1
 1795 0058 2285     		mv	a0,s0
 1796 005a 97000000 		call	lio_lcd_draw_string
 1796      E7800000 
 1797              	.LVL177:
 363:lio_lcd.c     **** 
 1798              		.loc 1 363 1 is_stmt 0
 1799 0062 8320C112 		lw	ra,300(sp)
 1800              		.cfi_restore 1
 1801 0066 03248112 		lw	s0,296(sp)
 1802              		.cfi_restore 8
 1803 006a 83244112 		lw	s1,292(sp)
 1804              		.cfi_restore 9
 1805 006e 03290112 		lw	s2,288(sp)
 1806              		.cfi_restore 18
 1807 0072 8329C111 		lw	s3,284(sp)
 1808              		.cfi_restore 19
 1809              	.LVL178:
 1810 0076 3161     		addi	sp,sp,320
 1811              	.LCFI40:
 1812              		.cfi_def_cfa_offset 0
 1813 0078 8280     		jr	ra
 1814              		.cfi_endproc
 1815              	.LFE23:
 1817              		.section	.text.lio_lcd_draw_bitmask_scaled,"ax",@progbits
 1818              		.align	1
 1819              		.globl	lio_lcd_draw_bitmask_scaled
 1821              	lio_lcd_draw_bitmask_scaled:
GAS LISTING C:\Users\Karzan\AppData\Local\Temp\ccyAl7yf.s 			page 49


 1822              	.LFB15:
 254:lio_lcd.c     **** 	uint8_t mask = 0;
 1823              		.loc 1 254 139 is_stmt 1
 1824              		.cfi_startproc
 1825              	.LVL179:
 255:lio_lcd.c     **** 	uint8_t toggle = 0;
 1826              		.loc 1 255 2
 256:lio_lcd.c     **** 	if(scale < 1) scale = 1;
 1827              		.loc 1 256 2
 257:lio_lcd.c     **** 	lio_lcd_address_set(x1, x2, y1, y2);
 1828              		.loc 1 257 2
 254:lio_lcd.c     **** 	uint8_t mask = 0;
 1829              		.loc 1 254 139 is_stmt 0
 1830 0000 7971     		addi	sp,sp,-48
 1831              	.LCFI41:
 1832              		.cfi_def_cfa_offset 48
 1833 0002 22D4     		sw	s0,40(sp)
 1834 0004 26D2     		sw	s1,36(sp)
 1835 0006 4AD0     		sw	s2,32(sp)
 1836 0008 4ECE     		sw	s3,28(sp)
 1837 000a 52CC     		sw	s4,24(sp)
 1838 000c 56CA     		sw	s5,20(sp)
 1839 000e 5AC8     		sw	s6,16(sp)
 1840 0010 06D6     		sw	ra,44(sp)
 1841 0012 5EC6     		sw	s7,12(sp)
 1842 0014 62C4     		sw	s8,8(sp)
 1843              		.cfi_offset 8, -8
 1844              		.cfi_offset 9, -12
 1845              		.cfi_offset 18, -16
 1846              		.cfi_offset 19, -20
 1847              		.cfi_offset 20, -24
 1848              		.cfi_offset 21, -28
 1849              		.cfi_offset 22, -32
 1850              		.cfi_offset 1, -4
 1851              		.cfi_offset 23, -36
 1852              		.cfi_offset 24, -40
 254:lio_lcd.c     **** 	uint8_t mask = 0;
 1853              		.loc 1 254 139
 1854 0016 2A8B     		mv	s6,a0
 1855 0018 2E84     		mv	s0,a1
 1856 001a B28A     		mv	s5,a2
 1857 001c 3689     		mv	s2,a3
 1858 001e 3E8A     		mv	s4,a5
 1859 0020 C289     		mv	s3,a6
 257:lio_lcd.c     **** 	lio_lcd_address_set(x1, x2, y1, y2);
 1860              		.loc 1 257 22
 1861 0022 8544     		li	s1,1
 257:lio_lcd.c     **** 	lio_lcd_address_set(x1, x2, y1, y2);
 1862              		.loc 1 257 4
 1863 0024 11C3     		beq	a4,zero,.L83
 1864 0026 BA84     		mv	s1,a4
 1865              	.L83:
 1866              	.LVL180:
 258:lio_lcd.c     **** 	for(int i = (x2-x1+1)*(y2-y1+1)/scale; i >= 0;){
 1867              		.loc 1 258 2 is_stmt 1
 1868 0028 93160901 		slli	a3,s2,16
 1869              	.LVL181:
GAS LISTING C:\Users\Karzan\AppData\Local\Temp\ccyAl7yf.s 			page 50


 1870 002c 93150401 		slli	a1,s0,16
 1871              	.LVL182:
 1872              	.LBB19:
 259:lio_lcd.c     **** 		mask = *p_bitmask;
 1873              		.loc 1 259 27 is_stmt 0
 1874 0030 33095941 		sub	s2,s2,s5
 259:lio_lcd.c     **** 		mask = *p_bitmask;
 1875              		.loc 1 259 17
 1876 0034 33046441 		sub	s0,s0,s6
 259:lio_lcd.c     **** 		mask = *p_bitmask;
 1877              		.loc 1 259 30
 1878 0038 0509     		addi	s2,s2,1
 259:lio_lcd.c     **** 		mask = *p_bitmask;
 1879              		.loc 1 259 20
 1880 003a 0504     		addi	s0,s0,1
 259:lio_lcd.c     **** 		mask = *p_bitmask;
 1881              		.loc 1 259 23
 1882 003c 33042403 		mul	s0,s0,s2
 1883              	.LBE19:
 258:lio_lcd.c     **** 	for(int i = (x2-x1+1)*(y2-y1+1)/scale; i >= 0;){
 1884              		.loc 1 258 2
 1885 0040 13960A01 		slli	a2,s5,16
 1886              	.LVL183:
 1887 0044 13150B01 		slli	a0,s6,16
 1888              	.LVL184:
 1889 0048 C182     		srli	a3,a3,16
 1890 004a 4182     		srli	a2,a2,16
 1891 004c C181     		srli	a1,a1,16
 1892 004e 4181     		srli	a0,a0,16
 1893 0050 97000000 		call	lio_lcd_address_set
 1893      E7800000 
 1894              	.LVL185:
 259:lio_lcd.c     **** 		mask = *p_bitmask;
 1895              		.loc 1 259 2 is_stmt 1
 1896              	.LBB24:
 259:lio_lcd.c     **** 		mask = *p_bitmask;
 1897              		.loc 1 259 6
 1898              	.LBB20:
 263:lio_lcd.c     **** 			mask = mask >> 1;
 1899              		.loc 1 263 11 is_stmt 0
 1900 0058 B70A0000 		lui	s5,%hi(_config)
 1901              	.LBE20:
 1902              	.LBE24:
 256:lio_lcd.c     **** 	if(scale < 1) scale = 1;
 1903              		.loc 1 256 10
 1904 005c 0149     		li	s2,0
 1905              	.LBB25:
 259:lio_lcd.c     **** 		mask = *p_bitmask;
 1906              		.loc 1 259 10
 1907 005e 33449402 		div	s0,s0,s1
 1908              	.LVL186:
 1909              	.LBB21:
 263:lio_lcd.c     **** 			mask = mask >> 1;
 1910              		.loc 1 263 11
 1911 0062 938A0A00 		addi	s5,s5,%lo(_config)
 1912              	.LBE21:
 266:lio_lcd.c     **** 		toggle++;
GAS LISTING C:\Users\Karzan\AppData\Local\Temp\ccyAl7yf.s 			page 51


 1913              		.loc 1 266 32
 1914 0066 938BF4FF 		addi	s7,s1,-1
 1915              	.LVL187:
 1916              	.L84:
 259:lio_lcd.c     **** 		mask = *p_bitmask;
 1917              		.loc 1 259 2 discriminator 1
 1918 006a 635E0400 		bge	s0,zero,.L88
 1919              	.LBE25:
 270:lio_lcd.c     **** 
 1920              		.loc 1 270 1
 1921 006e B250     		lw	ra,44(sp)
 1922              		.cfi_remember_state
 1923              		.cfi_restore 1
 1924 0070 2254     		lw	s0,40(sp)
 1925              		.cfi_restore 8
 1926              	.LVL188:
 1927 0072 9254     		lw	s1,36(sp)
 1928              		.cfi_restore 9
 1929              	.LVL189:
 1930 0074 0259     		lw	s2,32(sp)
 1931              		.cfi_restore 18
 1932              	.LVL190:
 1933 0076 F249     		lw	s3,28(sp)
 1934              		.cfi_restore 19
 1935 0078 624A     		lw	s4,24(sp)
 1936              		.cfi_restore 20
 1937              	.LVL191:
 1938 007a D24A     		lw	s5,20(sp)
 1939              		.cfi_restore 21
 1940 007c 424B     		lw	s6,16(sp)
 1941              		.cfi_restore 22
 1942 007e B24B     		lw	s7,12(sp)
 1943              		.cfi_restore 23
 1944 0080 224C     		lw	s8,8(sp)
 1945              		.cfi_restore 24
 1946 0082 4561     		addi	sp,sp,48
 1947              	.LCFI42:
 1948              		.cfi_def_cfa_offset 0
 1949 0084 8280     		jr	ra
 1950              	.LVL192:
 1951              	.L88:
 1952              	.LCFI43:
 1953              		.cfi_restore_state
 1954              	.LBB26:
 260:lio_lcd.c     **** 		for(int j = 8; j > 0; j--, i--){
 1955              		.loc 1 260 3 is_stmt 1
 260:lio_lcd.c     **** 		for(int j = 8; j > 0; j--, i--){
 1956              		.loc 1 260 8 is_stmt 0
 1957 0086 034C0A00 		lbu	s8,0(s4)
 1958              	.LVL193:
 261:lio_lcd.c     **** 			if(mask & 0x01) lcd_write_color(scale,color);
 1959              		.loc 1 261 3 is_stmt 1
 1960              	.LBB22:
 261:lio_lcd.c     **** 			if(mask & 0x01) lcd_write_color(scale,color);
 1961              		.loc 1 261 7
 1962              	.LBE22:
 260:lio_lcd.c     **** 		for(int j = 8; j > 0; j--, i--){
GAS LISTING C:\Users\Karzan\AppData\Local\Temp\ccyAl7yf.s 			page 52


 1963              		.loc 1 260 8 is_stmt 0
 1964 008a 214B     		li	s6,8
 1965              	.LVL194:
 1966              	.L87:
 1967              	.LBB23:
 262:lio_lcd.c     **** 			else			lcd_write_color(scale,_config.background); //[FIXME] - Should be background
 1968              		.loc 1 262 4 is_stmt 1
 262:lio_lcd.c     **** 			else			lcd_write_color(scale,_config.background); //[FIXME] - Should be background
 1969              		.loc 1 262 6 is_stmt 0
 1970 008c 93771C00 		andi	a5,s8,1
 262:lio_lcd.c     **** 			else			lcd_write_color(scale,_config.background); //[FIXME] - Should be background
 1971              		.loc 1 262 20
 1972 0090 CE85     		mv	a1,s3
 262:lio_lcd.c     **** 			else			lcd_write_color(scale,_config.background); //[FIXME] - Should be background
 1973              		.loc 1 262 6
 1974 0092 99E3     		bne	a5,zero,.L92
 263:lio_lcd.c     **** 			mask = mask >> 1;
 1975              		.loc 1 263 11 is_stmt 1
 1976 0094 83D5AA00 		lhu	a1,10(s5)
 1977              	.L92:
 1978 0098 2685     		mv	a0,s1
 1979 009a 7D1B     		addi	s6,s6,-1
 1980              	.LVL195:
 1981 009c 97000000 		call	lcd_write_color
 1981      E7800000 
 1982              	.LVL196:
 264:lio_lcd.c     **** 		}
 1983              		.loc 1 264 4
 264:lio_lcd.c     **** 		}
 1984              		.loc 1 264 9 is_stmt 0
 1985 00a4 135C1C00 		srli	s8,s8,1
 1986              	.LVL197:
 261:lio_lcd.c     **** 			if(mask & 0x01) lcd_write_color(scale,color);
 1987              		.loc 1 261 3
 1988 00a8 E3120BFE 		bne	s6,zero,.L87
 1989              	.LBE23:
 266:lio_lcd.c     **** 		toggle++;
 1990              		.loc 1 266 39
 1991 00ac B3872B41 		sub	a5,s7,s2
 267:lio_lcd.c     **** 		toggle %= scale;
 1992              		.loc 1 267 9
 1993 00b0 0509     		addi	s2,s2,1
 1994              	.LVL198:
 266:lio_lcd.c     **** 		toggle++;
 1995              		.loc 1 266 39
 1996 00b2 93B71700 		seqz	a5,a5
 268:lio_lcd.c     **** 	}
 1997              		.loc 1 268 10
 1998 00b6 1379F90F 		andi	s2,s2,0xff
 1999 00ba 6114     		addi	s0,s0,-8
 266:lio_lcd.c     **** 		toggle++;
 2000              		.loc 1 266 3 is_stmt 1
 266:lio_lcd.c     **** 		toggle++;
 2001              		.loc 1 266 13 is_stmt 0
 2002 00bc 3E9A     		add	s4,s4,a5
 2003              	.LVL199:
 267:lio_lcd.c     **** 		toggle %= scale;
GAS LISTING C:\Users\Karzan\AppData\Local\Temp\ccyAl7yf.s 			page 53


 2004              		.loc 1 267 3 is_stmt 1
 268:lio_lcd.c     **** 	}
 2005              		.loc 1 268 3
 268:lio_lcd.c     **** 	}
 2006              		.loc 1 268 10 is_stmt 0
 2007 00be 33699902 		rem	s2,s2,s1
 2008              	.LVL200:
 2009 00c2 65B7     		j	.L84
 2010              	.LBE26:
 2011              		.cfi_endproc
 2012              	.LFE15:
 2014              		.section	.text.lio_lcd_draw_char_scaled,"ax",@progbits
 2015              		.align	1
 2016              		.globl	lio_lcd_draw_char_scaled
 2018              	lio_lcd_draw_char_scaled:
 2019              	.LFB17:
 278:lio_lcd.c     **** 	if(c < 32) return;
 2020              		.loc 1 278 92 is_stmt 1
 2021              		.cfi_startproc
 2022              	.LVL201:
 279:lio_lcd.c     **** 	if(scale == 0) scale = 1;
 2023              		.loc 1 279 2
 279:lio_lcd.c     **** 	if(scale == 0) scale = 1;
 2024              		.loc 1 279 4 is_stmt 0
 2025 0000 FD47     		li	a5,31
 2026 0002 63F4C704 		bleu	a2,a5,.L93
 2027              	.LVL202:
 2028              	.LBB29:
 2029              	.LBB30:
 280:lio_lcd.c     **** 	c = c - 32;
 2030              		.loc 1 280 2 is_stmt 1
 280:lio_lcd.c     **** 	c = c - 32;
 2031              		.loc 1 280 4 is_stmt 0
 2032 0006 91E2     		bne	a3,zero,.L95
 280:lio_lcd.c     **** 	c = c - 32;
 2033              		.loc 1 280 23
 2034 0008 8546     		li	a3,1
 2035              	.LVL203:
 2036              	.L95:
 281:lio_lcd.c     **** 	lio_lcd_draw_bitmask_scaled(x, x + (8 * scale) - 1, y, y + (16*scale) -1, scale, (uint8_t*)&font_1
 2037              		.loc 1 281 2 is_stmt 1
 282:lio_lcd.c     **** }
 2038              		.loc 1 282 2
 282:lio_lcd.c     **** }
 2039              		.loc 1 282 72 is_stmt 0
 2040 000a 9387F5FF 		addi	a5,a1,-1
 282:lio_lcd.c     **** }
 2041              		.loc 1 282 59
 2042 000e 13934600 		slli	t1,a3,4
 282:lio_lcd.c     **** }
 2043              		.loc 1 282 72
 2044 0012 3E93     		add	t1,t1,a5
 282:lio_lcd.c     **** }
 2045              		.loc 1 282 35
 2046 0014 93983600 		slli	a7,a3,3
 282:lio_lcd.c     **** }
 2047              		.loc 1 282 49
GAS LISTING C:\Users\Karzan\AppData\Local\Temp\ccyAl7yf.s 			page 54


 2048 0018 9307F5FF 		addi	a5,a0,-1
 281:lio_lcd.c     **** 	lio_lcd_draw_bitmask_scaled(x, x + (8 * scale) - 1, y, y + (16*scale) -1, scale, (uint8_t*)&font_1
 2049              		.loc 1 281 4
 2050 001c 0116     		addi	a2,a2,-32
 2051              	.LVL204:
 282:lio_lcd.c     **** }
 2052              		.loc 1 282 49
 2053 001e BE98     		add	a7,a7,a5
 282:lio_lcd.c     **** }
 2054              		.loc 1 282 93
 2055 0020 1376F60F 		andi	a2,a2,0xff
 282:lio_lcd.c     **** }
 2056              		.loc 1 282 2
 2057 0024 B7070000 		lui	a5,%hi(.LANCHOR0)
 282:lio_lcd.c     **** }
 2058              		.loc 1 282 93
 2059 0028 1206     		slli	a2,a2,4
 282:lio_lcd.c     **** }
 2060              		.loc 1 282 2
 2061 002a 93870700 		addi	a5,a5,%lo(.LANCHOR0)
 2062 002e 3A88     		mv	a6,a4
 2063 0030 B297     		add	a5,a5,a2
 2064 0032 3687     		mv	a4,a3
 2065              	.LVL205:
 2066 0034 2E86     		mv	a2,a1
 2067 0036 93160301 		slli	a3,t1,16
 2068              	.LVL206:
 2069 003a 93950801 		slli	a1,a7,16
 2070              	.LVL207:
 2071 003e C186     		srai	a3,a3,16
 2072 0040 C185     		srai	a1,a1,16
 2073 0042 17030000 		tail	lio_lcd_draw_bitmask_scaled
 2073      67000300 
 2074              	.LVL208:
 2075              	.L93:
 2076              	.LBE30:
 2077              	.LBE29:
 283:lio_lcd.c     **** 
 2078              		.loc 1 283 1
 2079 004a 8280     		ret
 2080              		.cfi_endproc
 2081              	.LFE17:
 2083              		.section	.text.lio_lcd_draw_string_scaled,"ax",@progbits
 2084              		.align	1
 2085              		.globl	lio_lcd_draw_string_scaled
 2087              	lio_lcd_draw_string_scaled:
 2088              	.LFB18:
 285:lio_lcd.c     **** 	for(; *str != '\0'; str++, x += 8 * scale){
 2089              		.loc 1 285 103 is_stmt 1
 2090              		.cfi_startproc
 2091              	.LVL209:
 286:lio_lcd.c     **** 		if(x > _config.width - 8*scale){
 2092              		.loc 1 286 2
 285:lio_lcd.c     **** 	for(; *str != '\0'; str++, x += 8 * scale){
 2093              		.loc 1 285 103 is_stmt 0
 2094 0000 7971     		addi	sp,sp,-48
 2095              	.LCFI44:
GAS LISTING C:\Users\Karzan\AppData\Local\Temp\ccyAl7yf.s 			page 55


 2096              		.cfi_def_cfa_offset 48
 2097 0002 4ECE     		sw	s3,28(sp)
 2098 0004 5AC8     		sw	s6,16(sp)
 2099              		.cfi_offset 19, -20
 2100              		.cfi_offset 22, -32
 289:lio_lcd.c     **** 		}
 2101              		.loc 1 289 6
 2102 0006 93194600 		slli	s3,a2,4
 287:lio_lcd.c     **** 			x = 0;
 2103              		.loc 1 287 27
 2104 000a 131B3600 		slli	s6,a2,3
 285:lio_lcd.c     **** 	for(; *str != '\0'; str++, x += 8 * scale){
 2105              		.loc 1 285 103
 2106 000e 56CA     		sw	s5,20(sp)
 2107 0010 5EC6     		sw	s7,12(sp)
 289:lio_lcd.c     **** 		}
 2108              		.loc 1 289 6
 2109 0012 C209     		slli	s3,s3,16
 2110              		.cfi_offset 21, -28
 2111              		.cfi_offset 23, -36
 286:lio_lcd.c     **** 		if(x > _config.width - 8*scale){
 2112              		.loc 1 286 31
 2113 0014 931B0B01 		slli	s7,s6,16
 287:lio_lcd.c     **** 			x = 0;
 2114              		.loc 1 287 17
 2115 0018 B70A0000 		lui	s5,%hi(_config)
 285:lio_lcd.c     **** 	for(; *str != '\0'; str++, x += 8 * scale){
 2116              		.loc 1 285 103
 2117 001c 22D4     		sw	s0,40(sp)
 2118 001e 26D2     		sw	s1,36(sp)
 2119 0020 4AD0     		sw	s2,32(sp)
 2120 0022 52CC     		sw	s4,24(sp)
 2121 0024 62C4     		sw	s8,8(sp)
 2122 0026 06D6     		sw	ra,44(sp)
 2123              		.cfi_offset 8, -8
 2124              		.cfi_offset 9, -12
 2125              		.cfi_offset 18, -16
 2126              		.cfi_offset 20, -24
 2127              		.cfi_offset 24, -40
 2128              		.cfi_offset 1, -4
 285:lio_lcd.c     **** 	for(; *str != '\0'; str++, x += 8 * scale){
 2129              		.loc 1 285 103
 2130 0028 2A84     		mv	s0,a0
 2131 002a AE84     		mv	s1,a1
 2132 002c 328A     		mv	s4,a2
 2133 002e 3689     		mv	s2,a3
 2134 0030 3A8C     		mv	s8,a4
 289:lio_lcd.c     **** 		}
 2135              		.loc 1 289 6
 2136 0032 93D90901 		srli	s3,s3,16
 286:lio_lcd.c     **** 		if(x > _config.width - 8*scale){
 2137              		.loc 1 286 31
 2138 0036 93DB0B01 		srli	s7,s7,16
 287:lio_lcd.c     **** 			x = 0;
 2139              		.loc 1 287 17
 2140 003a 938A0A00 		addi	s5,s5,%lo(_config)
 2141              	.LVL210:
GAS LISTING C:\Users\Karzan\AppData\Local\Temp\ccyAl7yf.s 			page 56


 2142              	.L97:
 286:lio_lcd.c     **** 		if(x > _config.width - 8*scale){
 2143              		.loc 1 286 8 discriminator 1
 2144 003e 03460900 		lbu	a2,0(s2)
 286:lio_lcd.c     **** 		if(x > _config.width - 8*scale){
 2145              		.loc 1 286 2 discriminator 1
 2146 0042 09EE     		bne	a2,zero,.L99
 293:lio_lcd.c     **** 
 2147              		.loc 1 293 1
 2148 0044 B250     		lw	ra,44(sp)
 2149              		.cfi_remember_state
 2150              		.cfi_restore 1
 2151 0046 2254     		lw	s0,40(sp)
 2152              		.cfi_restore 8
 2153              	.LVL211:
 2154 0048 9254     		lw	s1,36(sp)
 2155              		.cfi_restore 9
 2156              	.LVL212:
 2157 004a 0259     		lw	s2,32(sp)
 2158              		.cfi_restore 18
 2159              	.LVL213:
 2160 004c F249     		lw	s3,28(sp)
 2161              		.cfi_restore 19
 2162 004e 624A     		lw	s4,24(sp)
 2163              		.cfi_restore 20
 2164 0050 D24A     		lw	s5,20(sp)
 2165              		.cfi_restore 21
 2166 0052 424B     		lw	s6,16(sp)
 2167              		.cfi_restore 22
 2168 0054 B24B     		lw	s7,12(sp)
 2169              		.cfi_restore 23
 2170 0056 224C     		lw	s8,8(sp)
 2171              		.cfi_restore 24
 2172 0058 4561     		addi	sp,sp,48
 2173              	.LCFI45:
 2174              		.cfi_def_cfa_offset 0
 2175 005a 8280     		jr	ra
 2176              	.LVL214:
 2177              	.L99:
 2178              	.LCFI46:
 2179              		.cfi_restore_state
 287:lio_lcd.c     **** 			x = 0;
 2180              		.loc 1 287 3 is_stmt 1
 287:lio_lcd.c     **** 			x = 0;
 2181              		.loc 1 287 17 is_stmt 0
 2182 005c 83D72A00 		lhu	a5,2(s5)
 287:lio_lcd.c     **** 			x = 0;
 2183              		.loc 1 287 24
 2184 0060 B3876741 		sub	a5,a5,s6
 287:lio_lcd.c     **** 			x = 0;
 2185              		.loc 1 287 5
 2186 0064 63D68700 		ble	s0,a5,.L98
 288:lio_lcd.c     **** 			y += 16*scale;
 2187              		.loc 1 288 4 is_stmt 1
 2188              	.LVL215:
 289:lio_lcd.c     **** 		}
 2189              		.loc 1 289 4
GAS LISTING C:\Users\Karzan\AppData\Local\Temp\ccyAl7yf.s 			page 57


 289:lio_lcd.c     **** 		}
 2190              		.loc 1 289 6 is_stmt 0
 2191 0068 CE94     		add	s1,s3,s1
 2192              	.LVL216:
 2193 006a C204     		slli	s1,s1,16
 2194 006c C184     		srai	s1,s1,16
 2195              	.LVL217:
 288:lio_lcd.c     **** 			y += 16*scale;
 2196              		.loc 1 288 6
 2197 006e 0144     		li	s0,0
 2198              	.LVL218:
 2199              	.L98:
 291:lio_lcd.c     **** 	}
 2200              		.loc 1 291 3 is_stmt 1
 2201 0070 2285     		mv	a0,s0
 286:lio_lcd.c     **** 		if(x > _config.width - 8*scale){
 2202              		.loc 1 286 31 is_stmt 0
 2203 0072 5E94     		add	s0,s7,s0
 2204              	.LVL219:
 291:lio_lcd.c     **** 	}
 2205              		.loc 1 291 3
 2206 0074 6287     		mv	a4,s8
 2207 0076 D286     		mv	a3,s4
 2208 0078 A685     		mv	a1,s1
 286:lio_lcd.c     **** 		if(x > _config.width - 8*scale){
 2209              		.loc 1 286 31
 2210 007a 4204     		slli	s0,s0,16
 291:lio_lcd.c     **** 	}
 2211              		.loc 1 291 3
 2212 007c 97000000 		call	lio_lcd_draw_char_scaled
 2212      E7800000 
 2213              	.LVL220:
 286:lio_lcd.c     **** 		if(x > _config.width - 8*scale){
 2214              		.loc 1 286 25
 2215 0084 0509     		addi	s2,s2,1
 2216              	.LVL221:
 286:lio_lcd.c     **** 		if(x > _config.width - 8*scale){
 2217              		.loc 1 286 31
 2218 0086 4184     		srai	s0,s0,16
 2219              	.LVL222:
 2220 0088 5DBF     		j	.L97
 2221              		.cfi_endproc
 2222              	.LFE18:
 2224              		.section	.text.lio_lcd_printf_scaled,"ax",@progbits
 2225              		.align	1
 2226              		.globl	lio_lcd_printf_scaled
 2228              	lio_lcd_printf_scaled:
 2229              	.LFB24:
 365:lio_lcd.c     **** 	char buffer[LCD_PRINT_BUFFER_SIZE] = {'\0'};
 2230              		.loc 1 365 100 is_stmt 1
 2231              		.cfi_startproc
 2232              	.LVL223:
 366:lio_lcd.c     **** 	va_list aptr;
 2233              		.loc 1 366 2
 365:lio_lcd.c     **** 	char buffer[LCD_PRINT_BUFFER_SIZE] = {'\0'};
 2234              		.loc 1 365 100 is_stmt 0
 2235 0000 4D71     		addi	sp,sp,-336
GAS LISTING C:\Users\Karzan\AppData\Local\Temp\ccyAl7yf.s 			page 58


 2236              	.LCFI47:
 2237              		.cfi_def_cfa_offset 336
 2238 0002 232C8112 		sw	s0,312(sp)
 2239 0006 232A9112 		sw	s1,308(sp)
 2240 000a 23263113 		sw	s3,300(sp)
 2241              		.cfi_offset 8, -24
 2242              		.cfi_offset 9, -28
 2243              		.cfi_offset 19, -36
 2244 000e 2A84     		mv	s0,a0
 2245 0010 AE84     		mv	s1,a1
 2246 0012 B289     		mv	s3,a2
 366:lio_lcd.c     **** 	va_list aptr;
 2247              		.loc 1 366 7
 2248 0014 8145     		li	a1,0
 2249              	.LVL224:
 2250 0016 13060010 		li	a2,256
 2251              	.LVL225:
 2252 001a 0810     		addi	a0,sp,32
 2253              	.LVL226:
 365:lio_lcd.c     **** 	char buffer[LCD_PRINT_BUFFER_SIZE] = {'\0'};
 2254              		.loc 1 365 100
 2255 001c 232E1112 		sw	ra,316(sp)
 2256 0020 23282113 		sw	s2,304(sp)
 2257              		.cfi_offset 1, -20
 2258              		.cfi_offset 18, -32
 365:lio_lcd.c     **** 	char buffer[LCD_PRINT_BUFFER_SIZE] = {'\0'};
 2259              		.loc 1 365 100
 2260 0024 2322F114 		sw	a5,324(sp)
 2261 0028 3689     		mv	s2,a3
 2262 002a 23240115 		sw	a6,328(sp)
 2263 002e 23261115 		sw	a7,332(sp)
 2264 0032 3AC6     		sw	a4,12(sp)
 366:lio_lcd.c     **** 	va_list aptr;
 2265              		.loc 1 366 7
 2266 0034 97000000 		call	memset
 2266      E7800000 
 2267              	.LVL227:
 367:lio_lcd.c     **** 	va_start(aptr, format);
 2268              		.loc 1 367 2 is_stmt 1
 368:lio_lcd.c     ****    	vsnprintf(buffer, LCD_PRINT_BUFFER_SIZE, format, aptr);
 2269              		.loc 1 368 2
 369:lio_lcd.c     ****    	va_end(aptr);
 2270              		.loc 1 369 5 is_stmt 0
 2271 003c 3247     		lw	a4,12(sp)
 368:lio_lcd.c     ****    	vsnprintf(buffer, LCD_PRINT_BUFFER_SIZE, format, aptr);
 2272              		.loc 1 368 2
 2273 003e D402     		addi	a3,sp,324
 369:lio_lcd.c     ****    	va_end(aptr);
 2274              		.loc 1 369 5
 2275 0040 93050010 		li	a1,256
 2276 0044 3A86     		mv	a2,a4
 2277 0046 0810     		addi	a0,sp,32
 368:lio_lcd.c     ****    	vsnprintf(buffer, LCD_PRINT_BUFFER_SIZE, format, aptr);
 2278              		.loc 1 368 2
 2279 0048 36CE     		sw	a3,28(sp)
 369:lio_lcd.c     ****    	va_end(aptr);
 2280              		.loc 1 369 5 is_stmt 1
GAS LISTING C:\Users\Karzan\AppData\Local\Temp\ccyAl7yf.s 			page 59


 2281 004a 97000000 		call	vsnprintf
 2281      E7800000 
 2282              	.LVL228:
 370:lio_lcd.c     ****    	lio_lcd_draw_string_scaled(x, y, scale, buffer, color);
 2283              		.loc 1 370 5
 371:lio_lcd.c     **** }
 2284              		.loc 1 371 5
 2285 0052 4E87     		mv	a4,s3
 2286 0054 1410     		addi	a3,sp,32
 2287 0056 4A86     		mv	a2,s2
 2288 0058 A685     		mv	a1,s1
 2289 005a 2285     		mv	a0,s0
 2290 005c 97000000 		call	lio_lcd_draw_string_scaled
 2290      E7800000 
 2291              	.LVL229:
 372:lio_lcd.c     **** 
 2292              		.loc 1 372 1 is_stmt 0
 2293 0064 8320C113 		lw	ra,316(sp)
 2294              		.cfi_restore 1
 2295 0068 03248113 		lw	s0,312(sp)
 2296              		.cfi_restore 8
 2297 006c 83244113 		lw	s1,308(sp)
 2298              		.cfi_restore 9
 2299 0070 03290113 		lw	s2,304(sp)
 2300              		.cfi_restore 18
 2301 0074 8329C112 		lw	s3,300(sp)
 2302              		.cfi_restore 19
 2303 0078 7161     		addi	sp,sp,336
 2304              	.LCFI48:
 2305              		.cfi_def_cfa_offset 0
 2306              	.LVL230:
 2307 007a 8280     		jr	ra
 2308              		.cfi_endproc
 2309              	.LFE24:
 2311              		.globl	__floatundidf
 2312              		.globl	__floatunsidf
 2313              		.globl	__divdf3
 2314              		.globl	__muldf3
 2315              		.globl	__ltdf2
 2316              		.section	.text.lcd_delay_1ms,"ax",@progbits
 2317              		.align	1
 2318              		.globl	lcd_delay_1ms
 2320              	lcd_delay_1ms:
 2321              	.LFB34:
 473:lio_lcd.c     **** }
 474:lio_lcd.c     **** 
 475:lio_lcd.c     **** void lcd_delay_1ms(uint32_t count){
 2322              		.loc 1 475 35 is_stmt 1
 2323              		.cfi_startproc
 2324              	.LVL231:
 476:lio_lcd.c     **** 	uint64_t start_mtime, delta_mtime;
 2325              		.loc 1 476 2
 477:lio_lcd.c     **** 
 478:lio_lcd.c     **** 	// Don't start measuruing until we see an mtime tick
 479:lio_lcd.c     **** 	uint64_t tmp = get_timer_value();
 2326              		.loc 1 479 2
 475:lio_lcd.c     **** 	uint64_t start_mtime, delta_mtime;
GAS LISTING C:\Users\Karzan\AppData\Local\Temp\ccyAl7yf.s 			page 60


 2327              		.loc 1 475 35 is_stmt 0
 2328 0000 7971     		addi	sp,sp,-48
 2329              	.LCFI49:
 2330              		.cfi_def_cfa_offset 48
 2331 0002 4AD0     		sw	s2,32(sp)
 2332 0004 4ECE     		sw	s3,28(sp)
 2333 0006 5AC8     		sw	s6,16(sp)
 2334 0008 06D6     		sw	ra,44(sp)
 2335 000a 22D4     		sw	s0,40(sp)
 2336 000c 26D2     		sw	s1,36(sp)
 2337 000e 52CC     		sw	s4,24(sp)
 2338 0010 56CA     		sw	s5,20(sp)
 2339 0012 5EC6     		sw	s7,12(sp)
 2340 0014 62C4     		sw	s8,8(sp)
 2341 0016 66C2     		sw	s9,4(sp)
 2342              		.cfi_offset 18, -16
 2343              		.cfi_offset 19, -20
 2344              		.cfi_offset 22, -32
 2345              		.cfi_offset 1, -4
 2346              		.cfi_offset 8, -8
 2347              		.cfi_offset 9, -12
 2348              		.cfi_offset 20, -24
 2349              		.cfi_offset 21, -28
 2350              		.cfi_offset 23, -36
 2351              		.cfi_offset 24, -40
 2352              		.cfi_offset 25, -44
 475:lio_lcd.c     **** 	uint64_t start_mtime, delta_mtime;
 2353              		.loc 1 475 35
 2354 0018 2A8B     		mv	s6,a0
 2355              		.loc 1 479 17
 2356 001a 97000000 		call	get_timer_value
 2356      E7800000 
 2357              	.LVL232:
 2358 0022 AA89     		mv	s3,a0
 2359 0024 2E89     		mv	s2,a1
 2360              	.LVL233:
 2361              	.L104:
 480:lio_lcd.c     **** 	do {
 2362              		.loc 1 480 2 is_stmt 1 discriminator 1
 481:lio_lcd.c     **** 	start_mtime = get_timer_value();
 2363              		.loc 1 481 2 discriminator 1
 2364              		.loc 1 481 16 is_stmt 0 discriminator 1
 2365 0026 97000000 		call	get_timer_value
 2365      E7800000 
 2366              	.LVL234:
 2367 002e AA84     		mv	s1,a0
 2368 0030 2E84     		mv	s0,a1
 2369              	.LVL235:
 482:lio_lcd.c     **** 	} while (start_mtime == tmp);
 2370              		.loc 1 482 2 discriminator 1
 2371 0032 6394A900 		bne	s3,a0,.L105
 2372 0036 E308B9FE 		beq	s2,a1,.L104
 2373              	.L105:
 483:lio_lcd.c     **** 
 484:lio_lcd.c     **** 	do {
 485:lio_lcd.c     **** 	delta_mtime = get_timer_value() - start_mtime;
 486:lio_lcd.c     **** 	}while(delta_mtime <(SystemCoreClock/4000.0 *count ));
GAS LISTING C:\Users\Karzan\AppData\Local\Temp\ccyAl7yf.s 			page 61


 2374              		.loc 1 486 38 discriminator 1
 2375 003a B7070000 		lui	a5,%hi(.LC0)
 2376 003e 03A90700 		lw	s2,%lo(.LC0)(a5)
 2377              	.LVL236:
 2378 0042 83A94700 		lw	s3,%lo(.LC0+4)(a5)
 2379 0046 B70B0000 		lui	s7,%hi(SystemCoreClock)
 2380              	.L106:
 484:lio_lcd.c     **** 	delta_mtime = get_timer_value() - start_mtime;
 2381              		.loc 1 484 2 is_stmt 1 discriminator 1
 485:lio_lcd.c     **** 	}while(delta_mtime <(SystemCoreClock/4000.0 *count ));
 2382              		.loc 1 485 2 discriminator 1
 485:lio_lcd.c     **** 	}while(delta_mtime <(SystemCoreClock/4000.0 *count ));
 2383              		.loc 1 485 16 is_stmt 0 discriminator 1
 2384 004a 97000000 		call	get_timer_value
 2384      E7800000 
 2385              	.LVL237:
 2386 0052 AA87     		mv	a5,a0
 485:lio_lcd.c     **** 	}while(delta_mtime <(SystemCoreClock/4000.0 *count ));
 2387              		.loc 1 485 14 discriminator 1
 2388 0054 058D     		sub	a0,a0,s1
 2389              	.LVL238:
 2390 0056 B3B7A700 		sgtu	a5,a0,a5
 2391              	.LVL239:
 2392 005a 818D     		sub	a1,a1,s0
 2393              		.loc 1 486 21 discriminator 1
 2394 005c 9D8D     		sub	a1,a1,a5
 2395 005e 97000000 		call	__floatundidf
 2395      E7800000 
 2396              	.LVL240:
 2397 0066 2A8A     		mv	s4,a0
 2398              		.loc 1 486 38 discriminator 1
 2399 0068 03A50B00 		lw	a0,%lo(SystemCoreClock)(s7)
 2400              		.loc 1 486 21 discriminator 1
 2401 006c AE8A     		mv	s5,a1
 2402              		.loc 1 486 38 discriminator 1
 2403 006e 97000000 		call	__floatunsidf
 2403      E7800000 
 2404              	.LVL241:
 2405 0076 4A86     		mv	a2,s2
 2406 0078 CE86     		mv	a3,s3
 2407 007a 97000000 		call	__divdf3
 2407      E7800000 
 2408              	.LVL242:
 2409 0082 2A8C     		mv	s8,a0
 2410              		.loc 1 486 46 discriminator 1
 2411 0084 5A85     		mv	a0,s6
 2412              		.loc 1 486 38 discriminator 1
 2413 0086 AE8C     		mv	s9,a1
 2414              		.loc 1 486 46 discriminator 1
 2415 0088 97000000 		call	__floatunsidf
 2415      E7800000 
 2416              	.LVL243:
 2417 0090 2A86     		mv	a2,a0
 2418 0092 AE86     		mv	a3,a1
 2419 0094 6285     		mv	a0,s8
 2420 0096 E685     		mv	a1,s9
 2421 0098 97000000 		call	__muldf3
GAS LISTING C:\Users\Karzan\AppData\Local\Temp\ccyAl7yf.s 			page 62


 2421      E7800000 
 2422              	.LVL244:
 2423              		.loc 1 486 2 discriminator 1
 2424 00a0 2A86     		mv	a2,a0
 2425 00a2 AE86     		mv	a3,a1
 2426 00a4 5285     		mv	a0,s4
 2427 00a6 D685     		mv	a1,s5
 2428 00a8 97000000 		call	__ltdf2
 2428      E7800000 
 2429              	.LVL245:
 2430 00b0 E34D05F8 		blt	a0,zero,.L106
 487:lio_lcd.c     **** }
 2431              		.loc 1 487 1
 2432 00b4 B250     		lw	ra,44(sp)
 2433              		.cfi_restore 1
 2434 00b6 2254     		lw	s0,40(sp)
 2435              		.cfi_restore 8
 2436              	.LVL246:
 2437 00b8 9254     		lw	s1,36(sp)
 2438              		.cfi_restore 9
 2439 00ba 0259     		lw	s2,32(sp)
 2440              		.cfi_restore 18
 2441 00bc F249     		lw	s3,28(sp)
 2442              		.cfi_restore 19
 2443 00be 624A     		lw	s4,24(sp)
 2444              		.cfi_restore 20
 2445 00c0 D24A     		lw	s5,20(sp)
 2446              		.cfi_restore 21
 2447 00c2 424B     		lw	s6,16(sp)
 2448              		.cfi_restore 22
 2449              	.LVL247:
 2450 00c4 B24B     		lw	s7,12(sp)
 2451              		.cfi_restore 23
 2452 00c6 224C     		lw	s8,8(sp)
 2453              		.cfi_restore 24
 2454 00c8 924C     		lw	s9,4(sp)
 2455              		.cfi_restore 25
 2456 00ca 4561     		addi	sp,sp,48
 2457              	.LCFI50:
 2458              		.cfi_def_cfa_offset 0
 2459 00cc 8280     		jr	ra
 2460              		.cfi_endproc
 2461              	.LFE34:
 2463              		.section	.text.lio_lcd_init,"ax",@progbits
 2464              		.align	1
 2465              		.globl	lio_lcd_init
 2467              	lio_lcd_init:
 2468              	.LFB5:
  28:lio_lcd.c     **** 
 2469              		.loc 1 28 43 is_stmt 1
 2470              		.cfi_startproc
  30:lio_lcd.c     **** 
 2471              		.loc 1 30 2
  30:lio_lcd.c     **** 
 2472              		.loc 1 30 10 is_stmt 0
 2473 0000 B7070000 		lui	a5,%hi(_config)
  28:lio_lcd.c     **** 
GAS LISTING C:\Users\Karzan\AppData\Local\Temp\ccyAl7yf.s 			page 63


 2474              		.loc 1 28 43
 2475 0004 7971     		addi	sp,sp,-48
 2476              	.LCFI51:
 2477              		.cfi_def_cfa_offset 48
  30:lio_lcd.c     **** 
 2478              		.loc 1 30 10
 2479 0006 AA85     		mv	a1,a0
 2480 0008 3146     		li	a2,12
 2481 000a 13850700 		addi	a0,a5,%lo(_config)
  28:lio_lcd.c     **** 
 2482              		.loc 1 28 43
 2483 000e 06D6     		sw	ra,44(sp)
 2484 0010 22D4     		sw	s0,40(sp)
 2485 0012 26D2     		sw	s1,36(sp)
 2486              		.cfi_offset 1, -4
 2487              		.cfi_offset 8, -8
 2488              		.cfi_offset 9, -12
  30:lio_lcd.c     **** 
 2489              		.loc 1 30 10
 2490 0014 13840700 		addi	s0,a5,%lo(_config)
  28:lio_lcd.c     **** 
 2491              		.loc 1 28 43
 2492 0018 4AD0     		sw	s2,32(sp)
 2493              		.cfi_offset 18, -16
  30:lio_lcd.c     **** 
 2494              		.loc 1 30 10
 2495 001a 97000000 		call	memcpy
 2495      E7800000 
 2496              	.LVL248:
  32:lio_lcd.c     **** 
 2497              		.loc 1 32 2 is_stmt 1
  32:lio_lcd.c     **** 
 2498              		.loc 1 32 10 is_stmt 0
 2499 0022 13060002 		li	a2,32
 2500 0026 8145     		li	a1,0
 2501 0028 0A85     		mv	a0,sp
 2502 002a 97000000 		call	memset
 2502      E7800000 
 2503              	.LVL249:
  34:lio_lcd.c     **** 	lcd_DC_reset();
 2504              		.loc 1 34 2 is_stmt 1
 2505 0032 97000000 		call	lcd_bus_init
 2505      E7800000 
 2506              	.LVL250:
  35:lio_lcd.c     **** 	lcd_CS_reset();
 2507              		.loc 1 35 2
 2508 003a 97000000 		call	lcd_DC_reset
 2508      E7800000 
 2509              	.LVL251:
  36:lio_lcd.c     **** 	lcd_delay_1ms(200);
 2510              		.loc 1 36 2
 2511 0042 97000000 		call	lcd_CS_reset
 2511      E7800000 
 2512              	.LVL252:
  37:lio_lcd.c     **** 
 2513              		.loc 1 37 2
 2514 004a 1305800C 		li	a0,200
GAS LISTING C:\Users\Karzan\AppData\Local\Temp\ccyAl7yf.s 			page 64


 2515 004e 97000000 		call	lcd_delay_1ms
 2515      E7800000 
 2516              	.LVL253:
  39:lio_lcd.c     **** 	lcd_delay_1ms(120);
 2517              		.loc 1 39 2
 2518 0056 0545     		li	a0,1
 2519 0058 97000000 		call	lcd_write_command
 2519      E7800000 
 2520              	.LVL254:
  40:lio_lcd.c     **** 
 2521              		.loc 1 40 2
 2522 0060 13058007 		li	a0,120
 2523 0064 97000000 		call	lcd_delay_1ms
 2523      E7800000 
 2524              	.LVL255:
  42:lio_lcd.c     **** 	lcd_delay_1ms(120);
 2525              		.loc 1 42 2
 2526 006c 4545     		li	a0,17
 2527 006e 97000000 		call	lcd_write_command
 2527      E7800000 
 2528              	.LVL256:
  43:lio_lcd.c     **** 
 2529              		.loc 1 43 2
 2530 0076 13058007 		li	a0,120
 2531 007a 97000000 		call	lcd_delay_1ms
 2531      E7800000 
 2532              	.LVL257:
  45:lio_lcd.c     **** 	else 			  lcd_write_command(LIO_LCD_INVOFF);
 2533              		.loc 1 45 2
  45:lio_lcd.c     **** 	else 			  lcd_write_command(LIO_LCD_INVOFF);
 2534              		.loc 1 45 4 is_stmt 0
 2535 0082 83470400 		lbu	a5,0(s0)
  45:lio_lcd.c     **** 	else 			  lcd_write_command(LIO_LCD_INVOFF);
 2536              		.loc 1 45 20
 2537 0086 13051002 		li	a0,33
  45:lio_lcd.c     **** 	else 			  lcd_write_command(LIO_LCD_INVOFF);
 2538              		.loc 1 45 4
 2539 008a 99E3     		bne	a5,zero,.L113
  46:lio_lcd.c     **** 
 2540              		.loc 1 46 12 is_stmt 1
 2541 008c 13050002 		li	a0,32
 2542              	.L113:
 2543 0090 97000000 		call	lcd_write_command
 2543      E7800000 
 2544              	.LVL258:
  51:lio_lcd.c     **** 	buf[1] = LIO_LCD_FRMCTRL1_FPA;
 2545              		.loc 1 51 2
  52:lio_lcd.c     **** 	buf[2] = LIO_LCD_FRMCTRL1_BNA;
 2546              		.loc 1 52 2
  53:lio_lcd.c     **** 
 2547              		.loc 1 53 2
  51:lio_lcd.c     **** 	buf[1] = LIO_LCD_FRMCTRL1_FPA;
 2548              		.loc 1 51 9 is_stmt 0
 2549 0098 1164     		li	s0,16384
 2550 009a 130954A0 		addi	s2,s0,-1531
  53:lio_lcd.c     **** 
 2551              		.loc 1 53 9
GAS LISTING C:\Users\Karzan\AppData\Local\Temp\ccyAl7yf.s 			page 65


 2552 009e 9304A003 		li	s1,58
  55:lio_lcd.c     **** 	lcd_write_data(3, buf);
 2553              		.loc 1 55 2
 2554 00a2 1305100B 		li	a0,177
  51:lio_lcd.c     **** 	buf[1] = LIO_LCD_FRMCTRL1_FPA;
 2555              		.loc 1 51 9
 2556 00a6 23102101 		sh	s2,0(sp)
  53:lio_lcd.c     **** 
 2557              		.loc 1 53 9
 2558 00aa 23019100 		sb	s1,2(sp)
  55:lio_lcd.c     **** 	lcd_write_data(3, buf);
 2559              		.loc 1 55 2 is_stmt 1
 2560 00ae 97000000 		call	lcd_write_command
 2560      E7800000 
 2561              	.LVL259:
  56:lio_lcd.c     **** 
 2562              		.loc 1 56 2
 2563 00b6 8A85     		mv	a1,sp
 2564 00b8 0D45     		li	a0,3
 2565 00ba 97000000 		call	lcd_write_data
 2565      E7800000 
 2566              	.LVL260:
  58:lio_lcd.c     **** 	buf[1] = LIO_LCD_FRMCTRL2_FPA;
 2567              		.loc 1 58 2
  59:lio_lcd.c     **** 	buf[2] = LIO_LCD_FRMCTRL2_BNA;
 2568              		.loc 1 59 2
  60:lio_lcd.c     **** 
 2569              		.loc 1 60 2
  62:lio_lcd.c     **** 	lcd_write_data(3, buf);
 2570              		.loc 1 62 2 is_stmt 0
 2571 00c2 1305200B 		li	a0,178
  58:lio_lcd.c     **** 	buf[1] = LIO_LCD_FRMCTRL2_FPA;
 2572              		.loc 1 58 9
 2573 00c6 23102101 		sh	s2,0(sp)
  60:lio_lcd.c     **** 
 2574              		.loc 1 60 9
 2575 00ca 23019100 		sb	s1,2(sp)
  62:lio_lcd.c     **** 	lcd_write_data(3, buf);
 2576              		.loc 1 62 2 is_stmt 1
 2577 00ce 97000000 		call	lcd_write_command
 2577      E7800000 
 2578              	.LVL261:
  63:lio_lcd.c     **** 
 2579              		.loc 1 63 2
 2580 00d6 8A85     		mv	a1,sp
 2581 00d8 0D45     		li	a0,3
 2582 00da 97000000 		call	lcd_write_data
 2582      E7800000 
 2583              	.LVL262:
  65:lio_lcd.c     **** 	buf[1] = LIO_LCD_FRMCTRL3_FPAL;
 2584              		.loc 1 65 2
  66:lio_lcd.c     **** 	buf[2] = LIO_LCD_FRMCTRL3_BNAL;
 2585              		.loc 1 66 2
  67:lio_lcd.c     **** 	buf[3] = LIO_LCD_FRMCTRL3_RTNAF;
 2586              		.loc 1 67 2
  68:lio_lcd.c     **** 	buf[4] = LIO_LCD_FRMCTRL3_FPAF;
 2587              		.loc 1 68 2
GAS LISTING C:\Users\Karzan\AppData\Local\Temp\ccyAl7yf.s 			page 66


  69:lio_lcd.c     **** 	buf[5] = LIO_LCD_FRMCTRL3_BNAF;
 2588              		.loc 1 69 2
  70:lio_lcd.c     **** 
 2589              		.loc 1 70 2
  65:lio_lcd.c     **** 	buf[1] = LIO_LCD_FRMCTRL3_FPAL;
 2590              		.loc 1 65 9 is_stmt 0
 2591 00e2 B7473A05 		li	a5,87703552
 2592 00e6 938757A0 		addi	a5,a5,-1531
  69:lio_lcd.c     **** 	buf[5] = LIO_LCD_FRMCTRL3_BNAF;
 2593              		.loc 1 69 9
 2594 00ea 1304A4A3 		addi	s0,s0,-1478
  72:lio_lcd.c     **** 	lcd_write_data(6, buf);
 2595              		.loc 1 72 2
 2596 00ee 1305300B 		li	a0,179
  65:lio_lcd.c     **** 	buf[1] = LIO_LCD_FRMCTRL3_FPAL;
 2597              		.loc 1 65 9
 2598 00f2 3EC0     		sw	a5,0(sp)
  69:lio_lcd.c     **** 	buf[5] = LIO_LCD_FRMCTRL3_BNAF;
 2599              		.loc 1 69 9
 2600 00f4 23128100 		sh	s0,4(sp)
  72:lio_lcd.c     **** 	lcd_write_data(6, buf);
 2601              		.loc 1 72 2 is_stmt 1
 2602 00f8 97000000 		call	lcd_write_command
 2602      E7800000 
 2603              	.LVL263:
  73:lio_lcd.c     **** 
 2604              		.loc 1 73 2
 2605 0100 8A85     		mv	a1,sp
 2606 0102 1945     		li	a0,6
 2607 0104 97000000 		call	lcd_write_data
 2607      E7800000 
 2608              	.LVL264:
  75:lio_lcd.c     **** 
 2609              		.loc 1 75 2
  75:lio_lcd.c     **** 
 2610              		.loc 1 75 9 is_stmt 0
 2611 010c 8D47     		li	a5,3
  77:lio_lcd.c     **** 	lcd_write_data(1, buf);	
 2612              		.loc 1 77 2
 2613 010e 1305400B 		li	a0,180
  75:lio_lcd.c     **** 
 2614              		.loc 1 75 9
 2615 0112 2300F100 		sb	a5,0(sp)
  77:lio_lcd.c     **** 	lcd_write_data(1, buf);	
 2616              		.loc 1 77 2 is_stmt 1
 2617 0116 97000000 		call	lcd_write_command
 2617      E7800000 
 2618              	.LVL265:
  78:lio_lcd.c     **** 
 2619              		.loc 1 78 2
 2620 011e 8A85     		mv	a1,sp
 2621 0120 0545     		li	a0,1
 2622 0122 97000000 		call	lcd_write_data
 2622      E7800000 
 2623              	.LVL266:
  80:lio_lcd.c     **** 	buf[1] = LIO_LCD_PWRCTR1_VRHN;
 2624              		.loc 1 80 2
GAS LISTING C:\Users\Karzan\AppData\Local\Temp\ccyAl7yf.s 			page 67


  81:lio_lcd.c     **** 	buf[2] = LIO_LCD_PWRCTR1_MODE_VRH5;
 2625              		.loc 1 81 2
  82:lio_lcd.c     **** 
 2626              		.loc 1 82 2
  80:lio_lcd.c     **** 	buf[1] = LIO_LCD_PWRCTR1_VRHN;
 2627              		.loc 1 80 9 is_stmt 0
 2628 012a 93072026 		li	a5,610
 2629 012e 2310F100 		sh	a5,0(sp)
  84:lio_lcd.c     **** 	lcd_write_data(3, buf);	
 2630              		.loc 1 84 2
 2631 0132 1305000C 		li	a0,192
  82:lio_lcd.c     **** 
 2632              		.loc 1 82 9
 2633 0136 9147     		li	a5,4
 2634 0138 2301F100 		sb	a5,2(sp)
  84:lio_lcd.c     **** 	lcd_write_data(3, buf);	
 2635              		.loc 1 84 2 is_stmt 1
 2636 013c 97000000 		call	lcd_write_command
 2636      E7800000 
 2637              	.LVL267:
  85:lio_lcd.c     **** 
 2638              		.loc 1 85 2
 2639 0144 8A85     		mv	a1,sp
 2640 0146 0D45     		li	a0,3
 2641 0148 97000000 		call	lcd_write_data
 2641      E7800000 
 2642              	.LVL268:
  87:lio_lcd.c     **** 
 2643              		.loc 1 87 2
  87:lio_lcd.c     **** 
 2644              		.loc 1 87 9 is_stmt 0
 2645 0150 930700FC 		li	a5,-64
  89:lio_lcd.c     **** 	lcd_write_data(1, buf);	
 2646              		.loc 1 89 2
 2647 0154 1305100C 		li	a0,193
  87:lio_lcd.c     **** 
 2648              		.loc 1 87 9
 2649 0158 2300F100 		sb	a5,0(sp)
  89:lio_lcd.c     **** 	lcd_write_data(1, buf);	
 2650              		.loc 1 89 2 is_stmt 1
 2651 015c 97000000 		call	lcd_write_command
 2651      E7800000 
 2652              	.LVL269:
  90:lio_lcd.c     **** 
 2653              		.loc 1 90 2
 2654 0164 8A85     		mv	a1,sp
 2655 0166 0545     		li	a0,1
 2656 0168 97000000 		call	lcd_write_data
 2656      E7800000 
 2657              	.LVL270:
  92:lio_lcd.c     **** 	buf[1] = LIO_LCD_PWRCTR3_DCA;
 2658              		.loc 1 92 2
  93:lio_lcd.c     **** 
 2659              		.loc 1 93 2
  92:lio_lcd.c     **** 	buf[1] = LIO_LCD_PWRCTR3_DCA;
 2660              		.loc 1 92 9 is_stmt 0
 2661 0170 B547     		li	a5,13
GAS LISTING C:\Users\Karzan\AppData\Local\Temp\ccyAl7yf.s 			page 68


  95:lio_lcd.c     **** 	lcd_write_data(2, buf);
 2662              		.loc 1 95 2
 2663 0172 1305200C 		li	a0,194
  92:lio_lcd.c     **** 	buf[1] = LIO_LCD_PWRCTR3_DCA;
 2664              		.loc 1 92 9
 2665 0176 2310F100 		sh	a5,0(sp)
  95:lio_lcd.c     **** 	lcd_write_data(2, buf);
 2666              		.loc 1 95 2 is_stmt 1
 2667 017a 97000000 		call	lcd_write_command
 2667      E7800000 
 2668              	.LVL271:
  96:lio_lcd.c     **** 
 2669              		.loc 1 96 2
 2670 0182 8A85     		mv	a1,sp
 2671 0184 0945     		li	a0,2
 2672 0186 97000000 		call	lcd_write_data
 2672      E7800000 
 2673              	.LVL272:
  98:lio_lcd.c     **** 	buf[1] = LIO_LCD_PWRCTR4_DCB;
 2674              		.loc 1 98 2
  99:lio_lcd.c     **** 
 2675              		.loc 1 99 2
  98:lio_lcd.c     **** 	buf[1] = LIO_LCD_PWRCTR4_DCB;
 2676              		.loc 1 98 9 is_stmt 0
 2677 018e 9D67     		li	a5,28672
 2678 0190 9387D7A8 		addi	a5,a5,-1395
 101:lio_lcd.c     **** 	lcd_write_data(2, buf);
 2679              		.loc 1 101 2
 2680 0194 1305300C 		li	a0,195
  98:lio_lcd.c     **** 	buf[1] = LIO_LCD_PWRCTR4_DCB;
 2681              		.loc 1 98 9
 2682 0198 2310F100 		sh	a5,0(sp)
 101:lio_lcd.c     **** 	lcd_write_data(2, buf);
 2683              		.loc 1 101 2 is_stmt 1
 2684 019c 97000000 		call	lcd_write_command
 2684      E7800000 
 2685              	.LVL273:
 102:lio_lcd.c     **** 
 2686              		.loc 1 102 2
 2687 01a4 8A85     		mv	a1,sp
 2688 01a6 0945     		li	a0,2
 2689 01a8 97000000 		call	lcd_write_data
 2689      E7800000 
 2690              	.LVL274:
 104:lio_lcd.c     **** 	buf[1] = LIO_LCD_PWRCTR5_DCC;
 2691              		.loc 1 104 2
 105:lio_lcd.c     **** 
 2692              		.loc 1 105 2
 104:lio_lcd.c     **** 	buf[1] = LIO_LCD_PWRCTR5_DCC;
 2693              		.loc 1 104 9 is_stmt 0
 2694 01b0 FD77     		li	a5,-4096
 2695 01b2 9387D7E8 		addi	a5,a5,-371
 107:lio_lcd.c     **** 	lcd_write_data(2, buf);
 2696              		.loc 1 107 2
 2697 01b6 1305400C 		li	a0,196
 104:lio_lcd.c     **** 	buf[1] = LIO_LCD_PWRCTR5_DCC;
 2698              		.loc 1 104 9
GAS LISTING C:\Users\Karzan\AppData\Local\Temp\ccyAl7yf.s 			page 69


 2699 01ba 2310F100 		sh	a5,0(sp)
 107:lio_lcd.c     **** 	lcd_write_data(2, buf);
 2700              		.loc 1 107 2 is_stmt 1
 2701 01be 97000000 		call	lcd_write_command
 2701      E7800000 
 2702              	.LVL275:
 108:lio_lcd.c     **** 
 2703              		.loc 1 108 2
 2704 01c6 8A85     		mv	a1,sp
 2705 01c8 0945     		li	a0,2
 2706 01ca 97000000 		call	lcd_write_data
 2706      E7800000 
 2707              	.LVL276:
 110:lio_lcd.c     **** 
 2708              		.loc 1 110 2
 110:lio_lcd.c     **** 
 2709              		.loc 1 110 9 is_stmt 0
 2710 01d2 B947     		li	a5,14
 112:lio_lcd.c     **** 	lcd_write_data(1, buf);
 2711              		.loc 1 112 2
 2712 01d4 1305500C 		li	a0,197
 110:lio_lcd.c     **** 
 2713              		.loc 1 110 9
 2714 01d8 2300F100 		sb	a5,0(sp)
 112:lio_lcd.c     **** 	lcd_write_data(1, buf);
 2715              		.loc 1 112 2 is_stmt 1
 2716 01dc 97000000 		call	lcd_write_command
 2716      E7800000 
 2717              	.LVL277:
 113:lio_lcd.c     **** 
 2718              		.loc 1 113 2
 2719 01e4 8A85     		mv	a1,sp
 2720 01e6 0545     		li	a0,1
 2721 01e8 97000000 		call	lcd_write_data
 2721      E7800000 
 2722              	.LVL278:
 115:lio_lcd.c     **** 	buf[1]  = LIO_LCD_GMCTRP_1;
 2723              		.loc 1 115 2
 116:lio_lcd.c     **** 	buf[2]  = LIO_LCD_GMCTRP_2;
 2724              		.loc 1 116 2
 117:lio_lcd.c     **** 	buf[3]  = LIO_LCD_GMCTRP_3;
 2725              		.loc 1 117 2
 118:lio_lcd.c     **** 	buf[4]  = LIO_LCD_GMCTRP_4;
 2726              		.loc 1 118 2
 119:lio_lcd.c     **** 	buf[5]  = LIO_LCD_GMCTRP_5;
 2727              		.loc 1 119 2
 120:lio_lcd.c     **** 	buf[6]  = LIO_LCD_GMCTRP_6;
 2728              		.loc 1 120 2
 121:lio_lcd.c     **** 	buf[7]  = LIO_LCD_GMCTRP_7;
 2729              		.loc 1 121 2
 122:lio_lcd.c     **** 	buf[8]  = LIO_LCD_GMCTRP_8;
 2730              		.loc 1 122 2
 123:lio_lcd.c     **** 	buf[9]  = LIO_LCD_GMCTRP_9;
 2731              		.loc 1 123 2
 124:lio_lcd.c     **** 	buf[10] = LIO_LCD_GMCTRP_A;
 2732              		.loc 1 124 2
 125:lio_lcd.c     **** 	buf[11] = LIO_LCD_GMCTRP_B;
GAS LISTING C:\Users\Karzan\AppData\Local\Temp\ccyAl7yf.s 			page 70


 2733              		.loc 1 125 2
 126:lio_lcd.c     **** 	buf[12] = LIO_LCD_GMCTRP_C;
 2734              		.loc 1 126 2
 127:lio_lcd.c     **** 	buf[13] = LIO_LCD_GMCTRP_D;
 2735              		.loc 1 127 2
 128:lio_lcd.c     **** 	buf[14] = LIO_LCD_GMCTRP_E;
 2736              		.loc 1 128 2
 129:lio_lcd.c     **** 	buf[15] = LIO_LCD_GMCTRP_F;
 2737              		.loc 1 129 2
 130:lio_lcd.c     **** 
 2738              		.loc 1 130 2
 115:lio_lcd.c     **** 	buf[1]  = LIO_LCD_GMCTRP_1;
 2739              		.loc 1 115 10 is_stmt 0
 2740 01f0 B7170203 		li	a5,50466816
 2741 01f4 938707E1 		addi	a5,a5,-496
 2742 01f8 3EC0     		sw	a5,0(sp)
 119:lio_lcd.c     **** 	buf[5]  = LIO_LCD_GMCTRP_5;
 2743              		.loc 1 119 10
 2744 01fa B7070207 		li	a5,117571584
 2745 01fe 9387E770 		addi	a5,a5,1806
 2746 0202 3EC2     		sw	a5,4(sp)
 127:lio_lcd.c     **** 	buf[13] = LIO_LCD_GMCTRP_D;
 2747              		.loc 1 127 10
 2748 0204 37140E10 		li	s0,269357056
 123:lio_lcd.c     **** 	buf[9]  = LIO_LCD_GMCTRP_9;
 2749              		.loc 1 123 10
 2750 0208 B7172737 		li	a5,925306880
 2751 020c 9387A720 		addi	a5,a5,522
 127:lio_lcd.c     **** 	buf[13] = LIO_LCD_GMCTRP_D;
 2752              		.loc 1 127 10
 2753 0210 130404D0 		addi	s0,s0,-768
 132:lio_lcd.c     **** 	lcd_write_data(16, buf);	
 2754              		.loc 1 132 2
 2755 0214 1305000E 		li	a0,224
 123:lio_lcd.c     **** 	buf[9]  = LIO_LCD_GMCTRP_9;
 2756              		.loc 1 123 10
 2757 0218 3EC4     		sw	a5,8(sp)
 127:lio_lcd.c     **** 	buf[13] = LIO_LCD_GMCTRP_D;
 2758              		.loc 1 127 10
 2759 021a 22C6     		sw	s0,12(sp)
 132:lio_lcd.c     **** 	lcd_write_data(16, buf);	
 2760              		.loc 1 132 2 is_stmt 1
 2761 021c 97000000 		call	lcd_write_command
 2761      E7800000 
 2762              	.LVL279:
 133:lio_lcd.c     **** 
 2763              		.loc 1 133 2
 2764 0224 8A85     		mv	a1,sp
 2765 0226 4145     		li	a0,16
 2766 0228 97000000 		call	lcd_write_data
 2766      E7800000 
 2767              	.LVL280:
 135:lio_lcd.c     **** 	buf[1]  = LIO_LCD_GMCTRN_1;
 2768              		.loc 1 135 2
 136:lio_lcd.c     **** 	buf[2]  = LIO_LCD_GMCTRN_2;
 2769              		.loc 1 136 2
 137:lio_lcd.c     **** 	buf[3]  = LIO_LCD_GMCTRN_3;
GAS LISTING C:\Users\Karzan\AppData\Local\Temp\ccyAl7yf.s 			page 71


 2770              		.loc 1 137 2
 138:lio_lcd.c     **** 	buf[4]  = LIO_LCD_GMCTRN_4;
 2771              		.loc 1 138 2
 139:lio_lcd.c     **** 	buf[5]  = LIO_LCD_GMCTRN_5;
 2772              		.loc 1 139 2
 140:lio_lcd.c     **** 	buf[6]  = LIO_LCD_GMCTRN_6;
 2773              		.loc 1 140 2
 141:lio_lcd.c     **** 	buf[7]  = LIO_LCD_GMCTRN_7;
 2774              		.loc 1 141 2
 142:lio_lcd.c     **** 	buf[8]  = LIO_LCD_GMCTRN_8;
 2775              		.loc 1 142 2
 143:lio_lcd.c     **** 	buf[9]  = LIO_LCD_GMCTRN_9;
 2776              		.loc 1 143 2
 144:lio_lcd.c     **** 	buf[10] = LIO_LCD_GMCTRN_A;
 2777              		.loc 1 144 2
 145:lio_lcd.c     **** 	buf[11] = LIO_LCD_GMCTRN_B;
 2778              		.loc 1 145 2
 146:lio_lcd.c     **** 	buf[12] = LIO_LCD_GMCTRN_C;
 2779              		.loc 1 146 2
 147:lio_lcd.c     **** 	buf[13] = LIO_LCD_GMCTRN_D;
 2780              		.loc 1 147 2
 148:lio_lcd.c     **** 	buf[14] = LIO_LCD_GMCTRN_E;
 2781              		.loc 1 148 2
 149:lio_lcd.c     **** 	buf[15] = LIO_LCD_GMCTRN_F;
 2782              		.loc 1 149 2
 150:lio_lcd.c     **** 
 2783              		.loc 1 150 2
 135:lio_lcd.c     **** 	buf[1]  = LIO_LCD_GMCTRN_1;
 2784              		.loc 1 135 10 is_stmt 0
 2785 0230 B7170303 		li	a5,50532352
 2786 0234 938707E1 		addi	a5,a5,-496
 2787 0238 3EC0     		sw	a5,0(sp)
 139:lio_lcd.c     **** 	buf[5]  = LIO_LCD_GMCTRN_5;
 2788              		.loc 1 139 10
 2789 023a B7070208 		li	a5,134348800
 2790 023e 9387F760 		addi	a5,a5,1551
 2791 0242 3EC2     		sw	a5,4(sp)
 143:lio_lcd.c     **** 	buf[9]  = LIO_LCD_GMCTRN_9;
 2792              		.loc 1 143 10
 2793 0244 B7172636 		li	a5,908464128
 2794 0248 9387A730 		addi	a5,a5,778
 152:lio_lcd.c     **** 	lcd_write_data(16, buf);
 2795              		.loc 1 152 2
 2796 024c 1305100E 		li	a0,225
 143:lio_lcd.c     **** 	buf[9]  = LIO_LCD_GMCTRN_9;
 2797              		.loc 1 143 10
 2798 0250 3EC4     		sw	a5,8(sp)
 147:lio_lcd.c     **** 	buf[13] = LIO_LCD_GMCTRN_D;
 2799              		.loc 1 147 10
 2800 0252 22C6     		sw	s0,12(sp)
 152:lio_lcd.c     **** 	lcd_write_data(16, buf);
 2801              		.loc 1 152 2 is_stmt 1
 2802 0254 97000000 		call	lcd_write_command
 2802      E7800000 
 2803              	.LVL281:
 153:lio_lcd.c     **** 
 2804              		.loc 1 153 2
GAS LISTING C:\Users\Karzan\AppData\Local\Temp\ccyAl7yf.s 			page 72


 2805 025c 8A85     		mv	a1,sp
 2806 025e 4145     		li	a0,16
 2807 0260 97000000 		call	lcd_write_data
 2807      E7800000 
 2808              	.LVL282:
 155:lio_lcd.c     **** 
 2809              		.loc 1 155 2
 155:lio_lcd.c     **** 
 2810              		.loc 1 155 9 is_stmt 0
 2811 0268 9547     		li	a5,5
 157:lio_lcd.c     **** 	lcd_write_data(1, buf);
 2812              		.loc 1 157 2
 2813 026a 1305A003 		li	a0,58
 155:lio_lcd.c     **** 
 2814              		.loc 1 155 9
 2815 026e 2300F100 		sb	a5,0(sp)
 157:lio_lcd.c     **** 	lcd_write_data(1, buf);
 2816              		.loc 1 157 2 is_stmt 1
 2817 0272 97000000 		call	lcd_write_command
 2817      E7800000 
 2818              	.LVL283:
 158:lio_lcd.c     **** 
 2819              		.loc 1 158 2
 2820 027a 8A85     		mv	a1,sp
 2821 027c 0545     		li	a0,1
 2822 027e 97000000 		call	lcd_write_data
 2822      E7800000 
 2823              	.LVL284:
 160:lio_lcd.c     **** 
 2824              		.loc 1 160 2
 160:lio_lcd.c     **** 
 2825              		.loc 1 160 9 is_stmt 0
 2826 0286 93078007 		li	a5,120
 162:lio_lcd.c     **** 	lcd_write_data(1, buf);
 2827              		.loc 1 162 2
 2828 028a 13056003 		li	a0,54
 160:lio_lcd.c     **** 
 2829              		.loc 1 160 9
 2830 028e 2300F100 		sb	a5,0(sp)
 162:lio_lcd.c     **** 	lcd_write_data(1, buf);
 2831              		.loc 1 162 2 is_stmt 1
 2832 0292 97000000 		call	lcd_write_command
 2832      E7800000 
 2833              	.LVL285:
 163:lio_lcd.c     **** 
 2834              		.loc 1 163 2
 2835 029a 8A85     		mv	a1,sp
 2836 029c 0545     		li	a0,1
 2837 029e 97000000 		call	lcd_write_data
 2837      E7800000 
 2838              	.LVL286:
 165:lio_lcd.c     **** }
 2839              		.loc 1 165 2
 2840 02a6 13059002 		li	a0,41
 2841 02aa 97000000 		call	lcd_write_command
 2841      E7800000 
 2842              	.LVL287:
GAS LISTING C:\Users\Karzan\AppData\Local\Temp\ccyAl7yf.s 			page 73


 166:lio_lcd.c     **** 
 2843              		.loc 1 166 1 is_stmt 0
 2844 02b2 B250     		lw	ra,44(sp)
 2845              		.cfi_restore 1
 2846 02b4 2254     		lw	s0,40(sp)
 2847              		.cfi_restore 8
 2848 02b6 9254     		lw	s1,36(sp)
 2849              		.cfi_restore 9
 2850 02b8 0259     		lw	s2,32(sp)
 2851              		.cfi_restore 18
 2852 02ba 4561     		addi	sp,sp,48
 2853              	.LCFI52:
 2854              		.cfi_def_cfa_offset 0
 2855 02bc 8280     		jr	ra
 2856              		.cfi_endproc
 2857              	.LFE5:
 2859              		.comm	_config,12,4
 2860              		.globl	font_1608
 2861              		.section	.rodata.font_1608,"a"
 2862              		.align	2
 2863              		.set	.LANCHOR0,. + 0
 2866              	font_1608:
 2867 0000 00       		.byte	0
 2868 0001 00       		.byte	0
 2869 0002 00       		.byte	0
 2870 0003 00       		.byte	0
 2871 0004 00       		.byte	0
 2872 0005 00       		.byte	0
 2873 0006 00       		.byte	0
 2874 0007 00       		.byte	0
 2875 0008 00       		.byte	0
 2876 0009 00       		.byte	0
 2877 000a 00       		.byte	0
 2878 000b 00       		.byte	0
 2879 000c 00       		.byte	0
 2880 000d 00       		.byte	0
 2881 000e 00       		.byte	0
 2882 000f 00       		.byte	0
 2883 0010 00       		.byte	0
 2884 0011 00       		.byte	0
 2885 0012 00       		.byte	0
 2886 0013 08       		.byte	8
 2887 0014 08       		.byte	8
 2888 0015 08       		.byte	8
 2889 0016 08       		.byte	8
 2890 0017 08       		.byte	8
 2891 0018 08       		.byte	8
 2892 0019 08       		.byte	8
 2893 001a 00       		.byte	0
 2894 001b 00       		.byte	0
 2895 001c 18       		.byte	24
 2896 001d 18       		.byte	24
 2897 001e 00       		.byte	0
 2898 001f 00       		.byte	0
 2899 0020 00       		.byte	0
 2900 0021 48       		.byte	72
 2901 0022 6C       		.byte	108
GAS LISTING C:\Users\Karzan\AppData\Local\Temp\ccyAl7yf.s 			page 74


 2902 0023 24       		.byte	36
 2903 0024 12       		.byte	18
 2904 0025 00       		.byte	0
 2905 0026 00       		.byte	0
 2906 0027 00       		.byte	0
 2907 0028 00       		.byte	0
 2908 0029 00       		.byte	0
 2909 002a 00       		.byte	0
 2910 002b 00       		.byte	0
 2911 002c 00       		.byte	0
 2912 002d 00       		.byte	0
 2913 002e 00       		.byte	0
 2914 002f 00       		.byte	0
 2915 0030 00       		.byte	0
 2916 0031 00       		.byte	0
 2917 0032 00       		.byte	0
 2918 0033 24       		.byte	36
 2919 0034 24       		.byte	36
 2920 0035 24       		.byte	36
 2921 0036 7F       		.byte	127
 2922 0037 12       		.byte	18
 2923 0038 12       		.byte	18
 2924 0039 12       		.byte	18
 2925 003a 7F       		.byte	127
 2926 003b 12       		.byte	18
 2927 003c 12       		.byte	18
 2928 003d 12       		.byte	18
 2929 003e 00       		.byte	0
 2930 003f 00       		.byte	0
 2931 0040 00       		.byte	0
 2932 0041 00       		.byte	0
 2933 0042 08       		.byte	8
 2934 0043 1C       		.byte	28
 2935 0044 2A       		.byte	42
 2936 0045 2A       		.byte	42
 2937 0046 0A       		.byte	10
 2938 0047 0C       		.byte	12
 2939 0048 18       		.byte	24
 2940 0049 28       		.byte	40
 2941 004a 28       		.byte	40
 2942 004b 2A       		.byte	42
 2943 004c 2A       		.byte	42
 2944 004d 1C       		.byte	28
 2945 004e 08       		.byte	8
 2946 004f 08       		.byte	8
 2947 0050 00       		.byte	0
 2948 0051 00       		.byte	0
 2949 0052 00       		.byte	0
 2950 0053 22       		.byte	34
 2951 0054 25       		.byte	37
 2952 0055 15       		.byte	21
 2953 0056 15       		.byte	21
 2954 0057 15       		.byte	21
 2955 0058 2A       		.byte	42
 2956 0059 58       		.byte	88
 2957 005a 54       		.byte	84
 2958 005b 54       		.byte	84
GAS LISTING C:\Users\Karzan\AppData\Local\Temp\ccyAl7yf.s 			page 75


 2959 005c 54       		.byte	84
 2960 005d 22       		.byte	34
 2961 005e 00       		.byte	0
 2962 005f 00       		.byte	0
 2963 0060 00       		.byte	0
 2964 0061 00       		.byte	0
 2965 0062 00       		.byte	0
 2966 0063 0C       		.byte	12
 2967 0064 12       		.byte	18
 2968 0065 12       		.byte	18
 2969 0066 12       		.byte	18
 2970 0067 0A       		.byte	10
 2971 0068 76       		.byte	118
 2972 0069 25       		.byte	37
 2973 006a 29       		.byte	41
 2974 006b 11       		.byte	17
 2975 006c 91       		.byte	-111
 2976 006d 6E       		.byte	110
 2977 006e 00       		.byte	0
 2978 006f 00       		.byte	0
 2979 0070 00       		.byte	0
 2980 0071 06       		.byte	6
 2981 0072 06       		.byte	6
 2982 0073 04       		.byte	4
 2983 0074 03       		.byte	3
 2984 0075 00       		.byte	0
 2985 0076 00       		.byte	0
 2986 0077 00       		.byte	0
 2987 0078 00       		.byte	0
 2988 0079 00       		.byte	0
 2989 007a 00       		.byte	0
 2990 007b 00       		.byte	0
 2991 007c 00       		.byte	0
 2992 007d 00       		.byte	0
 2993 007e 00       		.byte	0
 2994 007f 00       		.byte	0
 2995 0080 00       		.byte	0
 2996 0081 40       		.byte	64
 2997 0082 20       		.byte	32
 2998 0083 10       		.byte	16
 2999 0084 10       		.byte	16
 3000 0085 08       		.byte	8
 3001 0086 08       		.byte	8
 3002 0087 08       		.byte	8
 3003 0088 08       		.byte	8
 3004 0089 08       		.byte	8
 3005 008a 08       		.byte	8
 3006 008b 10       		.byte	16
 3007 008c 10       		.byte	16
 3008 008d 20       		.byte	32
 3009 008e 40       		.byte	64
 3010 008f 00       		.byte	0
 3011 0090 00       		.byte	0
 3012 0091 02       		.byte	2
 3013 0092 04       		.byte	4
 3014 0093 08       		.byte	8
 3015 0094 08       		.byte	8
GAS LISTING C:\Users\Karzan\AppData\Local\Temp\ccyAl7yf.s 			page 76


 3016 0095 10       		.byte	16
 3017 0096 10       		.byte	16
 3018 0097 10       		.byte	16
 3019 0098 10       		.byte	16
 3020 0099 10       		.byte	16
 3021 009a 10       		.byte	16
 3022 009b 08       		.byte	8
 3023 009c 08       		.byte	8
 3024 009d 04       		.byte	4
 3025 009e 02       		.byte	2
 3026 009f 00       		.byte	0
 3027 00a0 00       		.byte	0
 3028 00a1 00       		.byte	0
 3029 00a2 00       		.byte	0
 3030 00a3 00       		.byte	0
 3031 00a4 08       		.byte	8
 3032 00a5 08       		.byte	8
 3033 00a6 6B       		.byte	107
 3034 00a7 1C       		.byte	28
 3035 00a8 1C       		.byte	28
 3036 00a9 6B       		.byte	107
 3037 00aa 08       		.byte	8
 3038 00ab 08       		.byte	8
 3039 00ac 00       		.byte	0
 3040 00ad 00       		.byte	0
 3041 00ae 00       		.byte	0
 3042 00af 00       		.byte	0
 3043 00b0 00       		.byte	0
 3044 00b1 00       		.byte	0
 3045 00b2 00       		.byte	0
 3046 00b3 00       		.byte	0
 3047 00b4 08       		.byte	8
 3048 00b5 08       		.byte	8
 3049 00b6 08       		.byte	8
 3050 00b7 08       		.byte	8
 3051 00b8 7F       		.byte	127
 3052 00b9 08       		.byte	8
 3053 00ba 08       		.byte	8
 3054 00bb 08       		.byte	8
 3055 00bc 08       		.byte	8
 3056 00bd 00       		.byte	0
 3057 00be 00       		.byte	0
 3058 00bf 00       		.byte	0
 3059 00c0 00       		.byte	0
 3060 00c1 00       		.byte	0
 3061 00c2 00       		.byte	0
 3062 00c3 00       		.byte	0
 3063 00c4 00       		.byte	0
 3064 00c5 00       		.byte	0
 3065 00c6 00       		.byte	0
 3066 00c7 00       		.byte	0
 3067 00c8 00       		.byte	0
 3068 00c9 00       		.byte	0
 3069 00ca 00       		.byte	0
 3070 00cb 00       		.byte	0
 3071 00cc 06       		.byte	6
 3072 00cd 06       		.byte	6
GAS LISTING C:\Users\Karzan\AppData\Local\Temp\ccyAl7yf.s 			page 77


 3073 00ce 04       		.byte	4
 3074 00cf 03       		.byte	3
 3075 00d0 00       		.byte	0
 3076 00d1 00       		.byte	0
 3077 00d2 00       		.byte	0
 3078 00d3 00       		.byte	0
 3079 00d4 00       		.byte	0
 3080 00d5 00       		.byte	0
 3081 00d6 00       		.byte	0
 3082 00d7 00       		.byte	0
 3083 00d8 FE       		.byte	-2
 3084 00d9 00       		.byte	0
 3085 00da 00       		.byte	0
 3086 00db 00       		.byte	0
 3087 00dc 00       		.byte	0
 3088 00dd 00       		.byte	0
 3089 00de 00       		.byte	0
 3090 00df 00       		.byte	0
 3091 00e0 00       		.byte	0
 3092 00e1 00       		.byte	0
 3093 00e2 00       		.byte	0
 3094 00e3 00       		.byte	0
 3095 00e4 00       		.byte	0
 3096 00e5 00       		.byte	0
 3097 00e6 00       		.byte	0
 3098 00e7 00       		.byte	0
 3099 00e8 00       		.byte	0
 3100 00e9 00       		.byte	0
 3101 00ea 00       		.byte	0
 3102 00eb 00       		.byte	0
 3103 00ec 06       		.byte	6
 3104 00ed 06       		.byte	6
 3105 00ee 00       		.byte	0
 3106 00ef 00       		.byte	0
 3107 00f0 00       		.byte	0
 3108 00f1 00       		.byte	0
 3109 00f2 80       		.byte	-128
 3110 00f3 40       		.byte	64
 3111 00f4 40       		.byte	64
 3112 00f5 20       		.byte	32
 3113 00f6 20       		.byte	32
 3114 00f7 10       		.byte	16
 3115 00f8 10       		.byte	16
 3116 00f9 08       		.byte	8
 3117 00fa 08       		.byte	8
 3118 00fb 04       		.byte	4
 3119 00fc 04       		.byte	4
 3120 00fd 02       		.byte	2
 3121 00fe 02       		.byte	2
 3122 00ff 00       		.byte	0
 3123 0100 00       		.byte	0
 3124 0101 00       		.byte	0
 3125 0102 00       		.byte	0
 3126 0103 18       		.byte	24
 3127 0104 24       		.byte	36
 3128 0105 42       		.byte	66
 3129 0106 42       		.byte	66
GAS LISTING C:\Users\Karzan\AppData\Local\Temp\ccyAl7yf.s 			page 78


 3130 0107 42       		.byte	66
 3131 0108 42       		.byte	66
 3132 0109 42       		.byte	66
 3133 010a 42       		.byte	66
 3134 010b 42       		.byte	66
 3135 010c 24       		.byte	36
 3136 010d 18       		.byte	24
 3137 010e 00       		.byte	0
 3138 010f 00       		.byte	0
 3139 0110 00       		.byte	0
 3140 0111 00       		.byte	0
 3141 0112 00       		.byte	0
 3142 0113 08       		.byte	8
 3143 0114 0E       		.byte	14
 3144 0115 08       		.byte	8
 3145 0116 08       		.byte	8
 3146 0117 08       		.byte	8
 3147 0118 08       		.byte	8
 3148 0119 08       		.byte	8
 3149 011a 08       		.byte	8
 3150 011b 08       		.byte	8
 3151 011c 08       		.byte	8
 3152 011d 3E       		.byte	62
 3153 011e 00       		.byte	0
 3154 011f 00       		.byte	0
 3155 0120 00       		.byte	0
 3156 0121 00       		.byte	0
 3157 0122 00       		.byte	0
 3158 0123 3C       		.byte	60
 3159 0124 42       		.byte	66
 3160 0125 42       		.byte	66
 3161 0126 42       		.byte	66
 3162 0127 20       		.byte	32
 3163 0128 20       		.byte	32
 3164 0129 10       		.byte	16
 3165 012a 08       		.byte	8
 3166 012b 04       		.byte	4
 3167 012c 42       		.byte	66
 3168 012d 7E       		.byte	126
 3169 012e 00       		.byte	0
 3170 012f 00       		.byte	0
 3171 0130 00       		.byte	0
 3172 0131 00       		.byte	0
 3173 0132 00       		.byte	0
 3174 0133 3C       		.byte	60
 3175 0134 42       		.byte	66
 3176 0135 42       		.byte	66
 3177 0136 20       		.byte	32
 3178 0137 18       		.byte	24
 3179 0138 20       		.byte	32
 3180 0139 40       		.byte	64
 3181 013a 40       		.byte	64
 3182 013b 42       		.byte	66
 3183 013c 22       		.byte	34
 3184 013d 1C       		.byte	28
 3185 013e 00       		.byte	0
 3186 013f 00       		.byte	0
GAS LISTING C:\Users\Karzan\AppData\Local\Temp\ccyAl7yf.s 			page 79


 3187 0140 00       		.byte	0
 3188 0141 00       		.byte	0
 3189 0142 00       		.byte	0
 3190 0143 20       		.byte	32
 3191 0144 30       		.byte	48
 3192 0145 28       		.byte	40
 3193 0146 24       		.byte	36
 3194 0147 24       		.byte	36
 3195 0148 22       		.byte	34
 3196 0149 22       		.byte	34
 3197 014a 7E       		.byte	126
 3198 014b 20       		.byte	32
 3199 014c 20       		.byte	32
 3200 014d 78       		.byte	120
 3201 014e 00       		.byte	0
 3202 014f 00       		.byte	0
 3203 0150 00       		.byte	0
 3204 0151 00       		.byte	0
 3205 0152 00       		.byte	0
 3206 0153 7E       		.byte	126
 3207 0154 02       		.byte	2
 3208 0155 02       		.byte	2
 3209 0156 02       		.byte	2
 3210 0157 1A       		.byte	26
 3211 0158 26       		.byte	38
 3212 0159 40       		.byte	64
 3213 015a 40       		.byte	64
 3214 015b 42       		.byte	66
 3215 015c 22       		.byte	34
 3216 015d 1C       		.byte	28
 3217 015e 00       		.byte	0
 3218 015f 00       		.byte	0
 3219 0160 00       		.byte	0
 3220 0161 00       		.byte	0
 3221 0162 00       		.byte	0
 3222 0163 38       		.byte	56
 3223 0164 24       		.byte	36
 3224 0165 02       		.byte	2
 3225 0166 02       		.byte	2
 3226 0167 1A       		.byte	26
 3227 0168 26       		.byte	38
 3228 0169 42       		.byte	66
 3229 016a 42       		.byte	66
 3230 016b 42       		.byte	66
 3231 016c 24       		.byte	36
 3232 016d 18       		.byte	24
 3233 016e 00       		.byte	0
 3234 016f 00       		.byte	0
 3235 0170 00       		.byte	0
 3236 0171 00       		.byte	0
 3237 0172 00       		.byte	0
 3238 0173 7E       		.byte	126
 3239 0174 22       		.byte	34
 3240 0175 22       		.byte	34
 3241 0176 10       		.byte	16
 3242 0177 10       		.byte	16
 3243 0178 08       		.byte	8
GAS LISTING C:\Users\Karzan\AppData\Local\Temp\ccyAl7yf.s 			page 80


 3244 0179 08       		.byte	8
 3245 017a 08       		.byte	8
 3246 017b 08       		.byte	8
 3247 017c 08       		.byte	8
 3248 017d 08       		.byte	8
 3249 017e 00       		.byte	0
 3250 017f 00       		.byte	0
 3251 0180 00       		.byte	0
 3252 0181 00       		.byte	0
 3253 0182 00       		.byte	0
 3254 0183 3C       		.byte	60
 3255 0184 42       		.byte	66
 3256 0185 42       		.byte	66
 3257 0186 42       		.byte	66
 3258 0187 24       		.byte	36
 3259 0188 18       		.byte	24
 3260 0189 24       		.byte	36
 3261 018a 42       		.byte	66
 3262 018b 42       		.byte	66
 3263 018c 42       		.byte	66
 3264 018d 3C       		.byte	60
 3265 018e 00       		.byte	0
 3266 018f 00       		.byte	0
 3267 0190 00       		.byte	0
 3268 0191 00       		.byte	0
 3269 0192 00       		.byte	0
 3270 0193 18       		.byte	24
 3271 0194 24       		.byte	36
 3272 0195 42       		.byte	66
 3273 0196 42       		.byte	66
 3274 0197 42       		.byte	66
 3275 0198 64       		.byte	100
 3276 0199 58       		.byte	88
 3277 019a 40       		.byte	64
 3278 019b 40       		.byte	64
 3279 019c 24       		.byte	36
 3280 019d 1C       		.byte	28
 3281 019e 00       		.byte	0
 3282 019f 00       		.byte	0
 3283 01a0 00       		.byte	0
 3284 01a1 00       		.byte	0
 3285 01a2 00       		.byte	0
 3286 01a3 00       		.byte	0
 3287 01a4 00       		.byte	0
 3288 01a5 00       		.byte	0
 3289 01a6 18       		.byte	24
 3290 01a7 18       		.byte	24
 3291 01a8 00       		.byte	0
 3292 01a9 00       		.byte	0
 3293 01aa 00       		.byte	0
 3294 01ab 00       		.byte	0
 3295 01ac 18       		.byte	24
 3296 01ad 18       		.byte	24
 3297 01ae 00       		.byte	0
 3298 01af 00       		.byte	0
 3299 01b0 00       		.byte	0
 3300 01b1 00       		.byte	0
GAS LISTING C:\Users\Karzan\AppData\Local\Temp\ccyAl7yf.s 			page 81


 3301 01b2 00       		.byte	0
 3302 01b3 00       		.byte	0
 3303 01b4 00       		.byte	0
 3304 01b5 00       		.byte	0
 3305 01b6 00       		.byte	0
 3306 01b7 08       		.byte	8
 3307 01b8 00       		.byte	0
 3308 01b9 00       		.byte	0
 3309 01ba 00       		.byte	0
 3310 01bb 00       		.byte	0
 3311 01bc 00       		.byte	0
 3312 01bd 08       		.byte	8
 3313 01be 08       		.byte	8
 3314 01bf 04       		.byte	4
 3315 01c0 00       		.byte	0
 3316 01c1 00       		.byte	0
 3317 01c2 00       		.byte	0
 3318 01c3 40       		.byte	64
 3319 01c4 20       		.byte	32
 3320 01c5 10       		.byte	16
 3321 01c6 08       		.byte	8
 3322 01c7 04       		.byte	4
 3323 01c8 02       		.byte	2
 3324 01c9 04       		.byte	4
 3325 01ca 08       		.byte	8
 3326 01cb 10       		.byte	16
 3327 01cc 20       		.byte	32
 3328 01cd 40       		.byte	64
 3329 01ce 00       		.byte	0
 3330 01cf 00       		.byte	0
 3331 01d0 00       		.byte	0
 3332 01d1 00       		.byte	0
 3333 01d2 00       		.byte	0
 3334 01d3 00       		.byte	0
 3335 01d4 00       		.byte	0
 3336 01d5 00       		.byte	0
 3337 01d6 7F       		.byte	127
 3338 01d7 00       		.byte	0
 3339 01d8 00       		.byte	0
 3340 01d9 00       		.byte	0
 3341 01da 7F       		.byte	127
 3342 01db 00       		.byte	0
 3343 01dc 00       		.byte	0
 3344 01dd 00       		.byte	0
 3345 01de 00       		.byte	0
 3346 01df 00       		.byte	0
 3347 01e0 00       		.byte	0
 3348 01e1 00       		.byte	0
 3349 01e2 00       		.byte	0
 3350 01e3 02       		.byte	2
 3351 01e4 04       		.byte	4
 3352 01e5 08       		.byte	8
 3353 01e6 10       		.byte	16
 3354 01e7 20       		.byte	32
 3355 01e8 40       		.byte	64
 3356 01e9 20       		.byte	32
 3357 01ea 10       		.byte	16
GAS LISTING C:\Users\Karzan\AppData\Local\Temp\ccyAl7yf.s 			page 82


 3358 01eb 08       		.byte	8
 3359 01ec 04       		.byte	4
 3360 01ed 02       		.byte	2
 3361 01ee 00       		.byte	0
 3362 01ef 00       		.byte	0
 3363 01f0 00       		.byte	0
 3364 01f1 00       		.byte	0
 3365 01f2 00       		.byte	0
 3366 01f3 3C       		.byte	60
 3367 01f4 42       		.byte	66
 3368 01f5 42       		.byte	66
 3369 01f6 46       		.byte	70
 3370 01f7 40       		.byte	64
 3371 01f8 20       		.byte	32
 3372 01f9 10       		.byte	16
 3373 01fa 10       		.byte	16
 3374 01fb 00       		.byte	0
 3375 01fc 18       		.byte	24
 3376 01fd 18       		.byte	24
 3377 01fe 00       		.byte	0
 3378 01ff 00       		.byte	0
 3379 0200 00       		.byte	0
 3380 0201 00       		.byte	0
 3381 0202 00       		.byte	0
 3382 0203 1C       		.byte	28
 3383 0204 22       		.byte	34
 3384 0205 5A       		.byte	90
 3385 0206 55       		.byte	85
 3386 0207 55       		.byte	85
 3387 0208 55       		.byte	85
 3388 0209 55       		.byte	85
 3389 020a 2D       		.byte	45
 3390 020b 42       		.byte	66
 3391 020c 22       		.byte	34
 3392 020d 1C       		.byte	28
 3393 020e 00       		.byte	0
 3394 020f 00       		.byte	0
 3395 0210 00       		.byte	0
 3396 0211 00       		.byte	0
 3397 0212 00       		.byte	0
 3398 0213 08       		.byte	8
 3399 0214 08       		.byte	8
 3400 0215 18       		.byte	24
 3401 0216 14       		.byte	20
 3402 0217 14       		.byte	20
 3403 0218 24       		.byte	36
 3404 0219 3C       		.byte	60
 3405 021a 22       		.byte	34
 3406 021b 42       		.byte	66
 3407 021c 42       		.byte	66
 3408 021d E7       		.byte	-25
 3409 021e 00       		.byte	0
 3410 021f 00       		.byte	0
 3411 0220 00       		.byte	0
 3412 0221 00       		.byte	0
 3413 0222 00       		.byte	0
 3414 0223 1F       		.byte	31
GAS LISTING C:\Users\Karzan\AppData\Local\Temp\ccyAl7yf.s 			page 83


 3415 0224 22       		.byte	34
 3416 0225 22       		.byte	34
 3417 0226 22       		.byte	34
 3418 0227 1E       		.byte	30
 3419 0228 22       		.byte	34
 3420 0229 42       		.byte	66
 3421 022a 42       		.byte	66
 3422 022b 42       		.byte	66
 3423 022c 22       		.byte	34
 3424 022d 1F       		.byte	31
 3425 022e 00       		.byte	0
 3426 022f 00       		.byte	0
 3427 0230 00       		.byte	0
 3428 0231 00       		.byte	0
 3429 0232 00       		.byte	0
 3430 0233 7C       		.byte	124
 3431 0234 42       		.byte	66
 3432 0235 42       		.byte	66
 3433 0236 01       		.byte	1
 3434 0237 01       		.byte	1
 3435 0238 01       		.byte	1
 3436 0239 01       		.byte	1
 3437 023a 01       		.byte	1
 3438 023b 42       		.byte	66
 3439 023c 22       		.byte	34
 3440 023d 1C       		.byte	28
 3441 023e 00       		.byte	0
 3442 023f 00       		.byte	0
 3443 0240 00       		.byte	0
 3444 0241 00       		.byte	0
 3445 0242 00       		.byte	0
 3446 0243 1F       		.byte	31
 3447 0244 22       		.byte	34
 3448 0245 42       		.byte	66
 3449 0246 42       		.byte	66
 3450 0247 42       		.byte	66
 3451 0248 42       		.byte	66
 3452 0249 42       		.byte	66
 3453 024a 42       		.byte	66
 3454 024b 42       		.byte	66
 3455 024c 22       		.byte	34
 3456 024d 1F       		.byte	31
 3457 024e 00       		.byte	0
 3458 024f 00       		.byte	0
 3459 0250 00       		.byte	0
 3460 0251 00       		.byte	0
 3461 0252 00       		.byte	0
 3462 0253 3F       		.byte	63
 3463 0254 42       		.byte	66
 3464 0255 12       		.byte	18
 3465 0256 12       		.byte	18
 3466 0257 1E       		.byte	30
 3467 0258 12       		.byte	18
 3468 0259 12       		.byte	18
 3469 025a 02       		.byte	2
 3470 025b 42       		.byte	66
 3471 025c 42       		.byte	66
GAS LISTING C:\Users\Karzan\AppData\Local\Temp\ccyAl7yf.s 			page 84


 3472 025d 3F       		.byte	63
 3473 025e 00       		.byte	0
 3474 025f 00       		.byte	0
 3475 0260 00       		.byte	0
 3476 0261 00       		.byte	0
 3477 0262 00       		.byte	0
 3478 0263 3F       		.byte	63
 3479 0264 42       		.byte	66
 3480 0265 12       		.byte	18
 3481 0266 12       		.byte	18
 3482 0267 1E       		.byte	30
 3483 0268 12       		.byte	18
 3484 0269 12       		.byte	18
 3485 026a 02       		.byte	2
 3486 026b 02       		.byte	2
 3487 026c 02       		.byte	2
 3488 026d 07       		.byte	7
 3489 026e 00       		.byte	0
 3490 026f 00       		.byte	0
 3491 0270 00       		.byte	0
 3492 0271 00       		.byte	0
 3493 0272 00       		.byte	0
 3494 0273 3C       		.byte	60
 3495 0274 22       		.byte	34
 3496 0275 22       		.byte	34
 3497 0276 01       		.byte	1
 3498 0277 01       		.byte	1
 3499 0278 01       		.byte	1
 3500 0279 71       		.byte	113
 3501 027a 21       		.byte	33
 3502 027b 22       		.byte	34
 3503 027c 22       		.byte	34
 3504 027d 1C       		.byte	28
 3505 027e 00       		.byte	0
 3506 027f 00       		.byte	0
 3507 0280 00       		.byte	0
 3508 0281 00       		.byte	0
 3509 0282 00       		.byte	0
 3510 0283 E7       		.byte	-25
 3511 0284 42       		.byte	66
 3512 0285 42       		.byte	66
 3513 0286 42       		.byte	66
 3514 0287 42       		.byte	66
 3515 0288 7E       		.byte	126
 3516 0289 42       		.byte	66
 3517 028a 42       		.byte	66
 3518 028b 42       		.byte	66
 3519 028c 42       		.byte	66
 3520 028d E7       		.byte	-25
 3521 028e 00       		.byte	0
 3522 028f 00       		.byte	0
 3523 0290 00       		.byte	0
 3524 0291 00       		.byte	0
 3525 0292 00       		.byte	0
 3526 0293 3E       		.byte	62
 3527 0294 08       		.byte	8
 3528 0295 08       		.byte	8
GAS LISTING C:\Users\Karzan\AppData\Local\Temp\ccyAl7yf.s 			page 85


 3529 0296 08       		.byte	8
 3530 0297 08       		.byte	8
 3531 0298 08       		.byte	8
 3532 0299 08       		.byte	8
 3533 029a 08       		.byte	8
 3534 029b 08       		.byte	8
 3535 029c 08       		.byte	8
 3536 029d 3E       		.byte	62
 3537 029e 00       		.byte	0
 3538 029f 00       		.byte	0
 3539 02a0 00       		.byte	0
 3540 02a1 00       		.byte	0
 3541 02a2 00       		.byte	0
 3542 02a3 7C       		.byte	124
 3543 02a4 10       		.byte	16
 3544 02a5 10       		.byte	16
 3545 02a6 10       		.byte	16
 3546 02a7 10       		.byte	16
 3547 02a8 10       		.byte	16
 3548 02a9 10       		.byte	16
 3549 02aa 10       		.byte	16
 3550 02ab 10       		.byte	16
 3551 02ac 10       		.byte	16
 3552 02ad 10       		.byte	16
 3553 02ae 11       		.byte	17
 3554 02af 0F       		.byte	15
 3555 02b0 00       		.byte	0
 3556 02b1 00       		.byte	0
 3557 02b2 00       		.byte	0
 3558 02b3 77       		.byte	119
 3559 02b4 22       		.byte	34
 3560 02b5 12       		.byte	18
 3561 02b6 0A       		.byte	10
 3562 02b7 0E       		.byte	14
 3563 02b8 0A       		.byte	10
 3564 02b9 12       		.byte	18
 3565 02ba 12       		.byte	18
 3566 02bb 22       		.byte	34
 3567 02bc 22       		.byte	34
 3568 02bd 77       		.byte	119
 3569 02be 00       		.byte	0
 3570 02bf 00       		.byte	0
 3571 02c0 00       		.byte	0
 3572 02c1 00       		.byte	0
 3573 02c2 00       		.byte	0
 3574 02c3 07       		.byte	7
 3575 02c4 02       		.byte	2
 3576 02c5 02       		.byte	2
 3577 02c6 02       		.byte	2
 3578 02c7 02       		.byte	2
 3579 02c8 02       		.byte	2
 3580 02c9 02       		.byte	2
 3581 02ca 02       		.byte	2
 3582 02cb 02       		.byte	2
 3583 02cc 42       		.byte	66
 3584 02cd 7F       		.byte	127
 3585 02ce 00       		.byte	0
GAS LISTING C:\Users\Karzan\AppData\Local\Temp\ccyAl7yf.s 			page 86


 3586 02cf 00       		.byte	0
 3587 02d0 00       		.byte	0
 3588 02d1 00       		.byte	0
 3589 02d2 00       		.byte	0
 3590 02d3 77       		.byte	119
 3591 02d4 36       		.byte	54
 3592 02d5 36       		.byte	54
 3593 02d6 36       		.byte	54
 3594 02d7 36       		.byte	54
 3595 02d8 2A       		.byte	42
 3596 02d9 2A       		.byte	42
 3597 02da 2A       		.byte	42
 3598 02db 2A       		.byte	42
 3599 02dc 2A       		.byte	42
 3600 02dd 6B       		.byte	107
 3601 02de 00       		.byte	0
 3602 02df 00       		.byte	0
 3603 02e0 00       		.byte	0
 3604 02e1 00       		.byte	0
 3605 02e2 00       		.byte	0
 3606 02e3 E3       		.byte	-29
 3607 02e4 46       		.byte	70
 3608 02e5 46       		.byte	70
 3609 02e6 4A       		.byte	74
 3610 02e7 4A       		.byte	74
 3611 02e8 52       		.byte	82
 3612 02e9 52       		.byte	82
 3613 02ea 52       		.byte	82
 3614 02eb 62       		.byte	98
 3615 02ec 62       		.byte	98
 3616 02ed 47       		.byte	71
 3617 02ee 00       		.byte	0
 3618 02ef 00       		.byte	0
 3619 02f0 00       		.byte	0
 3620 02f1 00       		.byte	0
 3621 02f2 00       		.byte	0
 3622 02f3 1C       		.byte	28
 3623 02f4 22       		.byte	34
 3624 02f5 41       		.byte	65
 3625 02f6 41       		.byte	65
 3626 02f7 41       		.byte	65
 3627 02f8 41       		.byte	65
 3628 02f9 41       		.byte	65
 3629 02fa 41       		.byte	65
 3630 02fb 41       		.byte	65
 3631 02fc 22       		.byte	34
 3632 02fd 1C       		.byte	28
 3633 02fe 00       		.byte	0
 3634 02ff 00       		.byte	0
 3635 0300 00       		.byte	0
 3636 0301 00       		.byte	0
 3637 0302 00       		.byte	0
 3638 0303 3F       		.byte	63
 3639 0304 42       		.byte	66
 3640 0305 42       		.byte	66
 3641 0306 42       		.byte	66
 3642 0307 42       		.byte	66
GAS LISTING C:\Users\Karzan\AppData\Local\Temp\ccyAl7yf.s 			page 87


 3643 0308 3E       		.byte	62
 3644 0309 02       		.byte	2
 3645 030a 02       		.byte	2
 3646 030b 02       		.byte	2
 3647 030c 02       		.byte	2
 3648 030d 07       		.byte	7
 3649 030e 00       		.byte	0
 3650 030f 00       		.byte	0
 3651 0310 00       		.byte	0
 3652 0311 00       		.byte	0
 3653 0312 00       		.byte	0
 3654 0313 1C       		.byte	28
 3655 0314 22       		.byte	34
 3656 0315 41       		.byte	65
 3657 0316 41       		.byte	65
 3658 0317 41       		.byte	65
 3659 0318 41       		.byte	65
 3660 0319 41       		.byte	65
 3661 031a 4D       		.byte	77
 3662 031b 53       		.byte	83
 3663 031c 32       		.byte	50
 3664 031d 1C       		.byte	28
 3665 031e 60       		.byte	96
 3666 031f 00       		.byte	0
 3667 0320 00       		.byte	0
 3668 0321 00       		.byte	0
 3669 0322 00       		.byte	0
 3670 0323 3F       		.byte	63
 3671 0324 42       		.byte	66
 3672 0325 42       		.byte	66
 3673 0326 42       		.byte	66
 3674 0327 3E       		.byte	62
 3675 0328 12       		.byte	18
 3676 0329 12       		.byte	18
 3677 032a 22       		.byte	34
 3678 032b 22       		.byte	34
 3679 032c 42       		.byte	66
 3680 032d C7       		.byte	-57
 3681 032e 00       		.byte	0
 3682 032f 00       		.byte	0
 3683 0330 00       		.byte	0
 3684 0331 00       		.byte	0
 3685 0332 00       		.byte	0
 3686 0333 7C       		.byte	124
 3687 0334 42       		.byte	66
 3688 0335 42       		.byte	66
 3689 0336 02       		.byte	2
 3690 0337 04       		.byte	4
 3691 0338 18       		.byte	24
 3692 0339 20       		.byte	32
 3693 033a 40       		.byte	64
 3694 033b 42       		.byte	66
 3695 033c 42       		.byte	66
 3696 033d 3E       		.byte	62
 3697 033e 00       		.byte	0
 3698 033f 00       		.byte	0
 3699 0340 00       		.byte	0
GAS LISTING C:\Users\Karzan\AppData\Local\Temp\ccyAl7yf.s 			page 88


 3700 0341 00       		.byte	0
 3701 0342 00       		.byte	0
 3702 0343 7F       		.byte	127
 3703 0344 49       		.byte	73
 3704 0345 08       		.byte	8
 3705 0346 08       		.byte	8
 3706 0347 08       		.byte	8
 3707 0348 08       		.byte	8
 3708 0349 08       		.byte	8
 3709 034a 08       		.byte	8
 3710 034b 08       		.byte	8
 3711 034c 08       		.byte	8
 3712 034d 1C       		.byte	28
 3713 034e 00       		.byte	0
 3714 034f 00       		.byte	0
 3715 0350 00       		.byte	0
 3716 0351 00       		.byte	0
 3717 0352 00       		.byte	0
 3718 0353 E7       		.byte	-25
 3719 0354 42       		.byte	66
 3720 0355 42       		.byte	66
 3721 0356 42       		.byte	66
 3722 0357 42       		.byte	66
 3723 0358 42       		.byte	66
 3724 0359 42       		.byte	66
 3725 035a 42       		.byte	66
 3726 035b 42       		.byte	66
 3727 035c 42       		.byte	66
 3728 035d 3C       		.byte	60
 3729 035e 00       		.byte	0
 3730 035f 00       		.byte	0
 3731 0360 00       		.byte	0
 3732 0361 00       		.byte	0
 3733 0362 00       		.byte	0
 3734 0363 E7       		.byte	-25
 3735 0364 42       		.byte	66
 3736 0365 42       		.byte	66
 3737 0366 22       		.byte	34
 3738 0367 24       		.byte	36
 3739 0368 24       		.byte	36
 3740 0369 14       		.byte	20
 3741 036a 14       		.byte	20
 3742 036b 18       		.byte	24
 3743 036c 08       		.byte	8
 3744 036d 08       		.byte	8
 3745 036e 00       		.byte	0
 3746 036f 00       		.byte	0
 3747 0370 00       		.byte	0
 3748 0371 00       		.byte	0
 3749 0372 00       		.byte	0
 3750 0373 6B       		.byte	107
 3751 0374 49       		.byte	73
 3752 0375 49       		.byte	73
 3753 0376 49       		.byte	73
 3754 0377 49       		.byte	73
 3755 0378 55       		.byte	85
 3756 0379 55       		.byte	85
GAS LISTING C:\Users\Karzan\AppData\Local\Temp\ccyAl7yf.s 			page 89


 3757 037a 36       		.byte	54
 3758 037b 22       		.byte	34
 3759 037c 22       		.byte	34
 3760 037d 22       		.byte	34
 3761 037e 00       		.byte	0
 3762 037f 00       		.byte	0
 3763 0380 00       		.byte	0
 3764 0381 00       		.byte	0
 3765 0382 00       		.byte	0
 3766 0383 E7       		.byte	-25
 3767 0384 42       		.byte	66
 3768 0385 24       		.byte	36
 3769 0386 24       		.byte	36
 3770 0387 18       		.byte	24
 3771 0388 18       		.byte	24
 3772 0389 18       		.byte	24
 3773 038a 24       		.byte	36
 3774 038b 24       		.byte	36
 3775 038c 42       		.byte	66
 3776 038d E7       		.byte	-25
 3777 038e 00       		.byte	0
 3778 038f 00       		.byte	0
 3779 0390 00       		.byte	0
 3780 0391 00       		.byte	0
 3781 0392 00       		.byte	0
 3782 0393 77       		.byte	119
 3783 0394 22       		.byte	34
 3784 0395 22       		.byte	34
 3785 0396 14       		.byte	20
 3786 0397 14       		.byte	20
 3787 0398 08       		.byte	8
 3788 0399 08       		.byte	8
 3789 039a 08       		.byte	8
 3790 039b 08       		.byte	8
 3791 039c 08       		.byte	8
 3792 039d 1C       		.byte	28
 3793 039e 00       		.byte	0
 3794 039f 00       		.byte	0
 3795 03a0 00       		.byte	0
 3796 03a1 00       		.byte	0
 3797 03a2 00       		.byte	0
 3798 03a3 7E       		.byte	126
 3799 03a4 21       		.byte	33
 3800 03a5 20       		.byte	32
 3801 03a6 10       		.byte	16
 3802 03a7 10       		.byte	16
 3803 03a8 08       		.byte	8
 3804 03a9 04       		.byte	4
 3805 03aa 04       		.byte	4
 3806 03ab 42       		.byte	66
 3807 03ac 42       		.byte	66
 3808 03ad 3F       		.byte	63
 3809 03ae 00       		.byte	0
 3810 03af 00       		.byte	0
 3811 03b0 00       		.byte	0
 3812 03b1 78       		.byte	120
 3813 03b2 08       		.byte	8
GAS LISTING C:\Users\Karzan\AppData\Local\Temp\ccyAl7yf.s 			page 90


 3814 03b3 08       		.byte	8
 3815 03b4 08       		.byte	8
 3816 03b5 08       		.byte	8
 3817 03b6 08       		.byte	8
 3818 03b7 08       		.byte	8
 3819 03b8 08       		.byte	8
 3820 03b9 08       		.byte	8
 3821 03ba 08       		.byte	8
 3822 03bb 08       		.byte	8
 3823 03bc 08       		.byte	8
 3824 03bd 08       		.byte	8
 3825 03be 78       		.byte	120
 3826 03bf 00       		.byte	0
 3827 03c0 00       		.byte	0
 3828 03c1 00       		.byte	0
 3829 03c2 02       		.byte	2
 3830 03c3 02       		.byte	2
 3831 03c4 04       		.byte	4
 3832 03c5 04       		.byte	4
 3833 03c6 08       		.byte	8
 3834 03c7 08       		.byte	8
 3835 03c8 08       		.byte	8
 3836 03c9 10       		.byte	16
 3837 03ca 10       		.byte	16
 3838 03cb 20       		.byte	32
 3839 03cc 20       		.byte	32
 3840 03cd 20       		.byte	32
 3841 03ce 40       		.byte	64
 3842 03cf 40       		.byte	64
 3843 03d0 00       		.byte	0
 3844 03d1 1E       		.byte	30
 3845 03d2 10       		.byte	16
 3846 03d3 10       		.byte	16
 3847 03d4 10       		.byte	16
 3848 03d5 10       		.byte	16
 3849 03d6 10       		.byte	16
 3850 03d7 10       		.byte	16
 3851 03d8 10       		.byte	16
 3852 03d9 10       		.byte	16
 3853 03da 10       		.byte	16
 3854 03db 10       		.byte	16
 3855 03dc 10       		.byte	16
 3856 03dd 10       		.byte	16
 3857 03de 1E       		.byte	30
 3858 03df 00       		.byte	0
 3859 03e0 00       		.byte	0
 3860 03e1 38       		.byte	56
 3861 03e2 44       		.byte	68
 3862 03e3 00       		.byte	0
 3863 03e4 00       		.byte	0
 3864 03e5 00       		.byte	0
 3865 03e6 00       		.byte	0
 3866 03e7 00       		.byte	0
 3867 03e8 00       		.byte	0
 3868 03e9 00       		.byte	0
 3869 03ea 00       		.byte	0
 3870 03eb 00       		.byte	0
GAS LISTING C:\Users\Karzan\AppData\Local\Temp\ccyAl7yf.s 			page 91


 3871 03ec 00       		.byte	0
 3872 03ed 00       		.byte	0
 3873 03ee 00       		.byte	0
 3874 03ef 00       		.byte	0
 3875 03f0 00       		.byte	0
 3876 03f1 00       		.byte	0
 3877 03f2 00       		.byte	0
 3878 03f3 00       		.byte	0
 3879 03f4 00       		.byte	0
 3880 03f5 00       		.byte	0
 3881 03f6 00       		.byte	0
 3882 03f7 00       		.byte	0
 3883 03f8 00       		.byte	0
 3884 03f9 00       		.byte	0
 3885 03fa 00       		.byte	0
 3886 03fb 00       		.byte	0
 3887 03fc 00       		.byte	0
 3888 03fd 00       		.byte	0
 3889 03fe 00       		.byte	0
 3890 03ff FF       		.byte	-1
 3891 0400 00       		.byte	0
 3892 0401 06       		.byte	6
 3893 0402 08       		.byte	8
 3894 0403 00       		.byte	0
 3895 0404 00       		.byte	0
 3896 0405 00       		.byte	0
 3897 0406 00       		.byte	0
 3898 0407 00       		.byte	0
 3899 0408 00       		.byte	0
 3900 0409 00       		.byte	0
 3901 040a 00       		.byte	0
 3902 040b 00       		.byte	0
 3903 040c 00       		.byte	0
 3904 040d 00       		.byte	0
 3905 040e 00       		.byte	0
 3906 040f 00       		.byte	0
 3907 0410 00       		.byte	0
 3908 0411 00       		.byte	0
 3909 0412 00       		.byte	0
 3910 0413 00       		.byte	0
 3911 0414 00       		.byte	0
 3912 0415 00       		.byte	0
 3913 0416 00       		.byte	0
 3914 0417 3C       		.byte	60
 3915 0418 42       		.byte	66
 3916 0419 78       		.byte	120
 3917 041a 44       		.byte	68
 3918 041b 42       		.byte	66
 3919 041c 42       		.byte	66
 3920 041d FC       		.byte	-4
 3921 041e 00       		.byte	0
 3922 041f 00       		.byte	0
 3923 0420 00       		.byte	0
 3924 0421 00       		.byte	0
 3925 0422 00       		.byte	0
 3926 0423 03       		.byte	3
 3927 0424 02       		.byte	2
GAS LISTING C:\Users\Karzan\AppData\Local\Temp\ccyAl7yf.s 			page 92


 3928 0425 02       		.byte	2
 3929 0426 02       		.byte	2
 3930 0427 1A       		.byte	26
 3931 0428 26       		.byte	38
 3932 0429 42       		.byte	66
 3933 042a 42       		.byte	66
 3934 042b 42       		.byte	66
 3935 042c 26       		.byte	38
 3936 042d 1A       		.byte	26
 3937 042e 00       		.byte	0
 3938 042f 00       		.byte	0
 3939 0430 00       		.byte	0
 3940 0431 00       		.byte	0
 3941 0432 00       		.byte	0
 3942 0433 00       		.byte	0
 3943 0434 00       		.byte	0
 3944 0435 00       		.byte	0
 3945 0436 00       		.byte	0
 3946 0437 38       		.byte	56
 3947 0438 44       		.byte	68
 3948 0439 02       		.byte	2
 3949 043a 02       		.byte	2
 3950 043b 02       		.byte	2
 3951 043c 44       		.byte	68
 3952 043d 38       		.byte	56
 3953 043e 00       		.byte	0
 3954 043f 00       		.byte	0
 3955 0440 00       		.byte	0
 3956 0441 00       		.byte	0
 3957 0442 00       		.byte	0
 3958 0443 60       		.byte	96
 3959 0444 40       		.byte	64
 3960 0445 40       		.byte	64
 3961 0446 40       		.byte	64
 3962 0447 78       		.byte	120
 3963 0448 44       		.byte	68
 3964 0449 42       		.byte	66
 3965 044a 42       		.byte	66
 3966 044b 42       		.byte	66
 3967 044c 64       		.byte	100
 3968 044d D8       		.byte	-40
 3969 044e 00       		.byte	0
 3970 044f 00       		.byte	0
 3971 0450 00       		.byte	0
 3972 0451 00       		.byte	0
 3973 0452 00       		.byte	0
 3974 0453 00       		.byte	0
 3975 0454 00       		.byte	0
 3976 0455 00       		.byte	0
 3977 0456 00       		.byte	0
 3978 0457 3C       		.byte	60
 3979 0458 42       		.byte	66
 3980 0459 7E       		.byte	126
 3981 045a 02       		.byte	2
 3982 045b 02       		.byte	2
 3983 045c 42       		.byte	66
 3984 045d 3C       		.byte	60
GAS LISTING C:\Users\Karzan\AppData\Local\Temp\ccyAl7yf.s 			page 93


 3985 045e 00       		.byte	0
 3986 045f 00       		.byte	0
 3987 0460 00       		.byte	0
 3988 0461 00       		.byte	0
 3989 0462 00       		.byte	0
 3990 0463 F0       		.byte	-16
 3991 0464 88       		.byte	-120
 3992 0465 08       		.byte	8
 3993 0466 08       		.byte	8
 3994 0467 7E       		.byte	126
 3995 0468 08       		.byte	8
 3996 0469 08       		.byte	8
 3997 046a 08       		.byte	8
 3998 046b 08       		.byte	8
 3999 046c 08       		.byte	8
 4000 046d 3E       		.byte	62
 4001 046e 00       		.byte	0
 4002 046f 00       		.byte	0
 4003 0470 00       		.byte	0
 4004 0471 00       		.byte	0
 4005 0472 00       		.byte	0
 4006 0473 00       		.byte	0
 4007 0474 00       		.byte	0
 4008 0475 00       		.byte	0
 4009 0476 00       		.byte	0
 4010 0477 7C       		.byte	124
 4011 0478 22       		.byte	34
 4012 0479 22       		.byte	34
 4013 047a 1C       		.byte	28
 4014 047b 02       		.byte	2
 4015 047c 3C       		.byte	60
 4016 047d 42       		.byte	66
 4017 047e 42       		.byte	66
 4018 047f 3C       		.byte	60
 4019 0480 00       		.byte	0
 4020 0481 00       		.byte	0
 4021 0482 00       		.byte	0
 4022 0483 03       		.byte	3
 4023 0484 02       		.byte	2
 4024 0485 02       		.byte	2
 4025 0486 02       		.byte	2
 4026 0487 3A       		.byte	58
 4027 0488 46       		.byte	70
 4028 0489 42       		.byte	66
 4029 048a 42       		.byte	66
 4030 048b 42       		.byte	66
 4031 048c 42       		.byte	66
 4032 048d E7       		.byte	-25
 4033 048e 00       		.byte	0
 4034 048f 00       		.byte	0
 4035 0490 00       		.byte	0
 4036 0491 00       		.byte	0
 4037 0492 00       		.byte	0
 4038 0493 0C       		.byte	12
 4039 0494 0C       		.byte	12
 4040 0495 00       		.byte	0
 4041 0496 00       		.byte	0
GAS LISTING C:\Users\Karzan\AppData\Local\Temp\ccyAl7yf.s 			page 94


 4042 0497 0E       		.byte	14
 4043 0498 08       		.byte	8
 4044 0499 08       		.byte	8
 4045 049a 08       		.byte	8
 4046 049b 08       		.byte	8
 4047 049c 08       		.byte	8
 4048 049d 3E       		.byte	62
 4049 049e 00       		.byte	0
 4050 049f 00       		.byte	0
 4051 04a0 00       		.byte	0
 4052 04a1 00       		.byte	0
 4053 04a2 00       		.byte	0
 4054 04a3 30       		.byte	48
 4055 04a4 30       		.byte	48
 4056 04a5 00       		.byte	0
 4057 04a6 00       		.byte	0
 4058 04a7 38       		.byte	56
 4059 04a8 20       		.byte	32
 4060 04a9 20       		.byte	32
 4061 04aa 20       		.byte	32
 4062 04ab 20       		.byte	32
 4063 04ac 20       		.byte	32
 4064 04ad 20       		.byte	32
 4065 04ae 22       		.byte	34
 4066 04af 1E       		.byte	30
 4067 04b0 00       		.byte	0
 4068 04b1 00       		.byte	0
 4069 04b2 00       		.byte	0
 4070 04b3 03       		.byte	3
 4071 04b4 02       		.byte	2
 4072 04b5 02       		.byte	2
 4073 04b6 02       		.byte	2
 4074 04b7 72       		.byte	114
 4075 04b8 12       		.byte	18
 4076 04b9 0A       		.byte	10
 4077 04ba 16       		.byte	22
 4078 04bb 12       		.byte	18
 4079 04bc 22       		.byte	34
 4080 04bd 77       		.byte	119
 4081 04be 00       		.byte	0
 4082 04bf 00       		.byte	0
 4083 04c0 00       		.byte	0
 4084 04c1 00       		.byte	0
 4085 04c2 00       		.byte	0
 4086 04c3 0E       		.byte	14
 4087 04c4 08       		.byte	8
 4088 04c5 08       		.byte	8
 4089 04c6 08       		.byte	8
 4090 04c7 08       		.byte	8
 4091 04c8 08       		.byte	8
 4092 04c9 08       		.byte	8
 4093 04ca 08       		.byte	8
 4094 04cb 08       		.byte	8
 4095 04cc 08       		.byte	8
 4096 04cd 3E       		.byte	62
 4097 04ce 00       		.byte	0
 4098 04cf 00       		.byte	0
GAS LISTING C:\Users\Karzan\AppData\Local\Temp\ccyAl7yf.s 			page 95


 4099 04d0 00       		.byte	0
 4100 04d1 00       		.byte	0
 4101 04d2 00       		.byte	0
 4102 04d3 00       		.byte	0
 4103 04d4 00       		.byte	0
 4104 04d5 00       		.byte	0
 4105 04d6 00       		.byte	0
 4106 04d7 7F       		.byte	127
 4107 04d8 92       		.byte	-110
 4108 04d9 92       		.byte	-110
 4109 04da 92       		.byte	-110
 4110 04db 92       		.byte	-110
 4111 04dc 92       		.byte	-110
 4112 04dd B7       		.byte	-73
 4113 04de 00       		.byte	0
 4114 04df 00       		.byte	0
 4115 04e0 00       		.byte	0
 4116 04e1 00       		.byte	0
 4117 04e2 00       		.byte	0
 4118 04e3 00       		.byte	0
 4119 04e4 00       		.byte	0
 4120 04e5 00       		.byte	0
 4121 04e6 00       		.byte	0
 4122 04e7 3B       		.byte	59
 4123 04e8 46       		.byte	70
 4124 04e9 42       		.byte	66
 4125 04ea 42       		.byte	66
 4126 04eb 42       		.byte	66
 4127 04ec 42       		.byte	66
 4128 04ed E7       		.byte	-25
 4129 04ee 00       		.byte	0
 4130 04ef 00       		.byte	0
 4131 04f0 00       		.byte	0
 4132 04f1 00       		.byte	0
 4133 04f2 00       		.byte	0
 4134 04f3 00       		.byte	0
 4135 04f4 00       		.byte	0
 4136 04f5 00       		.byte	0
 4137 04f6 00       		.byte	0
 4138 04f7 3C       		.byte	60
 4139 04f8 42       		.byte	66
 4140 04f9 42       		.byte	66
 4141 04fa 42       		.byte	66
 4142 04fb 42       		.byte	66
 4143 04fc 42       		.byte	66
 4144 04fd 3C       		.byte	60
 4145 04fe 00       		.byte	0
 4146 04ff 00       		.byte	0
 4147 0500 00       		.byte	0
 4148 0501 00       		.byte	0
 4149 0502 00       		.byte	0
 4150 0503 00       		.byte	0
 4151 0504 00       		.byte	0
 4152 0505 00       		.byte	0
 4153 0506 00       		.byte	0
 4154 0507 1B       		.byte	27
 4155 0508 26       		.byte	38
GAS LISTING C:\Users\Karzan\AppData\Local\Temp\ccyAl7yf.s 			page 96


 4156 0509 42       		.byte	66
 4157 050a 42       		.byte	66
 4158 050b 42       		.byte	66
 4159 050c 22       		.byte	34
 4160 050d 1E       		.byte	30
 4161 050e 02       		.byte	2
 4162 050f 07       		.byte	7
 4163 0510 00       		.byte	0
 4164 0511 00       		.byte	0
 4165 0512 00       		.byte	0
 4166 0513 00       		.byte	0
 4167 0514 00       		.byte	0
 4168 0515 00       		.byte	0
 4169 0516 00       		.byte	0
 4170 0517 78       		.byte	120
 4171 0518 44       		.byte	68
 4172 0519 42       		.byte	66
 4173 051a 42       		.byte	66
 4174 051b 42       		.byte	66
 4175 051c 44       		.byte	68
 4176 051d 78       		.byte	120
 4177 051e 40       		.byte	64
 4178 051f E0       		.byte	-32
 4179 0520 00       		.byte	0
 4180 0521 00       		.byte	0
 4181 0522 00       		.byte	0
 4182 0523 00       		.byte	0
 4183 0524 00       		.byte	0
 4184 0525 00       		.byte	0
 4185 0526 00       		.byte	0
 4186 0527 77       		.byte	119
 4187 0528 4C       		.byte	76
 4188 0529 04       		.byte	4
 4189 052a 04       		.byte	4
 4190 052b 04       		.byte	4
 4191 052c 04       		.byte	4
 4192 052d 1F       		.byte	31
 4193 052e 00       		.byte	0
 4194 052f 00       		.byte	0
 4195 0530 00       		.byte	0
 4196 0531 00       		.byte	0
 4197 0532 00       		.byte	0
 4198 0533 00       		.byte	0
 4199 0534 00       		.byte	0
 4200 0535 00       		.byte	0
 4201 0536 00       		.byte	0
 4202 0537 7C       		.byte	124
 4203 0538 42       		.byte	66
 4204 0539 02       		.byte	2
 4205 053a 3C       		.byte	60
 4206 053b 40       		.byte	64
 4207 053c 42       		.byte	66
 4208 053d 3E       		.byte	62
 4209 053e 00       		.byte	0
 4210 053f 00       		.byte	0
 4211 0540 00       		.byte	0
 4212 0541 00       		.byte	0
GAS LISTING C:\Users\Karzan\AppData\Local\Temp\ccyAl7yf.s 			page 97


 4213 0542 00       		.byte	0
 4214 0543 00       		.byte	0
 4215 0544 00       		.byte	0
 4216 0545 08       		.byte	8
 4217 0546 08       		.byte	8
 4218 0547 3E       		.byte	62
 4219 0548 08       		.byte	8
 4220 0549 08       		.byte	8
 4221 054a 08       		.byte	8
 4222 054b 08       		.byte	8
 4223 054c 08       		.byte	8
 4224 054d 30       		.byte	48
 4225 054e 00       		.byte	0
 4226 054f 00       		.byte	0
 4227 0550 00       		.byte	0
 4228 0551 00       		.byte	0
 4229 0552 00       		.byte	0
 4230 0553 00       		.byte	0
 4231 0554 00       		.byte	0
 4232 0555 00       		.byte	0
 4233 0556 00       		.byte	0
 4234 0557 63       		.byte	99
 4235 0558 42       		.byte	66
 4236 0559 42       		.byte	66
 4237 055a 42       		.byte	66
 4238 055b 42       		.byte	66
 4239 055c 62       		.byte	98
 4240 055d DC       		.byte	-36
 4241 055e 00       		.byte	0
 4242 055f 00       		.byte	0
 4243 0560 00       		.byte	0
 4244 0561 00       		.byte	0
 4245 0562 00       		.byte	0
 4246 0563 00       		.byte	0
 4247 0564 00       		.byte	0
 4248 0565 00       		.byte	0
 4249 0566 00       		.byte	0
 4250 0567 E7       		.byte	-25
 4251 0568 42       		.byte	66
 4252 0569 24       		.byte	36
 4253 056a 24       		.byte	36
 4254 056b 14       		.byte	20
 4255 056c 08       		.byte	8
 4256 056d 08       		.byte	8
 4257 056e 00       		.byte	0
 4258 056f 00       		.byte	0
 4259 0570 00       		.byte	0
 4260 0571 00       		.byte	0
 4261 0572 00       		.byte	0
 4262 0573 00       		.byte	0
 4263 0574 00       		.byte	0
 4264 0575 00       		.byte	0
 4265 0576 00       		.byte	0
 4266 0577 EB       		.byte	-21
 4267 0578 49       		.byte	73
 4268 0579 49       		.byte	73
 4269 057a 55       		.byte	85
GAS LISTING C:\Users\Karzan\AppData\Local\Temp\ccyAl7yf.s 			page 98


 4270 057b 55       		.byte	85
 4271 057c 22       		.byte	34
 4272 057d 22       		.byte	34
 4273 057e 00       		.byte	0
 4274 057f 00       		.byte	0
 4275 0580 00       		.byte	0
 4276 0581 00       		.byte	0
 4277 0582 00       		.byte	0
 4278 0583 00       		.byte	0
 4279 0584 00       		.byte	0
 4280 0585 00       		.byte	0
 4281 0586 00       		.byte	0
 4282 0587 76       		.byte	118
 4283 0588 24       		.byte	36
 4284 0589 18       		.byte	24
 4285 058a 18       		.byte	24
 4286 058b 18       		.byte	24
 4287 058c 24       		.byte	36
 4288 058d 6E       		.byte	110
 4289 058e 00       		.byte	0
 4290 058f 00       		.byte	0
 4291 0590 00       		.byte	0
 4292 0591 00       		.byte	0
 4293 0592 00       		.byte	0
 4294 0593 00       		.byte	0
 4295 0594 00       		.byte	0
 4296 0595 00       		.byte	0
 4297 0596 00       		.byte	0
 4298 0597 E7       		.byte	-25
 4299 0598 42       		.byte	66
 4300 0599 24       		.byte	36
 4301 059a 24       		.byte	36
 4302 059b 14       		.byte	20
 4303 059c 18       		.byte	24
 4304 059d 08       		.byte	8
 4305 059e 08       		.byte	8
 4306 059f 07       		.byte	7
 4307 05a0 00       		.byte	0
 4308 05a1 00       		.byte	0
 4309 05a2 00       		.byte	0
 4310 05a3 00       		.byte	0
 4311 05a4 00       		.byte	0
 4312 05a5 00       		.byte	0
 4313 05a6 00       		.byte	0
 4314 05a7 7E       		.byte	126
 4315 05a8 22       		.byte	34
 4316 05a9 10       		.byte	16
 4317 05aa 08       		.byte	8
 4318 05ab 08       		.byte	8
 4319 05ac 44       		.byte	68
 4320 05ad 7E       		.byte	126
 4321 05ae 00       		.byte	0
 4322 05af 00       		.byte	0
 4323 05b0 00       		.byte	0
 4324 05b1 C0       		.byte	-64
 4325 05b2 20       		.byte	32
 4326 05b3 20       		.byte	32
GAS LISTING C:\Users\Karzan\AppData\Local\Temp\ccyAl7yf.s 			page 99


 4327 05b4 20       		.byte	32
 4328 05b5 20       		.byte	32
 4329 05b6 20       		.byte	32
 4330 05b7 10       		.byte	16
 4331 05b8 20       		.byte	32
 4332 05b9 20       		.byte	32
 4333 05ba 20       		.byte	32
 4334 05bb 20       		.byte	32
 4335 05bc 20       		.byte	32
 4336 05bd 20       		.byte	32
 4337 05be C0       		.byte	-64
 4338 05bf 00       		.byte	0
 4339 05c0 10       		.byte	16
 4340 05c1 10       		.byte	16
 4341 05c2 10       		.byte	16
 4342 05c3 10       		.byte	16
 4343 05c4 10       		.byte	16
 4344 05c5 10       		.byte	16
 4345 05c6 10       		.byte	16
 4346 05c7 10       		.byte	16
 4347 05c8 10       		.byte	16
 4348 05c9 10       		.byte	16
 4349 05ca 10       		.byte	16
 4350 05cb 10       		.byte	16
 4351 05cc 10       		.byte	16
 4352 05cd 10       		.byte	16
 4353 05ce 10       		.byte	16
 4354 05cf 10       		.byte	16
 4355 05d0 00       		.byte	0
 4356 05d1 06       		.byte	6
 4357 05d2 08       		.byte	8
 4358 05d3 08       		.byte	8
 4359 05d4 08       		.byte	8
 4360 05d5 08       		.byte	8
 4361 05d6 08       		.byte	8
 4362 05d7 10       		.byte	16
 4363 05d8 08       		.byte	8
 4364 05d9 08       		.byte	8
 4365 05da 08       		.byte	8
 4366 05db 08       		.byte	8
 4367 05dc 08       		.byte	8
 4368 05dd 08       		.byte	8
 4369 05de 06       		.byte	6
 4370 05df 00       		.byte	0
 4371 05e0 0C       		.byte	12
 4372 05e1 32       		.byte	50
 4373 05e2 C2       		.byte	-62
 4374 05e3 00       		.byte	0
 4375 05e4 00       		.byte	0
 4376 05e5 00       		.byte	0
 4377 05e6 00       		.byte	0
 4378 05e7 00       		.byte	0
 4379 05e8 00       		.byte	0
 4380 05e9 00       		.byte	0
 4381 05ea 00       		.byte	0
 4382 05eb 00       		.byte	0
 4383 05ec 00       		.byte	0
GAS LISTING C:\Users\Karzan\AppData\Local\Temp\ccyAl7yf.s 			page 100


 4384 05ed 00       		.byte	0
 4385 05ee 00       		.byte	0
 4386 05ef 00       		.byte	0
 4387              		.section	.rodata.lcd_delay_1ms.cst8,"aM",@progbits,8
 4388              		.align	3
 4389              	.LC0:
 4390 0000 00000000 		.word	0
 4391 0004 0040AF40 		.word	1085227008
 4392              		.text
 4393              	.Letext0:
 4394              		.file 2 "c:\\users\\karzan\\downloads\\toolchain-gd32v-v202-win\\toolchain-gd32v-v202-win\\compile
 4395              		.file 3 "c:\\users\\karzan\\downloads\\toolchain-gd32v-v202-win\\toolchain-gd32v-v202-win\\compile
 4396              		.file 4 "./../../firmware/GD32VF103_standard_peripheral/gd32vf103.h"
 4397              		.file 5 "./../../firmware/GD32VF103_standard_peripheral/Include/gd32vf103_rcu.h"
 4398              		.file 6 "./../../firmware/GD32VF103_standard_peripheral/Include/gd32vf103_spi.h"
 4399              		.file 7 "c:\\users\\karzan\\downloads\\toolchain-gd32v-v202-win\\toolchain-gd32v-v202-win\\compile
 4400              		.file 8 "c:\\users\\karzan\\downloads\\toolchain-gd32v-v202-win\\toolchain-gd32v-v202-win\\compile
 4401              		.file 9 "c:\\users\\karzan\\downloads\\toolchain-gd32v-v202-win\\toolchain-gd32v-v202-win\\compile
 4402              		.file 10 "c:\\users\\karzan\\downloads\\toolchain-gd32v-v202-win\\toolchain-gd32v-v202-win\\compil
 4403              		.file 11 "c:\\users\\karzan\\downloads\\toolchain-gd32v-v202-win\\toolchain-gd32v-v202-win\\compil
 4404              		.file 12 "c:\\users\\karzan\\downloads\\toolchain-gd32v-v202-win\\toolchain-gd32v-v202-win\\compil
 4405              		.file 13 "./../../firmware/GD32VF103_standard_peripheral/system_gd32vf103.h"
 4406              		.file 14 "lio_lcd.h"
 4407              		.file 15 "lio_font.h"
 4408              		.file 16 "c:\\users\\karzan\\downloads\\toolchain-gd32v-v202-win\\toolchain-gd32v-v202-win\\compil
 4409              		.file 17 "./../../firmware/RISCV/drivers/n200_func.h"
 4410              		.file 18 "./../../firmware/GD32VF103_standard_peripheral/Include/gd32vf103_gpio.h"
 4411              		.file 19 "<built-in>"
GAS LISTING C:\Users\Karzan\AppData\Local\Temp\ccyAl7yf.s 			page 101


DEFINED SYMBOLS
                            *ABS*:0000000000000000 lio_lcd.c
C:\Users\Karzan\AppData\Local\Temp\ccyAl7yf.s:13     .text.lio_lcd_set_background:0000000000000000 lio_lcd_set_background
C:\Users\Karzan\AppData\Local\Temp\ccyAl7yf.s:17     .text.lio_lcd_set_background:0000000000000000 .L0 
C:\Users\Karzan\AppData\Local\Temp\ccyAl7yf.s:19     .text.lio_lcd_set_background:0000000000000000 .L0 
C:\Users\Karzan\AppData\Local\Temp\ccyAl7yf.s:20     .text.lio_lcd_set_background:0000000000000000 .L0 
                            *COM*:000000000000000c _config
C:\Users\Karzan\AppData\Local\Temp\ccyAl7yf.s:21     .text.lio_lcd_set_background:0000000000000000 .L0 
C:\Users\Karzan\AppData\Local\Temp\ccyAl7yf.s:24     .text.lio_lcd_set_background:0000000000000008 .L0 
C:\Users\Karzan\AppData\Local\Temp\ccyAl7yf.s:25     .text.lio_lcd_set_background:000000000000000a .L0 
C:\Users\Karzan\AppData\Local\Temp\ccyAl7yf.s:32     .text.spi_write_bus:0000000000000000 spi_write_bus
C:\Users\Karzan\AppData\Local\Temp\ccyAl7yf.s:35     .text.spi_write_bus:0000000000000000 .L0 
C:\Users\Karzan\AppData\Local\Temp\ccyAl7yf.s:37     .text.spi_write_bus:0000000000000000 .L0 
C:\Users\Karzan\AppData\Local\Temp\ccyAl7yf.s:38     .text.spi_write_bus:0000000000000000 .L0 
C:\Users\Karzan\AppData\Local\Temp\ccyAl7yf.s:39     .text.spi_write_bus:0000000000000000 .L0 
C:\Users\Karzan\AppData\Local\Temp\ccyAl7yf.s:41     .text.spi_write_bus:0000000000000002 .L0 
C:\Users\Karzan\AppData\Local\Temp\ccyAl7yf.s:43     .text.spi_write_bus:0000000000000004 .L0 
C:\Users\Karzan\AppData\Local\Temp\ccyAl7yf.s:45     .text.spi_write_bus:0000000000000004 .L0 
C:\Users\Karzan\AppData\Local\Temp\ccyAl7yf.s:47     .text.spi_write_bus:0000000000000008 .L0 
C:\Users\Karzan\AppData\Local\Temp\ccyAl7yf.s:50     .text.spi_write_bus:000000000000000e .L0 
C:\Users\Karzan\AppData\Local\Temp\ccyAl7yf.s:51     .text.spi_write_bus:000000000000000e .L0 
C:\Users\Karzan\AppData\Local\Temp\ccyAl7yf.s:52     .text.spi_write_bus:000000000000000e .L0 
C:\Users\Karzan\AppData\Local\Temp\ccyAl7yf.s:54     .text.spi_write_bus:000000000000000e .L0 
C:\Users\Karzan\AppData\Local\Temp\ccyAl7yf.s:56     .text.spi_write_bus:0000000000000010 .L0 
C:\Users\Karzan\AppData\Local\Temp\ccyAl7yf.s:60     .text.spi_write_bus:0000000000000014 .L0 
C:\Users\Karzan\AppData\Local\Temp\ccyAl7yf.s:61     .text.spi_write_bus:0000000000000014 .L0 
C:\Users\Karzan\AppData\Local\Temp\ccyAl7yf.s:66     .text.spi_write_bus:0000000000000020 .L0 
C:\Users\Karzan\AppData\Local\Temp\ccyAl7yf.s:68     .text.spi_write_bus:0000000000000022 .L0 
C:\Users\Karzan\AppData\Local\Temp\ccyAl7yf.s:70     .text.spi_write_bus:0000000000000026 .L0 
C:\Users\Karzan\AppData\Local\Temp\ccyAl7yf.s:71     .text.spi_write_bus:0000000000000028 .L0 
C:\Users\Karzan\AppData\Local\Temp\ccyAl7yf.s:73     .text.spi_write_bus:000000000000002a .L0 
C:\Users\Karzan\AppData\Local\Temp\ccyAl7yf.s:75     .text.spi_write_bus:000000000000002c .L0 
C:\Users\Karzan\AppData\Local\Temp\ccyAl7yf.s:77     .text.spi_write_bus:000000000000002c .L0 
C:\Users\Karzan\AppData\Local\Temp\ccyAl7yf.s:79     .text.spi_write_bus:000000000000002e .L0 
C:\Users\Karzan\AppData\Local\Temp\ccyAl7yf.s:80     .text.spi_write_bus:0000000000000030 .L0 
C:\Users\Karzan\AppData\Local\Temp\ccyAl7yf.s:83     .text.spi_write_bus:0000000000000032 .L0 
C:\Users\Karzan\AppData\Local\Temp\ccyAl7yf.s:85     .text.spi_write_bus:0000000000000032 .L0 
C:\Users\Karzan\AppData\Local\Temp\ccyAl7yf.s:87     .text.spi_write_bus:000000000000003a .L0 
C:\Users\Karzan\AppData\Local\Temp\ccyAl7yf.s:94     .text.lcd_CS_set:0000000000000000 lcd_CS_set
C:\Users\Karzan\AppData\Local\Temp\ccyAl7yf.s:97     .text.lcd_CS_set:0000000000000000 .L0 
C:\Users\Karzan\AppData\Local\Temp\ccyAl7yf.s:98     .text.lcd_CS_set:0000000000000000 .L0 
C:\Users\Karzan\AppData\Local\Temp\ccyAl7yf.s:99     .text.lcd_CS_set:0000000000000000 .L0 
C:\Users\Karzan\AppData\Local\Temp\ccyAl7yf.s:103    .text.lcd_CS_set:000000000000000e .L0 
C:\Users\Karzan\AppData\Local\Temp\ccyAl7yf.s:110    .text.lcd_bus_init:0000000000000000 lcd_bus_init
C:\Users\Karzan\AppData\Local\Temp\ccyAl7yf.s:113    .text.lcd_bus_init:0000000000000000 .L0 
C:\Users\Karzan\AppData\Local\Temp\ccyAl7yf.s:114    .text.lcd_bus_init:0000000000000000 .L0 
C:\Users\Karzan\AppData\Local\Temp\ccyAl7yf.s:115    .text.lcd_bus_init:0000000000000000 .L0 
C:\Users\Karzan\AppData\Local\Temp\ccyAl7yf.s:116    .text.lcd_bus_init:0000000000000000 .L0 
C:\Users\Karzan\AppData\Local\Temp\ccyAl7yf.s:117    .text.lcd_bus_init:0000000000000000 .L0 
C:\Users\Karzan\AppData\Local\Temp\ccyAl7yf.s:119    .text.lcd_bus_init:0000000000000002 .L0 
C:\Users\Karzan\AppData\Local\Temp\ccyAl7yf.s:121    .text.lcd_bus_init:0000000000000002 .L0 
C:\Users\Karzan\AppData\Local\Temp\ccyAl7yf.s:123    .text.lcd_bus_init:0000000000000006 .L0 
C:\Users\Karzan\AppData\Local\Temp\ccyAl7yf.s:125    .text.lcd_bus_init:000000000000000a .L0 
C:\Users\Karzan\AppData\Local\Temp\ccyAl7yf.s:126    .text.lcd_bus_init:000000000000000a .L0 
C:\Users\Karzan\AppData\Local\Temp\ccyAl7yf.s:128    .text.lcd_bus_init:000000000000000a .L0 
C:\Users\Karzan\AppData\Local\Temp\ccyAl7yf.s:131    .text.lcd_bus_init:0000000000000012 .L0 
C:\Users\Karzan\AppData\Local\Temp\ccyAl7yf.s:135    .text.lcd_bus_init:000000000000001e .L0 
GAS LISTING C:\Users\Karzan\AppData\Local\Temp\ccyAl7yf.s 			page 102


C:\Users\Karzan\AppData\Local\Temp\ccyAl7yf.s:139    .text.lcd_bus_init:000000000000002a .L0 
C:\Users\Karzan\AppData\Local\Temp\ccyAl7yf.s:143    .text.lcd_bus_init:0000000000000036 .L0 
C:\Users\Karzan\AppData\Local\Temp\ccyAl7yf.s:151    .text.lcd_bus_init:000000000000004c .L0 
C:\Users\Karzan\AppData\Local\Temp\ccyAl7yf.s:158    .text.lcd_bus_init:000000000000005e .L0 
C:\Users\Karzan\AppData\Local\Temp\ccyAl7yf.s:162    .text.lcd_bus_init:0000000000000068 .L0 
C:\Users\Karzan\AppData\Local\Temp\ccyAl7yf.s:163    .text.lcd_bus_init:0000000000000068 .L0 
C:\Users\Karzan\AppData\Local\Temp\ccyAl7yf.s:166    .text.lcd_bus_init:000000000000006e .L0 
C:\Users\Karzan\AppData\Local\Temp\ccyAl7yf.s:169    .text.lcd_bus_init:0000000000000072 .L0 
C:\Users\Karzan\AppData\Local\Temp\ccyAl7yf.s:172    .text.lcd_bus_init:0000000000000078 .L0 
C:\Users\Karzan\AppData\Local\Temp\ccyAl7yf.s:175    .text.lcd_bus_init:000000000000007c .L0 
C:\Users\Karzan\AppData\Local\Temp\ccyAl7yf.s:177    .text.lcd_bus_init:0000000000000080 .L0 
C:\Users\Karzan\AppData\Local\Temp\ccyAl7yf.s:179    .text.lcd_bus_init:0000000000000082 .L0 
C:\Users\Karzan\AppData\Local\Temp\ccyAl7yf.s:180    .text.lcd_bus_init:0000000000000082 .L0 
C:\Users\Karzan\AppData\Local\Temp\ccyAl7yf.s:181    .text.lcd_bus_init:0000000000000082 .L0 
C:\Users\Karzan\AppData\Local\Temp\ccyAl7yf.s:183    .text.lcd_bus_init:0000000000000084 .L0 
C:\Users\Karzan\AppData\Local\Temp\ccyAl7yf.s:184    .text.lcd_bus_init:0000000000000084 .L0 
C:\Users\Karzan\AppData\Local\Temp\ccyAl7yf.s:185    .text.lcd_bus_init:0000000000000084 .L0 
C:\Users\Karzan\AppData\Local\Temp\ccyAl7yf.s:186    .text.lcd_bus_init:0000000000000084 .L0 
C:\Users\Karzan\AppData\Local\Temp\ccyAl7yf.s:187    .text.lcd_bus_init:0000000000000084 .L0 
C:\Users\Karzan\AppData\Local\Temp\ccyAl7yf.s:189    .text.lcd_bus_init:0000000000000086 .L0 
C:\Users\Karzan\AppData\Local\Temp\ccyAl7yf.s:192    .text.lcd_bus_init:000000000000008e .L0 
C:\Users\Karzan\AppData\Local\Temp\ccyAl7yf.s:197    .text.lcd_bus_init:000000000000009c .L0 
C:\Users\Karzan\AppData\Local\Temp\ccyAl7yf.s:201    .text.lcd_bus_init:00000000000000a8 .L0 
C:\Users\Karzan\AppData\Local\Temp\ccyAl7yf.s:202    .text.lcd_bus_init:00000000000000aa .L0 
C:\Users\Karzan\AppData\Local\Temp\ccyAl7yf.s:204    .text.lcd_bus_init:00000000000000ac .L0 
C:\Users\Karzan\AppData\Local\Temp\ccyAl7yf.s:207    .text.lcd_bus_init:00000000000000ae .L0 
C:\Users\Karzan\AppData\Local\Temp\ccyAl7yf.s:209    .text.lcd_bus_init:00000000000000b0 .L0 
C:\Users\Karzan\AppData\Local\Temp\ccyAl7yf.s:216    .text.lcd_CS_reset:0000000000000000 lcd_CS_reset
C:\Users\Karzan\AppData\Local\Temp\ccyAl7yf.s:219    .text.lcd_CS_reset:0000000000000000 .L0 
C:\Users\Karzan\AppData\Local\Temp\ccyAl7yf.s:220    .text.lcd_CS_reset:0000000000000000 .L0 
C:\Users\Karzan\AppData\Local\Temp\ccyAl7yf.s:221    .text.lcd_CS_reset:0000000000000000 .L0 
C:\Users\Karzan\AppData\Local\Temp\ccyAl7yf.s:225    .text.lcd_CS_reset:000000000000000e .L0 
C:\Users\Karzan\AppData\Local\Temp\ccyAl7yf.s:232    .text.lcd_DC_set:0000000000000000 lcd_DC_set
C:\Users\Karzan\AppData\Local\Temp\ccyAl7yf.s:235    .text.lcd_DC_set:0000000000000000 .L0 
C:\Users\Karzan\AppData\Local\Temp\ccyAl7yf.s:236    .text.lcd_DC_set:0000000000000000 .L0 
C:\Users\Karzan\AppData\Local\Temp\ccyAl7yf.s:237    .text.lcd_DC_set:0000000000000000 .L0 
C:\Users\Karzan\AppData\Local\Temp\ccyAl7yf.s:241    .text.lcd_DC_set:000000000000000e .L0 
C:\Users\Karzan\AppData\Local\Temp\ccyAl7yf.s:248    .text.lcd_write_colors:0000000000000000 lcd_write_colors
C:\Users\Karzan\AppData\Local\Temp\ccyAl7yf.s:251    .text.lcd_write_colors:0000000000000000 .L0 
C:\Users\Karzan\AppData\Local\Temp\ccyAl7yf.s:253    .text.lcd_write_colors:0000000000000000 .L0 
C:\Users\Karzan\AppData\Local\Temp\ccyAl7yf.s:254    .text.lcd_write_colors:0000000000000000 .L0 
C:\Users\Karzan\AppData\Local\Temp\ccyAl7yf.s:255    .text.lcd_write_colors:0000000000000000 .L0 
C:\Users\Karzan\AppData\Local\Temp\ccyAl7yf.s:257    .text.lcd_write_colors:0000000000000002 .L0 
C:\Users\Karzan\AppData\Local\Temp\ccyAl7yf.s:261    .text.lcd_write_colors:0000000000000008 .L0 
C:\Users\Karzan\AppData\Local\Temp\ccyAl7yf.s:262    .text.lcd_write_colors:0000000000000008 .L0 
C:\Users\Karzan\AppData\Local\Temp\ccyAl7yf.s:263    .text.lcd_write_colors:0000000000000008 .L0 
C:\Users\Karzan\AppData\Local\Temp\ccyAl7yf.s:265    .text.lcd_write_colors:0000000000000008 .L0 
C:\Users\Karzan\AppData\Local\Temp\ccyAl7yf.s:268    .text.lcd_write_colors:000000000000000a .L0 
C:\Users\Karzan\AppData\Local\Temp\ccyAl7yf.s:269    .text.lcd_write_colors:000000000000000a .L0 
C:\Users\Karzan\AppData\Local\Temp\ccyAl7yf.s:271    .text.lcd_write_colors:000000000000000c .L0 
C:\Users\Karzan\AppData\Local\Temp\ccyAl7yf.s:274    .text.lcd_write_colors:0000000000000014 .L0 
C:\Users\Karzan\AppData\Local\Temp\ccyAl7yf.s:278    .text.lcd_write_colors:000000000000001c .L0 
C:\Users\Karzan\AppData\Local\Temp\ccyAl7yf.s:279    .text.lcd_write_colors:000000000000001c .L0 
C:\Users\Karzan\AppData\Local\Temp\ccyAl7yf.s:281    .text.lcd_write_colors:000000000000001e .L0 
C:\Users\Karzan\AppData\Local\Temp\ccyAl7yf.s:285    .text.lcd_write_colors:0000000000000026 .L0 
C:\Users\Karzan\AppData\Local\Temp\ccyAl7yf.s:289    .text.lcd_write_colors:0000000000000028 .L0 
C:\Users\Karzan\AppData\Local\Temp\ccyAl7yf.s:290    .text.lcd_write_colors:0000000000000028 .L0 
GAS LISTING C:\Users\Karzan\AppData\Local\Temp\ccyAl7yf.s 			page 103


C:\Users\Karzan\AppData\Local\Temp\ccyAl7yf.s:295    .text.lcd_write_colors:0000000000000036 .L0 
C:\Users\Karzan\AppData\Local\Temp\ccyAl7yf.s:297    .text.lcd_write_colors:000000000000003a .L0 
C:\Users\Karzan\AppData\Local\Temp\ccyAl7yf.s:298    .text.lcd_write_colors:000000000000003a .L0 
C:\Users\Karzan\AppData\Local\Temp\ccyAl7yf.s:299    .text.lcd_write_colors:000000000000003c .L0 
C:\Users\Karzan\AppData\Local\Temp\ccyAl7yf.s:300    .text.lcd_write_colors:000000000000003c .L0 
C:\Users\Karzan\AppData\Local\Temp\ccyAl7yf.s:302    .text.lcd_write_colors:000000000000003e .L0 
C:\Users\Karzan\AppData\Local\Temp\ccyAl7yf.s:304    .text.lcd_write_colors:0000000000000040 .L0 
C:\Users\Karzan\AppData\Local\Temp\ccyAl7yf.s:307    .text.lcd_write_colors:0000000000000042 .L0 
C:\Users\Karzan\AppData\Local\Temp\ccyAl7yf.s:309    .text.lcd_write_colors:0000000000000042 .L0 
C:\Users\Karzan\AppData\Local\Temp\ccyAl7yf.s:313    .text.lcd_write_colors:000000000000004a .L0 
C:\Users\Karzan\AppData\Local\Temp\ccyAl7yf.s:315    .text.lcd_write_colors:000000000000004a .L0 
C:\Users\Karzan\AppData\Local\Temp\ccyAl7yf.s:317    .text.lcd_write_colors:000000000000004e .L0 
C:\Users\Karzan\AppData\Local\Temp\ccyAl7yf.s:320    .text.lcd_write_colors:0000000000000050 .L0 
C:\Users\Karzan\AppData\Local\Temp\ccyAl7yf.s:323    .text.lcd_write_colors:0000000000000052 .L0 
C:\Users\Karzan\AppData\Local\Temp\ccyAl7yf.s:326    .text.lcd_write_colors:000000000000005a .L0 
C:\Users\Karzan\AppData\Local\Temp\ccyAl7yf.s:330    .text.lcd_write_colors:0000000000000066 .L0 
C:\Users\Karzan\AppData\Local\Temp\ccyAl7yf.s:331    .text.lcd_write_colors:0000000000000068 .L0 
C:\Users\Karzan\AppData\Local\Temp\ccyAl7yf.s:338    .text.lcd_write_color:0000000000000000 lcd_write_color
C:\Users\Karzan\AppData\Local\Temp\ccyAl7yf.s:341    .text.lcd_write_color:0000000000000000 .L0 
C:\Users\Karzan\AppData\Local\Temp\ccyAl7yf.s:343    .text.lcd_write_color:0000000000000000 .L0 
C:\Users\Karzan\AppData\Local\Temp\ccyAl7yf.s:344    .text.lcd_write_color:0000000000000000 .L0 
C:\Users\Karzan\AppData\Local\Temp\ccyAl7yf.s:345    .text.lcd_write_color:0000000000000000 .L0 
C:\Users\Karzan\AppData\Local\Temp\ccyAl7yf.s:346    .text.lcd_write_color:0000000000000000 .L0 
C:\Users\Karzan\AppData\Local\Temp\ccyAl7yf.s:348    .text.lcd_write_color:0000000000000002 .L0 
C:\Users\Karzan\AppData\Local\Temp\ccyAl7yf.s:350    .text.lcd_write_color:0000000000000004 .L0 
C:\Users\Karzan\AppData\Local\Temp\ccyAl7yf.s:355    .text.lcd_write_color:000000000000000c .L0 
C:\Users\Karzan\AppData\Local\Temp\ccyAl7yf.s:356    .text.lcd_write_color:000000000000000c .L0 
C:\Users\Karzan\AppData\Local\Temp\ccyAl7yf.s:357    .text.lcd_write_color:000000000000000c .L0 
C:\Users\Karzan\AppData\Local\Temp\ccyAl7yf.s:359    .text.lcd_write_color:000000000000000c .L0 
C:\Users\Karzan\AppData\Local\Temp\ccyAl7yf.s:361    .text.lcd_write_color:000000000000000e .L0 
C:\Users\Karzan\AppData\Local\Temp\ccyAl7yf.s:363    .text.lcd_write_color:0000000000000012 .L0 
C:\Users\Karzan\AppData\Local\Temp\ccyAl7yf.s:366    .text.lcd_write_color:000000000000001a .L0 
C:\Users\Karzan\AppData\Local\Temp\ccyAl7yf.s:367    .text.lcd_write_color:000000000000001a .L0 
C:\Users\Karzan\AppData\Local\Temp\ccyAl7yf.s:369    .text.lcd_write_color:000000000000001e .L0 
C:\Users\Karzan\AppData\Local\Temp\ccyAl7yf.s:373    .text.lcd_write_color:0000000000000026 .L0 
C:\Users\Karzan\AppData\Local\Temp\ccyAl7yf.s:374    .text.lcd_write_color:0000000000000026 .L0 
C:\Users\Karzan\AppData\Local\Temp\ccyAl7yf.s:376    .text.lcd_write_color:0000000000000028 .L0 
C:\Users\Karzan\AppData\Local\Temp\ccyAl7yf.s:379    .text.lcd_write_color:0000000000000030 .L0 
C:\Users\Karzan\AppData\Local\Temp\ccyAl7yf.s:383    .text.lcd_write_color:0000000000000032 .L0 
C:\Users\Karzan\AppData\Local\Temp\ccyAl7yf.s:384    .text.lcd_write_color:0000000000000032 .L0 
C:\Users\Karzan\AppData\Local\Temp\ccyAl7yf.s:389    .text.lcd_write_color:0000000000000040 .L0 
C:\Users\Karzan\AppData\Local\Temp\ccyAl7yf.s:391    .text.lcd_write_color:0000000000000044 .L0 
C:\Users\Karzan\AppData\Local\Temp\ccyAl7yf.s:392    .text.lcd_write_color:0000000000000044 .L0 
C:\Users\Karzan\AppData\Local\Temp\ccyAl7yf.s:393    .text.lcd_write_color:0000000000000046 .L0 
C:\Users\Karzan\AppData\Local\Temp\ccyAl7yf.s:394    .text.lcd_write_color:0000000000000046 .L0 
C:\Users\Karzan\AppData\Local\Temp\ccyAl7yf.s:396    .text.lcd_write_color:0000000000000048 .L0 
C:\Users\Karzan\AppData\Local\Temp\ccyAl7yf.s:398    .text.lcd_write_color:000000000000004a .L0 
C:\Users\Karzan\AppData\Local\Temp\ccyAl7yf.s:400    .text.lcd_write_color:000000000000004c .L0 
C:\Users\Karzan\AppData\Local\Temp\ccyAl7yf.s:403    .text.lcd_write_color:000000000000004e .L0 
C:\Users\Karzan\AppData\Local\Temp\ccyAl7yf.s:405    .text.lcd_write_color:000000000000004e .L0 
C:\Users\Karzan\AppData\Local\Temp\ccyAl7yf.s:409    .text.lcd_write_color:0000000000000056 .L0 
C:\Users\Karzan\AppData\Local\Temp\ccyAl7yf.s:411    .text.lcd_write_color:0000000000000056 .L0 
C:\Users\Karzan\AppData\Local\Temp\ccyAl7yf.s:415    .text.lcd_write_color:0000000000000060 .L0 
C:\Users\Karzan\AppData\Local\Temp\ccyAl7yf.s:419    .text.lcd_write_color:000000000000006a .L0 
C:\Users\Karzan\AppData\Local\Temp\ccyAl7yf.s:422    .text.lcd_write_color:000000000000006e .L0 
C:\Users\Karzan\AppData\Local\Temp\ccyAl7yf.s:429    .text.lcd_write_data:0000000000000000 lcd_write_data
C:\Users\Karzan\AppData\Local\Temp\ccyAl7yf.s:432    .text.lcd_write_data:0000000000000000 .L0 
GAS LISTING C:\Users\Karzan\AppData\Local\Temp\ccyAl7yf.s 			page 104


C:\Users\Karzan\AppData\Local\Temp\ccyAl7yf.s:434    .text.lcd_write_data:0000000000000000 .L0 
C:\Users\Karzan\AppData\Local\Temp\ccyAl7yf.s:435    .text.lcd_write_data:0000000000000000 .L0 
C:\Users\Karzan\AppData\Local\Temp\ccyAl7yf.s:436    .text.lcd_write_data:0000000000000000 .L0 
C:\Users\Karzan\AppData\Local\Temp\ccyAl7yf.s:438    .text.lcd_write_data:0000000000000002 .L0 
C:\Users\Karzan\AppData\Local\Temp\ccyAl7yf.s:441    .text.lcd_write_data:0000000000000006 .L0 
C:\Users\Karzan\AppData\Local\Temp\ccyAl7yf.s:442    .text.lcd_write_data:0000000000000006 .L0 
C:\Users\Karzan\AppData\Local\Temp\ccyAl7yf.s:446    .text.lcd_write_data:000000000000000c .L0 
C:\Users\Karzan\AppData\Local\Temp\ccyAl7yf.s:449    .text.lcd_write_data:000000000000000e .L0 
C:\Users\Karzan\AppData\Local\Temp\ccyAl7yf.s:452    .text.lcd_write_data:0000000000000016 .L0 
C:\Users\Karzan\AppData\Local\Temp\ccyAl7yf.s:456    .text.lcd_write_data:000000000000001e .L0 
C:\Users\Karzan\AppData\Local\Temp\ccyAl7yf.s:457    .text.lcd_write_data:000000000000001e .L0 
C:\Users\Karzan\AppData\Local\Temp\ccyAl7yf.s:459    .text.lcd_write_data:0000000000000022 .L0 
C:\Users\Karzan\AppData\Local\Temp\ccyAl7yf.s:463    .text.lcd_write_data:000000000000002a .L0 
C:\Users\Karzan\AppData\Local\Temp\ccyAl7yf.s:466    .text.lcd_write_data:000000000000002c .L0 
C:\Users\Karzan\AppData\Local\Temp\ccyAl7yf.s:467    .text.lcd_write_data:000000000000002c .L0 
C:\Users\Karzan\AppData\Local\Temp\ccyAl7yf.s:472    .text.lcd_write_data:000000000000003a .L0 
C:\Users\Karzan\AppData\Local\Temp\ccyAl7yf.s:474    .text.lcd_write_data:000000000000003e .L0 
C:\Users\Karzan\AppData\Local\Temp\ccyAl7yf.s:475    .text.lcd_write_data:000000000000003e .L0 
C:\Users\Karzan\AppData\Local\Temp\ccyAl7yf.s:476    .text.lcd_write_data:0000000000000040 .L0 
C:\Users\Karzan\AppData\Local\Temp\ccyAl7yf.s:477    .text.lcd_write_data:0000000000000040 .L0 
C:\Users\Karzan\AppData\Local\Temp\ccyAl7yf.s:479    .text.lcd_write_data:0000000000000042 .L0 
C:\Users\Karzan\AppData\Local\Temp\ccyAl7yf.s:481    .text.lcd_write_data:0000000000000044 .L0 
C:\Users\Karzan\AppData\Local\Temp\ccyAl7yf.s:484    .text.lcd_write_data:0000000000000046 .L0 
C:\Users\Karzan\AppData\Local\Temp\ccyAl7yf.s:486    .text.lcd_write_data:0000000000000046 .L0 
C:\Users\Karzan\AppData\Local\Temp\ccyAl7yf.s:490    .text.lcd_write_data:000000000000004e .L0 
C:\Users\Karzan\AppData\Local\Temp\ccyAl7yf.s:492    .text.lcd_write_data:000000000000004e .L0 
C:\Users\Karzan\AppData\Local\Temp\ccyAl7yf.s:493    .text.lcd_write_data:000000000000004e .L0 
C:\Users\Karzan\AppData\Local\Temp\ccyAl7yf.s:496    .text.lcd_write_data:0000000000000050 .L0 
C:\Users\Karzan\AppData\Local\Temp\ccyAl7yf.s:500    .text.lcd_write_data:000000000000005e .L0 
C:\Users\Karzan\AppData\Local\Temp\ccyAl7yf.s:507    .text.lio_lcd_draw_next_pixel:0000000000000000 lio_lcd_draw_next_pixel
C:\Users\Karzan\AppData\Local\Temp\ccyAl7yf.s:510    .text.lio_lcd_draw_next_pixel:0000000000000000 .L0 
C:\Users\Karzan\AppData\Local\Temp\ccyAl7yf.s:512    .text.lio_lcd_draw_next_pixel:0000000000000000 .L0 
C:\Users\Karzan\AppData\Local\Temp\ccyAl7yf.s:513    .text.lio_lcd_draw_next_pixel:0000000000000000 .L0 
C:\Users\Karzan\AppData\Local\Temp\ccyAl7yf.s:514    .text.lio_lcd_draw_next_pixel:0000000000000000 .L0 
C:\Users\Karzan\AppData\Local\Temp\ccyAl7yf.s:518    .text.lio_lcd_draw_next_pixel:0000000000000006 .L0 
C:\Users\Karzan\AppData\Local\Temp\ccyAl7yf.s:520    .text.lio_lcd_draw_next_pixel:0000000000000008 .L0 
C:\Users\Karzan\AppData\Local\Temp\ccyAl7yf.s:522    .text.lio_lcd_draw_next_pixel:0000000000000008 .L0 
C:\Users\Karzan\AppData\Local\Temp\ccyAl7yf.s:525    .text.lio_lcd_draw_next_pixel:000000000000000e .L0 
C:\Users\Karzan\AppData\Local\Temp\ccyAl7yf.s:528    .text.lio_lcd_draw_next_pixel:0000000000000012 .L0 
C:\Users\Karzan\AppData\Local\Temp\ccyAl7yf.s:529    .text.lio_lcd_draw_next_pixel:0000000000000014 .L0 
C:\Users\Karzan\AppData\Local\Temp\ccyAl7yf.s:531    .text.lio_lcd_draw_next_pixel:0000000000000014 .L0 
C:\Users\Karzan\AppData\Local\Temp\ccyAl7yf.s:534    .text.lio_lcd_draw_next_pixel:000000000000001c .L0 
C:\Users\Karzan\AppData\Local\Temp\ccyAl7yf.s:535    .text.lio_lcd_draw_next_pixel:000000000000001e .L0 
C:\Users\Karzan\AppData\Local\Temp\ccyAl7yf.s:538    .text.lio_lcd_draw_next_pixel:0000000000000020 .L0 
C:\Users\Karzan\AppData\Local\Temp\ccyAl7yf.s:540    .text.lio_lcd_draw_next_pixel:0000000000000022 .L0 
C:\Users\Karzan\AppData\Local\Temp\ccyAl7yf.s:547    .text.lcd_DC_reset:0000000000000000 lcd_DC_reset
C:\Users\Karzan\AppData\Local\Temp\ccyAl7yf.s:550    .text.lcd_DC_reset:0000000000000000 .L0 
C:\Users\Karzan\AppData\Local\Temp\ccyAl7yf.s:551    .text.lcd_DC_reset:0000000000000000 .L0 
C:\Users\Karzan\AppData\Local\Temp\ccyAl7yf.s:552    .text.lcd_DC_reset:0000000000000000 .L0 
C:\Users\Karzan\AppData\Local\Temp\ccyAl7yf.s:556    .text.lcd_DC_reset:000000000000000e .L0 
C:\Users\Karzan\AppData\Local\Temp\ccyAl7yf.s:563    .text.lcd_write_command:0000000000000000 lcd_write_command
C:\Users\Karzan\AppData\Local\Temp\ccyAl7yf.s:566    .text.lcd_write_command:0000000000000000 .L0 
C:\Users\Karzan\AppData\Local\Temp\ccyAl7yf.s:568    .text.lcd_write_command:0000000000000000 .L0 
C:\Users\Karzan\AppData\Local\Temp\ccyAl7yf.s:569    .text.lcd_write_command:0000000000000000 .L0 
C:\Users\Karzan\AppData\Local\Temp\ccyAl7yf.s:570    .text.lcd_write_command:0000000000000000 .L0 
C:\Users\Karzan\AppData\Local\Temp\ccyAl7yf.s:572    .text.lcd_write_command:0000000000000002 .L0 
C:\Users\Karzan\AppData\Local\Temp\ccyAl7yf.s:577    .text.lcd_write_command:000000000000000a .L0 
GAS LISTING C:\Users\Karzan\AppData\Local\Temp\ccyAl7yf.s 			page 105


C:\Users\Karzan\AppData\Local\Temp\ccyAl7yf.s:578    .text.lcd_write_command:000000000000000a .L0 
C:\Users\Karzan\AppData\Local\Temp\ccyAl7yf.s:579    .text.lcd_write_command:000000000000000a .L0 
C:\Users\Karzan\AppData\Local\Temp\ccyAl7yf.s:581    .text.lcd_write_command:000000000000000a .L0 
C:\Users\Karzan\AppData\Local\Temp\ccyAl7yf.s:584    .text.lcd_write_command:0000000000000012 .L0 
C:\Users\Karzan\AppData\Local\Temp\ccyAl7yf.s:587    .text.lcd_write_command:000000000000001a .L0 
C:\Users\Karzan\AppData\Local\Temp\ccyAl7yf.s:589    .text.lcd_write_command:000000000000001c .L0 
C:\Users\Karzan\AppData\Local\Temp\ccyAl7yf.s:592    .text.lcd_write_command:0000000000000024 .L0 
C:\Users\Karzan\AppData\Local\Temp\ccyAl7yf.s:595    .text.lcd_write_command:000000000000002c .L0 
C:\Users\Karzan\AppData\Local\Temp\ccyAl7yf.s:596    .text.lcd_write_command:000000000000002c .L0 
C:\Users\Karzan\AppData\Local\Temp\ccyAl7yf.s:599    .text.lcd_write_command:000000000000002e .L0 
C:\Users\Karzan\AppData\Local\Temp\ccyAl7yf.s:600    .text.lcd_write_command:000000000000002e .L0 
C:\Users\Karzan\AppData\Local\Temp\ccyAl7yf.s:605    .text.lcd_write_command:000000000000003c .L0 
C:\Users\Karzan\AppData\Local\Temp\ccyAl7yf.s:607    .text.lcd_write_command:0000000000000040 .L0 
C:\Users\Karzan\AppData\Local\Temp\ccyAl7yf.s:608    .text.lcd_write_command:0000000000000040 .L0 
C:\Users\Karzan\AppData\Local\Temp\ccyAl7yf.s:609    .text.lcd_write_command:0000000000000042 .L0 
C:\Users\Karzan\AppData\Local\Temp\ccyAl7yf.s:611    .text.lcd_write_command:0000000000000044 .L0 
C:\Users\Karzan\AppData\Local\Temp\ccyAl7yf.s:613    .text.lcd_write_command:0000000000000046 .L0 
C:\Users\Karzan\AppData\Local\Temp\ccyAl7yf.s:616    .text.lcd_write_command:0000000000000048 .L0 
C:\Users\Karzan\AppData\Local\Temp\ccyAl7yf.s:618    .text.lcd_write_command:0000000000000048 .L0 
C:\Users\Karzan\AppData\Local\Temp\ccyAl7yf.s:620    .text.lcd_write_command:0000000000000050 .L0 
C:\Users\Karzan\AppData\Local\Temp\ccyAl7yf.s:627    .text.lio_lcd_address_set:0000000000000000 lio_lcd_address_set
C:\Users\Karzan\AppData\Local\Temp\ccyAl7yf.s:630    .text.lio_lcd_address_set:0000000000000000 .L0 
C:\Users\Karzan\AppData\Local\Temp\ccyAl7yf.s:632    .text.lio_lcd_address_set:0000000000000000 .L0 
C:\Users\Karzan\AppData\Local\Temp\ccyAl7yf.s:633    .text.lio_lcd_address_set:0000000000000000 .L0 
C:\Users\Karzan\AppData\Local\Temp\ccyAl7yf.s:634    .text.lio_lcd_address_set:0000000000000000 .L0 
C:\Users\Karzan\AppData\Local\Temp\ccyAl7yf.s:639    .text.lio_lcd_address_set:000000000000000c .L0 
C:\Users\Karzan\AppData\Local\Temp\ccyAl7yf.s:640    .text.lio_lcd_address_set:000000000000000c .L0 
C:\Users\Karzan\AppData\Local\Temp\ccyAl7yf.s:641    .text.lio_lcd_address_set:000000000000000c .L0 
C:\Users\Karzan\AppData\Local\Temp\ccyAl7yf.s:643    .text.lio_lcd_address_set:0000000000000010 .L0 
C:\Users\Karzan\AppData\Local\Temp\ccyAl7yf.s:645    .text.lio_lcd_address_set:0000000000000012 .L0 
C:\Users\Karzan\AppData\Local\Temp\ccyAl7yf.s:647    .text.lio_lcd_address_set:0000000000000012 .L0 
C:\Users\Karzan\AppData\Local\Temp\ccyAl7yf.s:650    .text.lio_lcd_address_set:0000000000000014 .L0 
C:\Users\Karzan\AppData\Local\Temp\ccyAl7yf.s:653    .text.lio_lcd_address_set:0000000000000016 .L0 
C:\Users\Karzan\AppData\Local\Temp\ccyAl7yf.s:656    .text.lio_lcd_address_set:0000000000000018 .L0 
C:\Users\Karzan\AppData\Local\Temp\ccyAl7yf.s:659    .text.lio_lcd_address_set:000000000000001a .L0 
C:\Users\Karzan\AppData\Local\Temp\ccyAl7yf.s:662    .text.lio_lcd_address_set:0000000000000020 .L0 
C:\Users\Karzan\AppData\Local\Temp\ccyAl7yf.s:665    .text.lio_lcd_address_set:0000000000000024 .L0 
C:\Users\Karzan\AppData\Local\Temp\ccyAl7yf.s:667    .text.lio_lcd_address_set:0000000000000026 .L0 
C:\Users\Karzan\AppData\Local\Temp\ccyAl7yf.s:669    .text.lio_lcd_address_set:0000000000000028 .L0 
C:\Users\Karzan\AppData\Local\Temp\ccyAl7yf.s:671    .text.lio_lcd_address_set:000000000000002a .L0 
C:\Users\Karzan\AppData\Local\Temp\ccyAl7yf.s:673    .text.lio_lcd_address_set:000000000000002c .L0 
C:\Users\Karzan\AppData\Local\Temp\ccyAl7yf.s:675    .text.lio_lcd_address_set:000000000000002e .L0 
C:\Users\Karzan\AppData\Local\Temp\ccyAl7yf.s:678    .text.lio_lcd_address_set:0000000000000032 .L0 
C:\Users\Karzan\AppData\Local\Temp\ccyAl7yf.s:680    .text.lio_lcd_address_set:0000000000000036 .L0 
C:\Users\Karzan\AppData\Local\Temp\ccyAl7yf.s:682    .text.lio_lcd_address_set:000000000000003a .L0 
C:\Users\Karzan\AppData\Local\Temp\ccyAl7yf.s:685    .text.lio_lcd_address_set:0000000000000040 .L0 
C:\Users\Karzan\AppData\Local\Temp\ccyAl7yf.s:686    .text.lio_lcd_address_set:0000000000000040 .L0 
C:\Users\Karzan\AppData\Local\Temp\ccyAl7yf.s:687    .text.lio_lcd_address_set:0000000000000040 .L0 
C:\Users\Karzan\AppData\Local\Temp\ccyAl7yf.s:689    .text.lio_lcd_address_set:0000000000000040 .L0 
C:\Users\Karzan\AppData\Local\Temp\ccyAl7yf.s:691    .text.lio_lcd_address_set:0000000000000044 .L0 
C:\Users\Karzan\AppData\Local\Temp\ccyAl7yf.s:693    .text.lio_lcd_address_set:0000000000000048 .L0 
C:\Users\Karzan\AppData\Local\Temp\ccyAl7yf.s:695    .text.lio_lcd_address_set:000000000000004c .L0 
C:\Users\Karzan\AppData\Local\Temp\ccyAl7yf.s:698    .text.lio_lcd_address_set:0000000000000054 .L0 
C:\Users\Karzan\AppData\Local\Temp\ccyAl7yf.s:703    .text.lio_lcd_address_set:0000000000000060 .L0 
C:\Users\Karzan\AppData\Local\Temp\ccyAl7yf.s:706    .text.lio_lcd_address_set:0000000000000062 .L0 
C:\Users\Karzan\AppData\Local\Temp\ccyAl7yf.s:707    .text.lio_lcd_address_set:0000000000000062 .L0 
C:\Users\Karzan\AppData\Local\Temp\ccyAl7yf.s:710    .text.lio_lcd_address_set:0000000000000064 .L0 
GAS LISTING C:\Users\Karzan\AppData\Local\Temp\ccyAl7yf.s 			page 106


C:\Users\Karzan\AppData\Local\Temp\ccyAl7yf.s:711    .text.lio_lcd_address_set:0000000000000064 .L0 
C:\Users\Karzan\AppData\Local\Temp\ccyAl7yf.s:712    .text.lio_lcd_address_set:0000000000000064 .L0 
C:\Users\Karzan\AppData\Local\Temp\ccyAl7yf.s:713    .text.lio_lcd_address_set:0000000000000064 .L0 
C:\Users\Karzan\AppData\Local\Temp\ccyAl7yf.s:714    .text.lio_lcd_address_set:0000000000000064 .L0 
C:\Users\Karzan\AppData\Local\Temp\ccyAl7yf.s:715    .text.lio_lcd_address_set:0000000000000064 .L0 
C:\Users\Karzan\AppData\Local\Temp\ccyAl7yf.s:716    .text.lio_lcd_address_set:0000000000000064 .L0 
C:\Users\Karzan\AppData\Local\Temp\ccyAl7yf.s:717    .text.lio_lcd_address_set:0000000000000064 .L0 
C:\Users\Karzan\AppData\Local\Temp\ccyAl7yf.s:718    .text.lio_lcd_address_set:0000000000000064 .L0 
C:\Users\Karzan\AppData\Local\Temp\ccyAl7yf.s:719    .text.lio_lcd_address_set:0000000000000064 .L0 
C:\Users\Karzan\AppData\Local\Temp\ccyAl7yf.s:721    .text.lio_lcd_address_set:0000000000000068 .L0 
C:\Users\Karzan\AppData\Local\Temp\ccyAl7yf.s:723    .text.lio_lcd_address_set:000000000000006c .L0 
C:\Users\Karzan\AppData\Local\Temp\ccyAl7yf.s:726    .text.lio_lcd_address_set:000000000000006e .L0 
C:\Users\Karzan\AppData\Local\Temp\ccyAl7yf.s:729    .text.lio_lcd_address_set:0000000000000070 .L0 
C:\Users\Karzan\AppData\Local\Temp\ccyAl7yf.s:731    .text.lio_lcd_address_set:0000000000000072 .L0 
C:\Users\Karzan\AppData\Local\Temp\ccyAl7yf.s:733    .text.lio_lcd_address_set:0000000000000074 .L0 
C:\Users\Karzan\AppData\Local\Temp\ccyAl7yf.s:735    .text.lio_lcd_address_set:0000000000000078 .L0 
C:\Users\Karzan\AppData\Local\Temp\ccyAl7yf.s:737    .text.lio_lcd_address_set:000000000000007c .L0 
C:\Users\Karzan\AppData\Local\Temp\ccyAl7yf.s:738    .text.lio_lcd_address_set:000000000000007c .L0 
C:\Users\Karzan\AppData\Local\Temp\ccyAl7yf.s:739    .text.lio_lcd_address_set:000000000000007c .L0 
C:\Users\Karzan\AppData\Local\Temp\ccyAl7yf.s:741    .text.lio_lcd_address_set:0000000000000080 .L0 
C:\Users\Karzan\AppData\Local\Temp\ccyAl7yf.s:744    .text.lio_lcd_address_set:0000000000000088 .L0 
C:\Users\Karzan\AppData\Local\Temp\ccyAl7yf.s:749    .text.lio_lcd_address_set:0000000000000094 .L0 
C:\Users\Karzan\AppData\Local\Temp\ccyAl7yf.s:753    .text.lio_lcd_address_set:00000000000000a0 .L0 
C:\Users\Karzan\AppData\Local\Temp\ccyAl7yf.s:754    .text.lio_lcd_address_set:00000000000000a2 .L0 
C:\Users\Karzan\AppData\Local\Temp\ccyAl7yf.s:756    .text.lio_lcd_address_set:00000000000000a4 .L0 
C:\Users\Karzan\AppData\Local\Temp\ccyAl7yf.s:758    .text.lio_lcd_address_set:00000000000000a6 .L0 
C:\Users\Karzan\AppData\Local\Temp\ccyAl7yf.s:761    .text.lio_lcd_address_set:00000000000000a8 .L0 
C:\Users\Karzan\AppData\Local\Temp\ccyAl7yf.s:763    .text.lio_lcd_address_set:00000000000000aa .L0 
C:\Users\Karzan\AppData\Local\Temp\ccyAl7yf.s:770    .text.lio_lcd_clear:0000000000000000 lio_lcd_clear
C:\Users\Karzan\AppData\Local\Temp\ccyAl7yf.s:773    .text.lio_lcd_clear:0000000000000000 .L0 
C:\Users\Karzan\AppData\Local\Temp\ccyAl7yf.s:775    .text.lio_lcd_clear:0000000000000000 .L0 
C:\Users\Karzan\AppData\Local\Temp\ccyAl7yf.s:776    .text.lio_lcd_clear:0000000000000000 .L0 
C:\Users\Karzan\AppData\Local\Temp\ccyAl7yf.s:777    .text.lio_lcd_clear:0000000000000000 .L0 
C:\Users\Karzan\AppData\Local\Temp\ccyAl7yf.s:779    .text.lio_lcd_clear:0000000000000002 .L0 
C:\Users\Karzan\AppData\Local\Temp\ccyAl7yf.s:781    .text.lio_lcd_clear:0000000000000004 .L0 
C:\Users\Karzan\AppData\Local\Temp\ccyAl7yf.s:783    .text.lio_lcd_clear:0000000000000004 .L0 
C:\Users\Karzan\AppData\Local\Temp\ccyAl7yf.s:786    .text.lio_lcd_clear:000000000000000c .L0 
C:\Users\Karzan\AppData\Local\Temp\ccyAl7yf.s:789    .text.lio_lcd_clear:0000000000000014 .L0 
C:\Users\Karzan\AppData\Local\Temp\ccyAl7yf.s:791    .text.lio_lcd_clear:0000000000000018 .L0 
C:\Users\Karzan\AppData\Local\Temp\ccyAl7yf.s:793    .text.lio_lcd_clear:000000000000001a .L0 
C:\Users\Karzan\AppData\Local\Temp\ccyAl7yf.s:796    .text.lio_lcd_clear:000000000000001c .L0 
C:\Users\Karzan\AppData\Local\Temp\ccyAl7yf.s:798    .text.lio_lcd_clear:000000000000001e .L0 
C:\Users\Karzan\AppData\Local\Temp\ccyAl7yf.s:800    .text.lio_lcd_clear:0000000000000020 .L0 
C:\Users\Karzan\AppData\Local\Temp\ccyAl7yf.s:803    .text.lio_lcd_clear:0000000000000024 .L0 
C:\Users\Karzan\AppData\Local\Temp\ccyAl7yf.s:805    .text.lio_lcd_clear:0000000000000028 .L0 
C:\Users\Karzan\AppData\Local\Temp\ccyAl7yf.s:810    .text.lio_lcd_clear:0000000000000030 .L0 
C:\Users\Karzan\AppData\Local\Temp\ccyAl7yf.s:811    .text.lio_lcd_clear:0000000000000032 .L0 
C:\Users\Karzan\AppData\Local\Temp\ccyAl7yf.s:813    .text.lio_lcd_clear:0000000000000032 .L0 
C:\Users\Karzan\AppData\Local\Temp\ccyAl7yf.s:817    .text.lio_lcd_clear:000000000000003a .L0 
C:\Users\Karzan\AppData\Local\Temp\ccyAl7yf.s:818    .text.lio_lcd_clear:000000000000003a .L0 
C:\Users\Karzan\AppData\Local\Temp\ccyAl7yf.s:819    .text.lio_lcd_clear:000000000000003a .L0 
C:\Users\Karzan\AppData\Local\Temp\ccyAl7yf.s:821    .text.lio_lcd_clear:000000000000003e .L0 
C:\Users\Karzan\AppData\Local\Temp\ccyAl7yf.s:823    .text.lio_lcd_clear:0000000000000042 .L0 
C:\Users\Karzan\AppData\Local\Temp\ccyAl7yf.s:827    .text.lio_lcd_clear:0000000000000046 .L0 
C:\Users\Karzan\AppData\Local\Temp\ccyAl7yf.s:830    .text.lio_lcd_clear:0000000000000048 .L0 
C:\Users\Karzan\AppData\Local\Temp\ccyAl7yf.s:831    .text.lio_lcd_clear:000000000000004a .L0 
C:\Users\Karzan\AppData\Local\Temp\ccyAl7yf.s:832    .text.lio_lcd_clear:000000000000004a .L0 
GAS LISTING C:\Users\Karzan\AppData\Local\Temp\ccyAl7yf.s 			page 107


C:\Users\Karzan\AppData\Local\Temp\ccyAl7yf.s:834    .text.lio_lcd_clear:000000000000004c .L0 
C:\Users\Karzan\AppData\Local\Temp\ccyAl7yf.s:838    .text.lio_lcd_clear:000000000000004e .L0 
C:\Users\Karzan\AppData\Local\Temp\ccyAl7yf.s:843    .text.lio_lcd_clear:0000000000000050 .L0 
C:\Users\Karzan\AppData\Local\Temp\ccyAl7yf.s:846    .text.lio_lcd_clear:0000000000000050 .L0 
C:\Users\Karzan\AppData\Local\Temp\ccyAl7yf.s:851    .text.lio_lcd_clear:000000000000005c .L0 
C:\Users\Karzan\AppData\Local\Temp\ccyAl7yf.s:855    .text.lio_lcd_clear:0000000000000060 .L0 
C:\Users\Karzan\AppData\Local\Temp\ccyAl7yf.s:862    .text.lio_lcd_rect_fill:0000000000000000 lio_lcd_rect_fill
C:\Users\Karzan\AppData\Local\Temp\ccyAl7yf.s:865    .text.lio_lcd_rect_fill:0000000000000000 .L0 
C:\Users\Karzan\AppData\Local\Temp\ccyAl7yf.s:867    .text.lio_lcd_rect_fill:0000000000000000 .L0 
C:\Users\Karzan\AppData\Local\Temp\ccyAl7yf.s:868    .text.lio_lcd_rect_fill:0000000000000000 .L0 
C:\Users\Karzan\AppData\Local\Temp\ccyAl7yf.s:869    .text.lio_lcd_rect_fill:0000000000000000 .L0 
C:\Users\Karzan\AppData\Local\Temp\ccyAl7yf.s:871    .text.lio_lcd_rect_fill:0000000000000002 .L0 
C:\Users\Karzan\AppData\Local\Temp\ccyAl7yf.s:876    .text.lio_lcd_rect_fill:000000000000000a .L0 
C:\Users\Karzan\AppData\Local\Temp\ccyAl7yf.s:877    .text.lio_lcd_rect_fill:000000000000000a .L0 
C:\Users\Karzan\AppData\Local\Temp\ccyAl7yf.s:878    .text.lio_lcd_rect_fill:000000000000000a .L0 
C:\Users\Karzan\AppData\Local\Temp\ccyAl7yf.s:879    .text.lio_lcd_rect_fill:000000000000000a .L0 
C:\Users\Karzan\AppData\Local\Temp\ccyAl7yf.s:885    .text.lio_lcd_rect_fill:0000000000000012 .L0 
C:\Users\Karzan\AppData\Local\Temp\ccyAl7yf.s:898    .text.lio_lcd_rect_fill:0000000000000022 .L0 
C:\Users\Karzan\AppData\Local\Temp\ccyAl7yf.s:899    .text.lio_lcd_rect_fill:0000000000000024 .L0 
C:\Users\Karzan\AppData\Local\Temp\ccyAl7yf.s:901    .text.lio_lcd_rect_fill:0000000000000024 .L0 
C:\Users\Karzan\AppData\Local\Temp\ccyAl7yf.s:903    .text.lio_lcd_rect_fill:0000000000000026 .L0 
C:\Users\Karzan\AppData\Local\Temp\ccyAl7yf.s:906    .text.lio_lcd_rect_fill:000000000000002e .L0 
C:\Users\Karzan\AppData\Local\Temp\ccyAl7yf.s:907    .text.lio_lcd_rect_fill:000000000000002e .L0 
C:\Users\Karzan\AppData\Local\Temp\ccyAl7yf.s:909    .text.lio_lcd_rect_fill:0000000000000032 .L0 
C:\Users\Karzan\AppData\Local\Temp\ccyAl7yf.s:911    .text.lio_lcd_rect_fill:0000000000000036 .L0 
C:\Users\Karzan\AppData\Local\Temp\ccyAl7yf.s:913    .text.lio_lcd_rect_fill:0000000000000038 .L0 
C:\Users\Karzan\AppData\Local\Temp\ccyAl7yf.s:915    .text.lio_lcd_rect_fill:000000000000003a .L0 
C:\Users\Karzan\AppData\Local\Temp\ccyAl7yf.s:918    .text.lio_lcd_rect_fill:0000000000000040 .L0 
C:\Users\Karzan\AppData\Local\Temp\ccyAl7yf.s:919    .text.lio_lcd_rect_fill:0000000000000042 .L0 
C:\Users\Karzan\AppData\Local\Temp\ccyAl7yf.s:921    .text.lio_lcd_rect_fill:0000000000000044 .L0 
C:\Users\Karzan\AppData\Local\Temp\ccyAl7yf.s:923    .text.lio_lcd_rect_fill:0000000000000046 .L0 
C:\Users\Karzan\AppData\Local\Temp\ccyAl7yf.s:925    .text.lio_lcd_rect_fill:0000000000000048 .L0 
C:\Users\Karzan\AppData\Local\Temp\ccyAl7yf.s:927    .text.lio_lcd_rect_fill:000000000000004a .L0 
C:\Users\Karzan\AppData\Local\Temp\ccyAl7yf.s:929    .text.lio_lcd_rect_fill:000000000000004a .L0 
C:\Users\Karzan\AppData\Local\Temp\ccyAl7yf.s:931    .text.lio_lcd_rect_fill:000000000000004c .L0 
C:\Users\Karzan\AppData\Local\Temp\ccyAl7yf.s:933    .text.lio_lcd_rect_fill:000000000000004e .L0 
C:\Users\Karzan\AppData\Local\Temp\ccyAl7yf.s:935    .text.lio_lcd_rect_fill:000000000000004e .L0 
C:\Users\Karzan\AppData\Local\Temp\ccyAl7yf.s:937    .text.lio_lcd_rect_fill:0000000000000056 .L0 
C:\Users\Karzan\AppData\Local\Temp\ccyAl7yf.s:944    .text.lio_lcd_rect_lines:0000000000000000 lio_lcd_rect_lines
C:\Users\Karzan\AppData\Local\Temp\ccyAl7yf.s:947    .text.lio_lcd_rect_lines:0000000000000000 .L0 
C:\Users\Karzan\AppData\Local\Temp\ccyAl7yf.s:949    .text.lio_lcd_rect_lines:0000000000000000 .L0 
C:\Users\Karzan\AppData\Local\Temp\ccyAl7yf.s:950    .text.lio_lcd_rect_lines:0000000000000000 .L0 
C:\Users\Karzan\AppData\Local\Temp\ccyAl7yf.s:951    .text.lio_lcd_rect_lines:0000000000000000 .L0 
C:\Users\Karzan\AppData\Local\Temp\ccyAl7yf.s:953    .text.lio_lcd_rect_lines:0000000000000002 .L0 
C:\Users\Karzan\AppData\Local\Temp\ccyAl7yf.s:957    .text.lio_lcd_rect_lines:0000000000000008 .L0 
C:\Users\Karzan\AppData\Local\Temp\ccyAl7yf.s:958    .text.lio_lcd_rect_lines:0000000000000008 .L0 
C:\Users\Karzan\AppData\Local\Temp\ccyAl7yf.s:959    .text.lio_lcd_rect_lines:0000000000000008 .L0 
C:\Users\Karzan\AppData\Local\Temp\ccyAl7yf.s:961    .text.lio_lcd_rect_lines:0000000000000008 .L0 
C:\Users\Karzan\AppData\Local\Temp\ccyAl7yf.s:968    .text.lio_lcd_rect_lines:0000000000000020 .L0 
C:\Users\Karzan\AppData\Local\Temp\ccyAl7yf.s:972    .text.lio_lcd_rect_lines:0000000000000028 .L0 
C:\Users\Karzan\AppData\Local\Temp\ccyAl7yf.s:973    .text.lio_lcd_rect_lines:0000000000000028 .L0 
C:\Users\Karzan\AppData\Local\Temp\ccyAl7yf.s:974    .text.lio_lcd_rect_lines:0000000000000028 .L0 
C:\Users\Karzan\AppData\Local\Temp\ccyAl7yf.s:975    .text.lio_lcd_rect_lines:0000000000000028 .L0 
C:\Users\Karzan\AppData\Local\Temp\ccyAl7yf.s:980    .text.lio_lcd_rect_lines:000000000000002e .L0 
C:\Users\Karzan\AppData\Local\Temp\ccyAl7yf.s:987    .text.lio_lcd_rect_lines:0000000000000034 .L0 
C:\Users\Karzan\AppData\Local\Temp\ccyAl7yf.s:989    .text.lio_lcd_rect_lines:0000000000000036 .L0 
C:\Users\Karzan\AppData\Local\Temp\ccyAl7yf.s:992    .text.lio_lcd_rect_lines:0000000000000038 .L0 
GAS LISTING C:\Users\Karzan\AppData\Local\Temp\ccyAl7yf.s 			page 108


C:\Users\Karzan\AppData\Local\Temp\ccyAl7yf.s:994    .text.lio_lcd_rect_lines:000000000000003c .L0 
C:\Users\Karzan\AppData\Local\Temp\ccyAl7yf.s:995    .text.lio_lcd_rect_lines:000000000000003c .L0 
C:\Users\Karzan\AppData\Local\Temp\ccyAl7yf.s:997    .text.lio_lcd_rect_lines:000000000000003c .L0 
C:\Users\Karzan\AppData\Local\Temp\ccyAl7yf.s:999    .text.lio_lcd_rect_lines:0000000000000040 .L0 
C:\Users\Karzan\AppData\Local\Temp\ccyAl7yf.s:1001   .text.lio_lcd_rect_lines:0000000000000042 .L0 
C:\Users\Karzan\AppData\Local\Temp\ccyAl7yf.s:1004   .text.lio_lcd_rect_lines:000000000000004a .L0 
C:\Users\Karzan\AppData\Local\Temp\ccyAl7yf.s:1007   .text.lio_lcd_rect_lines:000000000000004e .L0 
C:\Users\Karzan\AppData\Local\Temp\ccyAl7yf.s:1009   .text.lio_lcd_rect_lines:0000000000000052 .L0 
C:\Users\Karzan\AppData\Local\Temp\ccyAl7yf.s:1012   .text.lio_lcd_rect_lines:000000000000005a .L0 
C:\Users\Karzan\AppData\Local\Temp\ccyAl7yf.s:1020   .text.lio_lcd_rect_lines:000000000000006e .L0 
C:\Users\Karzan\AppData\Local\Temp\ccyAl7yf.s:1025   .text.lio_lcd_rect_lines:000000000000007a .L0 
C:\Users\Karzan\AppData\Local\Temp\ccyAl7yf.s:1032   .text.lio_lcd_rect_lines:000000000000008a .L0 
C:\Users\Karzan\AppData\Local\Temp\ccyAl7yf.s:1033   .text.lio_lcd_rect_lines:000000000000008a .L0 
C:\Users\Karzan\AppData\Local\Temp\ccyAl7yf.s:1035   .text.lio_lcd_rect_lines:000000000000008e .L0 
C:\Users\Karzan\AppData\Local\Temp\ccyAl7yf.s:1040   .text.lio_lcd_rect_lines:000000000000009a .L0 
C:\Users\Karzan\AppData\Local\Temp\ccyAl7yf.s:1047   .text.lio_lcd_rect_lines:00000000000000aa .L0 
C:\Users\Karzan\AppData\Local\Temp\ccyAl7yf.s:1049   .text.lio_lcd_rect_lines:00000000000000ac .L0 
C:\Users\Karzan\AppData\Local\Temp\ccyAl7yf.s:1050   .text.lio_lcd_rect_lines:00000000000000ae .L0 
C:\Users\Karzan\AppData\Local\Temp\ccyAl7yf.s:1052   .text.lio_lcd_rect_lines:00000000000000b0 .L0 
C:\Users\Karzan\AppData\Local\Temp\ccyAl7yf.s:1054   .text.lio_lcd_rect_lines:00000000000000b2 .L0 
C:\Users\Karzan\AppData\Local\Temp\ccyAl7yf.s:1056   .text.lio_lcd_rect_lines:00000000000000b4 .L0 
C:\Users\Karzan\AppData\Local\Temp\ccyAl7yf.s:1058   .text.lio_lcd_rect_lines:00000000000000b6 .L0 
C:\Users\Karzan\AppData\Local\Temp\ccyAl7yf.s:1060   .text.lio_lcd_rect_lines:00000000000000b8 .L0 
C:\Users\Karzan\AppData\Local\Temp\ccyAl7yf.s:1062   .text.lio_lcd_rect_lines:00000000000000ba .L0 
C:\Users\Karzan\AppData\Local\Temp\ccyAl7yf.s:1064   .text.lio_lcd_rect_lines:00000000000000bc .L0 
C:\Users\Karzan\AppData\Local\Temp\ccyAl7yf.s:1066   .text.lio_lcd_rect_lines:00000000000000bc .L0 
C:\Users\Karzan\AppData\Local\Temp\ccyAl7yf.s:1068   .text.lio_lcd_rect_lines:00000000000000be .L0 
C:\Users\Karzan\AppData\Local\Temp\ccyAl7yf.s:1069   .text.lio_lcd_rect_lines:00000000000000c0 .L0 
C:\Users\Karzan\AppData\Local\Temp\ccyAl7yf.s:1072   .text.lio_lcd_rect_lines:00000000000000c2 .L0 
C:\Users\Karzan\AppData\Local\Temp\ccyAl7yf.s:1074   .text.lio_lcd_rect_lines:00000000000000c2 .L0 
C:\Users\Karzan\AppData\Local\Temp\ccyAl7yf.s:1076   .text.lio_lcd_rect_lines:00000000000000ca .L0 
C:\Users\Karzan\AppData\Local\Temp\ccyAl7yf.s:1083   .text.lio_lcd_draw_pixel:0000000000000000 lio_lcd_draw_pixel
C:\Users\Karzan\AppData\Local\Temp\ccyAl7yf.s:1086   .text.lio_lcd_draw_pixel:0000000000000000 .L0 
C:\Users\Karzan\AppData\Local\Temp\ccyAl7yf.s:1088   .text.lio_lcd_draw_pixel:0000000000000000 .L0 
C:\Users\Karzan\AppData\Local\Temp\ccyAl7yf.s:1089   .text.lio_lcd_draw_pixel:0000000000000000 .L0 
C:\Users\Karzan\AppData\Local\Temp\ccyAl7yf.s:1090   .text.lio_lcd_draw_pixel:0000000000000000 .L0 
C:\Users\Karzan\AppData\Local\Temp\ccyAl7yf.s:1092   .text.lio_lcd_draw_pixel:0000000000000002 .L0 
C:\Users\Karzan\AppData\Local\Temp\ccyAl7yf.s:1095   .text.lio_lcd_draw_pixel:0000000000000006 .L0 
C:\Users\Karzan\AppData\Local\Temp\ccyAl7yf.s:1098   .text.lio_lcd_draw_pixel:0000000000000008 .L0 
C:\Users\Karzan\AppData\Local\Temp\ccyAl7yf.s:1103   .text.lio_lcd_draw_pixel:000000000000000c .L0 
C:\Users\Karzan\AppData\Local\Temp\ccyAl7yf.s:1104   .text.lio_lcd_draw_pixel:000000000000000e .L0 
C:\Users\Karzan\AppData\Local\Temp\ccyAl7yf.s:1106   .text.lio_lcd_draw_pixel:000000000000000e .L0 
C:\Users\Karzan\AppData\Local\Temp\ccyAl7yf.s:1109   .text.lio_lcd_draw_pixel:0000000000000016 .L0 
C:\Users\Karzan\AppData\Local\Temp\ccyAl7yf.s:1111   .text.lio_lcd_draw_pixel:0000000000000018 .L0 
C:\Users\Karzan\AppData\Local\Temp\ccyAl7yf.s:1112   .text.lio_lcd_draw_pixel:000000000000001a .L0 
C:\Users\Karzan\AppData\Local\Temp\ccyAl7yf.s:1114   .text.lio_lcd_draw_pixel:000000000000001c .L0 
C:\Users\Karzan\AppData\Local\Temp\ccyAl7yf.s:1116   .text.lio_lcd_draw_pixel:000000000000001c .L0 
C:\Users\Karzan\AppData\Local\Temp\ccyAl7yf.s:1118   .text.lio_lcd_draw_pixel:000000000000001e .L0 
C:\Users\Karzan\AppData\Local\Temp\ccyAl7yf.s:1120   .text.lio_lcd_draw_pixel:0000000000000020 .L0 
C:\Users\Karzan\AppData\Local\Temp\ccyAl7yf.s:1122   .text.lio_lcd_draw_pixel:0000000000000020 .L0 
C:\Users\Karzan\AppData\Local\Temp\ccyAl7yf.s:1124   .text.lio_lcd_draw_pixel:0000000000000028 .L0 
C:\Users\Karzan\AppData\Local\Temp\ccyAl7yf.s:1131   .text.lio_lcd_draw_line:0000000000000000 lio_lcd_draw_line
C:\Users\Karzan\AppData\Local\Temp\ccyAl7yf.s:1134   .text.lio_lcd_draw_line:0000000000000000 .L0 
C:\Users\Karzan\AppData\Local\Temp\ccyAl7yf.s:1136   .text.lio_lcd_draw_line:0000000000000000 .L0 
C:\Users\Karzan\AppData\Local\Temp\ccyAl7yf.s:1137   .text.lio_lcd_draw_line:0000000000000000 .L0 
C:\Users\Karzan\AppData\Local\Temp\ccyAl7yf.s:1138   .text.lio_lcd_draw_line:0000000000000000 .L0 
C:\Users\Karzan\AppData\Local\Temp\ccyAl7yf.s:1139   .text.lio_lcd_draw_line:0000000000000000 .L0 
GAS LISTING C:\Users\Karzan\AppData\Local\Temp\ccyAl7yf.s 			page 109


C:\Users\Karzan\AppData\Local\Temp\ccyAl7yf.s:1141   .text.lio_lcd_draw_line:0000000000000004 .L0 
C:\Users\Karzan\AppData\Local\Temp\ccyAl7yf.s:1145   .text.lio_lcd_draw_line:0000000000000010 .L0 
C:\Users\Karzan\AppData\Local\Temp\ccyAl7yf.s:1147   .text.lio_lcd_draw_line:0000000000000014 .L0 
C:\Users\Karzan\AppData\Local\Temp\ccyAl7yf.s:1150   .text.lio_lcd_draw_line:000000000000001c .L0 
C:\Users\Karzan\AppData\Local\Temp\ccyAl7yf.s:1152   .text.lio_lcd_draw_line:000000000000001e .L0 
C:\Users\Karzan\AppData\Local\Temp\ccyAl7yf.s:1154   .text.lio_lcd_draw_line:000000000000001e .L0 
C:\Users\Karzan\AppData\Local\Temp\ccyAl7yf.s:1156   .text.lio_lcd_draw_line:0000000000000022 .L0 
C:\Users\Karzan\AppData\Local\Temp\ccyAl7yf.s:1165   .text.lio_lcd_draw_line:0000000000000034 .L0 
C:\Users\Karzan\AppData\Local\Temp\ccyAl7yf.s:1166   .text.lio_lcd_draw_line:0000000000000034 .L0 
C:\Users\Karzan\AppData\Local\Temp\ccyAl7yf.s:1167   .text.lio_lcd_draw_line:0000000000000034 .L0 
C:\Users\Karzan\AppData\Local\Temp\ccyAl7yf.s:1168   .text.lio_lcd_draw_line:0000000000000034 .L0 
C:\Users\Karzan\AppData\Local\Temp\ccyAl7yf.s:1169   .text.lio_lcd_draw_line:0000000000000034 .L0 
C:\Users\Karzan\AppData\Local\Temp\ccyAl7yf.s:1170   .text.lio_lcd_draw_line:0000000000000034 .L0 
C:\Users\Karzan\AppData\Local\Temp\ccyAl7yf.s:1171   .text.lio_lcd_draw_line:0000000000000034 .L0 
C:\Users\Karzan\AppData\Local\Temp\ccyAl7yf.s:1172   .text.lio_lcd_draw_line:0000000000000034 .L0 
C:\Users\Karzan\AppData\Local\Temp\ccyAl7yf.s:1173   .text.lio_lcd_draw_line:0000000000000034 .L0 
C:\Users\Karzan\AppData\Local\Temp\ccyAl7yf.s:1175   .text.lio_lcd_draw_line:0000000000000034 .L0 
C:\Users\Karzan\AppData\Local\Temp\ccyAl7yf.s:1177   .text.lio_lcd_draw_line:0000000000000036 .L0 
C:\Users\Karzan\AppData\Local\Temp\ccyAl7yf.s:1178   .text.lio_lcd_draw_line:0000000000000036 .L0 
C:\Users\Karzan\AppData\Local\Temp\ccyAl7yf.s:1180   .text.lio_lcd_draw_line:0000000000000038 .L0 
C:\Users\Karzan\AppData\Local\Temp\ccyAl7yf.s:1181   .text.lio_lcd_draw_line:0000000000000038 .L0 
C:\Users\Karzan\AppData\Local\Temp\ccyAl7yf.s:1183   .text.lio_lcd_draw_line:000000000000003a .L0 
C:\Users\Karzan\AppData\Local\Temp\ccyAl7yf.s:1184   .text.lio_lcd_draw_line:000000000000003a .L0 
C:\Users\Karzan\AppData\Local\Temp\ccyAl7yf.s:1186   .text.lio_lcd_draw_line:000000000000003c .L0 
C:\Users\Karzan\AppData\Local\Temp\ccyAl7yf.s:1187   .text.lio_lcd_draw_line:000000000000003c .L0 
C:\Users\Karzan\AppData\Local\Temp\ccyAl7yf.s:1192   .text.lio_lcd_draw_line:0000000000000044 .L0 
C:\Users\Karzan\AppData\Local\Temp\ccyAl7yf.s:1194   .text.lio_lcd_draw_line:0000000000000046 .L0 
C:\Users\Karzan\AppData\Local\Temp\ccyAl7yf.s:1195   .text.lio_lcd_draw_line:0000000000000046 .L0 
C:\Users\Karzan\AppData\Local\Temp\ccyAl7yf.s:1199   .text.lio_lcd_draw_line:000000000000004c .L0 
C:\Users\Karzan\AppData\Local\Temp\ccyAl7yf.s:1202   .text.lio_lcd_draw_line:000000000000004e .L0 
C:\Users\Karzan\AppData\Local\Temp\ccyAl7yf.s:1204   .text.lio_lcd_draw_line:0000000000000050 .L0 
C:\Users\Karzan\AppData\Local\Temp\ccyAl7yf.s:1205   .text.lio_lcd_draw_line:0000000000000050 .L0 
C:\Users\Karzan\AppData\Local\Temp\ccyAl7yf.s:1206   .text.lio_lcd_draw_line:0000000000000050 .L0 
C:\Users\Karzan\AppData\Local\Temp\ccyAl7yf.s:1208   .text.lio_lcd_draw_line:0000000000000054 .L0 
C:\Users\Karzan\AppData\Local\Temp\ccyAl7yf.s:1210   .text.lio_lcd_draw_line:0000000000000056 .L0 
C:\Users\Karzan\AppData\Local\Temp\ccyAl7yf.s:1212   .text.lio_lcd_draw_line:000000000000005a .L0 
C:\Users\Karzan\AppData\Local\Temp\ccyAl7yf.s:1214   .text.lio_lcd_draw_line:000000000000005c .L0 
C:\Users\Karzan\AppData\Local\Temp\ccyAl7yf.s:1216   .text.lio_lcd_draw_line:0000000000000060 .L0 
C:\Users\Karzan\AppData\Local\Temp\ccyAl7yf.s:1218   .text.lio_lcd_draw_line:0000000000000064 .L0 
C:\Users\Karzan\AppData\Local\Temp\ccyAl7yf.s:1223   .text.lio_lcd_draw_line:0000000000000068 .L0 
C:\Users\Karzan\AppData\Local\Temp\ccyAl7yf.s:1224   .text.lio_lcd_draw_line:0000000000000068 .L0 
C:\Users\Karzan\AppData\Local\Temp\ccyAl7yf.s:1225   .text.lio_lcd_draw_line:0000000000000068 .L0 
C:\Users\Karzan\AppData\Local\Temp\ccyAl7yf.s:1228   .text.lio_lcd_draw_line:000000000000006c .L0 
C:\Users\Karzan\AppData\Local\Temp\ccyAl7yf.s:1231   .text.lio_lcd_draw_line:0000000000000070 .L0 
C:\Users\Karzan\AppData\Local\Temp\ccyAl7yf.s:1236   .text.lio_lcd_draw_line:0000000000000072 .L0 
C:\Users\Karzan\AppData\Local\Temp\ccyAl7yf.s:1243   .text.lio_lcd_draw_line:0000000000000086 .L0 
C:\Users\Karzan\AppData\Local\Temp\ccyAl7yf.s:1244   .text.lio_lcd_draw_line:0000000000000086 .L0 
C:\Users\Karzan\AppData\Local\Temp\ccyAl7yf.s:1246   .text.lio_lcd_draw_line:000000000000008a .L0 
C:\Users\Karzan\AppData\Local\Temp\ccyAl7yf.s:1248   .text.lio_lcd_draw_line:000000000000008e .L0 
C:\Users\Karzan\AppData\Local\Temp\ccyAl7yf.s:1250   .text.lio_lcd_draw_line:0000000000000090 .L0 
C:\Users\Karzan\AppData\Local\Temp\ccyAl7yf.s:1252   .text.lio_lcd_draw_line:0000000000000092 .L0 
C:\Users\Karzan\AppData\Local\Temp\ccyAl7yf.s:1255   .text.lio_lcd_draw_line:0000000000000094 .L0 
C:\Users\Karzan\AppData\Local\Temp\ccyAl7yf.s:1256   .text.lio_lcd_draw_line:0000000000000094 .L0 
C:\Users\Karzan\AppData\Local\Temp\ccyAl7yf.s:1260   .text.lio_lcd_draw_line:000000000000009a .L0 
C:\Users\Karzan\AppData\Local\Temp\ccyAl7yf.s:1261   .text.lio_lcd_draw_line:000000000000009a .L0 
C:\Users\Karzan\AppData\Local\Temp\ccyAl7yf.s:1263   .text.lio_lcd_draw_line:000000000000009e .L0 
C:\Users\Karzan\AppData\Local\Temp\ccyAl7yf.s:1264   .text.lio_lcd_draw_line:000000000000009e .L0 
GAS LISTING C:\Users\Karzan\AppData\Local\Temp\ccyAl7yf.s 			page 110


C:\Users\Karzan\AppData\Local\Temp\ccyAl7yf.s:1267   .text.lio_lcd_draw_line:00000000000000a6 .L0 
C:\Users\Karzan\AppData\Local\Temp\ccyAl7yf.s:1270   .text.lio_lcd_draw_line:00000000000000aa .L0 
C:\Users\Karzan\AppData\Local\Temp\ccyAl7yf.s:1275   .text.lio_lcd_draw_line:00000000000000b0 .L0 
C:\Users\Karzan\AppData\Local\Temp\ccyAl7yf.s:1276   .text.lio_lcd_draw_line:00000000000000b0 .L0 
C:\Users\Karzan\AppData\Local\Temp\ccyAl7yf.s:1279   .text.lio_lcd_draw_line:00000000000000b2 .L0 
C:\Users\Karzan\AppData\Local\Temp\ccyAl7yf.s:1282   .text.lio_lcd_draw_line:00000000000000b6 .L0 
C:\Users\Karzan\AppData\Local\Temp\ccyAl7yf.s:1283   .text.lio_lcd_draw_line:00000000000000b8 .L0 
C:\Users\Karzan\AppData\Local\Temp\ccyAl7yf.s:1284   .text.lio_lcd_draw_line:00000000000000b8 .L0 
C:\Users\Karzan\AppData\Local\Temp\ccyAl7yf.s:1286   .text.lio_lcd_draw_line:00000000000000ba .L0 
C:\Users\Karzan\AppData\Local\Temp\ccyAl7yf.s:1288   .text.lio_lcd_draw_line:00000000000000bc .L0 
C:\Users\Karzan\AppData\Local\Temp\ccyAl7yf.s:1291   .text.lio_lcd_draw_line:00000000000000be .L0 
C:\Users\Karzan\AppData\Local\Temp\ccyAl7yf.s:1294   .text.lio_lcd_draw_line:00000000000000c0 .L0 
C:\Users\Karzan\AppData\Local\Temp\ccyAl7yf.s:1297   .text.lio_lcd_draw_line:00000000000000c2 .L0 
C:\Users\Karzan\AppData\Local\Temp\ccyAl7yf.s:1300   .text.lio_lcd_draw_line:00000000000000c4 .L0 
C:\Users\Karzan\AppData\Local\Temp\ccyAl7yf.s:1303   .text.lio_lcd_draw_line:00000000000000c6 .L0 
C:\Users\Karzan\AppData\Local\Temp\ccyAl7yf.s:1306   .text.lio_lcd_draw_line:00000000000000c8 .L0 
C:\Users\Karzan\AppData\Local\Temp\ccyAl7yf.s:1310   .text.lio_lcd_draw_line:00000000000000ca .L0 
C:\Users\Karzan\AppData\Local\Temp\ccyAl7yf.s:1315   .text.lio_lcd_draw_line:00000000000000cc .L0 
C:\Users\Karzan\AppData\Local\Temp\ccyAl7yf.s:1317   .text.lio_lcd_draw_line:00000000000000cc .L0 
C:\Users\Karzan\AppData\Local\Temp\ccyAl7yf.s:1319   .text.lio_lcd_draw_line:00000000000000d0 .L0 
C:\Users\Karzan\AppData\Local\Temp\ccyAl7yf.s:1321   .text.lio_lcd_draw_line:00000000000000d2 .L0 
C:\Users\Karzan\AppData\Local\Temp\ccyAl7yf.s:1323   .text.lio_lcd_draw_line:00000000000000d6 .L0 
C:\Users\Karzan\AppData\Local\Temp\ccyAl7yf.s:1325   .text.lio_lcd_draw_line:00000000000000da .L0 
C:\Users\Karzan\AppData\Local\Temp\ccyAl7yf.s:1327   .text.lio_lcd_draw_line:00000000000000e0 .L0 
C:\Users\Karzan\AppData\Local\Temp\ccyAl7yf.s:1334   .text.lio_lcd_set_area:0000000000000000 lio_lcd_set_area
C:\Users\Karzan\AppData\Local\Temp\ccyAl7yf.s:1337   .text.lio_lcd_set_area:0000000000000000 .L0 
C:\Users\Karzan\AppData\Local\Temp\ccyAl7yf.s:1339   .text.lio_lcd_set_area:0000000000000000 .L0 
C:\Users\Karzan\AppData\Local\Temp\ccyAl7yf.s:1340   .text.lio_lcd_set_area:0000000000000000 .L0 
C:\Users\Karzan\AppData\Local\Temp\ccyAl7yf.s:1354   .text.lio_lcd_set_area:0000000000000018 .L0 
C:\Users\Karzan\AppData\Local\Temp\ccyAl7yf.s:1361   .text.lio_lcd_draw_bitmask:0000000000000000 lio_lcd_draw_bitmask
C:\Users\Karzan\AppData\Local\Temp\ccyAl7yf.s:1364   .text.lio_lcd_draw_bitmask:0000000000000000 .L0 
C:\Users\Karzan\AppData\Local\Temp\ccyAl7yf.s:1366   .text.lio_lcd_draw_bitmask:0000000000000000 .L0 
C:\Users\Karzan\AppData\Local\Temp\ccyAl7yf.s:1367   .text.lio_lcd_draw_bitmask:0000000000000000 .L0 
C:\Users\Karzan\AppData\Local\Temp\ccyAl7yf.s:1368   .text.lio_lcd_draw_bitmask:0000000000000000 .L0 
C:\Users\Karzan\AppData\Local\Temp\ccyAl7yf.s:1369   .text.lio_lcd_draw_bitmask:0000000000000000 .L0 
C:\Users\Karzan\AppData\Local\Temp\ccyAl7yf.s:1371   .text.lio_lcd_draw_bitmask:0000000000000002 .L0 
C:\Users\Karzan\AppData\Local\Temp\ccyAl7yf.s:1375   .text.lio_lcd_draw_bitmask:0000000000000008 .L0 
C:\Users\Karzan\AppData\Local\Temp\ccyAl7yf.s:1376   .text.lio_lcd_draw_bitmask:0000000000000008 .L0 
C:\Users\Karzan\AppData\Local\Temp\ccyAl7yf.s:1377   .text.lio_lcd_draw_bitmask:0000000000000008 .L0 
C:\Users\Karzan\AppData\Local\Temp\ccyAl7yf.s:1381   .text.lio_lcd_draw_bitmask:000000000000000e .L0 
C:\Users\Karzan\AppData\Local\Temp\ccyAl7yf.s:1386   .text.lio_lcd_draw_bitmask:0000000000000012 .L0 
C:\Users\Karzan\AppData\Local\Temp\ccyAl7yf.s:1388   .text.lio_lcd_draw_bitmask:0000000000000016 .L0 
C:\Users\Karzan\AppData\Local\Temp\ccyAl7yf.s:1390   .text.lio_lcd_draw_bitmask:000000000000001a .L0 
C:\Users\Karzan\AppData\Local\Temp\ccyAl7yf.s:1392   .text.lio_lcd_draw_bitmask:000000000000001c .L0 
C:\Users\Karzan\AppData\Local\Temp\ccyAl7yf.s:1394   .text.lio_lcd_draw_bitmask:000000000000001e .L0 
C:\Users\Karzan\AppData\Local\Temp\ccyAl7yf.s:1397   .text.lio_lcd_draw_bitmask:0000000000000022 .L0 
C:\Users\Karzan\AppData\Local\Temp\ccyAl7yf.s:1412   .text.lio_lcd_draw_bitmask:0000000000000032 .L0 
C:\Users\Karzan\AppData\Local\Temp\ccyAl7yf.s:1416   .text.lio_lcd_draw_bitmask:0000000000000036 .L0 
C:\Users\Karzan\AppData\Local\Temp\ccyAl7yf.s:1419   .text.lio_lcd_draw_bitmask:000000000000003c .L0 
C:\Users\Karzan\AppData\Local\Temp\ccyAl7yf.s:1420   .text.lio_lcd_draw_bitmask:000000000000003c .L0 
C:\Users\Karzan\AppData\Local\Temp\ccyAl7yf.s:1421   .text.lio_lcd_draw_bitmask:000000000000003c .L0 
C:\Users\Karzan\AppData\Local\Temp\ccyAl7yf.s:1423   .text.lio_lcd_draw_bitmask:000000000000003c .L0 
C:\Users\Karzan\AppData\Local\Temp\ccyAl7yf.s:1428   .text.lio_lcd_draw_bitmask:0000000000000040 .L0 
C:\Users\Karzan\AppData\Local\Temp\ccyAl7yf.s:1432   .text.lio_lcd_draw_bitmask:0000000000000044 .L0 
C:\Users\Karzan\AppData\Local\Temp\ccyAl7yf.s:1436   .text.lio_lcd_draw_bitmask:000000000000004c .L0 
C:\Users\Karzan\AppData\Local\Temp\ccyAl7yf.s:1438   .text.lio_lcd_draw_bitmask:000000000000004c .L0 
C:\Users\Karzan\AppData\Local\Temp\ccyAl7yf.s:1439   .text.lio_lcd_draw_bitmask:000000000000004c .L0 
GAS LISTING C:\Users\Karzan\AppData\Local\Temp\ccyAl7yf.s 			page 111


C:\Users\Karzan\AppData\Local\Temp\ccyAl7yf.s:1442   .text.lio_lcd_draw_bitmask:0000000000000050 .L0 
C:\Users\Karzan\AppData\Local\Temp\ccyAl7yf.s:1443   .text.lio_lcd_draw_bitmask:0000000000000052 .L0 
C:\Users\Karzan\AppData\Local\Temp\ccyAl7yf.s:1444   .text.lio_lcd_draw_bitmask:0000000000000052 .L0 
C:\Users\Karzan\AppData\Local\Temp\ccyAl7yf.s:1446   .text.lio_lcd_draw_bitmask:0000000000000054 .L0 
C:\Users\Karzan\AppData\Local\Temp\ccyAl7yf.s:1449   .text.lio_lcd_draw_bitmask:0000000000000056 .L0 
C:\Users\Karzan\AppData\Local\Temp\ccyAl7yf.s:1451   .text.lio_lcd_draw_bitmask:0000000000000058 .L0 
C:\Users\Karzan\AppData\Local\Temp\ccyAl7yf.s:1453   .text.lio_lcd_draw_bitmask:000000000000005a .L0 
C:\Users\Karzan\AppData\Local\Temp\ccyAl7yf.s:1456   .text.lio_lcd_draw_bitmask:000000000000005c .L0 
C:\Users\Karzan\AppData\Local\Temp\ccyAl7yf.s:1458   .text.lio_lcd_draw_bitmask:000000000000005e .L0 
C:\Users\Karzan\AppData\Local\Temp\ccyAl7yf.s:1461   .text.lio_lcd_draw_bitmask:0000000000000060 .L0 
C:\Users\Karzan\AppData\Local\Temp\ccyAl7yf.s:1466   .text.lio_lcd_draw_bitmask:0000000000000062 .L0 
C:\Users\Karzan\AppData\Local\Temp\ccyAl7yf.s:1469   .text.lio_lcd_draw_bitmask:0000000000000062 .L0 
C:\Users\Karzan\AppData\Local\Temp\ccyAl7yf.s:1470   .text.lio_lcd_draw_bitmask:0000000000000062 .L0 
C:\Users\Karzan\AppData\Local\Temp\ccyAl7yf.s:1474   .text.lio_lcd_draw_bitmask:0000000000000066 .L0 
C:\Users\Karzan\AppData\Local\Temp\ccyAl7yf.s:1476   .text.lio_lcd_draw_bitmask:0000000000000066 .L0 
C:\Users\Karzan\AppData\Local\Temp\ccyAl7yf.s:1477   .text.lio_lcd_draw_bitmask:0000000000000066 .L0 
C:\Users\Karzan\AppData\Local\Temp\ccyAl7yf.s:1482   .text.lio_lcd_draw_bitmask:0000000000000068 .L0 
C:\Users\Karzan\AppData\Local\Temp\ccyAl7yf.s:1483   .text.lio_lcd_draw_bitmask:0000000000000068 .L0 
C:\Users\Karzan\AppData\Local\Temp\ccyAl7yf.s:1485   .text.lio_lcd_draw_bitmask:000000000000006c .L0 
C:\Users\Karzan\AppData\Local\Temp\ccyAl7yf.s:1487   .text.lio_lcd_draw_bitmask:000000000000006e .L0 
C:\Users\Karzan\AppData\Local\Temp\ccyAl7yf.s:1489   .text.lio_lcd_draw_bitmask:0000000000000070 .L0 
C:\Users\Karzan\AppData\Local\Temp\ccyAl7yf.s:1496   .text.lio_lcd_draw_bitmask:000000000000007e .L0 
C:\Users\Karzan\AppData\Local\Temp\ccyAl7yf.s:1497   .text.lio_lcd_draw_bitmask:000000000000007e .L0 
C:\Users\Karzan\AppData\Local\Temp\ccyAl7yf.s:1500   .text.lio_lcd_draw_bitmask:0000000000000082 .L0 
C:\Users\Karzan\AppData\Local\Temp\ccyAl7yf.s:1504   .text.lio_lcd_draw_bitmask:0000000000000088 .L0 
C:\Users\Karzan\AppData\Local\Temp\ccyAl7yf.s:1505   .text.lio_lcd_draw_bitmask:0000000000000088 .L0 
C:\Users\Karzan\AppData\Local\Temp\ccyAl7yf.s:1509   .text.lio_lcd_draw_bitmask:000000000000008c .L0 
C:\Users\Karzan\AppData\Local\Temp\ccyAl7yf.s:1516   .text.lio_lcd_draw_char:0000000000000000 lio_lcd_draw_char
C:\Users\Karzan\AppData\Local\Temp\ccyAl7yf.s:1519   .text.lio_lcd_draw_char:0000000000000000 .L0 
C:\Users\Karzan\AppData\Local\Temp\ccyAl7yf.s:1521   .text.lio_lcd_draw_char:0000000000000000 .L0 
C:\Users\Karzan\AppData\Local\Temp\ccyAl7yf.s:1522   .text.lio_lcd_draw_char:0000000000000000 .L0 
C:\Users\Karzan\AppData\Local\Temp\ccyAl7yf.s:1523   .text.lio_lcd_draw_char:0000000000000000 .L0 
C:\Users\Karzan\AppData\Local\Temp\ccyAl7yf.s:1525   .text.lio_lcd_draw_char:0000000000000002 .L0 
C:\Users\Karzan\AppData\Local\Temp\ccyAl7yf.s:1527   .text.lio_lcd_draw_char:0000000000000004 .L0 
C:\Users\Karzan\AppData\Local\Temp\ccyAl7yf.s:1532   .text.lio_lcd_draw_char:0000000000000008 .L0 
C:\Users\Karzan\AppData\Local\Temp\ccyAl7yf.s:1533   .text.lio_lcd_draw_char:0000000000000008 .L0 
C:\Users\Karzan\AppData\Local\Temp\ccyAl7yf.s:1534   .text.lio_lcd_draw_char:0000000000000008 .L0 
C:\Users\Karzan\AppData\Local\Temp\ccyAl7yf.s:1537   .text.lio_lcd_draw_char:000000000000000a .L0 
C:\Users\Karzan\AppData\Local\Temp\ccyAl7yf.s:1539   .text.lio_lcd_draw_char:000000000000000e .L0 
C:\Users\Karzan\AppData\Local\Temp\ccyAl7yf.s:1541   .text.lio_lcd_draw_char:0000000000000012 .L0 
C:\Users\Karzan\AppData\Local\Temp\ccyAl7yf.s:1543   .text.lio_lcd_draw_char:0000000000000014 .L0 
C:\Users\Karzan\AppData\Local\Temp\ccyAl7yf.s:1546   .text.lio_lcd_draw_char:0000000000000018 .L0 
C:\Users\Karzan\AppData\Local\Temp\ccyAl7yf.s:1548   .text.lio_lcd_draw_char:000000000000001c .L0 
C:\Users\Karzan\AppData\Local\Temp\ccyAl7yf.s:1562   .text.lio_lcd_draw_char:0000000000000036 .L0 
C:\Users\Karzan\AppData\Local\Temp\ccyAl7yf.s:1563   .text.lio_lcd_draw_char:0000000000000038 .L0 
C:\Users\Karzan\AppData\Local\Temp\ccyAl7yf.s:1570   .text.lio_lcd_draw_string:0000000000000000 lio_lcd_draw_string
C:\Users\Karzan\AppData\Local\Temp\ccyAl7yf.s:1573   .text.lio_lcd_draw_string:0000000000000000 .L0 
C:\Users\Karzan\AppData\Local\Temp\ccyAl7yf.s:1575   .text.lio_lcd_draw_string:0000000000000000 .L0 
C:\Users\Karzan\AppData\Local\Temp\ccyAl7yf.s:1576   .text.lio_lcd_draw_string:0000000000000000 .L0 
C:\Users\Karzan\AppData\Local\Temp\ccyAl7yf.s:1577   .text.lio_lcd_draw_string:0000000000000000 .L0 
C:\Users\Karzan\AppData\Local\Temp\ccyAl7yf.s:1579   .text.lio_lcd_draw_string:0000000000000002 .L0 
C:\Users\Karzan\AppData\Local\Temp\ccyAl7yf.s:1581   .text.lio_lcd_draw_string:0000000000000004 .L0 
C:\Users\Karzan\AppData\Local\Temp\ccyAl7yf.s:1583   .text.lio_lcd_draw_string:0000000000000004 .L0 
C:\Users\Karzan\AppData\Local\Temp\ccyAl7yf.s:1585   .text.lio_lcd_draw_string:0000000000000008 .L0 
C:\Users\Karzan\AppData\Local\Temp\ccyAl7yf.s:1590   .text.lio_lcd_draw_string:0000000000000012 .L0 
C:\Users\Karzan\AppData\Local\Temp\ccyAl7yf.s:1591   .text.lio_lcd_draw_string:0000000000000012 .L0 
C:\Users\Karzan\AppData\Local\Temp\ccyAl7yf.s:1592   .text.lio_lcd_draw_string:0000000000000012 .L0 
GAS LISTING C:\Users\Karzan\AppData\Local\Temp\ccyAl7yf.s 			page 112


C:\Users\Karzan\AppData\Local\Temp\ccyAl7yf.s:1593   .text.lio_lcd_draw_string:0000000000000012 .L0 
C:\Users\Karzan\AppData\Local\Temp\ccyAl7yf.s:1594   .text.lio_lcd_draw_string:0000000000000012 .L0 
C:\Users\Karzan\AppData\Local\Temp\ccyAl7yf.s:1596   .text.lio_lcd_draw_string:0000000000000012 .L0 
C:\Users\Karzan\AppData\Local\Temp\ccyAl7yf.s:1601   .text.lio_lcd_draw_string:000000000000001a .L0 
C:\Users\Karzan\AppData\Local\Temp\ccyAl7yf.s:1605   .text.lio_lcd_draw_string:000000000000001e .L0 
C:\Users\Karzan\AppData\Local\Temp\ccyAl7yf.s:1607   .text.lio_lcd_draw_string:0000000000000022 .L0 
C:\Users\Karzan\AppData\Local\Temp\ccyAl7yf.s:1609   .text.lio_lcd_draw_string:0000000000000024 .L0 
C:\Users\Karzan\AppData\Local\Temp\ccyAl7yf.s:1610   .text.lio_lcd_draw_string:0000000000000026 .L0 
C:\Users\Karzan\AppData\Local\Temp\ccyAl7yf.s:1611   .text.lio_lcd_draw_string:0000000000000026 .L0 
C:\Users\Karzan\AppData\Local\Temp\ccyAl7yf.s:1613   .text.lio_lcd_draw_string:0000000000000028 .L0 
C:\Users\Karzan\AppData\Local\Temp\ccyAl7yf.s:1616   .text.lio_lcd_draw_string:000000000000002a .L0 
C:\Users\Karzan\AppData\Local\Temp\ccyAl7yf.s:1619   .text.lio_lcd_draw_string:000000000000002c .L0 
C:\Users\Karzan\AppData\Local\Temp\ccyAl7yf.s:1622   .text.lio_lcd_draw_string:000000000000002e .L0 
C:\Users\Karzan\AppData\Local\Temp\ccyAl7yf.s:1624   .text.lio_lcd_draw_string:0000000000000030 .L0 
C:\Users\Karzan\AppData\Local\Temp\ccyAl7yf.s:1627   .text.lio_lcd_draw_string:0000000000000032 .L0 
C:\Users\Karzan\AppData\Local\Temp\ccyAl7yf.s:1632   .text.lio_lcd_draw_string:0000000000000034 .L0 
C:\Users\Karzan\AppData\Local\Temp\ccyAl7yf.s:1634   .text.lio_lcd_draw_string:0000000000000034 .L0 
C:\Users\Karzan\AppData\Local\Temp\ccyAl7yf.s:1635   .text.lio_lcd_draw_string:0000000000000034 .L0 
C:\Users\Karzan\AppData\Local\Temp\ccyAl7yf.s:1637   .text.lio_lcd_draw_string:0000000000000038 .L0 
C:\Users\Karzan\AppData\Local\Temp\ccyAl7yf.s:1639   .text.lio_lcd_draw_string:000000000000003a .L0 
C:\Users\Karzan\AppData\Local\Temp\ccyAl7yf.s:1642   .text.lio_lcd_draw_string:000000000000003e .L0 
C:\Users\Karzan\AppData\Local\Temp\ccyAl7yf.s:1643   .text.lio_lcd_draw_string:000000000000003e .L0 
C:\Users\Karzan\AppData\Local\Temp\ccyAl7yf.s:1644   .text.lio_lcd_draw_string:000000000000003e .L0 
C:\Users\Karzan\AppData\Local\Temp\ccyAl7yf.s:1650   .text.lio_lcd_draw_string:0000000000000044 .L0 
C:\Users\Karzan\AppData\Local\Temp\ccyAl7yf.s:1654   .text.lio_lcd_draw_string:0000000000000046 .L0 
C:\Users\Karzan\AppData\Local\Temp\ccyAl7yf.s:1656   .text.lio_lcd_draw_string:0000000000000048 .L0 
C:\Users\Karzan\AppData\Local\Temp\ccyAl7yf.s:1659   .text.lio_lcd_draw_string:000000000000004a .L0 
C:\Users\Karzan\AppData\Local\Temp\ccyAl7yf.s:1662   .text.lio_lcd_draw_string:000000000000004e .L0 
C:\Users\Karzan\AppData\Local\Temp\ccyAl7yf.s:1664   .text.lio_lcd_draw_string:0000000000000050 .L0 
C:\Users\Karzan\AppData\Local\Temp\ccyAl7yf.s:1667   .text.lio_lcd_draw_string:0000000000000058 .L0 
C:\Users\Karzan\AppData\Local\Temp\ccyAl7yf.s:1670   .text.lio_lcd_draw_string:000000000000005a .L0 
C:\Users\Karzan\AppData\Local\Temp\ccyAl7yf.s:1673   .text.lio_lcd_draw_string:000000000000005e .L0 
C:\Users\Karzan\AppData\Local\Temp\ccyAl7yf.s:1680   .text.lio_lcd_draw_num:0000000000000000 lio_lcd_draw_num
C:\Users\Karzan\AppData\Local\Temp\ccyAl7yf.s:1683   .text.lio_lcd_draw_num:0000000000000000 .L0 
C:\Users\Karzan\AppData\Local\Temp\ccyAl7yf.s:1685   .text.lio_lcd_draw_num:0000000000000000 .L0 
C:\Users\Karzan\AppData\Local\Temp\ccyAl7yf.s:1686   .text.lio_lcd_draw_num:0000000000000000 .L0 
C:\Users\Karzan\AppData\Local\Temp\ccyAl7yf.s:1687   .text.lio_lcd_draw_num:0000000000000000 .L0 
C:\Users\Karzan\AppData\Local\Temp\ccyAl7yf.s:1688   .text.lio_lcd_draw_num:0000000000000000 .L0 
C:\Users\Karzan\AppData\Local\Temp\ccyAl7yf.s:1690   .text.lio_lcd_draw_num:0000000000000002 .L0 
C:\Users\Karzan\AppData\Local\Temp\ccyAl7yf.s:1693   .text.lio_lcd_draw_num:0000000000000006 .L0 
C:\Users\Karzan\AppData\Local\Temp\ccyAl7yf.s:1694   .text.lio_lcd_draw_num:0000000000000006 .L0 
C:\Users\Karzan\AppData\Local\Temp\ccyAl7yf.s:1700   .text.lio_lcd_draw_num:000000000000000c .L0 
C:\Users\Karzan\AppData\Local\Temp\ccyAl7yf.s:1705   .text.lio_lcd_draw_num:0000000000000010 .L0 
C:\Users\Karzan\AppData\Local\Temp\ccyAl7yf.s:1706   .text.lio_lcd_draw_num:0000000000000012 .L0 
C:\Users\Karzan\AppData\Local\Temp\ccyAl7yf.s:1708   .text.lio_lcd_draw_num:0000000000000012 .L0 
C:\Users\Karzan\AppData\Local\Temp\ccyAl7yf.s:1710   .text.lio_lcd_draw_num:0000000000000014 .L0 
C:\Users\Karzan\AppData\Local\Temp\ccyAl7yf.s:1713   .text.lio_lcd_draw_num:000000000000001c .L0 
C:\Users\Karzan\AppData\Local\Temp\ccyAl7yf.s:1721   .text.lio_lcd_draw_num:000000000000002e .L0 
C:\Users\Karzan\AppData\Local\Temp\ccyAl7yf.s:1722   .text.lio_lcd_draw_num:0000000000000030 .L0 
C:\Users\Karzan\AppData\Local\Temp\ccyAl7yf.s:1724   .text.lio_lcd_draw_num:0000000000000032 .L0 
C:\Users\Karzan\AppData\Local\Temp\ccyAl7yf.s:1726   .text.lio_lcd_draw_num:0000000000000034 .L0 
C:\Users\Karzan\AppData\Local\Temp\ccyAl7yf.s:1729   .text.lio_lcd_draw_num:0000000000000036 .L0 
C:\Users\Karzan\AppData\Local\Temp\ccyAl7yf.s:1731   .text.lio_lcd_draw_num:0000000000000038 .L0 
C:\Users\Karzan\AppData\Local\Temp\ccyAl7yf.s:1738   .text.lio_lcd_printf:0000000000000000 lio_lcd_printf
C:\Users\Karzan\AppData\Local\Temp\ccyAl7yf.s:1741   .text.lio_lcd_printf:0000000000000000 .L0 
C:\Users\Karzan\AppData\Local\Temp\ccyAl7yf.s:1743   .text.lio_lcd_printf:0000000000000000 .L0 
C:\Users\Karzan\AppData\Local\Temp\ccyAl7yf.s:1744   .text.lio_lcd_printf:0000000000000000 .L0 
GAS LISTING C:\Users\Karzan\AppData\Local\Temp\ccyAl7yf.s 			page 113


C:\Users\Karzan\AppData\Local\Temp\ccyAl7yf.s:1745   .text.lio_lcd_printf:0000000000000000 .L0 
C:\Users\Karzan\AppData\Local\Temp\ccyAl7yf.s:1747   .text.lio_lcd_printf:0000000000000002 .L0 
C:\Users\Karzan\AppData\Local\Temp\ccyAl7yf.s:1751   .text.lio_lcd_printf:000000000000000e .L0 
C:\Users\Karzan\AppData\Local\Temp\ccyAl7yf.s:1752   .text.lio_lcd_printf:000000000000000e .L0 
C:\Users\Karzan\AppData\Local\Temp\ccyAl7yf.s:1753   .text.lio_lcd_printf:000000000000000e .L0 
C:\Users\Karzan\AppData\Local\Temp\ccyAl7yf.s:1758   .text.lio_lcd_printf:0000000000000014 .L0 
C:\Users\Karzan\AppData\Local\Temp\ccyAl7yf.s:1765   .text.lio_lcd_printf:000000000000001c .L0 
C:\Users\Karzan\AppData\Local\Temp\ccyAl7yf.s:1767   .text.lio_lcd_printf:0000000000000024 .L0 
C:\Users\Karzan\AppData\Local\Temp\ccyAl7yf.s:1768   .text.lio_lcd_printf:0000000000000024 .L0 
C:\Users\Karzan\AppData\Local\Temp\ccyAl7yf.s:1770   .text.lio_lcd_printf:0000000000000024 .L0 
C:\Users\Karzan\AppData\Local\Temp\ccyAl7yf.s:1776   .text.lio_lcd_printf:0000000000000036 .L0 
C:\Users\Karzan\AppData\Local\Temp\ccyAl7yf.s:1779   .text.lio_lcd_printf:000000000000003e .L0 
C:\Users\Karzan\AppData\Local\Temp\ccyAl7yf.s:1780   .text.lio_lcd_printf:000000000000003e .L0 
C:\Users\Karzan\AppData\Local\Temp\ccyAl7yf.s:1782   .text.lio_lcd_printf:0000000000000040 .L0 
C:\Users\Karzan\AppData\Local\Temp\ccyAl7yf.s:1786   .text.lio_lcd_printf:0000000000000048 .L0 
C:\Users\Karzan\AppData\Local\Temp\ccyAl7yf.s:1788   .text.lio_lcd_printf:000000000000004a .L0 
C:\Users\Karzan\AppData\Local\Temp\ccyAl7yf.s:1791   .text.lio_lcd_printf:0000000000000052 .L0 
C:\Users\Karzan\AppData\Local\Temp\ccyAl7yf.s:1792   .text.lio_lcd_printf:0000000000000052 .L0 
C:\Users\Karzan\AppData\Local\Temp\ccyAl7yf.s:1799   .text.lio_lcd_printf:0000000000000062 .L0 
C:\Users\Karzan\AppData\Local\Temp\ccyAl7yf.s:1800   .text.lio_lcd_printf:0000000000000066 .L0 
C:\Users\Karzan\AppData\Local\Temp\ccyAl7yf.s:1802   .text.lio_lcd_printf:000000000000006a .L0 
C:\Users\Karzan\AppData\Local\Temp\ccyAl7yf.s:1804   .text.lio_lcd_printf:000000000000006e .L0 
C:\Users\Karzan\AppData\Local\Temp\ccyAl7yf.s:1806   .text.lio_lcd_printf:0000000000000072 .L0 
C:\Users\Karzan\AppData\Local\Temp\ccyAl7yf.s:1808   .text.lio_lcd_printf:0000000000000076 .L0 
C:\Users\Karzan\AppData\Local\Temp\ccyAl7yf.s:1812   .text.lio_lcd_printf:0000000000000078 .L0 
C:\Users\Karzan\AppData\Local\Temp\ccyAl7yf.s:1814   .text.lio_lcd_printf:000000000000007a .L0 
C:\Users\Karzan\AppData\Local\Temp\ccyAl7yf.s:1821   .text.lio_lcd_draw_bitmask_scaled:0000000000000000 lio_lcd_draw_bitmask_scaled
C:\Users\Karzan\AppData\Local\Temp\ccyAl7yf.s:1824   .text.lio_lcd_draw_bitmask_scaled:0000000000000000 .L0 
C:\Users\Karzan\AppData\Local\Temp\ccyAl7yf.s:1826   .text.lio_lcd_draw_bitmask_scaled:0000000000000000 .L0 
C:\Users\Karzan\AppData\Local\Temp\ccyAl7yf.s:1827   .text.lio_lcd_draw_bitmask_scaled:0000000000000000 .L0 
C:\Users\Karzan\AppData\Local\Temp\ccyAl7yf.s:1828   .text.lio_lcd_draw_bitmask_scaled:0000000000000000 .L0 
C:\Users\Karzan\AppData\Local\Temp\ccyAl7yf.s:1829   .text.lio_lcd_draw_bitmask_scaled:0000000000000000 .L0 
C:\Users\Karzan\AppData\Local\Temp\ccyAl7yf.s:1830   .text.lio_lcd_draw_bitmask_scaled:0000000000000000 .L0 
C:\Users\Karzan\AppData\Local\Temp\ccyAl7yf.s:1832   .text.lio_lcd_draw_bitmask_scaled:0000000000000002 .L0 
C:\Users\Karzan\AppData\Local\Temp\ccyAl7yf.s:1843   .text.lio_lcd_draw_bitmask_scaled:0000000000000016 .L0 
C:\Users\Karzan\AppData\Local\Temp\ccyAl7yf.s:1844   .text.lio_lcd_draw_bitmask_scaled:0000000000000016 .L0 
C:\Users\Karzan\AppData\Local\Temp\ccyAl7yf.s:1845   .text.lio_lcd_draw_bitmask_scaled:0000000000000016 .L0 
C:\Users\Karzan\AppData\Local\Temp\ccyAl7yf.s:1846   .text.lio_lcd_draw_bitmask_scaled:0000000000000016 .L0 
C:\Users\Karzan\AppData\Local\Temp\ccyAl7yf.s:1847   .text.lio_lcd_draw_bitmask_scaled:0000000000000016 .L0 
C:\Users\Karzan\AppData\Local\Temp\ccyAl7yf.s:1848   .text.lio_lcd_draw_bitmask_scaled:0000000000000016 .L0 
C:\Users\Karzan\AppData\Local\Temp\ccyAl7yf.s:1849   .text.lio_lcd_draw_bitmask_scaled:0000000000000016 .L0 
C:\Users\Karzan\AppData\Local\Temp\ccyAl7yf.s:1850   .text.lio_lcd_draw_bitmask_scaled:0000000000000016 .L0 
C:\Users\Karzan\AppData\Local\Temp\ccyAl7yf.s:1851   .text.lio_lcd_draw_bitmask_scaled:0000000000000016 .L0 
C:\Users\Karzan\AppData\Local\Temp\ccyAl7yf.s:1852   .text.lio_lcd_draw_bitmask_scaled:0000000000000016 .L0 
C:\Users\Karzan\AppData\Local\Temp\ccyAl7yf.s:1854   .text.lio_lcd_draw_bitmask_scaled:0000000000000016 .L0 
C:\Users\Karzan\AppData\Local\Temp\ccyAl7yf.s:1861   .text.lio_lcd_draw_bitmask_scaled:0000000000000022 .L0 
C:\Users\Karzan\AppData\Local\Temp\ccyAl7yf.s:1863   .text.lio_lcd_draw_bitmask_scaled:0000000000000024 .L0 
C:\Users\Karzan\AppData\Local\Temp\ccyAl7yf.s:1868   .text.lio_lcd_draw_bitmask_scaled:0000000000000028 .L0 
C:\Users\Karzan\AppData\Local\Temp\ccyAl7yf.s:1874   .text.lio_lcd_draw_bitmask_scaled:0000000000000030 .L0 
C:\Users\Karzan\AppData\Local\Temp\ccyAl7yf.s:1876   .text.lio_lcd_draw_bitmask_scaled:0000000000000034 .L0 
C:\Users\Karzan\AppData\Local\Temp\ccyAl7yf.s:1878   .text.lio_lcd_draw_bitmask_scaled:0000000000000038 .L0 
C:\Users\Karzan\AppData\Local\Temp\ccyAl7yf.s:1880   .text.lio_lcd_draw_bitmask_scaled:000000000000003a .L0 
C:\Users\Karzan\AppData\Local\Temp\ccyAl7yf.s:1882   .text.lio_lcd_draw_bitmask_scaled:000000000000003c .L0 
C:\Users\Karzan\AppData\Local\Temp\ccyAl7yf.s:1885   .text.lio_lcd_draw_bitmask_scaled:0000000000000040 .L0 
C:\Users\Karzan\AppData\Local\Temp\ccyAl7yf.s:1897   .text.lio_lcd_draw_bitmask_scaled:0000000000000058 .L0 
C:\Users\Karzan\AppData\Local\Temp\ccyAl7yf.s:1899   .text.lio_lcd_draw_bitmask_scaled:0000000000000058 .L0 
C:\Users\Karzan\AppData\Local\Temp\ccyAl7yf.s:1900   .text.lio_lcd_draw_bitmask_scaled:0000000000000058 .L0 
GAS LISTING C:\Users\Karzan\AppData\Local\Temp\ccyAl7yf.s 			page 114


C:\Users\Karzan\AppData\Local\Temp\ccyAl7yf.s:1904   .text.lio_lcd_draw_bitmask_scaled:000000000000005c .L0 
C:\Users\Karzan\AppData\Local\Temp\ccyAl7yf.s:1907   .text.lio_lcd_draw_bitmask_scaled:000000000000005e .L0 
C:\Users\Karzan\AppData\Local\Temp\ccyAl7yf.s:1911   .text.lio_lcd_draw_bitmask_scaled:0000000000000062 .L0 
C:\Users\Karzan\AppData\Local\Temp\ccyAl7yf.s:1914   .text.lio_lcd_draw_bitmask_scaled:0000000000000066 .L0 
C:\Users\Karzan\AppData\Local\Temp\ccyAl7yf.s:1918   .text.lio_lcd_draw_bitmask_scaled:000000000000006a .L0 
C:\Users\Karzan\AppData\Local\Temp\ccyAl7yf.s:1921   .text.lio_lcd_draw_bitmask_scaled:000000000000006e .L0 
C:\Users\Karzan\AppData\Local\Temp\ccyAl7yf.s:1922   .text.lio_lcd_draw_bitmask_scaled:0000000000000070 .L0 
C:\Users\Karzan\AppData\Local\Temp\ccyAl7yf.s:1923   .text.lio_lcd_draw_bitmask_scaled:0000000000000070 .L0 
C:\Users\Karzan\AppData\Local\Temp\ccyAl7yf.s:1925   .text.lio_lcd_draw_bitmask_scaled:0000000000000072 .L0 
C:\Users\Karzan\AppData\Local\Temp\ccyAl7yf.s:1928   .text.lio_lcd_draw_bitmask_scaled:0000000000000074 .L0 
C:\Users\Karzan\AppData\Local\Temp\ccyAl7yf.s:1931   .text.lio_lcd_draw_bitmask_scaled:0000000000000076 .L0 
C:\Users\Karzan\AppData\Local\Temp\ccyAl7yf.s:1934   .text.lio_lcd_draw_bitmask_scaled:0000000000000078 .L0 
C:\Users\Karzan\AppData\Local\Temp\ccyAl7yf.s:1936   .text.lio_lcd_draw_bitmask_scaled:000000000000007a .L0 
C:\Users\Karzan\AppData\Local\Temp\ccyAl7yf.s:1939   .text.lio_lcd_draw_bitmask_scaled:000000000000007c .L0 
C:\Users\Karzan\AppData\Local\Temp\ccyAl7yf.s:1941   .text.lio_lcd_draw_bitmask_scaled:000000000000007e .L0 
C:\Users\Karzan\AppData\Local\Temp\ccyAl7yf.s:1943   .text.lio_lcd_draw_bitmask_scaled:0000000000000080 .L0 
C:\Users\Karzan\AppData\Local\Temp\ccyAl7yf.s:1945   .text.lio_lcd_draw_bitmask_scaled:0000000000000082 .L0 
C:\Users\Karzan\AppData\Local\Temp\ccyAl7yf.s:1948   .text.lio_lcd_draw_bitmask_scaled:0000000000000084 .L0 
C:\Users\Karzan\AppData\Local\Temp\ccyAl7yf.s:1953   .text.lio_lcd_draw_bitmask_scaled:0000000000000086 .L0 
C:\Users\Karzan\AppData\Local\Temp\ccyAl7yf.s:1956   .text.lio_lcd_draw_bitmask_scaled:0000000000000086 .L0 
C:\Users\Karzan\AppData\Local\Temp\ccyAl7yf.s:1957   .text.lio_lcd_draw_bitmask_scaled:0000000000000086 .L0 
C:\Users\Karzan\AppData\Local\Temp\ccyAl7yf.s:1961   .text.lio_lcd_draw_bitmask_scaled:000000000000008a .L0 
C:\Users\Karzan\AppData\Local\Temp\ccyAl7yf.s:1963   .text.lio_lcd_draw_bitmask_scaled:000000000000008a .L0 
C:\Users\Karzan\AppData\Local\Temp\ccyAl7yf.s:1964   .text.lio_lcd_draw_bitmask_scaled:000000000000008a .L0 
C:\Users\Karzan\AppData\Local\Temp\ccyAl7yf.s:1969   .text.lio_lcd_draw_bitmask_scaled:000000000000008c .L0 
C:\Users\Karzan\AppData\Local\Temp\ccyAl7yf.s:1970   .text.lio_lcd_draw_bitmask_scaled:000000000000008c .L0 
C:\Users\Karzan\AppData\Local\Temp\ccyAl7yf.s:1972   .text.lio_lcd_draw_bitmask_scaled:0000000000000090 .L0 
C:\Users\Karzan\AppData\Local\Temp\ccyAl7yf.s:1974   .text.lio_lcd_draw_bitmask_scaled:0000000000000092 .L0 
C:\Users\Karzan\AppData\Local\Temp\ccyAl7yf.s:1976   .text.lio_lcd_draw_bitmask_scaled:0000000000000094 .L0 
C:\Users\Karzan\AppData\Local\Temp\ccyAl7yf.s:1984   .text.lio_lcd_draw_bitmask_scaled:00000000000000a4 .L0 
C:\Users\Karzan\AppData\Local\Temp\ccyAl7yf.s:1985   .text.lio_lcd_draw_bitmask_scaled:00000000000000a4 .L0 
C:\Users\Karzan\AppData\Local\Temp\ccyAl7yf.s:1988   .text.lio_lcd_draw_bitmask_scaled:00000000000000a8 .L0 
C:\Users\Karzan\AppData\Local\Temp\ccyAl7yf.s:1991   .text.lio_lcd_draw_bitmask_scaled:00000000000000ac .L0 
C:\Users\Karzan\AppData\Local\Temp\ccyAl7yf.s:1993   .text.lio_lcd_draw_bitmask_scaled:00000000000000b0 .L0 
C:\Users\Karzan\AppData\Local\Temp\ccyAl7yf.s:1996   .text.lio_lcd_draw_bitmask_scaled:00000000000000b2 .L0 
C:\Users\Karzan\AppData\Local\Temp\ccyAl7yf.s:1998   .text.lio_lcd_draw_bitmask_scaled:00000000000000b6 .L0 
C:\Users\Karzan\AppData\Local\Temp\ccyAl7yf.s:2001   .text.lio_lcd_draw_bitmask_scaled:00000000000000bc .L0 
C:\Users\Karzan\AppData\Local\Temp\ccyAl7yf.s:2002   .text.lio_lcd_draw_bitmask_scaled:00000000000000bc .L0 
C:\Users\Karzan\AppData\Local\Temp\ccyAl7yf.s:2005   .text.lio_lcd_draw_bitmask_scaled:00000000000000be .L0 
C:\Users\Karzan\AppData\Local\Temp\ccyAl7yf.s:2006   .text.lio_lcd_draw_bitmask_scaled:00000000000000be .L0 
C:\Users\Karzan\AppData\Local\Temp\ccyAl7yf.s:2007   .text.lio_lcd_draw_bitmask_scaled:00000000000000be .L0 
C:\Users\Karzan\AppData\Local\Temp\ccyAl7yf.s:2011   .text.lio_lcd_draw_bitmask_scaled:00000000000000c4 .L0 
C:\Users\Karzan\AppData\Local\Temp\ccyAl7yf.s:2018   .text.lio_lcd_draw_char_scaled:0000000000000000 lio_lcd_draw_char_scaled
C:\Users\Karzan\AppData\Local\Temp\ccyAl7yf.s:2021   .text.lio_lcd_draw_char_scaled:0000000000000000 .L0 
C:\Users\Karzan\AppData\Local\Temp\ccyAl7yf.s:2023   .text.lio_lcd_draw_char_scaled:0000000000000000 .L0 
C:\Users\Karzan\AppData\Local\Temp\ccyAl7yf.s:2024   .text.lio_lcd_draw_char_scaled:0000000000000000 .L0 
C:\Users\Karzan\AppData\Local\Temp\ccyAl7yf.s:2025   .text.lio_lcd_draw_char_scaled:0000000000000000 .L0 
C:\Users\Karzan\AppData\Local\Temp\ccyAl7yf.s:2031   .text.lio_lcd_draw_char_scaled:0000000000000006 .L0 
C:\Users\Karzan\AppData\Local\Temp\ccyAl7yf.s:2032   .text.lio_lcd_draw_char_scaled:0000000000000006 .L0 
C:\Users\Karzan\AppData\Local\Temp\ccyAl7yf.s:2034   .text.lio_lcd_draw_char_scaled:0000000000000008 .L0 
C:\Users\Karzan\AppData\Local\Temp\ccyAl7yf.s:2038   .text.lio_lcd_draw_char_scaled:000000000000000a .L0 
C:\Users\Karzan\AppData\Local\Temp\ccyAl7yf.s:2039   .text.lio_lcd_draw_char_scaled:000000000000000a .L0 
C:\Users\Karzan\AppData\Local\Temp\ccyAl7yf.s:2040   .text.lio_lcd_draw_char_scaled:000000000000000a .L0 
C:\Users\Karzan\AppData\Local\Temp\ccyAl7yf.s:2042   .text.lio_lcd_draw_char_scaled:000000000000000e .L0 
C:\Users\Karzan\AppData\Local\Temp\ccyAl7yf.s:2044   .text.lio_lcd_draw_char_scaled:0000000000000012 .L0 
C:\Users\Karzan\AppData\Local\Temp\ccyAl7yf.s:2046   .text.lio_lcd_draw_char_scaled:0000000000000014 .L0 
C:\Users\Karzan\AppData\Local\Temp\ccyAl7yf.s:2048   .text.lio_lcd_draw_char_scaled:0000000000000018 .L0 
GAS LISTING C:\Users\Karzan\AppData\Local\Temp\ccyAl7yf.s 			page 115


C:\Users\Karzan\AppData\Local\Temp\ccyAl7yf.s:2050   .text.lio_lcd_draw_char_scaled:000000000000001c .L0 
C:\Users\Karzan\AppData\Local\Temp\ccyAl7yf.s:2053   .text.lio_lcd_draw_char_scaled:000000000000001e .L0 
C:\Users\Karzan\AppData\Local\Temp\ccyAl7yf.s:2055   .text.lio_lcd_draw_char_scaled:0000000000000020 .L0 
C:\Users\Karzan\AppData\Local\Temp\ccyAl7yf.s:2057   .text.lio_lcd_draw_char_scaled:0000000000000024 .L0 
C:\Users\Karzan\AppData\Local\Temp\ccyAl7yf.s:2059   .text.lio_lcd_draw_char_scaled:0000000000000028 .L0 
C:\Users\Karzan\AppData\Local\Temp\ccyAl7yf.s:2061   .text.lio_lcd_draw_char_scaled:000000000000002a .L0 
C:\Users\Karzan\AppData\Local\Temp\ccyAl7yf.s:2079   .text.lio_lcd_draw_char_scaled:000000000000004a .L0 
C:\Users\Karzan\AppData\Local\Temp\ccyAl7yf.s:2080   .text.lio_lcd_draw_char_scaled:000000000000004c .L0 
C:\Users\Karzan\AppData\Local\Temp\ccyAl7yf.s:2087   .text.lio_lcd_draw_string_scaled:0000000000000000 lio_lcd_draw_string_scaled
C:\Users\Karzan\AppData\Local\Temp\ccyAl7yf.s:2090   .text.lio_lcd_draw_string_scaled:0000000000000000 .L0 
C:\Users\Karzan\AppData\Local\Temp\ccyAl7yf.s:2092   .text.lio_lcd_draw_string_scaled:0000000000000000 .L0 
C:\Users\Karzan\AppData\Local\Temp\ccyAl7yf.s:2093   .text.lio_lcd_draw_string_scaled:0000000000000000 .L0 
C:\Users\Karzan\AppData\Local\Temp\ccyAl7yf.s:2094   .text.lio_lcd_draw_string_scaled:0000000000000000 .L0 
C:\Users\Karzan\AppData\Local\Temp\ccyAl7yf.s:2096   .text.lio_lcd_draw_string_scaled:0000000000000002 .L0 
C:\Users\Karzan\AppData\Local\Temp\ccyAl7yf.s:2099   .text.lio_lcd_draw_string_scaled:0000000000000006 .L0 
C:\Users\Karzan\AppData\Local\Temp\ccyAl7yf.s:2100   .text.lio_lcd_draw_string_scaled:0000000000000006 .L0 
C:\Users\Karzan\AppData\Local\Temp\ccyAl7yf.s:2102   .text.lio_lcd_draw_string_scaled:0000000000000006 .L0 
C:\Users\Karzan\AppData\Local\Temp\ccyAl7yf.s:2104   .text.lio_lcd_draw_string_scaled:000000000000000a .L0 
C:\Users\Karzan\AppData\Local\Temp\ccyAl7yf.s:2106   .text.lio_lcd_draw_string_scaled:000000000000000e .L0 
C:\Users\Karzan\AppData\Local\Temp\ccyAl7yf.s:2109   .text.lio_lcd_draw_string_scaled:0000000000000012 .L0 
C:\Users\Karzan\AppData\Local\Temp\ccyAl7yf.s:2110   .text.lio_lcd_draw_string_scaled:0000000000000014 .L0 
C:\Users\Karzan\AppData\Local\Temp\ccyAl7yf.s:2111   .text.lio_lcd_draw_string_scaled:0000000000000014 .L0 
C:\Users\Karzan\AppData\Local\Temp\ccyAl7yf.s:2113   .text.lio_lcd_draw_string_scaled:0000000000000014 .L0 
C:\Users\Karzan\AppData\Local\Temp\ccyAl7yf.s:2115   .text.lio_lcd_draw_string_scaled:0000000000000018 .L0 
C:\Users\Karzan\AppData\Local\Temp\ccyAl7yf.s:2117   .text.lio_lcd_draw_string_scaled:000000000000001c .L0 
C:\Users\Karzan\AppData\Local\Temp\ccyAl7yf.s:2123   .text.lio_lcd_draw_string_scaled:0000000000000028 .L0 
C:\Users\Karzan\AppData\Local\Temp\ccyAl7yf.s:2124   .text.lio_lcd_draw_string_scaled:0000000000000028 .L0 
C:\Users\Karzan\AppData\Local\Temp\ccyAl7yf.s:2125   .text.lio_lcd_draw_string_scaled:0000000000000028 .L0 
C:\Users\Karzan\AppData\Local\Temp\ccyAl7yf.s:2126   .text.lio_lcd_draw_string_scaled:0000000000000028 .L0 
C:\Users\Karzan\AppData\Local\Temp\ccyAl7yf.s:2127   .text.lio_lcd_draw_string_scaled:0000000000000028 .L0 
C:\Users\Karzan\AppData\Local\Temp\ccyAl7yf.s:2128   .text.lio_lcd_draw_string_scaled:0000000000000028 .L0 
C:\Users\Karzan\AppData\Local\Temp\ccyAl7yf.s:2130   .text.lio_lcd_draw_string_scaled:0000000000000028 .L0 
C:\Users\Karzan\AppData\Local\Temp\ccyAl7yf.s:2136   .text.lio_lcd_draw_string_scaled:0000000000000032 .L0 
C:\Users\Karzan\AppData\Local\Temp\ccyAl7yf.s:2138   .text.lio_lcd_draw_string_scaled:0000000000000036 .L0 
C:\Users\Karzan\AppData\Local\Temp\ccyAl7yf.s:2140   .text.lio_lcd_draw_string_scaled:000000000000003a .L0 
C:\Users\Karzan\AppData\Local\Temp\ccyAl7yf.s:2144   .text.lio_lcd_draw_string_scaled:000000000000003e .L0 
C:\Users\Karzan\AppData\Local\Temp\ccyAl7yf.s:2146   .text.lio_lcd_draw_string_scaled:0000000000000042 .L0 
C:\Users\Karzan\AppData\Local\Temp\ccyAl7yf.s:2148   .text.lio_lcd_draw_string_scaled:0000000000000044 .L0 
C:\Users\Karzan\AppData\Local\Temp\ccyAl7yf.s:2149   .text.lio_lcd_draw_string_scaled:0000000000000046 .L0 
C:\Users\Karzan\AppData\Local\Temp\ccyAl7yf.s:2150   .text.lio_lcd_draw_string_scaled:0000000000000046 .L0 
C:\Users\Karzan\AppData\Local\Temp\ccyAl7yf.s:2152   .text.lio_lcd_draw_string_scaled:0000000000000048 .L0 
C:\Users\Karzan\AppData\Local\Temp\ccyAl7yf.s:2155   .text.lio_lcd_draw_string_scaled:000000000000004a .L0 
C:\Users\Karzan\AppData\Local\Temp\ccyAl7yf.s:2158   .text.lio_lcd_draw_string_scaled:000000000000004c .L0 
C:\Users\Karzan\AppData\Local\Temp\ccyAl7yf.s:2161   .text.lio_lcd_draw_string_scaled:000000000000004e .L0 
C:\Users\Karzan\AppData\Local\Temp\ccyAl7yf.s:2163   .text.lio_lcd_draw_string_scaled:0000000000000050 .L0 
C:\Users\Karzan\AppData\Local\Temp\ccyAl7yf.s:2165   .text.lio_lcd_draw_string_scaled:0000000000000052 .L0 
C:\Users\Karzan\AppData\Local\Temp\ccyAl7yf.s:2167   .text.lio_lcd_draw_string_scaled:0000000000000054 .L0 
C:\Users\Karzan\AppData\Local\Temp\ccyAl7yf.s:2169   .text.lio_lcd_draw_string_scaled:0000000000000056 .L0 
C:\Users\Karzan\AppData\Local\Temp\ccyAl7yf.s:2171   .text.lio_lcd_draw_string_scaled:0000000000000058 .L0 
C:\Users\Karzan\AppData\Local\Temp\ccyAl7yf.s:2174   .text.lio_lcd_draw_string_scaled:000000000000005a .L0 
C:\Users\Karzan\AppData\Local\Temp\ccyAl7yf.s:2179   .text.lio_lcd_draw_string_scaled:000000000000005c .L0 
C:\Users\Karzan\AppData\Local\Temp\ccyAl7yf.s:2181   .text.lio_lcd_draw_string_scaled:000000000000005c .L0 
C:\Users\Karzan\AppData\Local\Temp\ccyAl7yf.s:2182   .text.lio_lcd_draw_string_scaled:000000000000005c .L0 
C:\Users\Karzan\AppData\Local\Temp\ccyAl7yf.s:2184   .text.lio_lcd_draw_string_scaled:0000000000000060 .L0 
C:\Users\Karzan\AppData\Local\Temp\ccyAl7yf.s:2186   .text.lio_lcd_draw_string_scaled:0000000000000064 .L0 
C:\Users\Karzan\AppData\Local\Temp\ccyAl7yf.s:2189   .text.lio_lcd_draw_string_scaled:0000000000000068 .L0 
C:\Users\Karzan\AppData\Local\Temp\ccyAl7yf.s:2190   .text.lio_lcd_draw_string_scaled:0000000000000068 .L0 
GAS LISTING C:\Users\Karzan\AppData\Local\Temp\ccyAl7yf.s 			page 116


C:\Users\Karzan\AppData\Local\Temp\ccyAl7yf.s:2191   .text.lio_lcd_draw_string_scaled:0000000000000068 .L0 
C:\Users\Karzan\AppData\Local\Temp\ccyAl7yf.s:2197   .text.lio_lcd_draw_string_scaled:000000000000006e .L0 
C:\Users\Karzan\AppData\Local\Temp\ccyAl7yf.s:2201   .text.lio_lcd_draw_string_scaled:0000000000000070 .L0 
C:\Users\Karzan\AppData\Local\Temp\ccyAl7yf.s:2203   .text.lio_lcd_draw_string_scaled:0000000000000072 .L0 
C:\Users\Karzan\AppData\Local\Temp\ccyAl7yf.s:2206   .text.lio_lcd_draw_string_scaled:0000000000000074 .L0 
C:\Users\Karzan\AppData\Local\Temp\ccyAl7yf.s:2210   .text.lio_lcd_draw_string_scaled:000000000000007a .L0 
C:\Users\Karzan\AppData\Local\Temp\ccyAl7yf.s:2212   .text.lio_lcd_draw_string_scaled:000000000000007c .L0 
C:\Users\Karzan\AppData\Local\Temp\ccyAl7yf.s:2215   .text.lio_lcd_draw_string_scaled:0000000000000084 .L0 
C:\Users\Karzan\AppData\Local\Temp\ccyAl7yf.s:2218   .text.lio_lcd_draw_string_scaled:0000000000000086 .L0 
C:\Users\Karzan\AppData\Local\Temp\ccyAl7yf.s:2221   .text.lio_lcd_draw_string_scaled:000000000000008a .L0 
C:\Users\Karzan\AppData\Local\Temp\ccyAl7yf.s:2228   .text.lio_lcd_printf_scaled:0000000000000000 lio_lcd_printf_scaled
C:\Users\Karzan\AppData\Local\Temp\ccyAl7yf.s:2231   .text.lio_lcd_printf_scaled:0000000000000000 .L0 
C:\Users\Karzan\AppData\Local\Temp\ccyAl7yf.s:2233   .text.lio_lcd_printf_scaled:0000000000000000 .L0 
C:\Users\Karzan\AppData\Local\Temp\ccyAl7yf.s:2234   .text.lio_lcd_printf_scaled:0000000000000000 .L0 
C:\Users\Karzan\AppData\Local\Temp\ccyAl7yf.s:2235   .text.lio_lcd_printf_scaled:0000000000000000 .L0 
C:\Users\Karzan\AppData\Local\Temp\ccyAl7yf.s:2237   .text.lio_lcd_printf_scaled:0000000000000002 .L0 
C:\Users\Karzan\AppData\Local\Temp\ccyAl7yf.s:2241   .text.lio_lcd_printf_scaled:000000000000000e .L0 
C:\Users\Karzan\AppData\Local\Temp\ccyAl7yf.s:2242   .text.lio_lcd_printf_scaled:000000000000000e .L0 
C:\Users\Karzan\AppData\Local\Temp\ccyAl7yf.s:2243   .text.lio_lcd_printf_scaled:000000000000000e .L0 
C:\Users\Karzan\AppData\Local\Temp\ccyAl7yf.s:2248   .text.lio_lcd_printf_scaled:0000000000000014 .L0 
C:\Users\Karzan\AppData\Local\Temp\ccyAl7yf.s:2255   .text.lio_lcd_printf_scaled:000000000000001c .L0 
C:\Users\Karzan\AppData\Local\Temp\ccyAl7yf.s:2257   .text.lio_lcd_printf_scaled:0000000000000024 .L0 
C:\Users\Karzan\AppData\Local\Temp\ccyAl7yf.s:2258   .text.lio_lcd_printf_scaled:0000000000000024 .L0 
C:\Users\Karzan\AppData\Local\Temp\ccyAl7yf.s:2260   .text.lio_lcd_printf_scaled:0000000000000024 .L0 
C:\Users\Karzan\AppData\Local\Temp\ccyAl7yf.s:2266   .text.lio_lcd_printf_scaled:0000000000000034 .L0 
C:\Users\Karzan\AppData\Local\Temp\ccyAl7yf.s:2269   .text.lio_lcd_printf_scaled:000000000000003c .L0 
C:\Users\Karzan\AppData\Local\Temp\ccyAl7yf.s:2270   .text.lio_lcd_printf_scaled:000000000000003c .L0 
C:\Users\Karzan\AppData\Local\Temp\ccyAl7yf.s:2271   .text.lio_lcd_printf_scaled:000000000000003c .L0 
C:\Users\Karzan\AppData\Local\Temp\ccyAl7yf.s:2273   .text.lio_lcd_printf_scaled:000000000000003e .L0 
C:\Users\Karzan\AppData\Local\Temp\ccyAl7yf.s:2275   .text.lio_lcd_printf_scaled:0000000000000040 .L0 
C:\Users\Karzan\AppData\Local\Temp\ccyAl7yf.s:2279   .text.lio_lcd_printf_scaled:0000000000000048 .L0 
C:\Users\Karzan\AppData\Local\Temp\ccyAl7yf.s:2281   .text.lio_lcd_printf_scaled:000000000000004a .L0 
C:\Users\Karzan\AppData\Local\Temp\ccyAl7yf.s:2284   .text.lio_lcd_printf_scaled:0000000000000052 .L0 
C:\Users\Karzan\AppData\Local\Temp\ccyAl7yf.s:2285   .text.lio_lcd_printf_scaled:0000000000000052 .L0 
C:\Users\Karzan\AppData\Local\Temp\ccyAl7yf.s:2293   .text.lio_lcd_printf_scaled:0000000000000064 .L0 
C:\Users\Karzan\AppData\Local\Temp\ccyAl7yf.s:2294   .text.lio_lcd_printf_scaled:0000000000000068 .L0 
C:\Users\Karzan\AppData\Local\Temp\ccyAl7yf.s:2296   .text.lio_lcd_printf_scaled:000000000000006c .L0 
C:\Users\Karzan\AppData\Local\Temp\ccyAl7yf.s:2298   .text.lio_lcd_printf_scaled:0000000000000070 .L0 
C:\Users\Karzan\AppData\Local\Temp\ccyAl7yf.s:2300   .text.lio_lcd_printf_scaled:0000000000000074 .L0 
C:\Users\Karzan\AppData\Local\Temp\ccyAl7yf.s:2302   .text.lio_lcd_printf_scaled:0000000000000078 .L0 
C:\Users\Karzan\AppData\Local\Temp\ccyAl7yf.s:2305   .text.lio_lcd_printf_scaled:000000000000007a .L0 
C:\Users\Karzan\AppData\Local\Temp\ccyAl7yf.s:2308   .text.lio_lcd_printf_scaled:000000000000007c .L0 
C:\Users\Karzan\AppData\Local\Temp\ccyAl7yf.s:2320   .text.lcd_delay_1ms:0000000000000000 lcd_delay_1ms
C:\Users\Karzan\AppData\Local\Temp\ccyAl7yf.s:2323   .text.lcd_delay_1ms:0000000000000000 .L0 
C:\Users\Karzan\AppData\Local\Temp\ccyAl7yf.s:2325   .text.lcd_delay_1ms:0000000000000000 .L0 
C:\Users\Karzan\AppData\Local\Temp\ccyAl7yf.s:2326   .text.lcd_delay_1ms:0000000000000000 .L0 
C:\Users\Karzan\AppData\Local\Temp\ccyAl7yf.s:2327   .text.lcd_delay_1ms:0000000000000000 .L0 
C:\Users\Karzan\AppData\Local\Temp\ccyAl7yf.s:2328   .text.lcd_delay_1ms:0000000000000000 .L0 
C:\Users\Karzan\AppData\Local\Temp\ccyAl7yf.s:2330   .text.lcd_delay_1ms:0000000000000002 .L0 
C:\Users\Karzan\AppData\Local\Temp\ccyAl7yf.s:2342   .text.lcd_delay_1ms:0000000000000018 .L0 
C:\Users\Karzan\AppData\Local\Temp\ccyAl7yf.s:2343   .text.lcd_delay_1ms:0000000000000018 .L0 
C:\Users\Karzan\AppData\Local\Temp\ccyAl7yf.s:2344   .text.lcd_delay_1ms:0000000000000018 .L0 
C:\Users\Karzan\AppData\Local\Temp\ccyAl7yf.s:2345   .text.lcd_delay_1ms:0000000000000018 .L0 
C:\Users\Karzan\AppData\Local\Temp\ccyAl7yf.s:2346   .text.lcd_delay_1ms:0000000000000018 .L0 
C:\Users\Karzan\AppData\Local\Temp\ccyAl7yf.s:2347   .text.lcd_delay_1ms:0000000000000018 .L0 
C:\Users\Karzan\AppData\Local\Temp\ccyAl7yf.s:2348   .text.lcd_delay_1ms:0000000000000018 .L0 
C:\Users\Karzan\AppData\Local\Temp\ccyAl7yf.s:2349   .text.lcd_delay_1ms:0000000000000018 .L0 
GAS LISTING C:\Users\Karzan\AppData\Local\Temp\ccyAl7yf.s 			page 117


C:\Users\Karzan\AppData\Local\Temp\ccyAl7yf.s:2350   .text.lcd_delay_1ms:0000000000000018 .L0 
C:\Users\Karzan\AppData\Local\Temp\ccyAl7yf.s:2351   .text.lcd_delay_1ms:0000000000000018 .L0 
C:\Users\Karzan\AppData\Local\Temp\ccyAl7yf.s:2352   .text.lcd_delay_1ms:0000000000000018 .L0 
C:\Users\Karzan\AppData\Local\Temp\ccyAl7yf.s:2354   .text.lcd_delay_1ms:0000000000000018 .L0 
C:\Users\Karzan\AppData\Local\Temp\ccyAl7yf.s:2356   .text.lcd_delay_1ms:000000000000001a .L0 
C:\Users\Karzan\AppData\Local\Temp\ccyAl7yf.s:2363   .text.lcd_delay_1ms:0000000000000026 .L0 
C:\Users\Karzan\AppData\Local\Temp\ccyAl7yf.s:2364   .text.lcd_delay_1ms:0000000000000026 .L0 
C:\Users\Karzan\AppData\Local\Temp\ccyAl7yf.s:2365   .text.lcd_delay_1ms:0000000000000026 .L0 
C:\Users\Karzan\AppData\Local\Temp\ccyAl7yf.s:2371   .text.lcd_delay_1ms:0000000000000032 .L0 
C:\Users\Karzan\AppData\Local\Temp\ccyAl7yf.s:2375   .text.lcd_delay_1ms:000000000000003a .L0 
C:\Users\Karzan\AppData\Local\Temp\ccyAl7yf.s:2382   .text.lcd_delay_1ms:000000000000004a .L0 
C:\Users\Karzan\AppData\Local\Temp\ccyAl7yf.s:2383   .text.lcd_delay_1ms:000000000000004a .L0 
C:\Users\Karzan\AppData\Local\Temp\ccyAl7yf.s:2384   .text.lcd_delay_1ms:000000000000004a .L0 
C:\Users\Karzan\AppData\Local\Temp\ccyAl7yf.s:2388   .text.lcd_delay_1ms:0000000000000054 .L0 
C:\Users\Karzan\AppData\Local\Temp\ccyAl7yf.s:2394   .text.lcd_delay_1ms:000000000000005c .L0 
C:\Users\Karzan\AppData\Local\Temp\ccyAl7yf.s:2399   .text.lcd_delay_1ms:0000000000000068 .L0 
C:\Users\Karzan\AppData\Local\Temp\ccyAl7yf.s:2401   .text.lcd_delay_1ms:000000000000006c .L0 
C:\Users\Karzan\AppData\Local\Temp\ccyAl7yf.s:2403   .text.lcd_delay_1ms:000000000000006e .L0 
C:\Users\Karzan\AppData\Local\Temp\ccyAl7yf.s:2411   .text.lcd_delay_1ms:0000000000000084 .L0 
C:\Users\Karzan\AppData\Local\Temp\ccyAl7yf.s:2413   .text.lcd_delay_1ms:0000000000000086 .L0 
C:\Users\Karzan\AppData\Local\Temp\ccyAl7yf.s:2415   .text.lcd_delay_1ms:0000000000000088 .L0 
C:\Users\Karzan\AppData\Local\Temp\ccyAl7yf.s:2424   .text.lcd_delay_1ms:00000000000000a0 .L0 
C:\Users\Karzan\AppData\Local\Temp\ccyAl7yf.s:2432   .text.lcd_delay_1ms:00000000000000b4 .L0 
C:\Users\Karzan\AppData\Local\Temp\ccyAl7yf.s:2433   .text.lcd_delay_1ms:00000000000000b6 .L0 
C:\Users\Karzan\AppData\Local\Temp\ccyAl7yf.s:2435   .text.lcd_delay_1ms:00000000000000b8 .L0 
C:\Users\Karzan\AppData\Local\Temp\ccyAl7yf.s:2438   .text.lcd_delay_1ms:00000000000000ba .L0 
C:\Users\Karzan\AppData\Local\Temp\ccyAl7yf.s:2440   .text.lcd_delay_1ms:00000000000000bc .L0 
C:\Users\Karzan\AppData\Local\Temp\ccyAl7yf.s:2442   .text.lcd_delay_1ms:00000000000000be .L0 
C:\Users\Karzan\AppData\Local\Temp\ccyAl7yf.s:2444   .text.lcd_delay_1ms:00000000000000c0 .L0 
C:\Users\Karzan\AppData\Local\Temp\ccyAl7yf.s:2446   .text.lcd_delay_1ms:00000000000000c2 .L0 
C:\Users\Karzan\AppData\Local\Temp\ccyAl7yf.s:2448   .text.lcd_delay_1ms:00000000000000c4 .L0 
C:\Users\Karzan\AppData\Local\Temp\ccyAl7yf.s:2451   .text.lcd_delay_1ms:00000000000000c6 .L0 
C:\Users\Karzan\AppData\Local\Temp\ccyAl7yf.s:2453   .text.lcd_delay_1ms:00000000000000c8 .L0 
C:\Users\Karzan\AppData\Local\Temp\ccyAl7yf.s:2455   .text.lcd_delay_1ms:00000000000000ca .L0 
C:\Users\Karzan\AppData\Local\Temp\ccyAl7yf.s:2458   .text.lcd_delay_1ms:00000000000000cc .L0 
C:\Users\Karzan\AppData\Local\Temp\ccyAl7yf.s:2460   .text.lcd_delay_1ms:00000000000000ce .L0 
C:\Users\Karzan\AppData\Local\Temp\ccyAl7yf.s:2467   .text.lio_lcd_init:0000000000000000 lio_lcd_init
C:\Users\Karzan\AppData\Local\Temp\ccyAl7yf.s:2470   .text.lio_lcd_init:0000000000000000 .L0 
C:\Users\Karzan\AppData\Local\Temp\ccyAl7yf.s:2471   .text.lio_lcd_init:0000000000000000 .L0 
C:\Users\Karzan\AppData\Local\Temp\ccyAl7yf.s:2472   .text.lio_lcd_init:0000000000000000 .L0 
C:\Users\Karzan\AppData\Local\Temp\ccyAl7yf.s:2473   .text.lio_lcd_init:0000000000000000 .L0 
C:\Users\Karzan\AppData\Local\Temp\ccyAl7yf.s:2475   .text.lio_lcd_init:0000000000000004 .L0 
C:\Users\Karzan\AppData\Local\Temp\ccyAl7yf.s:2477   .text.lio_lcd_init:0000000000000006 .L0 
C:\Users\Karzan\AppData\Local\Temp\ccyAl7yf.s:2479   .text.lio_lcd_init:0000000000000006 .L0 
C:\Users\Karzan\AppData\Local\Temp\ccyAl7yf.s:2483   .text.lio_lcd_init:000000000000000e .L0 
C:\Users\Karzan\AppData\Local\Temp\ccyAl7yf.s:2486   .text.lio_lcd_init:0000000000000014 .L0 
C:\Users\Karzan\AppData\Local\Temp\ccyAl7yf.s:2487   .text.lio_lcd_init:0000000000000014 .L0 
C:\Users\Karzan\AppData\Local\Temp\ccyAl7yf.s:2488   .text.lio_lcd_init:0000000000000014 .L0 
C:\Users\Karzan\AppData\Local\Temp\ccyAl7yf.s:2490   .text.lio_lcd_init:0000000000000014 .L0 
C:\Users\Karzan\AppData\Local\Temp\ccyAl7yf.s:2492   .text.lio_lcd_init:0000000000000018 .L0 
C:\Users\Karzan\AppData\Local\Temp\ccyAl7yf.s:2493   .text.lio_lcd_init:000000000000001a .L0 
C:\Users\Karzan\AppData\Local\Temp\ccyAl7yf.s:2495   .text.lio_lcd_init:000000000000001a .L0 
C:\Users\Karzan\AppData\Local\Temp\ccyAl7yf.s:2498   .text.lio_lcd_init:0000000000000022 .L0 
C:\Users\Karzan\AppData\Local\Temp\ccyAl7yf.s:2499   .text.lio_lcd_init:0000000000000022 .L0 
C:\Users\Karzan\AppData\Local\Temp\ccyAl7yf.s:2505   .text.lio_lcd_init:0000000000000032 .L0 
C:\Users\Karzan\AppData\Local\Temp\ccyAl7yf.s:2508   .text.lio_lcd_init:000000000000003a .L0 
C:\Users\Karzan\AppData\Local\Temp\ccyAl7yf.s:2511   .text.lio_lcd_init:0000000000000042 .L0 
GAS LISTING C:\Users\Karzan\AppData\Local\Temp\ccyAl7yf.s 			page 118


C:\Users\Karzan\AppData\Local\Temp\ccyAl7yf.s:2514   .text.lio_lcd_init:000000000000004a .L0 
C:\Users\Karzan\AppData\Local\Temp\ccyAl7yf.s:2518   .text.lio_lcd_init:0000000000000056 .L0 
C:\Users\Karzan\AppData\Local\Temp\ccyAl7yf.s:2522   .text.lio_lcd_init:0000000000000060 .L0 
C:\Users\Karzan\AppData\Local\Temp\ccyAl7yf.s:2526   .text.lio_lcd_init:000000000000006c .L0 
C:\Users\Karzan\AppData\Local\Temp\ccyAl7yf.s:2530   .text.lio_lcd_init:0000000000000076 .L0 
C:\Users\Karzan\AppData\Local\Temp\ccyAl7yf.s:2534   .text.lio_lcd_init:0000000000000082 .L0 
C:\Users\Karzan\AppData\Local\Temp\ccyAl7yf.s:2535   .text.lio_lcd_init:0000000000000082 .L0 
C:\Users\Karzan\AppData\Local\Temp\ccyAl7yf.s:2537   .text.lio_lcd_init:0000000000000086 .L0 
C:\Users\Karzan\AppData\Local\Temp\ccyAl7yf.s:2539   .text.lio_lcd_init:000000000000008a .L0 
C:\Users\Karzan\AppData\Local\Temp\ccyAl7yf.s:2541   .text.lio_lcd_init:000000000000008c .L0 
C:\Users\Karzan\AppData\Local\Temp\ccyAl7yf.s:2546   .text.lio_lcd_init:0000000000000098 .L0 
C:\Users\Karzan\AppData\Local\Temp\ccyAl7yf.s:2547   .text.lio_lcd_init:0000000000000098 .L0 
C:\Users\Karzan\AppData\Local\Temp\ccyAl7yf.s:2548   .text.lio_lcd_init:0000000000000098 .L0 
C:\Users\Karzan\AppData\Local\Temp\ccyAl7yf.s:2549   .text.lio_lcd_init:0000000000000098 .L0 
C:\Users\Karzan\AppData\Local\Temp\ccyAl7yf.s:2552   .text.lio_lcd_init:000000000000009e .L0 
C:\Users\Karzan\AppData\Local\Temp\ccyAl7yf.s:2554   .text.lio_lcd_init:00000000000000a2 .L0 
C:\Users\Karzan\AppData\Local\Temp\ccyAl7yf.s:2556   .text.lio_lcd_init:00000000000000a6 .L0 
C:\Users\Karzan\AppData\Local\Temp\ccyAl7yf.s:2558   .text.lio_lcd_init:00000000000000aa .L0 
C:\Users\Karzan\AppData\Local\Temp\ccyAl7yf.s:2560   .text.lio_lcd_init:00000000000000ae .L0 
C:\Users\Karzan\AppData\Local\Temp\ccyAl7yf.s:2563   .text.lio_lcd_init:00000000000000b6 .L0 
C:\Users\Karzan\AppData\Local\Temp\ccyAl7yf.s:2568   .text.lio_lcd_init:00000000000000c2 .L0 
C:\Users\Karzan\AppData\Local\Temp\ccyAl7yf.s:2569   .text.lio_lcd_init:00000000000000c2 .L0 
C:\Users\Karzan\AppData\Local\Temp\ccyAl7yf.s:2570   .text.lio_lcd_init:00000000000000c2 .L0 
C:\Users\Karzan\AppData\Local\Temp\ccyAl7yf.s:2571   .text.lio_lcd_init:00000000000000c2 .L0 
C:\Users\Karzan\AppData\Local\Temp\ccyAl7yf.s:2573   .text.lio_lcd_init:00000000000000c6 .L0 
C:\Users\Karzan\AppData\Local\Temp\ccyAl7yf.s:2575   .text.lio_lcd_init:00000000000000ca .L0 
C:\Users\Karzan\AppData\Local\Temp\ccyAl7yf.s:2577   .text.lio_lcd_init:00000000000000ce .L0 
C:\Users\Karzan\AppData\Local\Temp\ccyAl7yf.s:2580   .text.lio_lcd_init:00000000000000d6 .L0 
C:\Users\Karzan\AppData\Local\Temp\ccyAl7yf.s:2585   .text.lio_lcd_init:00000000000000e2 .L0 
C:\Users\Karzan\AppData\Local\Temp\ccyAl7yf.s:2586   .text.lio_lcd_init:00000000000000e2 .L0 
C:\Users\Karzan\AppData\Local\Temp\ccyAl7yf.s:2587   .text.lio_lcd_init:00000000000000e2 .L0 
C:\Users\Karzan\AppData\Local\Temp\ccyAl7yf.s:2588   .text.lio_lcd_init:00000000000000e2 .L0 
C:\Users\Karzan\AppData\Local\Temp\ccyAl7yf.s:2589   .text.lio_lcd_init:00000000000000e2 .L0 
C:\Users\Karzan\AppData\Local\Temp\ccyAl7yf.s:2590   .text.lio_lcd_init:00000000000000e2 .L0 
C:\Users\Karzan\AppData\Local\Temp\ccyAl7yf.s:2591   .text.lio_lcd_init:00000000000000e2 .L0 
C:\Users\Karzan\AppData\Local\Temp\ccyAl7yf.s:2594   .text.lio_lcd_init:00000000000000ea .L0 
C:\Users\Karzan\AppData\Local\Temp\ccyAl7yf.s:2596   .text.lio_lcd_init:00000000000000ee .L0 
C:\Users\Karzan\AppData\Local\Temp\ccyAl7yf.s:2598   .text.lio_lcd_init:00000000000000f2 .L0 
C:\Users\Karzan\AppData\Local\Temp\ccyAl7yf.s:2600   .text.lio_lcd_init:00000000000000f4 .L0 
C:\Users\Karzan\AppData\Local\Temp\ccyAl7yf.s:2602   .text.lio_lcd_init:00000000000000f8 .L0 
C:\Users\Karzan\AppData\Local\Temp\ccyAl7yf.s:2605   .text.lio_lcd_init:0000000000000100 .L0 
C:\Users\Karzan\AppData\Local\Temp\ccyAl7yf.s:2610   .text.lio_lcd_init:000000000000010c .L0 
C:\Users\Karzan\AppData\Local\Temp\ccyAl7yf.s:2611   .text.lio_lcd_init:000000000000010c .L0 
C:\Users\Karzan\AppData\Local\Temp\ccyAl7yf.s:2613   .text.lio_lcd_init:000000000000010e .L0 
C:\Users\Karzan\AppData\Local\Temp\ccyAl7yf.s:2615   .text.lio_lcd_init:0000000000000112 .L0 
C:\Users\Karzan\AppData\Local\Temp\ccyAl7yf.s:2617   .text.lio_lcd_init:0000000000000116 .L0 
C:\Users\Karzan\AppData\Local\Temp\ccyAl7yf.s:2620   .text.lio_lcd_init:000000000000011e .L0 
C:\Users\Karzan\AppData\Local\Temp\ccyAl7yf.s:2625   .text.lio_lcd_init:000000000000012a .L0 
C:\Users\Karzan\AppData\Local\Temp\ccyAl7yf.s:2626   .text.lio_lcd_init:000000000000012a .L0 
C:\Users\Karzan\AppData\Local\Temp\ccyAl7yf.s:2627   .text.lio_lcd_init:000000000000012a .L0 
C:\Users\Karzan\AppData\Local\Temp\ccyAl7yf.s:2628   .text.lio_lcd_init:000000000000012a .L0 
C:\Users\Karzan\AppData\Local\Temp\ccyAl7yf.s:2631   .text.lio_lcd_init:0000000000000132 .L0 
C:\Users\Karzan\AppData\Local\Temp\ccyAl7yf.s:2633   .text.lio_lcd_init:0000000000000136 .L0 
C:\Users\Karzan\AppData\Local\Temp\ccyAl7yf.s:2636   .text.lio_lcd_init:000000000000013c .L0 
C:\Users\Karzan\AppData\Local\Temp\ccyAl7yf.s:2639   .text.lio_lcd_init:0000000000000144 .L0 
C:\Users\Karzan\AppData\Local\Temp\ccyAl7yf.s:2644   .text.lio_lcd_init:0000000000000150 .L0 
C:\Users\Karzan\AppData\Local\Temp\ccyAl7yf.s:2645   .text.lio_lcd_init:0000000000000150 .L0 
GAS LISTING C:\Users\Karzan\AppData\Local\Temp\ccyAl7yf.s 			page 119


C:\Users\Karzan\AppData\Local\Temp\ccyAl7yf.s:2647   .text.lio_lcd_init:0000000000000154 .L0 
C:\Users\Karzan\AppData\Local\Temp\ccyAl7yf.s:2649   .text.lio_lcd_init:0000000000000158 .L0 
C:\Users\Karzan\AppData\Local\Temp\ccyAl7yf.s:2651   .text.lio_lcd_init:000000000000015c .L0 
C:\Users\Karzan\AppData\Local\Temp\ccyAl7yf.s:2654   .text.lio_lcd_init:0000000000000164 .L0 
C:\Users\Karzan\AppData\Local\Temp\ccyAl7yf.s:2659   .text.lio_lcd_init:0000000000000170 .L0 
C:\Users\Karzan\AppData\Local\Temp\ccyAl7yf.s:2660   .text.lio_lcd_init:0000000000000170 .L0 
C:\Users\Karzan\AppData\Local\Temp\ccyAl7yf.s:2661   .text.lio_lcd_init:0000000000000170 .L0 
C:\Users\Karzan\AppData\Local\Temp\ccyAl7yf.s:2663   .text.lio_lcd_init:0000000000000172 .L0 
C:\Users\Karzan\AppData\Local\Temp\ccyAl7yf.s:2665   .text.lio_lcd_init:0000000000000176 .L0 
C:\Users\Karzan\AppData\Local\Temp\ccyAl7yf.s:2667   .text.lio_lcd_init:000000000000017a .L0 
C:\Users\Karzan\AppData\Local\Temp\ccyAl7yf.s:2670   .text.lio_lcd_init:0000000000000182 .L0 
C:\Users\Karzan\AppData\Local\Temp\ccyAl7yf.s:2675   .text.lio_lcd_init:000000000000018e .L0 
C:\Users\Karzan\AppData\Local\Temp\ccyAl7yf.s:2676   .text.lio_lcd_init:000000000000018e .L0 
C:\Users\Karzan\AppData\Local\Temp\ccyAl7yf.s:2677   .text.lio_lcd_init:000000000000018e .L0 
C:\Users\Karzan\AppData\Local\Temp\ccyAl7yf.s:2680   .text.lio_lcd_init:0000000000000194 .L0 
C:\Users\Karzan\AppData\Local\Temp\ccyAl7yf.s:2682   .text.lio_lcd_init:0000000000000198 .L0 
C:\Users\Karzan\AppData\Local\Temp\ccyAl7yf.s:2684   .text.lio_lcd_init:000000000000019c .L0 
C:\Users\Karzan\AppData\Local\Temp\ccyAl7yf.s:2687   .text.lio_lcd_init:00000000000001a4 .L0 
C:\Users\Karzan\AppData\Local\Temp\ccyAl7yf.s:2692   .text.lio_lcd_init:00000000000001b0 .L0 
C:\Users\Karzan\AppData\Local\Temp\ccyAl7yf.s:2693   .text.lio_lcd_init:00000000000001b0 .L0 
C:\Users\Karzan\AppData\Local\Temp\ccyAl7yf.s:2694   .text.lio_lcd_init:00000000000001b0 .L0 
C:\Users\Karzan\AppData\Local\Temp\ccyAl7yf.s:2697   .text.lio_lcd_init:00000000000001b6 .L0 
C:\Users\Karzan\AppData\Local\Temp\ccyAl7yf.s:2699   .text.lio_lcd_init:00000000000001ba .L0 
C:\Users\Karzan\AppData\Local\Temp\ccyAl7yf.s:2701   .text.lio_lcd_init:00000000000001be .L0 
C:\Users\Karzan\AppData\Local\Temp\ccyAl7yf.s:2704   .text.lio_lcd_init:00000000000001c6 .L0 
C:\Users\Karzan\AppData\Local\Temp\ccyAl7yf.s:2709   .text.lio_lcd_init:00000000000001d2 .L0 
C:\Users\Karzan\AppData\Local\Temp\ccyAl7yf.s:2710   .text.lio_lcd_init:00000000000001d2 .L0 
C:\Users\Karzan\AppData\Local\Temp\ccyAl7yf.s:2712   .text.lio_lcd_init:00000000000001d4 .L0 
C:\Users\Karzan\AppData\Local\Temp\ccyAl7yf.s:2714   .text.lio_lcd_init:00000000000001d8 .L0 
C:\Users\Karzan\AppData\Local\Temp\ccyAl7yf.s:2716   .text.lio_lcd_init:00000000000001dc .L0 
C:\Users\Karzan\AppData\Local\Temp\ccyAl7yf.s:2719   .text.lio_lcd_init:00000000000001e4 .L0 
C:\Users\Karzan\AppData\Local\Temp\ccyAl7yf.s:2724   .text.lio_lcd_init:00000000000001f0 .L0 
C:\Users\Karzan\AppData\Local\Temp\ccyAl7yf.s:2725   .text.lio_lcd_init:00000000000001f0 .L0 
C:\Users\Karzan\AppData\Local\Temp\ccyAl7yf.s:2726   .text.lio_lcd_init:00000000000001f0 .L0 
C:\Users\Karzan\AppData\Local\Temp\ccyAl7yf.s:2727   .text.lio_lcd_init:00000000000001f0 .L0 
C:\Users\Karzan\AppData\Local\Temp\ccyAl7yf.s:2728   .text.lio_lcd_init:00000000000001f0 .L0 
C:\Users\Karzan\AppData\Local\Temp\ccyAl7yf.s:2729   .text.lio_lcd_init:00000000000001f0 .L0 
C:\Users\Karzan\AppData\Local\Temp\ccyAl7yf.s:2730   .text.lio_lcd_init:00000000000001f0 .L0 
C:\Users\Karzan\AppData\Local\Temp\ccyAl7yf.s:2731   .text.lio_lcd_init:00000000000001f0 .L0 
C:\Users\Karzan\AppData\Local\Temp\ccyAl7yf.s:2732   .text.lio_lcd_init:00000000000001f0 .L0 
C:\Users\Karzan\AppData\Local\Temp\ccyAl7yf.s:2733   .text.lio_lcd_init:00000000000001f0 .L0 
C:\Users\Karzan\AppData\Local\Temp\ccyAl7yf.s:2734   .text.lio_lcd_init:00000000000001f0 .L0 
C:\Users\Karzan\AppData\Local\Temp\ccyAl7yf.s:2735   .text.lio_lcd_init:00000000000001f0 .L0 
C:\Users\Karzan\AppData\Local\Temp\ccyAl7yf.s:2736   .text.lio_lcd_init:00000000000001f0 .L0 
C:\Users\Karzan\AppData\Local\Temp\ccyAl7yf.s:2737   .text.lio_lcd_init:00000000000001f0 .L0 
C:\Users\Karzan\AppData\Local\Temp\ccyAl7yf.s:2738   .text.lio_lcd_init:00000000000001f0 .L0 
C:\Users\Karzan\AppData\Local\Temp\ccyAl7yf.s:2739   .text.lio_lcd_init:00000000000001f0 .L0 
C:\Users\Karzan\AppData\Local\Temp\ccyAl7yf.s:2740   .text.lio_lcd_init:00000000000001f0 .L0 
C:\Users\Karzan\AppData\Local\Temp\ccyAl7yf.s:2744   .text.lio_lcd_init:00000000000001fa .L0 
C:\Users\Karzan\AppData\Local\Temp\ccyAl7yf.s:2748   .text.lio_lcd_init:0000000000000204 .L0 
C:\Users\Karzan\AppData\Local\Temp\ccyAl7yf.s:2750   .text.lio_lcd_init:0000000000000208 .L0 
C:\Users\Karzan\AppData\Local\Temp\ccyAl7yf.s:2753   .text.lio_lcd_init:0000000000000210 .L0 
C:\Users\Karzan\AppData\Local\Temp\ccyAl7yf.s:2755   .text.lio_lcd_init:0000000000000214 .L0 
C:\Users\Karzan\AppData\Local\Temp\ccyAl7yf.s:2757   .text.lio_lcd_init:0000000000000218 .L0 
C:\Users\Karzan\AppData\Local\Temp\ccyAl7yf.s:2759   .text.lio_lcd_init:000000000000021a .L0 
C:\Users\Karzan\AppData\Local\Temp\ccyAl7yf.s:2761   .text.lio_lcd_init:000000000000021c .L0 
C:\Users\Karzan\AppData\Local\Temp\ccyAl7yf.s:2764   .text.lio_lcd_init:0000000000000224 .L0 
GAS LISTING C:\Users\Karzan\AppData\Local\Temp\ccyAl7yf.s 			page 120


C:\Users\Karzan\AppData\Local\Temp\ccyAl7yf.s:2769   .text.lio_lcd_init:0000000000000230 .L0 
C:\Users\Karzan\AppData\Local\Temp\ccyAl7yf.s:2770   .text.lio_lcd_init:0000000000000230 .L0 
C:\Users\Karzan\AppData\Local\Temp\ccyAl7yf.s:2771   .text.lio_lcd_init:0000000000000230 .L0 
C:\Users\Karzan\AppData\Local\Temp\ccyAl7yf.s:2772   .text.lio_lcd_init:0000000000000230 .L0 
C:\Users\Karzan\AppData\Local\Temp\ccyAl7yf.s:2773   .text.lio_lcd_init:0000000000000230 .L0 
C:\Users\Karzan\AppData\Local\Temp\ccyAl7yf.s:2774   .text.lio_lcd_init:0000000000000230 .L0 
C:\Users\Karzan\AppData\Local\Temp\ccyAl7yf.s:2775   .text.lio_lcd_init:0000000000000230 .L0 
C:\Users\Karzan\AppData\Local\Temp\ccyAl7yf.s:2776   .text.lio_lcd_init:0000000000000230 .L0 
C:\Users\Karzan\AppData\Local\Temp\ccyAl7yf.s:2777   .text.lio_lcd_init:0000000000000230 .L0 
C:\Users\Karzan\AppData\Local\Temp\ccyAl7yf.s:2778   .text.lio_lcd_init:0000000000000230 .L0 
C:\Users\Karzan\AppData\Local\Temp\ccyAl7yf.s:2779   .text.lio_lcd_init:0000000000000230 .L0 
C:\Users\Karzan\AppData\Local\Temp\ccyAl7yf.s:2780   .text.lio_lcd_init:0000000000000230 .L0 
C:\Users\Karzan\AppData\Local\Temp\ccyAl7yf.s:2781   .text.lio_lcd_init:0000000000000230 .L0 
C:\Users\Karzan\AppData\Local\Temp\ccyAl7yf.s:2782   .text.lio_lcd_init:0000000000000230 .L0 
C:\Users\Karzan\AppData\Local\Temp\ccyAl7yf.s:2783   .text.lio_lcd_init:0000000000000230 .L0 
C:\Users\Karzan\AppData\Local\Temp\ccyAl7yf.s:2784   .text.lio_lcd_init:0000000000000230 .L0 
C:\Users\Karzan\AppData\Local\Temp\ccyAl7yf.s:2785   .text.lio_lcd_init:0000000000000230 .L0 
C:\Users\Karzan\AppData\Local\Temp\ccyAl7yf.s:2789   .text.lio_lcd_init:000000000000023a .L0 
C:\Users\Karzan\AppData\Local\Temp\ccyAl7yf.s:2793   .text.lio_lcd_init:0000000000000244 .L0 
C:\Users\Karzan\AppData\Local\Temp\ccyAl7yf.s:2796   .text.lio_lcd_init:000000000000024c .L0 
C:\Users\Karzan\AppData\Local\Temp\ccyAl7yf.s:2798   .text.lio_lcd_init:0000000000000250 .L0 
C:\Users\Karzan\AppData\Local\Temp\ccyAl7yf.s:2800   .text.lio_lcd_init:0000000000000252 .L0 
C:\Users\Karzan\AppData\Local\Temp\ccyAl7yf.s:2802   .text.lio_lcd_init:0000000000000254 .L0 
C:\Users\Karzan\AppData\Local\Temp\ccyAl7yf.s:2805   .text.lio_lcd_init:000000000000025c .L0 
C:\Users\Karzan\AppData\Local\Temp\ccyAl7yf.s:2810   .text.lio_lcd_init:0000000000000268 .L0 
C:\Users\Karzan\AppData\Local\Temp\ccyAl7yf.s:2811   .text.lio_lcd_init:0000000000000268 .L0 
C:\Users\Karzan\AppData\Local\Temp\ccyAl7yf.s:2813   .text.lio_lcd_init:000000000000026a .L0 
C:\Users\Karzan\AppData\Local\Temp\ccyAl7yf.s:2815   .text.lio_lcd_init:000000000000026e .L0 
C:\Users\Karzan\AppData\Local\Temp\ccyAl7yf.s:2817   .text.lio_lcd_init:0000000000000272 .L0 
C:\Users\Karzan\AppData\Local\Temp\ccyAl7yf.s:2820   .text.lio_lcd_init:000000000000027a .L0 
C:\Users\Karzan\AppData\Local\Temp\ccyAl7yf.s:2825   .text.lio_lcd_init:0000000000000286 .L0 
C:\Users\Karzan\AppData\Local\Temp\ccyAl7yf.s:2826   .text.lio_lcd_init:0000000000000286 .L0 
C:\Users\Karzan\AppData\Local\Temp\ccyAl7yf.s:2828   .text.lio_lcd_init:000000000000028a .L0 
C:\Users\Karzan\AppData\Local\Temp\ccyAl7yf.s:2830   .text.lio_lcd_init:000000000000028e .L0 
C:\Users\Karzan\AppData\Local\Temp\ccyAl7yf.s:2832   .text.lio_lcd_init:0000000000000292 .L0 
C:\Users\Karzan\AppData\Local\Temp\ccyAl7yf.s:2835   .text.lio_lcd_init:000000000000029a .L0 
C:\Users\Karzan\AppData\Local\Temp\ccyAl7yf.s:2840   .text.lio_lcd_init:00000000000002a6 .L0 
C:\Users\Karzan\AppData\Local\Temp\ccyAl7yf.s:2844   .text.lio_lcd_init:00000000000002b2 .L0 
C:\Users\Karzan\AppData\Local\Temp\ccyAl7yf.s:2845   .text.lio_lcd_init:00000000000002b4 .L0 
C:\Users\Karzan\AppData\Local\Temp\ccyAl7yf.s:2847   .text.lio_lcd_init:00000000000002b6 .L0 
C:\Users\Karzan\AppData\Local\Temp\ccyAl7yf.s:2849   .text.lio_lcd_init:00000000000002b8 .L0 
C:\Users\Karzan\AppData\Local\Temp\ccyAl7yf.s:2851   .text.lio_lcd_init:00000000000002ba .L0 
C:\Users\Karzan\AppData\Local\Temp\ccyAl7yf.s:2854   .text.lio_lcd_init:00000000000002bc .L0 
C:\Users\Karzan\AppData\Local\Temp\ccyAl7yf.s:2856   .text.lio_lcd_init:00000000000002be .L0 
C:\Users\Karzan\AppData\Local\Temp\ccyAl7yf.s:2866   .rodata.font_1608:0000000000000000 font_1608
C:\Users\Karzan\AppData\Local\Temp\ccyAl7yf.s:2863   .rodata.font_1608:0000000000000000 .LANCHOR0
C:\Users\Karzan\AppData\Local\Temp\ccyAl7yf.s:28     .text.lio_lcd_set_background:000000000000000a .L0 
C:\Users\Karzan\AppData\Local\Temp\ccyAl7yf.s:90     .text.spi_write_bus:000000000000003a .L0 
C:\Users\Karzan\AppData\Local\Temp\ccyAl7yf.s:106    .text.lcd_CS_set:000000000000000e .L0 
C:\Users\Karzan\AppData\Local\Temp\ccyAl7yf.s:212    .text.lcd_bus_init:00000000000000b0 .L0 
C:\Users\Karzan\AppData\Local\Temp\ccyAl7yf.s:228    .text.lcd_CS_reset:000000000000000e .L0 
C:\Users\Karzan\AppData\Local\Temp\ccyAl7yf.s:244    .text.lcd_DC_set:000000000000000e .L0 
C:\Users\Karzan\AppData\Local\Temp\ccyAl7yf.s:334    .text.lcd_write_colors:0000000000000068 .L0 
C:\Users\Karzan\AppData\Local\Temp\ccyAl7yf.s:425    .text.lcd_write_color:000000000000006e .L0 
C:\Users\Karzan\AppData\Local\Temp\ccyAl7yf.s:503    .text.lcd_write_data:000000000000005e .L0 
C:\Users\Karzan\AppData\Local\Temp\ccyAl7yf.s:543    .text.lio_lcd_draw_next_pixel:0000000000000022 .L0 
C:\Users\Karzan\AppData\Local\Temp\ccyAl7yf.s:559    .text.lcd_DC_reset:000000000000000e .L0 
GAS LISTING C:\Users\Karzan\AppData\Local\Temp\ccyAl7yf.s 			page 121


C:\Users\Karzan\AppData\Local\Temp\ccyAl7yf.s:623    .text.lcd_write_command:0000000000000050 .L0 
C:\Users\Karzan\AppData\Local\Temp\ccyAl7yf.s:766    .text.lio_lcd_address_set:00000000000000aa .L0 
C:\Users\Karzan\AppData\Local\Temp\ccyAl7yf.s:858    .text.lio_lcd_clear:0000000000000060 .L0 
C:\Users\Karzan\AppData\Local\Temp\ccyAl7yf.s:940    .text.lio_lcd_rect_fill:0000000000000056 .L0 
C:\Users\Karzan\AppData\Local\Temp\ccyAl7yf.s:1079   .text.lio_lcd_rect_lines:00000000000000ca .L0 
C:\Users\Karzan\AppData\Local\Temp\ccyAl7yf.s:1127   .text.lio_lcd_draw_pixel:0000000000000028 .L0 
C:\Users\Karzan\AppData\Local\Temp\ccyAl7yf.s:1330   .text.lio_lcd_draw_line:00000000000000e0 .L0 
C:\Users\Karzan\AppData\Local\Temp\ccyAl7yf.s:1357   .text.lio_lcd_set_area:0000000000000018 .L0 
C:\Users\Karzan\AppData\Local\Temp\ccyAl7yf.s:1512   .text.lio_lcd_draw_bitmask:000000000000008c .L0 
C:\Users\Karzan\AppData\Local\Temp\ccyAl7yf.s:1566   .text.lio_lcd_draw_char:0000000000000038 .L0 
C:\Users\Karzan\AppData\Local\Temp\ccyAl7yf.s:1676   .text.lio_lcd_draw_string:000000000000005e .L0 
C:\Users\Karzan\AppData\Local\Temp\ccyAl7yf.s:1734   .text.lio_lcd_draw_num:0000000000000038 .L0 
C:\Users\Karzan\AppData\Local\Temp\ccyAl7yf.s:1817   .text.lio_lcd_printf:000000000000007a .L0 
C:\Users\Karzan\AppData\Local\Temp\ccyAl7yf.s:2014   .text.lio_lcd_draw_bitmask_scaled:00000000000000c4 .L0 
C:\Users\Karzan\AppData\Local\Temp\ccyAl7yf.s:2083   .text.lio_lcd_draw_char_scaled:000000000000004c .L0 
C:\Users\Karzan\AppData\Local\Temp\ccyAl7yf.s:2224   .text.lio_lcd_draw_string_scaled:000000000000008a .L0 
C:\Users\Karzan\AppData\Local\Temp\ccyAl7yf.s:2316   .text.lio_lcd_printf_scaled:000000000000007c .L0 
C:\Users\Karzan\AppData\Local\Temp\ccyAl7yf.s:2463   .text.lcd_delay_1ms:00000000000000ce .L0 
C:\Users\Karzan\AppData\Local\Temp\ccyAl7yf.s:2861   .text.lio_lcd_init:00000000000002be .L0 
                     .debug_frame:0000000000000000 .L0 
C:\Users\Karzan\AppData\Local\Temp\ccyAl7yf.s:58     .text.spi_write_bus:0000000000000014 .L3
C:\Users\Karzan\AppData\Local\Temp\ccyAl7yf.s:311    .text.lcd_write_colors:000000000000004a .L14
C:\Users\Karzan\AppData\Local\Temp\ccyAl7yf.s:287    .text.lcd_write_colors:0000000000000028 .L15
C:\Users\Karzan\AppData\Local\Temp\ccyAl7yf.s:277    .text.lcd_write_colors:000000000000001c .L13
C:\Users\Karzan\AppData\Local\Temp\ccyAl7yf.s:407    .text.lcd_write_color:0000000000000056 .L20
C:\Users\Karzan\AppData\Local\Temp\ccyAl7yf.s:381    .text.lcd_write_color:0000000000000032 .L21
C:\Users\Karzan\AppData\Local\Temp\ccyAl7yf.s:372    .text.lcd_write_color:0000000000000026 .L19
C:\Users\Karzan\AppData\Local\Temp\ccyAl7yf.s:488    .text.lcd_write_data:000000000000004e .L26
C:\Users\Karzan\AppData\Local\Temp\ccyAl7yf.s:464    .text.lcd_write_data:000000000000002c .L27
C:\Users\Karzan\AppData\Local\Temp\ccyAl7yf.s:455    .text.lcd_write_data:000000000000001e .L25
C:\Users\Karzan\AppData\Local\Temp\ccyAl7yf.s:597    .text.lcd_write_command:000000000000002e .L34
C:\Users\Karzan\AppData\Local\Temp\ccyAl7yf.s:841    .text.lio_lcd_clear:0000000000000050 .L41
C:\Users\Karzan\AppData\Local\Temp\ccyAl7yf.s:825    .text.lio_lcd_clear:0000000000000046 .L40
C:\Users\Karzan\AppData\Local\Temp\ccyAl7yf.s:1190   .text.lio_lcd_draw_line:0000000000000044 .L50
C:\Users\Karzan\AppData\Local\Temp\ccyAl7yf.s:1200   .text.lio_lcd_draw_line:000000000000004e .L51
C:\Users\Karzan\AppData\Local\Temp\ccyAl7yf.s:1313   .text.lio_lcd_draw_line:00000000000000cc .L57
C:\Users\Karzan\AppData\Local\Temp\ccyAl7yf.s:1274   .text.lio_lcd_draw_line:00000000000000b0 .L53
C:\Users\Karzan\AppData\Local\Temp\ccyAl7yf.s:1233   .text.lio_lcd_draw_line:0000000000000072 .L54
C:\Users\Karzan\AppData\Local\Temp\ccyAl7yf.s:1219   .text.lio_lcd_draw_line:0000000000000068 .L52
C:\Users\Karzan\AppData\Local\Temp\ccyAl7yf.s:1464   .text.lio_lcd_draw_bitmask:0000000000000062 .L67
C:\Users\Karzan\AppData\Local\Temp\ccyAl7yf.s:1490   .text.lio_lcd_draw_bitmask:0000000000000074 .L70
C:\Users\Karzan\AppData\Local\Temp\ccyAl7yf.s:1479   .text.lio_lcd_draw_bitmask:0000000000000068 .L66
C:\Users\Karzan\AppData\Local\Temp\ccyAl7yf.s:1437   .text.lio_lcd_draw_bitmask:000000000000004c .L63
C:\Users\Karzan\AppData\Local\Temp\ccyAl7yf.s:1558   .text.lio_lcd_draw_char:0000000000000036 .L71
C:\Users\Karzan\AppData\Local\Temp\ccyAl7yf.s:1630   .text.lio_lcd_draw_string:0000000000000034 .L76
C:\Users\Karzan\AppData\Local\Temp\ccyAl7yf.s:1652   .text.lio_lcd_draw_string:0000000000000046 .L75
C:\Users\Karzan\AppData\Local\Temp\ccyAl7yf.s:1603   .text.lio_lcd_draw_string:000000000000001e .L74
C:\Users\Karzan\AppData\Local\Temp\ccyAl7yf.s:1865   .text.lio_lcd_draw_bitmask_scaled:0000000000000028 .L83
C:\Users\Karzan\AppData\Local\Temp\ccyAl7yf.s:1951   .text.lio_lcd_draw_bitmask_scaled:0000000000000086 .L88
C:\Users\Karzan\AppData\Local\Temp\ccyAl7yf.s:1977   .text.lio_lcd_draw_bitmask_scaled:0000000000000098 .L92
C:\Users\Karzan\AppData\Local\Temp\ccyAl7yf.s:1966   .text.lio_lcd_draw_bitmask_scaled:000000000000008c .L87
C:\Users\Karzan\AppData\Local\Temp\ccyAl7yf.s:1916   .text.lio_lcd_draw_bitmask_scaled:000000000000006a .L84
C:\Users\Karzan\AppData\Local\Temp\ccyAl7yf.s:2075   .text.lio_lcd_draw_char_scaled:000000000000004a .L93
C:\Users\Karzan\AppData\Local\Temp\ccyAl7yf.s:2036   .text.lio_lcd_draw_char_scaled:000000000000000a .L95
C:\Users\Karzan\AppData\Local\Temp\ccyAl7yf.s:2177   .text.lio_lcd_draw_string_scaled:000000000000005c .L99
C:\Users\Karzan\AppData\Local\Temp\ccyAl7yf.s:2199   .text.lio_lcd_draw_string_scaled:0000000000000070 .L98
C:\Users\Karzan\AppData\Local\Temp\ccyAl7yf.s:2142   .text.lio_lcd_draw_string_scaled:000000000000003e .L97
GAS LISTING C:\Users\Karzan\AppData\Local\Temp\ccyAl7yf.s 			page 122


C:\Users\Karzan\AppData\Local\Temp\ccyAl7yf.s:4389   .rodata.lcd_delay_1ms.cst8:0000000000000000 .LC0
C:\Users\Karzan\AppData\Local\Temp\ccyAl7yf.s:2373   .text.lcd_delay_1ms:000000000000003a .L105
C:\Users\Karzan\AppData\Local\Temp\ccyAl7yf.s:2361   .text.lcd_delay_1ms:0000000000000026 .L104
C:\Users\Karzan\AppData\Local\Temp\ccyAl7yf.s:2380   .text.lcd_delay_1ms:000000000000004a .L106
C:\Users\Karzan\AppData\Local\Temp\ccyAl7yf.s:2542   .text.lio_lcd_init:0000000000000090 .L113
C:\Users\Karzan\AppData\Local\Temp\ccyAl7yf.s:9321   .debug_abbrev:0000000000000000 .Ldebug_abbrev0
C:\Users\Karzan\AppData\Local\Temp\ccyAl7yf.s:12863  .debug_str:0000000000000182 .LASF266
C:\Users\Karzan\AppData\Local\Temp\ccyAl7yf.s:12927  .debug_str:0000000000000349 .LASF267
C:\Users\Karzan\AppData\Local\Temp\ccyAl7yf.s:13257  .debug_str:0000000000000a54 .LASF268
C:\Users\Karzan\AppData\Local\Temp\ccyAl7yf.s:12667  .debug_ranges:0000000000000000 .Ldebug_ranges0
C:\Users\Karzan\AppData\Local\Temp\ccyAl7yf.s:12785  .debug_line:0000000000000000 .Ldebug_line0
C:\Users\Karzan\AppData\Local\Temp\ccyAl7yf.s:13103  .debug_str:000000000000070a .LASF0
C:\Users\Karzan\AppData\Local\Temp\ccyAl7yf.s:12915  .debug_str:0000000000000310 .LASF1
C:\Users\Karzan\AppData\Local\Temp\ccyAl7yf.s:12877  .debug_str:0000000000000250 .LASF3
C:\Users\Karzan\AppData\Local\Temp\ccyAl7yf.s:12925  .debug_str:000000000000033b .LASF2
C:\Users\Karzan\AppData\Local\Temp\ccyAl7yf.s:13201  .debug_str:000000000000093e .LASF4
C:\Users\Karzan\AppData\Local\Temp\ccyAl7yf.s:13237  .debug_str:00000000000009e8 .LASF5
C:\Users\Karzan\AppData\Local\Temp\ccyAl7yf.s:12957  .debug_str:0000000000000406 .LASF6
C:\Users\Karzan\AppData\Local\Temp\ccyAl7yf.s:13295  .debug_str:0000000000000b52 .LASF7
C:\Users\Karzan\AppData\Local\Temp\ccyAl7yf.s:13305  .debug_str:0000000000000b8b .LASF8
C:\Users\Karzan\AppData\Local\Temp\ccyAl7yf.s:12887  .debug_str:0000000000000284 .LASF9
C:\Users\Karzan\AppData\Local\Temp\ccyAl7yf.s:13051  .debug_str:0000000000000606 .LASF10
C:\Users\Karzan\AppData\Local\Temp\ccyAl7yf.s:12997  .debug_str:00000000000004d1 .LASF11
C:\Users\Karzan\AppData\Local\Temp\ccyAl7yf.s:13063  .debug_str:0000000000000644 .LASF12
C:\Users\Karzan\AppData\Local\Temp\ccyAl7yf.s:12993  .debug_str:00000000000004c1 .LASF13
C:\Users\Karzan\AppData\Local\Temp\ccyAl7yf.s:13165  .debug_str:0000000000000862 .LASF14
C:\Users\Karzan\AppData\Local\Temp\ccyAl7yf.s:12917  .debug_str:000000000000031c .LASF15
C:\Users\Karzan\AppData\Local\Temp\ccyAl7yf.s:13241  .debug_str:00000000000009fb .LASF16
C:\Users\Karzan\AppData\Local\Temp\ccyAl7yf.s:13169  .debug_str:0000000000000881 .LASF17
C:\Users\Karzan\AppData\Local\Temp\ccyAl7yf.s:12803  .debug_str:000000000000003e .LASF18
C:\Users\Karzan\AppData\Local\Temp\ccyAl7yf.s:13281  .debug_str:0000000000000b0e .LASF19
C:\Users\Karzan\AppData\Local\Temp\ccyAl7yf.s:13239  .debug_str:00000000000009f2 .LASF20
C:\Users\Karzan\AppData\Local\Temp\ccyAl7yf.s:13015  .debug_str:0000000000000533 .LASF177
C:\Users\Karzan\AppData\Local\Temp\ccyAl7yf.s:13203  .debug_str:0000000000000948 .LASF21
C:\Users\Karzan\AppData\Local\Temp\ccyAl7yf.s:13211  .debug_str:0000000000000974 .LASF22
C:\Users\Karzan\AppData\Local\Temp\ccyAl7yf.s:13213  .debug_str:000000000000097d .LASF23
C:\Users\Karzan\AppData\Local\Temp\ccyAl7yf.s:13105  .debug_str:0000000000000717 .LASF24
C:\Users\Karzan\AppData\Local\Temp\ccyAl7yf.s:13273  .debug_str:0000000000000aee .LASF25
C:\Users\Karzan\AppData\Local\Temp\ccyAl7yf.s:13041  .debug_str:00000000000005d0 .LASF26
C:\Users\Karzan\AppData\Local\Temp\ccyAl7yf.s:12829  .debug_str:00000000000000b8 .LASF27
C:\Users\Karzan\AppData\Local\Temp\ccyAl7yf.s:12831  .debug_str:00000000000000c3 .LASF28
C:\Users\Karzan\AppData\Local\Temp\ccyAl7yf.s:12833  .debug_str:00000000000000ce .LASF29
C:\Users\Karzan\AppData\Local\Temp\ccyAl7yf.s:12835  .debug_str:00000000000000d9 .LASF30
C:\Users\Karzan\AppData\Local\Temp\ccyAl7yf.s:12837  .debug_str:00000000000000e4 .LASF31
C:\Users\Karzan\AppData\Local\Temp\ccyAl7yf.s:12839  .debug_str:00000000000000ef .LASF32
C:\Users\Karzan\AppData\Local\Temp\ccyAl7yf.s:13133  .debug_str:00000000000007aa .LASF33
C:\Users\Karzan\AppData\Local\Temp\ccyAl7yf.s:12909  .debug_str:00000000000002f1 .LASF34
C:\Users\Karzan\AppData\Local\Temp\ccyAl7yf.s:12911  .debug_str:00000000000002fa .LASF35
C:\Users\Karzan\AppData\Local\Temp\ccyAl7yf.s:12849  .debug_str:000000000000013b .LASF36
C:\Users\Karzan\AppData\Local\Temp\ccyAl7yf.s:12851  .debug_str:0000000000000146 .LASF37
C:\Users\Karzan\AppData\Local\Temp\ccyAl7yf.s:12813  .debug_str:000000000000006c .LASF38
C:\Users\Karzan\AppData\Local\Temp\ccyAl7yf.s:12815  .debug_str:0000000000000076 .LASF39
C:\Users\Karzan\AppData\Local\Temp\ccyAl7yf.s:13283  .debug_str:0000000000000b17 .LASF40
C:\Users\Karzan\AppData\Local\Temp\ccyAl7yf.s:13285  .debug_str:0000000000000b20 .LASF41
C:\Users\Karzan\AppData\Local\Temp\ccyAl7yf.s:12945  .debug_str:00000000000003dc .LASF42
C:\Users\Karzan\AppData\Local\Temp\ccyAl7yf.s:12947  .debug_str:00000000000003e5 .LASF43
C:\Users\Karzan\AppData\Local\Temp\ccyAl7yf.s:13251  .debug_str:0000000000000a38 .LASF44
GAS LISTING C:\Users\Karzan\AppData\Local\Temp\ccyAl7yf.s 			page 123


C:\Users\Karzan\AppData\Local\Temp\ccyAl7yf.s:12799  .debug_str:000000000000002f .LASF45
C:\Users\Karzan\AppData\Local\Temp\ccyAl7yf.s:12919  .debug_str:0000000000000324 .LASF46
C:\Users\Karzan\AppData\Local\Temp\ccyAl7yf.s:13145  .debug_str:00000000000007f8 .LASF47
C:\Users\Karzan\AppData\Local\Temp\ccyAl7yf.s:13023  .debug_str:0000000000000566 .LASF48
C:\Users\Karzan\AppData\Local\Temp\ccyAl7yf.s:13069  .debug_str:0000000000000666 .LASF49
C:\Users\Karzan\AppData\Local\Temp\ccyAl7yf.s:13071  .debug_str:0000000000000670 .LASF50
C:\Users\Karzan\AppData\Local\Temp\ccyAl7yf.s:13073  .debug_str:000000000000067a .LASF51
C:\Users\Karzan\AppData\Local\Temp\ccyAl7yf.s:13075  .debug_str:0000000000000684 .LASF52
C:\Users\Karzan\AppData\Local\Temp\ccyAl7yf.s:13077  .debug_str:000000000000068e .LASF53
C:\Users\Karzan\AppData\Local\Temp\ccyAl7yf.s:13055  .debug_str:000000000000061c .LASF54
C:\Users\Karzan\AppData\Local\Temp\ccyAl7yf.s:13057  .debug_str:0000000000000625 .LASF55
C:\Users\Karzan\AppData\Local\Temp\ccyAl7yf.s:12827  .debug_str:00000000000000ad .LASF56
C:\Users\Karzan\AppData\Local\Temp\ccyAl7yf.s:12907  .debug_str:00000000000002e8 .LASF57
C:\Users\Karzan\AppData\Local\Temp\ccyAl7yf.s:12847  .debug_str:0000000000000130 .LASF58
C:\Users\Karzan\AppData\Local\Temp\ccyAl7yf.s:12981  .debug_str:000000000000048f .LASF59
C:\Users\Karzan\AppData\Local\Temp\ccyAl7yf.s:13261  .debug_str:0000000000000ac3 .LASF60
C:\Users\Karzan\AppData\Local\Temp\ccyAl7yf.s:13319  .debug_str:0000000000000be1 .LASF61
C:\Users\Karzan\AppData\Local\Temp\ccyAl7yf.s:12855  .debug_str:0000000000000158 .LASF62
C:\Users\Karzan\AppData\Local\Temp\ccyAl7yf.s:12861  .debug_str:000000000000016d .LASF63
C:\Users\Karzan\AppData\Local\Temp\ccyAl7yf.s:13307  .debug_str:0000000000000b95 .LASF64
C:\Users\Karzan\AppData\Local\Temp\ccyAl7yf.s:13193  .debug_str:0000000000000905 .LASF65
C:\Users\Karzan\AppData\Local\Temp\ccyAl7yf.s:13141  .debug_str:00000000000007e2 .LASF66
C:\Users\Karzan\AppData\Local\Temp\ccyAl7yf.s:12941  .debug_str:00000000000003c0 .LASF67
C:\Users\Karzan\AppData\Local\Temp\ccyAl7yf.s:12937  .debug_str:0000000000000398 .LASF269
C:\Users\Karzan\AppData\Local\Temp\ccyAl7yf.s:13065  .debug_str:0000000000000652 .LASF68
C:\Users\Karzan\AppData\Local\Temp\ccyAl7yf.s:13217  .debug_str:0000000000000990 .LASF69
C:\Users\Karzan\AppData\Local\Temp\ccyAl7yf.s:13291  .debug_str:0000000000000b46 .LASF70
C:\Users\Karzan\AppData\Local\Temp\ccyAl7yf.s:13155  .debug_str:000000000000082a .LASF71
C:\Users\Karzan\AppData\Local\Temp\ccyAl7yf.s:12787  .debug_str:0000000000000000 .LASF72
C:\Users\Karzan\AppData\Local\Temp\ccyAl7yf.s:12875  .debug_str:000000000000024a .LASF73
C:\Users\Karzan\AppData\Local\Temp\ccyAl7yf.s:13157  .debug_str:0000000000000832 .LASF74
C:\Users\Karzan\AppData\Local\Temp\ccyAl7yf.s:13135  .debug_str:00000000000007b4 .LASF75
C:\Users\Karzan\AppData\Local\Temp\ccyAl7yf.s:12793  .debug_str:000000000000001c .LASF76
C:\Users\Karzan\AppData\Local\Temp\ccyAl7yf.s:13207  .debug_str:0000000000000964 .LASF77
C:\Users\Karzan\AppData\Local\Temp\ccyAl7yf.s:13279  .debug_str:0000000000000b06 .LASF78
C:\Users\Karzan\AppData\Local\Temp\ccyAl7yf.s:13025  .debug_str:000000000000056d .LASF79
C:\Users\Karzan\AppData\Local\Temp\ccyAl7yf.s:13197  .debug_str:000000000000092e .LASF80
C:\Users\Karzan\AppData\Local\Temp\ccyAl7yf.s:13037  .debug_str:00000000000005c0 .LASF85
C:\Users\Karzan\AppData\Local\Temp\ccyAl7yf.s:13223  .debug_str:00000000000009b0 .LASF81
C:\Users\Karzan\AppData\Local\Temp\ccyAl7yf.s:13039  .debug_str:00000000000005c8 .LASF82
C:\Users\Karzan\AppData\Local\Temp\ccyAl7yf.s:13097  .debug_str:00000000000006ec .LASF83
C:\Users\Karzan\AppData\Local\Temp\ccyAl7yf.s:12975  .debug_str:0000000000000471 .LASF84
C:\Users\Karzan\AppData\Local\Temp\ccyAl7yf.s:12819  .debug_str:0000000000000088 .LASF86
C:\Users\Karzan\AppData\Local\Temp\ccyAl7yf.s:12825  .debug_str:00000000000000a4 .LASF87
C:\Users\Karzan\AppData\Local\Temp\ccyAl7yf.s:13323  .debug_str:0000000000000bf1 .LASF88
C:\Users\Karzan\AppData\Local\Temp\ccyAl7yf.s:13297  .debug_str:0000000000000b65 .LASF89
C:\Users\Karzan\AppData\Local\Temp\ccyAl7yf.s:13115  .debug_str:000000000000075c .LASF90
C:\Users\Karzan\AppData\Local\Temp\ccyAl7yf.s:12903  .debug_str:00000000000002d9 .LASF91
C:\Users\Karzan\AppData\Local\Temp\ccyAl7yf.s:13249  .debug_str:0000000000000a2e .LASF92
C:\Users\Karzan\AppData\Local\Temp\ccyAl7yf.s:13139  .debug_str:00000000000007d8 .LASF93
C:\Users\Karzan\AppData\Local\Temp\ccyAl7yf.s:13143  .debug_str:00000000000007ee .LASF94
C:\Users\Karzan\AppData\Local\Temp\ccyAl7yf.s:13317  .debug_str:0000000000000bd6 .LASF95
C:\Users\Karzan\AppData\Local\Temp\ccyAl7yf.s:12883  .debug_str:0000000000000268 .LASF96
C:\Users\Karzan\AppData\Local\Temp\ccyAl7yf.s:13315  .debug_str:0000000000000bce .LASF97
C:\Users\Karzan\AppData\Local\Temp\ccyAl7yf.s:13171  .debug_str:000000000000088a .LASF98
C:\Users\Karzan\AppData\Local\Temp\ccyAl7yf.s:13245  .debug_str:0000000000000a0d .LASF99
C:\Users\Karzan\AppData\Local\Temp\ccyAl7yf.s:13271  .debug_str:0000000000000ae6 .LASF100
GAS LISTING C:\Users\Karzan\AppData\Local\Temp\ccyAl7yf.s 			page 124


C:\Users\Karzan\AppData\Local\Temp\ccyAl7yf.s:13131  .debug_str:00000000000007a2 .LASF101
C:\Users\Karzan\AppData\Local\Temp\ccyAl7yf.s:13265  .debug_str:0000000000000ad3 .LASF102
C:\Users\Karzan\AppData\Local\Temp\ccyAl7yf.s:12953  .debug_str:00000000000003fa .LASF103
C:\Users\Karzan\AppData\Local\Temp\ccyAl7yf.s:13267  .debug_str:0000000000000ad8 .LASF104
C:\Users\Karzan\AppData\Local\Temp\ccyAl7yf.s:13183  .debug_str:00000000000008c7 .LASF105
C:\Users\Karzan\AppData\Local\Temp\ccyAl7yf.s:12895  .debug_str:00000000000002ae .LASF106
C:\Users\Karzan\AppData\Local\Temp\ccyAl7yf.s:13005  .debug_str:000000000000050c .LASF107
C:\Users\Karzan\AppData\Local\Temp\ccyAl7yf.s:13129  .debug_str:000000000000079b .LASF108
C:\Users\Karzan\AppData\Local\Temp\ccyAl7yf.s:12879  .debug_str:000000000000025a .LASF109
C:\Users\Karzan\AppData\Local\Temp\ccyAl7yf.s:13259  .debug_str:0000000000000aba .LASF110
C:\Users\Karzan\AppData\Local\Temp\ccyAl7yf.s:12973  .debug_str:0000000000000469 .LASF111
C:\Users\Karzan\AppData\Local\Temp\ccyAl7yf.s:12797  .debug_str:0000000000000029 .LASF112
C:\Users\Karzan\AppData\Local\Temp\ccyAl7yf.s:12801  .debug_str:0000000000000037 .LASF113
C:\Users\Karzan\AppData\Local\Temp\ccyAl7yf.s:13151  .debug_str:0000000000000816 .LASF114
C:\Users\Karzan\AppData\Local\Temp\ccyAl7yf.s:12955  .debug_str:00000000000003ff .LASF115
C:\Users\Karzan\AppData\Local\Temp\ccyAl7yf.s:13119  .debug_str:000000000000076b .LASF116
C:\Users\Karzan\AppData\Local\Temp\ccyAl7yf.s:12823  .debug_str:000000000000009e .LASF117
C:\Users\Karzan\AppData\Local\Temp\ccyAl7yf.s:13181  .debug_str:00000000000008be .LASF118
C:\Users\Karzan\AppData\Local\Temp\ccyAl7yf.s:12983  .debug_str:000000000000049b .LASF119
C:\Users\Karzan\AppData\Local\Temp\ccyAl7yf.s:13225  .debug_str:00000000000009b6 .LASF120
C:\Users\Karzan\AppData\Local\Temp\ccyAl7yf.s:12857  .debug_str:000000000000015f .LASF121
C:\Users\Karzan\AppData\Local\Temp\ccyAl7yf.s:13125  .debug_str:0000000000000787 .LASF122
C:\Users\Karzan\AppData\Local\Temp\ccyAl7yf.s:13009  .debug_str:000000000000051f .LASF123
C:\Users\Karzan\AppData\Local\Temp\ccyAl7yf.s:12933  .debug_str:000000000000037e .LASF124
C:\Users\Karzan\AppData\Local\Temp\ccyAl7yf.s:13031  .debug_str:0000000000000594 .LASF125
C:\Users\Karzan\AppData\Local\Temp\ccyAl7yf.s:12961  .debug_str:0000000000000422 .LASF126
C:\Users\Karzan\AppData\Local\Temp\ccyAl7yf.s:13177  .debug_str:00000000000008af .LASF127
C:\Users\Karzan\AppData\Local\Temp\ccyAl7yf.s:13121  .debug_str:0000000000000771 .LASF128
C:\Users\Karzan\AppData\Local\Temp\ccyAl7yf.s:13263  .debug_str:0000000000000ace .LASF129
C:\Users\Karzan\AppData\Local\Temp\ccyAl7yf.s:13053  .debug_str:0000000000000611 .LASF130
C:\Users\Karzan\AppData\Local\Temp\ccyAl7yf.s:12931  .debug_str:0000000000000365 .LASF131
C:\Users\Karzan\AppData\Local\Temp\ccyAl7yf.s:13277  .debug_str:0000000000000afe .LASF132
C:\Users\Karzan\AppData\Local\Temp\ccyAl7yf.s:13007  .debug_str:0000000000000514 .LASF133
C:\Users\Karzan\AppData\Local\Temp\ccyAl7yf.s:13045  .debug_str:00000000000005e5 .LASF134
C:\Users\Karzan\AppData\Local\Temp\ccyAl7yf.s:13287  .debug_str:0000000000000b29 .LASF135
C:\Users\Karzan\AppData\Local\Temp\ccyAl7yf.s:12893  .debug_str:00000000000002a4 .LASF136
C:\Users\Karzan\AppData\Local\Temp\ccyAl7yf.s:12995  .debug_str:00000000000004cc .LASF137
C:\Users\Karzan\AppData\Local\Temp\ccyAl7yf.s:13091  .debug_str:00000000000006d6 .LASF138
C:\Users\Karzan\AppData\Local\Temp\ccyAl7yf.s:12807  .debug_str:0000000000000053 .LASF139
C:\Users\Karzan\AppData\Local\Temp\ccyAl7yf.s:12985  .debug_str:00000000000004a3 .LASF140
C:\Users\Karzan\AppData\Local\Temp\ccyAl7yf.s:13117  .debug_str:0000000000000766 .LASF141
C:\Users\Karzan\AppData\Local\Temp\ccyAl7yf.s:13047  .debug_str:00000000000005ef .LASF142
C:\Users\Karzan\AppData\Local\Temp\ccyAl7yf.s:12979  .debug_str:0000000000000485 .LASF143
C:\Users\Karzan\AppData\Local\Temp\ccyAl7yf.s:13083  .debug_str:00000000000006b1 .LASF144
C:\Users\Karzan\AppData\Local\Temp\ccyAl7yf.s:12795  .debug_str:0000000000000024 .LASF145
C:\Users\Karzan\AppData\Local\Temp\ccyAl7yf.s:12949  .debug_str:00000000000003ee .LASF146
C:\Users\Karzan\AppData\Local\Temp\ccyAl7yf.s:13199  .debug_str:0000000000000937 .LASF147
C:\Users\Karzan\AppData\Local\Temp\ccyAl7yf.s:13095  .debug_str:00000000000006e6 .LASF148
C:\Users\Karzan\AppData\Local\Temp\ccyAl7yf.s:13079  .debug_str:0000000000000698 .LASF149
C:\Users\Karzan\AppData\Local\Temp\ccyAl7yf.s:13093  .debug_str:00000000000006e0 .LASF150
C:\Users\Karzan\AppData\Local\Temp\ccyAl7yf.s:13173  .debug_str:0000000000000896 .LASF151
C:\Users\Karzan\AppData\Local\Temp\ccyAl7yf.s:13147  .debug_str:0000000000000800 .LASF152
C:\Users\Karzan\AppData\Local\Temp\ccyAl7yf.s:12865  .debug_str:000000000000020a .LASF153
C:\Users\Karzan\AppData\Local\Temp\ccyAl7yf.s:13293  .debug_str:0000000000000b4d .LASF154
C:\Users\Karzan\AppData\Local\Temp\ccyAl7yf.s:12913  .debug_str:0000000000000303 .LASF155
C:\Users\Karzan\AppData\Local\Temp\ccyAl7yf.s:13185  .debug_str:00000000000008cd .LASF156
C:\Users\Karzan\AppData\Local\Temp\ccyAl7yf.s:12805  .debug_str:0000000000000046 .LASF157
GAS LISTING C:\Users\Karzan\AppData\Local\Temp\ccyAl7yf.s 			page 125


C:\Users\Karzan\AppData\Local\Temp\ccyAl7yf.s:12899  .debug_str:00000000000002c5 .LASF158
C:\Users\Karzan\AppData\Local\Temp\ccyAl7yf.s:13087  .debug_str:00000000000006c2 .LASF159
C:\Users\Karzan\AppData\Local\Temp\ccyAl7yf.s:13127  .debug_str:0000000000000790 .LASF160
C:\Users\Karzan\AppData\Local\Temp\ccyAl7yf.s:13209  .debug_str:000000000000096f .LASF161
C:\Users\Karzan\AppData\Local\Temp\ccyAl7yf.s:13235  .debug_str:00000000000009db .LASF162
C:\Users\Karzan\AppData\Local\Temp\ccyAl7yf.s:13161  .debug_str:0000000000000843 .LASF163
C:\Users\Karzan\AppData\Local\Temp\ccyAl7yf.s:13123  .debug_str:0000000000000779 .LASF164
C:\Users\Karzan\AppData\Local\Temp\ccyAl7yf.s:13159  .debug_str:0000000000000839 .LASF165
C:\Users\Karzan\AppData\Local\Temp\ccyAl7yf.s:13033  .debug_str:000000000000059b .LASF166
C:\Users\Karzan\AppData\Local\Temp\ccyAl7yf.s:13325  .debug_str:0000000000000bfa .LASF167
C:\Users\Karzan\AppData\Local\Temp\ccyAl7yf.s:12885  .debug_str:0000000000000276 .LASF168
C:\Users\Karzan\AppData\Local\Temp\ccyAl7yf.s:13191  .debug_str:00000000000008f6 .LASF169
C:\Users\Karzan\AppData\Local\Temp\ccyAl7yf.s:13303  .debug_str:0000000000000b7a .LASF170
C:\Users\Karzan\AppData\Local\Temp\ccyAl7yf.s:13109  .debug_str:0000000000000728 .LASF171
C:\Users\Karzan\AppData\Local\Temp\ccyAl7yf.s:12821  .debug_str:000000000000008d .LASF172
C:\Users\Karzan\AppData\Local\Temp\ccyAl7yf.s:13107  .debug_str:000000000000071f .LASF173
C:\Users\Karzan\AppData\Local\Temp\ccyAl7yf.s:13275  .debug_str:0000000000000af7 .LASF174
C:\Users\Karzan\AppData\Local\Temp\ccyAl7yf.s:13085  .debug_str:00000000000006b9 .LASF175
C:\Users\Karzan\AppData\Local\Temp\ccyAl7yf.s:12817  .debug_str:0000000000000080 .LASF176
C:\Users\Karzan\AppData\Local\Temp\ccyAl7yf.s:12791  .debug_str:0000000000000011 .LASF270
C:\Users\Karzan\AppData\Local\Temp\ccyAl7yf.s:12889  .debug_str:000000000000028d .LASF178
C:\Users\Karzan\AppData\Local\Temp\ccyAl7yf.s:12935  .debug_str:0000000000000385 .LASF179
C:\Users\Karzan\AppData\Local\Temp\ccyAl7yf.s:13179  .debug_str:00000000000008b7 .LASF180
C:\Users\Karzan\AppData\Local\Temp\ccyAl7yf.s:12809  .debug_str:000000000000005b .LASF181
C:\Users\Karzan\AppData\Local\Temp\ccyAl7yf.s:13327  .debug_str:0000000000000c07 .LASF182
C:\Users\Karzan\AppData\Local\Temp\ccyAl7yf.s:13019  .debug_str:0000000000000554 .LASF183
C:\Users\Karzan\AppData\Local\Temp\ccyAl7yf.s:13021  .debug_str:000000000000055d .LASF184
C:\Users\Karzan\AppData\Local\Temp\ccyAl7yf.s:12811  .debug_str:0000000000000061 .LASF185
C:\Users\Karzan\AppData\Local\Temp\ccyAl7yf.s:13061  .debug_str:0000000000000633 .LASF186
C:\Users\Karzan\AppData\Local\Temp\ccyAl7yf.s:12989  .debug_str:00000000000004b1 .LASF187
C:\Users\Karzan\AppData\Local\Temp\ccyAl7yf.s:13243  .debug_str:0000000000000a03 .LASF188
C:\Users\Karzan\AppData\Local\Temp\ccyAl7yf.s:13253  .debug_str:0000000000000a41 .LASF189
C:\Users\Karzan\AppData\Local\Temp\ccyAl7yf.s:13049  .debug_str:00000000000005f8 .LASF195
C:\Users\Karzan\AppData\Local\Temp\ccyAl7yf.s:2321   .text.lcd_delay_1ms:0000000000000000 .LFB34
C:\Users\Karzan\AppData\Local\Temp\ccyAl7yf.s:2461   .text.lcd_delay_1ms:00000000000000ce .LFE34
C:\Users\Karzan\AppData\Local\Temp\ccyAl7yf.s:10473  .debug_loc:0000000000000000 .LLST126
C:\Users\Karzan\AppData\Local\Temp\ccyAl7yf.s:13099  .debug_str:00000000000006f2 .LASF197
C:\Users\Karzan\AppData\Local\Temp\ccyAl7yf.s:10491  .debug_loc:000000000000002c .LLST127
C:\Users\Karzan\AppData\Local\Temp\ccyAl7yf.s:12967  .debug_str:0000000000000442 .LASF190
C:\Users\Karzan\AppData\Local\Temp\ccyAl7yf.s:10509  .debug_loc:0000000000000058 .LLST128
C:\Users\Karzan\AppData\Local\Temp\ccyAl7yf.s:13067  .debug_str:000000000000065a .LASF219
C:\Users\Karzan\AppData\Local\Temp\ccyAl7yf.s:10521  .debug_loc:0000000000000070 .LLST129
C:\Users\Karzan\AppData\Local\Temp\ccyAl7yf.s:2357   .text.lcd_delay_1ms:0000000000000022 .LVL232
C:\Users\Karzan\AppData\Local\Temp\ccyAl7yf.s:2366   .text.lcd_delay_1ms:000000000000002e .LVL234
C:\Users\Karzan\AppData\Local\Temp\ccyAl7yf.s:2385   .text.lcd_delay_1ms:0000000000000052 .LVL237
C:\Users\Karzan\AppData\Local\Temp\ccyAl7yf.s:13227  .debug_str:00000000000009bc .LASF191
C:\Users\Karzan\AppData\Local\Temp\ccyAl7yf.s:548    .text.lcd_DC_reset:0000000000000000 .LFB33
C:\Users\Karzan\AppData\Local\Temp\ccyAl7yf.s:557    .text.lcd_DC_reset:000000000000000e .LFE33
C:\Users\Karzan\AppData\Local\Temp\ccyAl7yf.s:555    .text.lcd_DC_reset:000000000000000e .LVL50
C:\Users\Karzan\AppData\Local\Temp\ccyAl7yf.s:13043  .debug_str:00000000000005da .LASF192
C:\Users\Karzan\AppData\Local\Temp\ccyAl7yf.s:233    .text.lcd_DC_set:0000000000000000 .LFB32
C:\Users\Karzan\AppData\Local\Temp\ccyAl7yf.s:242    .text.lcd_DC_set:000000000000000e .LFE32
C:\Users\Karzan\AppData\Local\Temp\ccyAl7yf.s:240    .text.lcd_DC_set:000000000000000e .LVL17
C:\Users\Karzan\AppData\Local\Temp\ccyAl7yf.s:12943  .debug_str:00000000000003cf .LASF193
C:\Users\Karzan\AppData\Local\Temp\ccyAl7yf.s:217    .text.lcd_CS_reset:0000000000000000 .LFB31
C:\Users\Karzan\AppData\Local\Temp\ccyAl7yf.s:226    .text.lcd_CS_reset:000000000000000e .LFE31
C:\Users\Karzan\AppData\Local\Temp\ccyAl7yf.s:224    .text.lcd_CS_reset:000000000000000e .LVL16
GAS LISTING C:\Users\Karzan\AppData\Local\Temp\ccyAl7yf.s 			page 126


C:\Users\Karzan\AppData\Local\Temp\ccyAl7yf.s:12891  .debug_str:0000000000000299 .LASF194
C:\Users\Karzan\AppData\Local\Temp\ccyAl7yf.s:95     .text.lcd_CS_set:0000000000000000 .LFB30
C:\Users\Karzan\AppData\Local\Temp\ccyAl7yf.s:104    .text.lcd_CS_set:000000000000000e .LFE30
C:\Users\Karzan\AppData\Local\Temp\ccyAl7yf.s:102    .text.lcd_CS_set:000000000000000e .LVL5
C:\Users\Karzan\AppData\Local\Temp\ccyAl7yf.s:13101  .debug_str:00000000000006f8 .LASF196
C:\Users\Karzan\AppData\Local\Temp\ccyAl7yf.s:564    .text.lcd_write_command:0000000000000000 .LFB29
C:\Users\Karzan\AppData\Local\Temp\ccyAl7yf.s:621    .text.lcd_write_command:0000000000000050 .LFE29
C:\Users\Karzan\AppData\Local\Temp\ccyAl7yf.s:10533  .debug_loc:0000000000000088 .LLST15
C:\Users\Karzan\AppData\Local\Temp\ccyAl7yf.s:13167  .debug_str:0000000000000879 .LASF198
C:\Users\Karzan\AppData\Local\Temp\ccyAl7yf.s:10551  .debug_loc:00000000000000b4 .LLST16
C:\Users\Karzan\AppData\Local\Temp\ccyAl7yf.s:582    .text.lcd_write_command:0000000000000012 .LVL52
C:\Users\Karzan\AppData\Local\Temp\ccyAl7yf.s:585    .text.lcd_write_command:000000000000001a .LVL53
C:\Users\Karzan\AppData\Local\Temp\ccyAl7yf.s:593    .text.lcd_write_command:000000000000002c .LVL54
C:\Users\Karzan\AppData\Local\Temp\ccyAl7yf.s:603    .text.lcd_write_command:000000000000003c .LVL55
C:\Users\Karzan\AppData\Local\Temp\ccyAl7yf.s:619    .text.lcd_write_command:0000000000000050 .LVL56
C:\Users\Karzan\AppData\Local\Temp\ccyAl7yf.s:13187  .debug_str:00000000000008da .LASF199
C:\Users\Karzan\AppData\Local\Temp\ccyAl7yf.s:430    .text.lcd_write_data:0000000000000000 .LFB28
C:\Users\Karzan\AppData\Local\Temp\ccyAl7yf.s:501    .text.lcd_write_data:000000000000005e .LFE28
C:\Users\Karzan\AppData\Local\Temp\ccyAl7yf.s:10565  .debug_loc:00000000000000d5 .LLST10
C:\Users\Karzan\AppData\Local\Temp\ccyAl7yf.s:10588  .debug_loc:000000000000010d .LLST11
C:\Users\Karzan\AppData\Local\Temp\ccyAl7yf.s:10602  .debug_loc:000000000000012e .LLST12
C:\Users\Karzan\AppData\Local\Temp\ccyAl7yf.s:450    .text.lcd_write_data:0000000000000016 .LVL40
C:\Users\Karzan\AppData\Local\Temp\ccyAl7yf.s:453    .text.lcd_write_data:000000000000001e .LVL41
C:\Users\Karzan\AppData\Local\Temp\ccyAl7yf.s:470    .text.lcd_write_data:000000000000003a .LVL43
C:\Users\Karzan\AppData\Local\Temp\ccyAl7yf.s:487    .text.lcd_write_data:000000000000004e .LVL44
C:\Users\Karzan\AppData\Local\Temp\ccyAl7yf.s:498    .text.lcd_write_data:000000000000005c .LVL46
C:\Users\Karzan\AppData\Local\Temp\ccyAl7yf.s:13195  .debug_str:000000000000091a .LASF200
C:\Users\Karzan\AppData\Local\Temp\ccyAl7yf.s:628    .text.lio_lcd_address_set:0000000000000000 .LFB27
C:\Users\Karzan\AppData\Local\Temp\ccyAl7yf.s:764    .text.lio_lcd_address_set:00000000000000aa .LFE27
C:\Users\Karzan\AppData\Local\Temp\ccyAl7yf.s:10617  .debug_loc:0000000000000157 .LLST17
C:\Users\Karzan\AppData\Local\Temp\ccyAl7yf.s:10635  .debug_loc:0000000000000183 .LLST18
C:\Users\Karzan\AppData\Local\Temp\ccyAl7yf.s:10673  .debug_loc:00000000000001cd .LLST19
C:\Users\Karzan\AppData\Local\Temp\ccyAl7yf.s:10711  .debug_loc:0000000000000217 .LLST20
C:\Users\Karzan\AppData\Local\Temp\ccyAl7yf.s:10729  .debug_loc:0000000000000243 .LLST21
C:\Users\Karzan\AppData\Local\Temp\ccyAl7yf.s:696    .text.lio_lcd_address_set:0000000000000054 .LVL64
C:\Users\Karzan\AppData\Local\Temp\ccyAl7yf.s:701    .text.lio_lcd_address_set:0000000000000060 .LVL65
C:\Users\Karzan\AppData\Local\Temp\ccyAl7yf.s:742    .text.lio_lcd_address_set:0000000000000088 .LVL70
C:\Users\Karzan\AppData\Local\Temp\ccyAl7yf.s:747    .text.lio_lcd_address_set:0000000000000094 .LVL71
C:\Users\Karzan\AppData\Local\Temp\ccyAl7yf.s:751    .text.lio_lcd_address_set:00000000000000a0 .LVL72
C:\Users\Karzan\AppData\Local\Temp\ccyAl7yf.s:12867  .debug_str:0000000000000210 .LASF201
C:\Users\Karzan\AppData\Local\Temp\ccyAl7yf.s:33     .text.spi_write_bus:0000000000000000 .LFB26
C:\Users\Karzan\AppData\Local\Temp\ccyAl7yf.s:88     .text.spi_write_bus:000000000000003a .LFE26
C:\Users\Karzan\AppData\Local\Temp\ccyAl7yf.s:10747  .debug_loc:000000000000026f .LLST0
C:\Users\Karzan\AppData\Local\Temp\ccyAl7yf.s:13321  .debug_str:0000000000000bec .LASF202
C:\Users\Karzan\AppData\Local\Temp\ccyAl7yf.s:10765  .debug_loc:000000000000029b .LLST1
C:\Users\Karzan\AppData\Local\Temp\ccyAl7yf.s:64     .text.spi_write_bus:0000000000000020 .LVL3
C:\Users\Karzan\AppData\Local\Temp\ccyAl7yf.s:86     .text.spi_write_bus:000000000000003a .LVL4
C:\Users\Karzan\AppData\Local\Temp\ccyAl7yf.s:13311  .debug_str:0000000000000bb6 .LASF203
C:\Users\Karzan\AppData\Local\Temp\ccyAl7yf.s:111    .text.lcd_bus_init:0000000000000000 .LFB25
C:\Users\Karzan\AppData\Local\Temp\ccyAl7yf.s:210    .text.lcd_bus_init:00000000000000b0 .LFE25
C:\Users\Karzan\AppData\Local\Temp\ccyAl7yf.s:10779  .debug_loc:00000000000002bc .LLST2
C:\Users\Karzan\AppData\Local\Temp\ccyAl7yf.s:13255  .debug_str:0000000000000a49 .LASF204
C:\Users\Karzan\AppData\Local\Temp\ccyAl7yf.s:129    .text.lcd_bus_init:0000000000000012 .LVL6
C:\Users\Karzan\AppData\Local\Temp\ccyAl7yf.s:133    .text.lcd_bus_init:000000000000001e .LVL7
C:\Users\Karzan\AppData\Local\Temp\ccyAl7yf.s:137    .text.lcd_bus_init:000000000000002a .LVL8
C:\Users\Karzan\AppData\Local\Temp\ccyAl7yf.s:141    .text.lcd_bus_init:0000000000000036 .LVL9
C:\Users\Karzan\AppData\Local\Temp\ccyAl7yf.s:149    .text.lcd_bus_init:000000000000004c .LVL10
GAS LISTING C:\Users\Karzan\AppData\Local\Temp\ccyAl7yf.s 			page 127


C:\Users\Karzan\AppData\Local\Temp\ccyAl7yf.s:156    .text.lcd_bus_init:000000000000005e .LVL11
C:\Users\Karzan\AppData\Local\Temp\ccyAl7yf.s:160    .text.lcd_bus_init:0000000000000068 .LVL12
C:\Users\Karzan\AppData\Local\Temp\ccyAl7yf.s:190    .text.lcd_bus_init:000000000000008e .LVL13
C:\Users\Karzan\AppData\Local\Temp\ccyAl7yf.s:195    .text.lcd_bus_init:000000000000009c .LVL14
C:\Users\Karzan\AppData\Local\Temp\ccyAl7yf.s:199    .text.lcd_bus_init:00000000000000a8 .LVL15
C:\Users\Karzan\AppData\Local\Temp\ccyAl7yf.s:12939  .debug_str:00000000000003aa .LASF205
C:\Users\Karzan\AppData\Local\Temp\ccyAl7yf.s:2229   .text.lio_lcd_printf_scaled:0000000000000000 .LFB24
C:\Users\Karzan\AppData\Local\Temp\ccyAl7yf.s:2309   .text.lio_lcd_printf_scaled:000000000000007c .LFE24
C:\Users\Karzan\AppData\Local\Temp\ccyAl7yf.s:10797  .debug_loc:00000000000002e8 .LLST120
C:\Users\Karzan\AppData\Local\Temp\ccyAl7yf.s:10815  .debug_loc:0000000000000315 .LLST121
C:\Users\Karzan\AppData\Local\Temp\ccyAl7yf.s:10829  .debug_loc:0000000000000336 .LLST122
C:\Users\Karzan\AppData\Local\Temp\ccyAl7yf.s:13221  .debug_str:00000000000009aa .LASF206
C:\Users\Karzan\AppData\Local\Temp\ccyAl7yf.s:10843  .debug_loc:0000000000000357 .LLST123
C:\Users\Karzan\AppData\Local\Temp\ccyAl7yf.s:12923  .debug_str:0000000000000335 .LASF207
C:\Users\Karzan\AppData\Local\Temp\ccyAl7yf.s:10857  .debug_loc:0000000000000378 .LLST124
C:\Users\Karzan\AppData\Local\Temp\ccyAl7yf.s:13001  .debug_str:00000000000004f6 .LASF208
C:\Users\Karzan\AppData\Local\Temp\ccyAl7yf.s:10871  .debug_loc:0000000000000399 .LLST125
C:\Users\Karzan\AppData\Local\Temp\ccyAl7yf.s:12971  .debug_str:0000000000000462 .LASF209
C:\Users\Karzan\AppData\Local\Temp\ccyAl7yf.s:13059  .debug_str:000000000000062e .LASF210
C:\Users\Karzan\AppData\Local\Temp\ccyAl7yf.s:2267   .text.lio_lcd_printf_scaled:000000000000003c .LVL227
C:\Users\Karzan\AppData\Local\Temp\ccyAl7yf.s:2282   .text.lio_lcd_printf_scaled:0000000000000052 .LVL228
C:\Users\Karzan\AppData\Local\Temp\ccyAl7yf.s:2291   .text.lio_lcd_printf_scaled:0000000000000064 .LVL229
C:\Users\Karzan\AppData\Local\Temp\ccyAl7yf.s:12977  .debug_str:0000000000000476 .LASF211
C:\Users\Karzan\AppData\Local\Temp\ccyAl7yf.s:1739   .text.lio_lcd_printf:0000000000000000 .LFB23
C:\Users\Karzan\AppData\Local\Temp\ccyAl7yf.s:1815   .text.lio_lcd_printf:000000000000007a .LFE23
C:\Users\Karzan\AppData\Local\Temp\ccyAl7yf.s:10888  .debug_loc:00000000000003c6 .LLST87
C:\Users\Karzan\AppData\Local\Temp\ccyAl7yf.s:10906  .debug_loc:00000000000003f3 .LLST88
C:\Users\Karzan\AppData\Local\Temp\ccyAl7yf.s:10920  .debug_loc:0000000000000414 .LLST89
C:\Users\Karzan\AppData\Local\Temp\ccyAl7yf.s:10934  .debug_loc:0000000000000435 .LLST90
C:\Users\Karzan\AppData\Local\Temp\ccyAl7yf.s:10948  .debug_loc:0000000000000456 .LLST91
C:\Users\Karzan\AppData\Local\Temp\ccyAl7yf.s:1777   .text.lio_lcd_printf:000000000000003e .LVL175
C:\Users\Karzan\AppData\Local\Temp\ccyAl7yf.s:1789   .text.lio_lcd_printf:0000000000000052 .LVL176
C:\Users\Karzan\AppData\Local\Temp\ccyAl7yf.s:1797   .text.lio_lcd_printf:0000000000000062 .LVL177
C:\Users\Karzan\AppData\Local\Temp\ccyAl7yf.s:13081  .debug_str:000000000000069f .LASF212
C:\Users\Karzan\AppData\Local\Temp\ccyAl7yf.s:1132   .text.lio_lcd_draw_line:0000000000000000 .LFB22
C:\Users\Karzan\AppData\Local\Temp\ccyAl7yf.s:1328   .text.lio_lcd_draw_line:00000000000000e0 .LFE22
C:\Users\Karzan\AppData\Local\Temp\ccyAl7yf.s:10966  .debug_loc:0000000000000482 .LLST41
C:\Users\Karzan\AppData\Local\Temp\ccyAl7yf.s:10989  .debug_loc:00000000000004bc .LLST42
C:\Users\Karzan\AppData\Local\Temp\ccyAl7yf.s:11007  .debug_loc:00000000000004e8 .LLST43
C:\Users\Karzan\AppData\Local\Temp\ccyAl7yf.s:11021  .debug_loc:0000000000000509 .LLST44
C:\Users\Karzan\AppData\Local\Temp\ccyAl7yf.s:11039  .debug_loc:0000000000000535 .LLST45
C:\Users\Karzan\AppData\Local\Temp\ccyAl7yf.s:11057  .debug_loc:0000000000000561 .LLST46
C:\Users\Karzan\AppData\Local\Temp\ccyAl7yf.s:11075  .debug_loc:000000000000058d .LLST47
C:\Users\Karzan\AppData\Local\Temp\ccyAl7yf.s:12859  .debug_str:0000000000000165 .LASF213
C:\Users\Karzan\AppData\Local\Temp\ccyAl7yf.s:12881  .debug_str:0000000000000260 .LASF214
C:\Users\Karzan\AppData\Local\Temp\ccyAl7yf.s:13011  .debug_str:0000000000000527 .LASF215
C:\Users\Karzan\AppData\Local\Temp\ccyAl7yf.s:12991  .debug_str:00000000000004bb .LASF216
C:\Users\Karzan\AppData\Local\Temp\ccyAl7yf.s:13301  .debug_str:0000000000000b74 .LASF217
C:\Users\Karzan\AppData\Local\Temp\ccyAl7yf.s:13231  .debug_str:00000000000009cf .LASF218
C:\Users\Karzan\AppData\Local\Temp\ccyAl7yf.s:12905  .debug_str:00000000000002e2 .LASF220
C:\Users\Karzan\AppData\Local\Temp\ccyAl7yf.s:13027  .debug_str:000000000000057f .LASF221
C:\Users\Karzan\AppData\Local\Temp\ccyAl7yf.s:11096  .debug_loc:00000000000005c3 .LLST48
C:\Users\Karzan\AppData\Local\Temp\ccyAl7yf.s:13229  .debug_str:00000000000009c9 .LASF222
C:\Users\Karzan\AppData\Local\Temp\ccyAl7yf.s:11103  .debug_loc:00000000000005d6 .LLST49
C:\Users\Karzan\AppData\Local\Temp\ccyAl7yf.s:13233  .debug_str:00000000000009d5 .LASF223
C:\Users\Karzan\AppData\Local\Temp\ccyAl7yf.s:11110  .debug_loc:00000000000005e9 .LLST50
C:\Users\Karzan\AppData\Local\Temp\ccyAl7yf.s:13013  .debug_str:000000000000052d .LASF224
GAS LISTING C:\Users\Karzan\AppData\Local\Temp\ccyAl7yf.s 			page 128


C:\Users\Karzan\AppData\Local\Temp\ccyAl7yf.s:11117  .debug_loc:00000000000005fc .LLST51
C:\Users\Karzan\AppData\Local\Temp\ccyAl7yf.s:12987  .debug_str:00000000000004ab .LASF225
C:\Users\Karzan\AppData\Local\Temp\ccyAl7yf.s:11124  .debug_loc:000000000000060f .LLST52
C:\Users\Karzan\AppData\Local\Temp\ccyAl7yf.s:11131  .debug_loc:0000000000000622 .LLST53
C:\Users\Karzan\AppData\Local\Temp\ccyAl7yf.s:1241   .text.lio_lcd_draw_line:0000000000000086 .LVL111
C:\Users\Karzan\AppData\Local\Temp\ccyAl7yf.s:12845  .debug_str:0000000000000119 .LASF226
C:\Users\Karzan\AppData\Local\Temp\ccyAl7yf.s:14     .text.lio_lcd_set_background:0000000000000000 .LFB21
C:\Users\Karzan\AppData\Local\Temp\ccyAl7yf.s:26     .text.lio_lcd_set_background:000000000000000a .LFE21
C:\Users\Karzan\AppData\Local\Temp\ccyAl7yf.s:13017  .debug_str:0000000000000543 .LASF227
C:\Users\Karzan\AppData\Local\Temp\ccyAl7yf.s:1681   .text.lio_lcd_draw_num:0000000000000000 .LFB20
C:\Users\Karzan\AppData\Local\Temp\ccyAl7yf.s:1732   .text.lio_lcd_draw_num:0000000000000038 .LFE20
C:\Users\Karzan\AppData\Local\Temp\ccyAl7yf.s:11138  .debug_loc:0000000000000635 .LLST81
C:\Users\Karzan\AppData\Local\Temp\ccyAl7yf.s:11156  .debug_loc:0000000000000662 .LLST82
C:\Users\Karzan\AppData\Local\Temp\ccyAl7yf.s:11170  .debug_loc:0000000000000683 .LLST83
C:\Users\Karzan\AppData\Local\Temp\ccyAl7yf.s:11184  .debug_loc:00000000000006a4 .LLST84
C:\Users\Karzan\AppData\Local\Temp\ccyAl7yf.s:13299  .debug_str:0000000000000b6f .LASF228
C:\Users\Karzan\AppData\Local\Temp\ccyAl7yf.s:11202  .debug_loc:00000000000006d0 .LLST85
C:\Users\Karzan\AppData\Local\Temp\ccyAl7yf.s:11216  .debug_loc:00000000000006f1 .LLST86
C:\Users\Karzan\AppData\Local\Temp\ccyAl7yf.s:13153  .debug_str:000000000000081c .LASF229
C:\Users\Karzan\AppData\Local\Temp\ccyAl7yf.s:1711   .text.lio_lcd_draw_num:000000000000001c .LVL169
C:\Users\Karzan\AppData\Local\Temp\ccyAl7yf.s:1719   .text.lio_lcd_draw_num:000000000000002e .LVL170
C:\Users\Karzan\AppData\Local\Temp\ccyAl7yf.s:12969  .debug_str:000000000000044e .LASF230
C:\Users\Karzan\AppData\Local\Temp\ccyAl7yf.s:1571   .text.lio_lcd_draw_string:0000000000000000 .LFB19
C:\Users\Karzan\AppData\Local\Temp\ccyAl7yf.s:1674   .text.lio_lcd_draw_string:000000000000005e .LFE19
C:\Users\Karzan\AppData\Local\Temp\ccyAl7yf.s:11230  .debug_loc:0000000000000712 .LLST76
C:\Users\Karzan\AppData\Local\Temp\ccyAl7yf.s:11253  .debug_loc:000000000000074a .LLST77
C:\Users\Karzan\AppData\Local\Temp\ccyAl7yf.s:11281  .debug_loc:0000000000000795 .LLST78
C:\Users\Karzan\AppData\Local\Temp\ccyAl7yf.s:11300  .debug_loc:00000000000007c9 .LLST79
C:\Users\Karzan\AppData\Local\Temp\ccyAl7yf.s:11315  .debug_loc:00000000000007f2 .LLST80
C:\Users\Karzan\AppData\Local\Temp\ccyAl7yf.s:1665   .text.lio_lcd_draw_string:0000000000000058 .LVL162
C:\Users\Karzan\AppData\Local\Temp\ccyAl7yf.s:13111  .debug_str:0000000000000737 .LASF231
C:\Users\Karzan\AppData\Local\Temp\ccyAl7yf.s:2088   .text.lio_lcd_draw_string_scaled:0000000000000000 .LFB18
C:\Users\Karzan\AppData\Local\Temp\ccyAl7yf.s:2222   .text.lio_lcd_draw_string_scaled:000000000000008a .LFE18
C:\Users\Karzan\AppData\Local\Temp\ccyAl7yf.s:11329  .debug_loc:0000000000000813 .LLST114
C:\Users\Karzan\AppData\Local\Temp\ccyAl7yf.s:11352  .debug_loc:000000000000084b .LLST115
C:\Users\Karzan\AppData\Local\Temp\ccyAl7yf.s:11380  .debug_loc:0000000000000896 .LLST116
C:\Users\Karzan\AppData\Local\Temp\ccyAl7yf.s:11399  .debug_loc:00000000000008ca .LLST117
C:\Users\Karzan\AppData\Local\Temp\ccyAl7yf.s:11413  .debug_loc:00000000000008eb .LLST118
C:\Users\Karzan\AppData\Local\Temp\ccyAl7yf.s:11428  .debug_loc:0000000000000914 .LLST119
C:\Users\Karzan\AppData\Local\Temp\ccyAl7yf.s:2213   .text.lio_lcd_draw_string_scaled:0000000000000084 .LVL220
C:\Users\Karzan\AppData\Local\Temp\ccyAl7yf.s:13035  .debug_str:00000000000005a7 .LASF232
C:\Users\Karzan\AppData\Local\Temp\ccyAl7yf.s:12965  .debug_str:0000000000000430 .LASF233
C:\Users\Karzan\AppData\Local\Temp\ccyAl7yf.s:13137  .debug_str:00000000000007bc .LASF234
C:\Users\Karzan\AppData\Local\Temp\ccyAl7yf.s:1822   .text.lio_lcd_draw_bitmask_scaled:0000000000000000 .LFB15
C:\Users\Karzan\AppData\Local\Temp\ccyAl7yf.s:2012   .text.lio_lcd_draw_bitmask_scaled:00000000000000c4 .LFE15
C:\Users\Karzan\AppData\Local\Temp\ccyAl7yf.s:11442  .debug_loc:0000000000000935 .LLST92
C:\Users\Karzan\AppData\Local\Temp\ccyAl7yf.s:11465  .debug_loc:000000000000096d .LLST93
C:\Users\Karzan\AppData\Local\Temp\ccyAl7yf.s:11479  .debug_loc:000000000000098e .LLST94
C:\Users\Karzan\AppData\Local\Temp\ccyAl7yf.s:11493  .debug_loc:00000000000009af .LLST95
C:\Users\Karzan\AppData\Local\Temp\ccyAl7yf.s:11507  .debug_loc:00000000000009d0 .LLST96
C:\Users\Karzan\AppData\Local\Temp\ccyAl7yf.s:11521  .debug_loc:00000000000009f1 .LLST97
C:\Users\Karzan\AppData\Local\Temp\ccyAl7yf.s:12841  .debug_str:00000000000000fa .LASF235
C:\Users\Karzan\AppData\Local\Temp\ccyAl7yf.s:11536  .debug_loc:0000000000000a1a .LLST98
C:\Users\Karzan\AppData\Local\Temp\ccyAl7yf.s:11551  .debug_loc:0000000000000a43 .LLST99
C:\Users\Karzan\AppData\Local\Temp\ccyAl7yf.s:13089  .debug_str:00000000000006d1 .LASF236
C:\Users\Karzan\AppData\Local\Temp\ccyAl7yf.s:11565  .debug_loc:0000000000000a64 .LLST100
C:\Users\Karzan\AppData\Local\Temp\ccyAl7yf.s:12963  .debug_str:0000000000000429 .LASF237
GAS LISTING C:\Users\Karzan\AppData\Local\Temp\ccyAl7yf.s 			page 129


C:\Users\Karzan\AppData\Local\Temp\ccyAl7yf.s:11577  .debug_loc:0000000000000a83 .LLST101
C:\Users\Karzan\AppData\Local\Temp\ccyAl7yf.s:11597  .debug_loc:0000000000000ab8 .LLST102
C:\Users\Karzan\AppData\Local\Temp\ccyAl7yf.s:11608  .debug_loc:0000000000000ad6 .LLST103
C:\Users\Karzan\AppData\Local\Temp\ccyAl7yf.s:1982   .text.lio_lcd_draw_bitmask_scaled:00000000000000a4 .LVL196
C:\Users\Karzan\AppData\Local\Temp\ccyAl7yf.s:1894   .text.lio_lcd_draw_bitmask_scaled:0000000000000058 .LVL185
C:\Users\Karzan\AppData\Local\Temp\ccyAl7yf.s:12843  .debug_str:0000000000000104 .LASF238
C:\Users\Karzan\AppData\Local\Temp\ccyAl7yf.s:1362   .text.lio_lcd_draw_bitmask:0000000000000000 .LFB14
C:\Users\Karzan\AppData\Local\Temp\ccyAl7yf.s:1510   .text.lio_lcd_draw_bitmask:000000000000008c .LFE14
C:\Users\Karzan\AppData\Local\Temp\ccyAl7yf.s:11626  .debug_loc:0000000000000b02 .LLST58
C:\Users\Karzan\AppData\Local\Temp\ccyAl7yf.s:11649  .debug_loc:0000000000000b3a .LLST59
C:\Users\Karzan\AppData\Local\Temp\ccyAl7yf.s:11663  .debug_loc:0000000000000b5b .LLST60
C:\Users\Karzan\AppData\Local\Temp\ccyAl7yf.s:11677  .debug_loc:0000000000000b7c .LLST61
C:\Users\Karzan\AppData\Local\Temp\ccyAl7yf.s:11691  .debug_loc:0000000000000b9d .LLST62
C:\Users\Karzan\AppData\Local\Temp\ccyAl7yf.s:11705  .debug_loc:0000000000000bbe .LLST63
C:\Users\Karzan\AppData\Local\Temp\ccyAl7yf.s:11720  .debug_loc:0000000000000be7 .LLST64
C:\Users\Karzan\AppData\Local\Temp\ccyAl7yf.s:11734  .debug_loc:0000000000000c08 .LLST65
C:\Users\Karzan\AppData\Local\Temp\ccyAl7yf.s:11746  .debug_loc:0000000000000c27 .LLST66
C:\Users\Karzan\AppData\Local\Temp\ccyAl7yf.s:11757  .debug_loc:0000000000000c45 .LLST67
C:\Users\Karzan\AppData\Local\Temp\ccyAl7yf.s:1494   .text.lio_lcd_draw_bitmask:000000000000007e .LVL142
C:\Users\Karzan\AppData\Local\Temp\ccyAl7yf.s:1433   .text.lio_lcd_draw_bitmask:000000000000004c .LVL135
C:\Users\Karzan\AppData\Local\Temp\ccyAl7yf.s:13149  .debug_str:0000000000000806 .LASF239
C:\Users\Karzan\AppData\Local\Temp\ccyAl7yf.s:339    .text.lcd_write_color:0000000000000000 .LFB13
C:\Users\Karzan\AppData\Local\Temp\ccyAl7yf.s:423    .text.lcd_write_color:000000000000006e .LFE13
C:\Users\Karzan\AppData\Local\Temp\ccyAl7yf.s:11775  .debug_loc:0000000000000c71 .LLST7
C:\Users\Karzan\AppData\Local\Temp\ccyAl7yf.s:11798  .debug_loc:0000000000000ca9 .LLST8
C:\Users\Karzan\AppData\Local\Temp\ccyAl7yf.s:11813  .debug_loc:0000000000000cd2 .LLST9
C:\Users\Karzan\AppData\Local\Temp\ccyAl7yf.s:4413   .debug_info:0000000000000000 .Ldebug_info0
C:\Users\Karzan\AppData\Local\Temp\ccyAl7yf.s:364    .text.lcd_write_color:000000000000001a .LVL31
C:\Users\Karzan\AppData\Local\Temp\ccyAl7yf.s:370    .text.lcd_write_color:0000000000000026 .LVL32
C:\Users\Karzan\AppData\Local\Temp\ccyAl7yf.s:387    .text.lcd_write_color:0000000000000040 .LVL34
C:\Users\Karzan\AppData\Local\Temp\ccyAl7yf.s:406    .text.lcd_write_color:0000000000000056 .LVL35
C:\Users\Karzan\AppData\Local\Temp\ccyAl7yf.s:413    .text.lcd_write_color:0000000000000060 .LVL36
C:\Users\Karzan\AppData\Local\Temp\ccyAl7yf.s:417    .text.lcd_write_color:000000000000006a .LVL37
C:\Users\Karzan\AppData\Local\Temp\ccyAl7yf.s:13175  .debug_str:000000000000089e .LASF240
C:\Users\Karzan\AppData\Local\Temp\ccyAl7yf.s:249    .text.lcd_write_colors:0000000000000000 .LFB12
C:\Users\Karzan\AppData\Local\Temp\ccyAl7yf.s:332    .text.lcd_write_colors:0000000000000068 .LFE12
C:\Users\Karzan\AppData\Local\Temp\ccyAl7yf.s:11827  .debug_loc:0000000000000cf3 .LLST3
C:\Users\Karzan\AppData\Local\Temp\ccyAl7yf.s:11850  .debug_loc:0000000000000d2b .LLST4
C:\Users\Karzan\AppData\Local\Temp\ccyAl7yf.s:12789  .debug_str:0000000000000009 .LASF241
C:\Users\Karzan\AppData\Local\Temp\ccyAl7yf.s:11875  .debug_loc:0000000000000d6c .LLST5
C:\Users\Karzan\AppData\Local\Temp\ccyAl7yf.s:11893  .debug_loc:0000000000000d98 .LLST6
C:\Users\Karzan\AppData\Local\Temp\ccyAl7yf.s:272    .text.lcd_write_colors:0000000000000014 .LVL20
C:\Users\Karzan\AppData\Local\Temp\ccyAl7yf.s:275    .text.lcd_write_colors:000000000000001c .LVL21
C:\Users\Karzan\AppData\Local\Temp\ccyAl7yf.s:293    .text.lcd_write_colors:0000000000000036 .LVL24
C:\Users\Karzan\AppData\Local\Temp\ccyAl7yf.s:310    .text.lcd_write_colors:000000000000004a .LVL25
C:\Users\Karzan\AppData\Local\Temp\ccyAl7yf.s:324    .text.lcd_write_colors:000000000000005a .LVL28
C:\Users\Karzan\AppData\Local\Temp\ccyAl7yf.s:328    .text.lcd_write_colors:0000000000000066 .LVL29
C:\Users\Karzan\AppData\Local\Temp\ccyAl7yf.s:12959  .debug_str:0000000000000411 .LASF242
C:\Users\Karzan\AppData\Local\Temp\ccyAl7yf.s:1335   .text.lio_lcd_set_area:0000000000000000 .LFB11
C:\Users\Karzan\AppData\Local\Temp\ccyAl7yf.s:1355   .text.lio_lcd_set_area:0000000000000018 .LFE11
C:\Users\Karzan\AppData\Local\Temp\ccyAl7yf.s:11918  .debug_loc:0000000000000dd9 .LLST54
C:\Users\Karzan\AppData\Local\Temp\ccyAl7yf.s:11932  .debug_loc:0000000000000dfa .LLST55
C:\Users\Karzan\AppData\Local\Temp\ccyAl7yf.s:11946  .debug_loc:0000000000000e1b .LLST56
C:\Users\Karzan\AppData\Local\Temp\ccyAl7yf.s:11960  .debug_loc:0000000000000e3c .LLST57
C:\Users\Karzan\AppData\Local\Temp\ccyAl7yf.s:1353   .text.lio_lcd_set_area:0000000000000018 .LVL129
C:\Users\Karzan\AppData\Local\Temp\ccyAl7yf.s:13247  .debug_str:0000000000000a16 .LASF243
C:\Users\Karzan\AppData\Local\Temp\ccyAl7yf.s:508    .text.lio_lcd_draw_next_pixel:0000000000000000 .LFB10
GAS LISTING C:\Users\Karzan\AppData\Local\Temp\ccyAl7yf.s 			page 130


C:\Users\Karzan\AppData\Local\Temp\ccyAl7yf.s:541    .text.lio_lcd_draw_next_pixel:0000000000000022 .LFE10
C:\Users\Karzan\AppData\Local\Temp\ccyAl7yf.s:11974  .debug_loc:0000000000000e5d .LLST13
C:\Users\Karzan\AppData\Local\Temp\ccyAl7yf.s:11992  .debug_loc:0000000000000e89 .LLST14
C:\Users\Karzan\AppData\Local\Temp\ccyAl7yf.s:532    .text.lio_lcd_draw_next_pixel:000000000000001c .LVL49
C:\Users\Karzan\AppData\Local\Temp\ccyAl7yf.s:12999  .debug_str:00000000000004e3 .LASF244
C:\Users\Karzan\AppData\Local\Temp\ccyAl7yf.s:1084   .text.lio_lcd_draw_pixel:0000000000000000 .LFB9
C:\Users\Karzan\AppData\Local\Temp\ccyAl7yf.s:1125   .text.lio_lcd_draw_pixel:0000000000000028 .LFE9
C:\Users\Karzan\AppData\Local\Temp\ccyAl7yf.s:12006  .debug_loc:0000000000000eaa .LLST37
C:\Users\Karzan\AppData\Local\Temp\ccyAl7yf.s:12024  .debug_loc:0000000000000ed6 .LLST38
C:\Users\Karzan\AppData\Local\Temp\ccyAl7yf.s:12038  .debug_loc:0000000000000ef7 .LLST39
C:\Users\Karzan\AppData\Local\Temp\ccyAl7yf.s:12052  .debug_loc:0000000000000f18 .LLST40
C:\Users\Karzan\AppData\Local\Temp\ccyAl7yf.s:1107   .text.lio_lcd_draw_pixel:0000000000000016 .LVL104
C:\Users\Karzan\AppData\Local\Temp\ccyAl7yf.s:1123   .text.lio_lcd_draw_pixel:0000000000000028 .LVL105
C:\Users\Karzan\AppData\Local\Temp\ccyAl7yf.s:13219  .debug_str:0000000000000997 .LASF245
C:\Users\Karzan\AppData\Local\Temp\ccyAl7yf.s:945    .text.lio_lcd_rect_lines:0000000000000000 .LFB8
C:\Users\Karzan\AppData\Local\Temp\ccyAl7yf.s:1077   .text.lio_lcd_rect_lines:00000000000000ca .LFE8
C:\Users\Karzan\AppData\Local\Temp\ccyAl7yf.s:12066  .debug_loc:0000000000000f39 .LLST31
C:\Users\Karzan\AppData\Local\Temp\ccyAl7yf.s:12084  .debug_loc:0000000000000f65 .LLST32
C:\Users\Karzan\AppData\Local\Temp\ccyAl7yf.s:12098  .debug_loc:0000000000000f86 .LLST33
C:\Users\Karzan\AppData\Local\Temp\ccyAl7yf.s:12112  .debug_loc:0000000000000fa7 .LLST34
C:\Users\Karzan\AppData\Local\Temp\ccyAl7yf.s:12126  .debug_loc:0000000000000fc8 .LLST35
C:\Users\Karzan\AppData\Local\Temp\ccyAl7yf.s:12140  .debug_loc:0000000000000fe9 .LLST36
C:\Users\Karzan\AppData\Local\Temp\ccyAl7yf.s:1002   .text.lio_lcd_rect_lines:000000000000004a .LVL93
C:\Users\Karzan\AppData\Local\Temp\ccyAl7yf.s:1010   .text.lio_lcd_rect_lines:000000000000005a .LVL94
C:\Users\Karzan\AppData\Local\Temp\ccyAl7yf.s:1018   .text.lio_lcd_rect_lines:000000000000006e .LVL95
C:\Users\Karzan\AppData\Local\Temp\ccyAl7yf.s:1023   .text.lio_lcd_rect_lines:000000000000007a .LVL96
C:\Users\Karzan\AppData\Local\Temp\ccyAl7yf.s:1030   .text.lio_lcd_rect_lines:000000000000008a .LVL97
C:\Users\Karzan\AppData\Local\Temp\ccyAl7yf.s:1038   .text.lio_lcd_rect_lines:000000000000009a .LVL98
C:\Users\Karzan\AppData\Local\Temp\ccyAl7yf.s:1045   .text.lio_lcd_rect_lines:00000000000000aa .LVL99
C:\Users\Karzan\AppData\Local\Temp\ccyAl7yf.s:1075   .text.lio_lcd_rect_lines:00000000000000ca .LVL100
C:\Users\Karzan\AppData\Local\Temp\ccyAl7yf.s:12929  .debug_str:0000000000000353 .LASF246
C:\Users\Karzan\AppData\Local\Temp\ccyAl7yf.s:863    .text.lio_lcd_rect_fill:0000000000000000 .LFB7
C:\Users\Karzan\AppData\Local\Temp\ccyAl7yf.s:938    .text.lio_lcd_rect_fill:0000000000000056 .LFE7
C:\Users\Karzan\AppData\Local\Temp\ccyAl7yf.s:12154  .debug_loc:000000000000100a .LLST25
C:\Users\Karzan\AppData\Local\Temp\ccyAl7yf.s:12172  .debug_loc:0000000000001036 .LLST26
C:\Users\Karzan\AppData\Local\Temp\ccyAl7yf.s:12186  .debug_loc:0000000000001057 .LLST27
C:\Users\Karzan\AppData\Local\Temp\ccyAl7yf.s:12200  .debug_loc:0000000000001078 .LLST28
C:\Users\Karzan\AppData\Local\Temp\ccyAl7yf.s:12214  .debug_loc:0000000000001099 .LLST29
C:\Users\Karzan\AppData\Local\Temp\ccyAl7yf.s:12228  .debug_loc:00000000000010ba .LLST30
C:\Users\Karzan\AppData\Local\Temp\ccyAl7yf.s:904    .text.lio_lcd_rect_fill:000000000000002e .LVL86
C:\Users\Karzan\AppData\Local\Temp\ccyAl7yf.s:936    .text.lio_lcd_rect_fill:0000000000000056 .LVL87
C:\Users\Karzan\AppData\Local\Temp\ccyAl7yf.s:12869  .debug_str:000000000000021e .LASF247
C:\Users\Karzan\AppData\Local\Temp\ccyAl7yf.s:771    .text.lio_lcd_clear:0000000000000000 .LFB6
C:\Users\Karzan\AppData\Local\Temp\ccyAl7yf.s:856    .text.lio_lcd_clear:0000000000000060 .LFE6
C:\Users\Karzan\AppData\Local\Temp\ccyAl7yf.s:12242  .debug_loc:00000000000010db .LLST22
C:\Users\Karzan\AppData\Local\Temp\ccyAl7yf.s:12265  .debug_loc:0000000000001113 .LLST23
C:\Users\Karzan\AppData\Local\Temp\ccyAl7yf.s:12279  .debug_loc:0000000000001134 .LLST24
C:\Users\Karzan\AppData\Local\Temp\ccyAl7yf.s:849    .text.lio_lcd_clear:000000000000005c .LVL79
C:\Users\Karzan\AppData\Local\Temp\ccyAl7yf.s:814    .text.lio_lcd_clear:000000000000003a .LVL75
C:\Users\Karzan\AppData\Local\Temp\ccyAl7yf.s:12871  .debug_str:000000000000022c .LASF248
C:\Users\Karzan\AppData\Local\Temp\ccyAl7yf.s:2468   .text.lio_lcd_init:0000000000000000 .LFB5
C:\Users\Karzan\AppData\Local\Temp\ccyAl7yf.s:2857   .text.lio_lcd_init:00000000000002be .LFE5
C:\Users\Karzan\AppData\Local\Temp\ccyAl7yf.s:12290  .debug_loc:0000000000001152 .LLST130
C:\Users\Karzan\AppData\Local\Temp\ccyAl7yf.s:12853  .debug_str:0000000000000151 .LASF249
C:\Users\Karzan\AppData\Local\Temp\ccyAl7yf.s:2496   .text.lio_lcd_init:0000000000000022 .LVL248
C:\Users\Karzan\AppData\Local\Temp\ccyAl7yf.s:2503   .text.lio_lcd_init:0000000000000032 .LVL249
C:\Users\Karzan\AppData\Local\Temp\ccyAl7yf.s:2506   .text.lio_lcd_init:000000000000003a .LVL250
GAS LISTING C:\Users\Karzan\AppData\Local\Temp\ccyAl7yf.s 			page 131


C:\Users\Karzan\AppData\Local\Temp\ccyAl7yf.s:2509   .text.lio_lcd_init:0000000000000042 .LVL251
C:\Users\Karzan\AppData\Local\Temp\ccyAl7yf.s:2512   .text.lio_lcd_init:000000000000004a .LVL252
C:\Users\Karzan\AppData\Local\Temp\ccyAl7yf.s:2516   .text.lio_lcd_init:0000000000000056 .LVL253
C:\Users\Karzan\AppData\Local\Temp\ccyAl7yf.s:2520   .text.lio_lcd_init:0000000000000060 .LVL254
C:\Users\Karzan\AppData\Local\Temp\ccyAl7yf.s:2524   .text.lio_lcd_init:000000000000006c .LVL255
C:\Users\Karzan\AppData\Local\Temp\ccyAl7yf.s:2528   .text.lio_lcd_init:0000000000000076 .LVL256
C:\Users\Karzan\AppData\Local\Temp\ccyAl7yf.s:2532   .text.lio_lcd_init:0000000000000082 .LVL257
C:\Users\Karzan\AppData\Local\Temp\ccyAl7yf.s:2544   .text.lio_lcd_init:0000000000000098 .LVL258
C:\Users\Karzan\AppData\Local\Temp\ccyAl7yf.s:2561   .text.lio_lcd_init:00000000000000b6 .LVL259
C:\Users\Karzan\AppData\Local\Temp\ccyAl7yf.s:2566   .text.lio_lcd_init:00000000000000c2 .LVL260
C:\Users\Karzan\AppData\Local\Temp\ccyAl7yf.s:2578   .text.lio_lcd_init:00000000000000d6 .LVL261
C:\Users\Karzan\AppData\Local\Temp\ccyAl7yf.s:2583   .text.lio_lcd_init:00000000000000e2 .LVL262
C:\Users\Karzan\AppData\Local\Temp\ccyAl7yf.s:2603   .text.lio_lcd_init:0000000000000100 .LVL263
C:\Users\Karzan\AppData\Local\Temp\ccyAl7yf.s:2608   .text.lio_lcd_init:000000000000010c .LVL264
C:\Users\Karzan\AppData\Local\Temp\ccyAl7yf.s:2618   .text.lio_lcd_init:000000000000011e .LVL265
C:\Users\Karzan\AppData\Local\Temp\ccyAl7yf.s:2623   .text.lio_lcd_init:000000000000012a .LVL266
C:\Users\Karzan\AppData\Local\Temp\ccyAl7yf.s:2637   .text.lio_lcd_init:0000000000000144 .LVL267
C:\Users\Karzan\AppData\Local\Temp\ccyAl7yf.s:2642   .text.lio_lcd_init:0000000000000150 .LVL268
C:\Users\Karzan\AppData\Local\Temp\ccyAl7yf.s:2652   .text.lio_lcd_init:0000000000000164 .LVL269
C:\Users\Karzan\AppData\Local\Temp\ccyAl7yf.s:2657   .text.lio_lcd_init:0000000000000170 .LVL270
C:\Users\Karzan\AppData\Local\Temp\ccyAl7yf.s:2668   .text.lio_lcd_init:0000000000000182 .LVL271
C:\Users\Karzan\AppData\Local\Temp\ccyAl7yf.s:2673   .text.lio_lcd_init:000000000000018e .LVL272
C:\Users\Karzan\AppData\Local\Temp\ccyAl7yf.s:2685   .text.lio_lcd_init:00000000000001a4 .LVL273
C:\Users\Karzan\AppData\Local\Temp\ccyAl7yf.s:2690   .text.lio_lcd_init:00000000000001b0 .LVL274
C:\Users\Karzan\AppData\Local\Temp\ccyAl7yf.s:2702   .text.lio_lcd_init:00000000000001c6 .LVL275
C:\Users\Karzan\AppData\Local\Temp\ccyAl7yf.s:2707   .text.lio_lcd_init:00000000000001d2 .LVL276
C:\Users\Karzan\AppData\Local\Temp\ccyAl7yf.s:2717   .text.lio_lcd_init:00000000000001e4 .LVL277
C:\Users\Karzan\AppData\Local\Temp\ccyAl7yf.s:2722   .text.lio_lcd_init:00000000000001f0 .LVL278
C:\Users\Karzan\AppData\Local\Temp\ccyAl7yf.s:2762   .text.lio_lcd_init:0000000000000224 .LVL279
C:\Users\Karzan\AppData\Local\Temp\ccyAl7yf.s:2767   .text.lio_lcd_init:0000000000000230 .LVL280
C:\Users\Karzan\AppData\Local\Temp\ccyAl7yf.s:2803   .text.lio_lcd_init:000000000000025c .LVL281
C:\Users\Karzan\AppData\Local\Temp\ccyAl7yf.s:2808   .text.lio_lcd_init:0000000000000268 .LVL282
C:\Users\Karzan\AppData\Local\Temp\ccyAl7yf.s:2818   .text.lio_lcd_init:000000000000027a .LVL283
C:\Users\Karzan\AppData\Local\Temp\ccyAl7yf.s:2823   .text.lio_lcd_init:0000000000000286 .LVL284
C:\Users\Karzan\AppData\Local\Temp\ccyAl7yf.s:2833   .text.lio_lcd_init:000000000000029a .LVL285
C:\Users\Karzan\AppData\Local\Temp\ccyAl7yf.s:2838   .text.lio_lcd_init:00000000000002a6 .LVL286
C:\Users\Karzan\AppData\Local\Temp\ccyAl7yf.s:2842   .text.lio_lcd_init:00000000000002b2 .LVL287
C:\Users\Karzan\AppData\Local\Temp\ccyAl7yf.s:1517   .text.lio_lcd_draw_char:0000000000000000 .LFB16
C:\Users\Karzan\AppData\Local\Temp\ccyAl7yf.s:1564   .text.lio_lcd_draw_char:0000000000000038 .LFE16
C:\Users\Karzan\AppData\Local\Temp\ccyAl7yf.s:12308  .debug_loc:000000000000117e .LLST68
C:\Users\Karzan\AppData\Local\Temp\ccyAl7yf.s:12326  .debug_loc:00000000000011aa .LLST69
C:\Users\Karzan\AppData\Local\Temp\ccyAl7yf.s:12344  .debug_loc:00000000000011d6 .LLST70
C:\Users\Karzan\AppData\Local\Temp\ccyAl7yf.s:12362  .debug_loc:0000000000001202 .LLST71
C:\Users\Karzan\AppData\Local\Temp\ccyAl7yf.s:1529   .text.lio_lcd_draw_char:0000000000000008 .LBB17
C:\Users\Karzan\AppData\Local\Temp\ccyAl7yf.s:1560   .text.lio_lcd_draw_char:0000000000000036 .LBE17
C:\Users\Karzan\AppData\Local\Temp\ccyAl7yf.s:12380  .debug_loc:000000000000122e .LLST72
C:\Users\Karzan\AppData\Local\Temp\ccyAl7yf.s:12387  .debug_loc:0000000000001241 .LLST73
C:\Users\Karzan\AppData\Local\Temp\ccyAl7yf.s:12406  .debug_loc:0000000000001267 .LLST74
C:\Users\Karzan\AppData\Local\Temp\ccyAl7yf.s:12420  .debug_loc:0000000000001288 .LLST75
C:\Users\Karzan\AppData\Local\Temp\ccyAl7yf.s:1557   .text.lio_lcd_draw_char:0000000000000036 .LVL150
C:\Users\Karzan\AppData\Local\Temp\ccyAl7yf.s:2019   .text.lio_lcd_draw_char_scaled:0000000000000000 .LFB17
C:\Users\Karzan\AppData\Local\Temp\ccyAl7yf.s:2081   .text.lio_lcd_draw_char_scaled:000000000000004c .LFE17
C:\Users\Karzan\AppData\Local\Temp\ccyAl7yf.s:12434  .debug_loc:00000000000012a9 .LLST104
C:\Users\Karzan\AppData\Local\Temp\ccyAl7yf.s:12452  .debug_loc:00000000000012d5 .LLST105
C:\Users\Karzan\AppData\Local\Temp\ccyAl7yf.s:12470  .debug_loc:0000000000001301 .LLST106
C:\Users\Karzan\AppData\Local\Temp\ccyAl7yf.s:12488  .debug_loc:000000000000132d .LLST107
C:\Users\Karzan\AppData\Local\Temp\ccyAl7yf.s:12506  .debug_loc:0000000000001359 .LLST108
GAS LISTING C:\Users\Karzan\AppData\Local\Temp\ccyAl7yf.s 			page 132


C:\Users\Karzan\AppData\Local\Temp\ccyAl7yf.s:2028   .text.lio_lcd_draw_char_scaled:0000000000000006 .LBB29
C:\Users\Karzan\AppData\Local\Temp\ccyAl7yf.s:2077   .text.lio_lcd_draw_char_scaled:000000000000004a .LBE29
C:\Users\Karzan\AppData\Local\Temp\ccyAl7yf.s:12524  .debug_loc:0000000000001385 .LLST109
C:\Users\Karzan\AppData\Local\Temp\ccyAl7yf.s:12538  .debug_loc:00000000000013a6 .LLST110
C:\Users\Karzan\AppData\Local\Temp\ccyAl7yf.s:12545  .debug_loc:00000000000013b9 .LLST111
C:\Users\Karzan\AppData\Local\Temp\ccyAl7yf.s:12568  .debug_loc:00000000000013ea .LLST112
C:\Users\Karzan\AppData\Local\Temp\ccyAl7yf.s:12582  .debug_loc:000000000000140b .LLST113
C:\Users\Karzan\AppData\Local\Temp\ccyAl7yf.s:2074   .text.lio_lcd_draw_char_scaled:000000000000004a .LVL208
C:\Users\Karzan\AppData\Local\Temp\ccyAl7yf.s:13029  .debug_str:0000000000000584 .LASF250
C:\Users\Karzan\AppData\Local\Temp\ccyAl7yf.s:13003  .debug_str:00000000000004fd .LASF251
C:\Users\Karzan\AppData\Local\Temp\ccyAl7yf.s:13189  .debug_str:00000000000008e9 .LASF252
C:\Users\Karzan\AppData\Local\Temp\ccyAl7yf.s:13163  .debug_str:0000000000000851 .LASF253
C:\Users\Karzan\AppData\Local\Temp\ccyAl7yf.s:13205  .debug_str:000000000000094e .LASF254
C:\Users\Karzan\AppData\Local\Temp\ccyAl7yf.s:13309  .debug_str:0000000000000b9e .LASF255
C:\Users\Karzan\AppData\Local\Temp\ccyAl7yf.s:13215  .debug_str:0000000000000986 .LASF256
C:\Users\Karzan\AppData\Local\Temp\ccyAl7yf.s:13289  .debug_str:0000000000000b31 .LASF257
C:\Users\Karzan\AppData\Local\Temp\ccyAl7yf.s:12921  .debug_str:000000000000032c .LASF258
C:\Users\Karzan\AppData\Local\Temp\ccyAl7yf.s:13313  .debug_str:0000000000000bc3 .LASF259
C:\Users\Karzan\AppData\Local\Temp\ccyAl7yf.s:12951  .debug_str:00000000000003f3 .LASF262
C:\Users\Karzan\AppData\Local\Temp\ccyAl7yf.s:12897  .debug_str:00000000000002b4 .LASF264
C:\Users\Karzan\AppData\Local\Temp\ccyAl7yf.s:13113  .debug_str:0000000000000752 .LASF260
C:\Users\Karzan\AppData\Local\Temp\ccyAl7yf.s:12901  .debug_str:00000000000002d4 .LASF261
C:\Users\Karzan\AppData\Local\Temp\ccyAl7yf.s:13269  .debug_str:0000000000000adf .LASF263
C:\Users\Karzan\AppData\Local\Temp\ccyAl7yf.s:12873  .debug_str:0000000000000239 .LASF265
C:\Users\Karzan\AppData\Local\Temp\ccyAl7yf.s:2329   .text.lcd_delay_1ms:0000000000000002 .LCFI49
C:\Users\Karzan\AppData\Local\Temp\ccyAl7yf.s:2457   .text.lcd_delay_1ms:00000000000000cc .LCFI50
C:\Users\Karzan\AppData\Local\Temp\ccyAl7yf.s:2324   .text.lcd_delay_1ms:0000000000000000 .LVL231
C:\Users\Karzan\AppData\Local\Temp\ccyAl7yf.s:2449   .text.lcd_delay_1ms:00000000000000c4 .LVL247
C:\Users\Karzan\AppData\Local\Temp\ccyAl7yf.s:2369   .text.lcd_delay_1ms:0000000000000032 .LVL235
C:\Users\Karzan\AppData\Local\Temp\ccyAl7yf.s:2436   .text.lcd_delay_1ms:00000000000000b8 .LVL246
C:\Users\Karzan\AppData\Local\Temp\ccyAl7yf.s:2360   .text.lcd_delay_1ms:0000000000000026 .LVL233
C:\Users\Karzan\AppData\Local\Temp\ccyAl7yf.s:2377   .text.lcd_delay_1ms:0000000000000042 .LVL236
C:\Users\Karzan\AppData\Local\Temp\ccyAl7yf.s:571    .text.lcd_write_command:0000000000000002 .LCFI15
C:\Users\Karzan\AppData\Local\Temp\ccyAl7yf.s:615    .text.lcd_write_command:0000000000000048 .LCFI16
C:\Users\Karzan\AppData\Local\Temp\ccyAl7yf.s:567    .text.lcd_write_command:0000000000000000 .LVL51
C:\Users\Karzan\AppData\Local\Temp\ccyAl7yf.s:437    .text.lcd_write_data:0000000000000002 .LCFI10
C:\Users\Karzan\AppData\Local\Temp\ccyAl7yf.s:483    .text.lcd_write_data:0000000000000046 .LCFI11
C:\Users\Karzan\AppData\Local\Temp\ccyAl7yf.s:489    .text.lcd_write_data:000000000000004e .LCFI12
C:\Users\Karzan\AppData\Local\Temp\ccyAl7yf.s:433    .text.lcd_write_data:0000000000000000 .LVL39
C:\Users\Karzan\AppData\Local\Temp\ccyAl7yf.s:460    .text.lcd_write_data:0000000000000026 .LVL42
C:\Users\Karzan\AppData\Local\Temp\ccyAl7yf.s:644    .text.lio_lcd_address_set:0000000000000012 .LCFI17
C:\Users\Karzan\AppData\Local\Temp\ccyAl7yf.s:760    .text.lio_lcd_address_set:00000000000000a8 .LCFI18
C:\Users\Karzan\AppData\Local\Temp\ccyAl7yf.s:631    .text.lio_lcd_address_set:0000000000000000 .LVL57
C:\Users\Karzan\AppData\Local\Temp\ccyAl7yf.s:637    .text.lio_lcd_address_set:000000000000000c .LVL58
C:\Users\Karzan\AppData\Local\Temp\ccyAl7yf.s:648    .text.lio_lcd_address_set:0000000000000014 .LVL59
C:\Users\Karzan\AppData\Local\Temp\ccyAl7yf.s:663    .text.lio_lcd_address_set:0000000000000024 .LVL63
C:\Users\Karzan\AppData\Local\Temp\ccyAl7yf.s:657    .text.lio_lcd_address_set:000000000000001a .LVL62
C:\Users\Karzan\AppData\Local\Temp\ccyAl7yf.s:654    .text.lio_lcd_address_set:0000000000000018 .LVL61
C:\Users\Karzan\AppData\Local\Temp\ccyAl7yf.s:704    .text.lio_lcd_address_set:0000000000000062 .LVL66
C:\Users\Karzan\AppData\Local\Temp\ccyAl7yf.s:724    .text.lio_lcd_address_set:000000000000006e .LVL68
C:\Users\Karzan\AppData\Local\Temp\ccyAl7yf.s:651    .text.lio_lcd_address_set:0000000000000016 .LVL60
C:\Users\Karzan\AppData\Local\Temp\ccyAl7yf.s:708    .text.lio_lcd_address_set:0000000000000064 .LVL67
C:\Users\Karzan\AppData\Local\Temp\ccyAl7yf.s:727    .text.lio_lcd_address_set:0000000000000070 .LVL69
C:\Users\Karzan\AppData\Local\Temp\ccyAl7yf.s:40     .text.spi_write_bus:0000000000000002 .LCFI0
C:\Users\Karzan\AppData\Local\Temp\ccyAl7yf.s:82     .text.spi_write_bus:0000000000000032 .LCFI1
C:\Users\Karzan\AppData\Local\Temp\ccyAl7yf.s:36     .text.spi_write_bus:0000000000000000 .LVL1
C:\Users\Karzan\AppData\Local\Temp\ccyAl7yf.s:57     .text.spi_write_bus:0000000000000014 .LVL2
GAS LISTING C:\Users\Karzan\AppData\Local\Temp\ccyAl7yf.s 			page 133


C:\Users\Karzan\AppData\Local\Temp\ccyAl7yf.s:118    .text.lcd_bus_init:0000000000000002 .LCFI2
C:\Users\Karzan\AppData\Local\Temp\ccyAl7yf.s:206    .text.lcd_bus_init:00000000000000ae .LCFI3
C:\Users\Karzan\AppData\Local\Temp\ccyAl7yf.s:2236   .text.lio_lcd_printf_scaled:0000000000000002 .LCFI47
C:\Users\Karzan\AppData\Local\Temp\ccyAl7yf.s:2304   .text.lio_lcd_printf_scaled:000000000000007a .LCFI48
C:\Users\Karzan\AppData\Local\Temp\ccyAl7yf.s:2232   .text.lio_lcd_printf_scaled:0000000000000000 .LVL223
C:\Users\Karzan\AppData\Local\Temp\ccyAl7yf.s:2253   .text.lio_lcd_printf_scaled:000000000000001c .LVL226
C:\Users\Karzan\AppData\Local\Temp\ccyAl7yf.s:2249   .text.lio_lcd_printf_scaled:0000000000000016 .LVL224
C:\Users\Karzan\AppData\Local\Temp\ccyAl7yf.s:2251   .text.lio_lcd_printf_scaled:000000000000001a .LVL225
C:\Users\Karzan\AppData\Local\Temp\ccyAl7yf.s:2306   .text.lio_lcd_printf_scaled:000000000000007a .LVL230
C:\Users\Karzan\AppData\Local\Temp\ccyAl7yf.s:1746   .text.lio_lcd_printf:0000000000000002 .LCFI39
C:\Users\Karzan\AppData\Local\Temp\ccyAl7yf.s:1811   .text.lio_lcd_printf:0000000000000078 .LCFI40
C:\Users\Karzan\AppData\Local\Temp\ccyAl7yf.s:1742   .text.lio_lcd_printf:0000000000000000 .LVL171
C:\Users\Karzan\AppData\Local\Temp\ccyAl7yf.s:1763   .text.lio_lcd_printf:000000000000001c .LVL174
C:\Users\Karzan\AppData\Local\Temp\ccyAl7yf.s:1759   .text.lio_lcd_printf:0000000000000016 .LVL172
C:\Users\Karzan\AppData\Local\Temp\ccyAl7yf.s:1761   .text.lio_lcd_printf:000000000000001a .LVL173
C:\Users\Karzan\AppData\Local\Temp\ccyAl7yf.s:1809   .text.lio_lcd_printf:0000000000000076 .LVL178
C:\Users\Karzan\AppData\Local\Temp\ccyAl7yf.s:1151   .text.lio_lcd_draw_line:000000000000001e .LCFI28
C:\Users\Karzan\AppData\Local\Temp\ccyAl7yf.s:1309   .text.lio_lcd_draw_line:00000000000000ca .LCFI29
C:\Users\Karzan\AppData\Local\Temp\ccyAl7yf.s:1314   .text.lio_lcd_draw_line:00000000000000cc .LCFI30
C:\Users\Karzan\AppData\Local\Temp\ccyAl7yf.s:1135   .text.lio_lcd_draw_line:0000000000000000 .LVL106
C:\Users\Karzan\AppData\Local\Temp\ccyAl7yf.s:1232   .text.lio_lcd_draw_line:0000000000000072 .LVL110
C:\Users\Karzan\AppData\Local\Temp\ccyAl7yf.s:1312   .text.lio_lcd_draw_line:00000000000000cc .LVL123
C:\Users\Karzan\AppData\Local\Temp\ccyAl7yf.s:1196   .text.lio_lcd_draw_line:0000000000000048 .LVL107
C:\Users\Karzan\AppData\Local\Temp\ccyAl7yf.s:1268   .text.lio_lcd_draw_line:00000000000000aa .LVL113
C:\Users\Karzan\AppData\Local\Temp\ccyAl7yf.s:1273   .text.lio_lcd_draw_line:00000000000000b0 .LVL114
C:\Users\Karzan\AppData\Local\Temp\ccyAl7yf.s:1292   .text.lio_lcd_draw_line:00000000000000be .LVL117
C:\Users\Karzan\AppData\Local\Temp\ccyAl7yf.s:1220   .text.lio_lcd_draw_line:0000000000000068 .LVL108
C:\Users\Karzan\AppData\Local\Temp\ccyAl7yf.s:1304   .text.lio_lcd_draw_line:00000000000000c6 .LVL121
C:\Users\Karzan\AppData\Local\Temp\ccyAl7yf.s:1295   .text.lio_lcd_draw_line:00000000000000c0 .LVL118
C:\Users\Karzan\AppData\Local\Temp\ccyAl7yf.s:1307   .text.lio_lcd_draw_line:00000000000000c8 .LVL122
C:\Users\Karzan\AppData\Local\Temp\ccyAl7yf.s:1289   .text.lio_lcd_draw_line:00000000000000bc .LVL116
C:\Users\Karzan\AppData\Local\Temp\ccyAl7yf.s:1301   .text.lio_lcd_draw_line:00000000000000c4 .LVL120
C:\Users\Karzan\AppData\Local\Temp\ccyAl7yf.s:1226   .text.lio_lcd_draw_line:000000000000006c .LVL109
C:\Users\Karzan\AppData\Local\Temp\ccyAl7yf.s:1298   .text.lio_lcd_draw_line:00000000000000c2 .LVL119
C:\Users\Karzan\AppData\Local\Temp\ccyAl7yf.s:1689   .text.lio_lcd_draw_num:0000000000000002 .LCFI37
C:\Users\Karzan\AppData\Local\Temp\ccyAl7yf.s:1728   .text.lio_lcd_draw_num:0000000000000036 .LCFI38
C:\Users\Karzan\AppData\Local\Temp\ccyAl7yf.s:1684   .text.lio_lcd_draw_num:0000000000000000 .LVL165
C:\Users\Karzan\AppData\Local\Temp\ccyAl7yf.s:1698   .text.lio_lcd_draw_num:000000000000000c .LVL166
C:\Users\Karzan\AppData\Local\Temp\ccyAl7yf.s:1701   .text.lio_lcd_draw_num:000000000000000e .LVL167
C:\Users\Karzan\AppData\Local\Temp\ccyAl7yf.s:1703   .text.lio_lcd_draw_num:0000000000000010 .LVL168
C:\Users\Karzan\AppData\Local\Temp\ccyAl7yf.s:1578   .text.lio_lcd_draw_string:0000000000000002 .LCFI34
C:\Users\Karzan\AppData\Local\Temp\ccyAl7yf.s:1626   .text.lio_lcd_draw_string:0000000000000032 .LCFI35
C:\Users\Karzan\AppData\Local\Temp\ccyAl7yf.s:1631   .text.lio_lcd_draw_string:0000000000000034 .LCFI36
C:\Users\Karzan\AppData\Local\Temp\ccyAl7yf.s:1574   .text.lio_lcd_draw_string:0000000000000000 .LVL151
C:\Users\Karzan\AppData\Local\Temp\ccyAl7yf.s:1602   .text.lio_lcd_draw_string:000000000000001e .LVL152
C:\Users\Karzan\AppData\Local\Temp\ccyAl7yf.s:1614   .text.lio_lcd_draw_string:0000000000000028 .LVL153
C:\Users\Karzan\AppData\Local\Temp\ccyAl7yf.s:1629   .text.lio_lcd_draw_string:0000000000000034 .LVL156
C:\Users\Karzan\AppData\Local\Temp\ccyAl7yf.s:1641   .text.lio_lcd_draw_string:000000000000003e .LVL157
C:\Users\Karzan\AppData\Local\Temp\ccyAl7yf.s:1651   .text.lio_lcd_draw_string:0000000000000046 .LVL160
C:\Users\Karzan\AppData\Local\Temp\ccyAl7yf.s:1657   .text.lio_lcd_draw_string:000000000000004a .LVL161
C:\Users\Karzan\AppData\Local\Temp\ccyAl7yf.s:1671   .text.lio_lcd_draw_string:000000000000005c .LVL164
C:\Users\Karzan\AppData\Local\Temp\ccyAl7yf.s:1617   .text.lio_lcd_draw_string:000000000000002a .LVL154
C:\Users\Karzan\AppData\Local\Temp\ccyAl7yf.s:1645   .text.lio_lcd_draw_string:0000000000000040 .LVL158
C:\Users\Karzan\AppData\Local\Temp\ccyAl7yf.s:1648   .text.lio_lcd_draw_string:0000000000000044 .LVL159
C:\Users\Karzan\AppData\Local\Temp\ccyAl7yf.s:1620   .text.lio_lcd_draw_string:000000000000002c .LVL155
C:\Users\Karzan\AppData\Local\Temp\ccyAl7yf.s:2095   .text.lio_lcd_draw_string_scaled:0000000000000002 .LCFI44
C:\Users\Karzan\AppData\Local\Temp\ccyAl7yf.s:2173   .text.lio_lcd_draw_string_scaled:000000000000005a .LCFI45
GAS LISTING C:\Users\Karzan\AppData\Local\Temp\ccyAl7yf.s 			page 134


C:\Users\Karzan\AppData\Local\Temp\ccyAl7yf.s:2178   .text.lio_lcd_draw_string_scaled:000000000000005c .LCFI46
C:\Users\Karzan\AppData\Local\Temp\ccyAl7yf.s:2091   .text.lio_lcd_draw_string_scaled:0000000000000000 .LVL209
C:\Users\Karzan\AppData\Local\Temp\ccyAl7yf.s:2141   .text.lio_lcd_draw_string_scaled:000000000000003e .LVL210
C:\Users\Karzan\AppData\Local\Temp\ccyAl7yf.s:2153   .text.lio_lcd_draw_string_scaled:0000000000000048 .LVL211
C:\Users\Karzan\AppData\Local\Temp\ccyAl7yf.s:2176   .text.lio_lcd_draw_string_scaled:000000000000005c .LVL214
C:\Users\Karzan\AppData\Local\Temp\ccyAl7yf.s:2188   .text.lio_lcd_draw_string_scaled:0000000000000068 .LVL215
C:\Users\Karzan\AppData\Local\Temp\ccyAl7yf.s:2198   .text.lio_lcd_draw_string_scaled:0000000000000070 .LVL218
C:\Users\Karzan\AppData\Local\Temp\ccyAl7yf.s:2204   .text.lio_lcd_draw_string_scaled:0000000000000074 .LVL219
C:\Users\Karzan\AppData\Local\Temp\ccyAl7yf.s:2219   .text.lio_lcd_draw_string_scaled:0000000000000088 .LVL222
C:\Users\Karzan\AppData\Local\Temp\ccyAl7yf.s:2156   .text.lio_lcd_draw_string_scaled:000000000000004a .LVL212
C:\Users\Karzan\AppData\Local\Temp\ccyAl7yf.s:2192   .text.lio_lcd_draw_string_scaled:000000000000006a .LVL216
C:\Users\Karzan\AppData\Local\Temp\ccyAl7yf.s:2195   .text.lio_lcd_draw_string_scaled:000000000000006e .LVL217
C:\Users\Karzan\AppData\Local\Temp\ccyAl7yf.s:2159   .text.lio_lcd_draw_string_scaled:000000000000004c .LVL213
C:\Users\Karzan\AppData\Local\Temp\ccyAl7yf.s:1831   .text.lio_lcd_draw_bitmask_scaled:0000000000000002 .LCFI41
C:\Users\Karzan\AppData\Local\Temp\ccyAl7yf.s:1947   .text.lio_lcd_draw_bitmask_scaled:0000000000000084 .LCFI42
C:\Users\Karzan\AppData\Local\Temp\ccyAl7yf.s:1952   .text.lio_lcd_draw_bitmask_scaled:0000000000000086 .LCFI43
C:\Users\Karzan\AppData\Local\Temp\ccyAl7yf.s:1825   .text.lio_lcd_draw_bitmask_scaled:0000000000000000 .LVL179
C:\Users\Karzan\AppData\Local\Temp\ccyAl7yf.s:1888   .text.lio_lcd_draw_bitmask_scaled:0000000000000048 .LVL184
C:\Users\Karzan\AppData\Local\Temp\ccyAl7yf.s:1871   .text.lio_lcd_draw_bitmask_scaled:0000000000000030 .LVL182
C:\Users\Karzan\AppData\Local\Temp\ccyAl7yf.s:1886   .text.lio_lcd_draw_bitmask_scaled:0000000000000044 .LVL183
C:\Users\Karzan\AppData\Local\Temp\ccyAl7yf.s:1869   .text.lio_lcd_draw_bitmask_scaled:000000000000002c .LVL181
C:\Users\Karzan\AppData\Local\Temp\ccyAl7yf.s:1866   .text.lio_lcd_draw_bitmask_scaled:0000000000000028 .LVL180
C:\Users\Karzan\AppData\Local\Temp\ccyAl7yf.s:1929   .text.lio_lcd_draw_bitmask_scaled:0000000000000074 .LVL189
C:\Users\Karzan\AppData\Local\Temp\ccyAl7yf.s:1950   .text.lio_lcd_draw_bitmask_scaled:0000000000000086 .LVL192
C:\Users\Karzan\AppData\Local\Temp\ccyAl7yf.s:1937   .text.lio_lcd_draw_bitmask_scaled:000000000000007a .LVL191
C:\Users\Karzan\AppData\Local\Temp\ccyAl7yf.s:1915   .text.lio_lcd_draw_bitmask_scaled:000000000000006a .LVL187
C:\Users\Karzan\AppData\Local\Temp\ccyAl7yf.s:1958   .text.lio_lcd_draw_bitmask_scaled:000000000000008a .LVL193
C:\Users\Karzan\AppData\Local\Temp\ccyAl7yf.s:1932   .text.lio_lcd_draw_bitmask_scaled:0000000000000076 .LVL190
C:\Users\Karzan\AppData\Local\Temp\ccyAl7yf.s:1994   .text.lio_lcd_draw_bitmask_scaled:00000000000000b2 .LVL198
C:\Users\Karzan\AppData\Local\Temp\ccyAl7yf.s:2008   .text.lio_lcd_draw_bitmask_scaled:00000000000000c2 .LVL200
C:\Users\Karzan\AppData\Local\Temp\ccyAl7yf.s:1908   .text.lio_lcd_draw_bitmask_scaled:0000000000000062 .LVL186
C:\Users\Karzan\AppData\Local\Temp\ccyAl7yf.s:1926   .text.lio_lcd_draw_bitmask_scaled:0000000000000072 .LVL188
C:\Users\Karzan\AppData\Local\Temp\ccyAl7yf.s:1965   .text.lio_lcd_draw_bitmask_scaled:000000000000008c .LVL194
C:\Users\Karzan\AppData\Local\Temp\ccyAl7yf.s:1980   .text.lio_lcd_draw_bitmask_scaled:000000000000009c .LVL195
C:\Users\Karzan\AppData\Local\Temp\ccyAl7yf.s:1986   .text.lio_lcd_draw_bitmask_scaled:00000000000000a8 .LVL197
C:\Users\Karzan\AppData\Local\Temp\ccyAl7yf.s:1370   .text.lio_lcd_draw_bitmask:0000000000000002 .LCFI31
C:\Users\Karzan\AppData\Local\Temp\ccyAl7yf.s:1460   .text.lio_lcd_draw_bitmask:0000000000000060 .LCFI32
C:\Users\Karzan\AppData\Local\Temp\ccyAl7yf.s:1465   .text.lio_lcd_draw_bitmask:0000000000000062 .LCFI33
C:\Users\Karzan\AppData\Local\Temp\ccyAl7yf.s:1365   .text.lio_lcd_draw_bitmask:0000000000000000 .LVL130
C:\Users\Karzan\AppData\Local\Temp\ccyAl7yf.s:1404   .text.lio_lcd_draw_bitmask:000000000000002a .LVL134
C:\Users\Karzan\AppData\Local\Temp\ccyAl7yf.s:1402   .text.lio_lcd_draw_bitmask:0000000000000028 .LVL133
C:\Users\Karzan\AppData\Local\Temp\ccyAl7yf.s:1400   .text.lio_lcd_draw_bitmask:0000000000000026 .LVL132
C:\Users\Karzan\AppData\Local\Temp\ccyAl7yf.s:1398   .text.lio_lcd_draw_bitmask:0000000000000024 .LVL131
C:\Users\Karzan\AppData\Local\Temp\ccyAl7yf.s:1454   .text.lio_lcd_draw_bitmask:000000000000005a .LVL137
C:\Users\Karzan\AppData\Local\Temp\ccyAl7yf.s:1463   .text.lio_lcd_draw_bitmask:0000000000000062 .LVL138
C:\Users\Karzan\AppData\Local\Temp\ccyAl7yf.s:1471   .text.lio_lcd_draw_bitmask:0000000000000066 .LVL139
C:\Users\Karzan\AppData\Local\Temp\ccyAl7yf.s:1447   .text.lio_lcd_draw_bitmask:0000000000000054 .LVL136
C:\Users\Karzan\AppData\Local\Temp\ccyAl7yf.s:1478   .text.lio_lcd_draw_bitmask:0000000000000068 .LVL140
C:\Users\Karzan\AppData\Local\Temp\ccyAl7yf.s:1492   .text.lio_lcd_draw_bitmask:0000000000000076 .LVL141
C:\Users\Karzan\AppData\Local\Temp\ccyAl7yf.s:1498   .text.lio_lcd_draw_bitmask:0000000000000082 .LVL143
C:\Users\Karzan\AppData\Local\Temp\ccyAl7yf.s:347    .text.lcd_write_color:0000000000000002 .LCFI7
C:\Users\Karzan\AppData\Local\Temp\ccyAl7yf.s:402    .text.lcd_write_color:000000000000004e .LCFI8
C:\Users\Karzan\AppData\Local\Temp\ccyAl7yf.s:408    .text.lcd_write_color:0000000000000056 .LCFI9
C:\Users\Karzan\AppData\Local\Temp\ccyAl7yf.s:342    .text.lcd_write_color:0000000000000000 .LVL30
C:\Users\Karzan\AppData\Local\Temp\ccyAl7yf.s:380    .text.lcd_write_color:0000000000000032 .LVL33
C:\Users\Karzan\AppData\Local\Temp\ccyAl7yf.s:256    .text.lcd_write_colors:0000000000000002 .LCFI4
C:\Users\Karzan\AppData\Local\Temp\ccyAl7yf.s:306    .text.lcd_write_colors:0000000000000042 .LCFI5
GAS LISTING C:\Users\Karzan\AppData\Local\Temp\ccyAl7yf.s 			page 135


C:\Users\Karzan\AppData\Local\Temp\ccyAl7yf.s:312    .text.lcd_write_colors:000000000000004a .LCFI6
C:\Users\Karzan\AppData\Local\Temp\ccyAl7yf.s:252    .text.lcd_write_colors:0000000000000000 .LVL18
C:\Users\Karzan\AppData\Local\Temp\ccyAl7yf.s:286    .text.lcd_write_colors:0000000000000028 .LVL23
C:\Users\Karzan\AppData\Local\Temp\ccyAl7yf.s:318    .text.lcd_write_colors:0000000000000050 .LVL26
C:\Users\Karzan\AppData\Local\Temp\ccyAl7yf.s:266    .text.lcd_write_colors:000000000000000a .LVL19
C:\Users\Karzan\AppData\Local\Temp\ccyAl7yf.s:282    .text.lcd_write_colors:0000000000000022 .LVL22
C:\Users\Karzan\AppData\Local\Temp\ccyAl7yf.s:321    .text.lcd_write_colors:0000000000000052 .LVL27
C:\Users\Karzan\AppData\Local\Temp\ccyAl7yf.s:1338   .text.lio_lcd_set_area:0000000000000000 .LVL124
C:\Users\Karzan\AppData\Local\Temp\ccyAl7yf.s:1347   .text.lio_lcd_set_area:0000000000000008 .LVL128
C:\Users\Karzan\AppData\Local\Temp\ccyAl7yf.s:1345   .text.lio_lcd_set_area:0000000000000006 .LVL127
C:\Users\Karzan\AppData\Local\Temp\ccyAl7yf.s:1343   .text.lio_lcd_set_area:0000000000000004 .LVL126
C:\Users\Karzan\AppData\Local\Temp\ccyAl7yf.s:1341   .text.lio_lcd_set_area:0000000000000002 .LVL125
C:\Users\Karzan\AppData\Local\Temp\ccyAl7yf.s:519    .text.lio_lcd_draw_next_pixel:0000000000000008 .LCFI13
C:\Users\Karzan\AppData\Local\Temp\ccyAl7yf.s:537    .text.lio_lcd_draw_next_pixel:0000000000000020 .LCFI14
C:\Users\Karzan\AppData\Local\Temp\ccyAl7yf.s:511    .text.lio_lcd_draw_next_pixel:0000000000000000 .LVL47
C:\Users\Karzan\AppData\Local\Temp\ccyAl7yf.s:516    .text.lio_lcd_draw_next_pixel:0000000000000006 .LVL48
C:\Users\Karzan\AppData\Local\Temp\ccyAl7yf.s:1091   .text.lio_lcd_draw_pixel:0000000000000002 .LCFI26
C:\Users\Karzan\AppData\Local\Temp\ccyAl7yf.s:1119   .text.lio_lcd_draw_pixel:0000000000000020 .LCFI27
C:\Users\Karzan\AppData\Local\Temp\ccyAl7yf.s:1087   .text.lio_lcd_draw_pixel:0000000000000000 .LVL101
C:\Users\Karzan\AppData\Local\Temp\ccyAl7yf.s:1101   .text.lio_lcd_draw_pixel:000000000000000c .LVL103
C:\Users\Karzan\AppData\Local\Temp\ccyAl7yf.s:1099   .text.lio_lcd_draw_pixel:000000000000000a .LVL102
C:\Users\Karzan\AppData\Local\Temp\ccyAl7yf.s:952    .text.lio_lcd_rect_lines:0000000000000002 .LCFI24
C:\Users\Karzan\AppData\Local\Temp\ccyAl7yf.s:1071   .text.lio_lcd_rect_lines:00000000000000c2 .LCFI25
C:\Users\Karzan\AppData\Local\Temp\ccyAl7yf.s:948    .text.lio_lcd_rect_lines:0000000000000000 .LVL88
C:\Users\Karzan\AppData\Local\Temp\ccyAl7yf.s:985    .text.lio_lcd_rect_lines:0000000000000034 .LVL91
C:\Users\Karzan\AppData\Local\Temp\ccyAl7yf.s:981    .text.lio_lcd_rect_lines:0000000000000030 .LVL89
C:\Users\Karzan\AppData\Local\Temp\ccyAl7yf.s:983    .text.lio_lcd_rect_lines:0000000000000032 .LVL90
C:\Users\Karzan\AppData\Local\Temp\ccyAl7yf.s:990    .text.lio_lcd_rect_lines:0000000000000038 .LVL92
C:\Users\Karzan\AppData\Local\Temp\ccyAl7yf.s:870    .text.lio_lcd_rect_fill:0000000000000002 .LCFI22
C:\Users\Karzan\AppData\Local\Temp\ccyAl7yf.s:932    .text.lio_lcd_rect_fill:000000000000004e .LCFI23
C:\Users\Karzan\AppData\Local\Temp\ccyAl7yf.s:866    .text.lio_lcd_rect_fill:0000000000000000 .LVL81
C:\Users\Karzan\AppData\Local\Temp\ccyAl7yf.s:892    .text.lio_lcd_rect_fill:000000000000001a .LVL85
C:\Users\Karzan\AppData\Local\Temp\ccyAl7yf.s:890    .text.lio_lcd_rect_fill:0000000000000018 .LVL84
C:\Users\Karzan\AppData\Local\Temp\ccyAl7yf.s:886    .text.lio_lcd_rect_fill:0000000000000014 .LVL82
C:\Users\Karzan\AppData\Local\Temp\ccyAl7yf.s:888    .text.lio_lcd_rect_fill:0000000000000016 .LVL83
C:\Users\Karzan\AppData\Local\Temp\ccyAl7yf.s:778    .text.lio_lcd_clear:0000000000000002 .LCFI19
C:\Users\Karzan\AppData\Local\Temp\ccyAl7yf.s:837    .text.lio_lcd_clear:000000000000004e .LCFI20
C:\Users\Karzan\AppData\Local\Temp\ccyAl7yf.s:842    .text.lio_lcd_clear:0000000000000050 .LCFI21
C:\Users\Karzan\AppData\Local\Temp\ccyAl7yf.s:774    .text.lio_lcd_clear:0000000000000000 .LVL73
C:\Users\Karzan\AppData\Local\Temp\ccyAl7yf.s:794    .text.lio_lcd_clear:000000000000001c .LVL74
C:\Users\Karzan\AppData\Local\Temp\ccyAl7yf.s:824    .text.lio_lcd_clear:0000000000000046 .LVL76
C:\Users\Karzan\AppData\Local\Temp\ccyAl7yf.s:835    .text.lio_lcd_clear:000000000000004c .LVL77
C:\Users\Karzan\AppData\Local\Temp\ccyAl7yf.s:840    .text.lio_lcd_clear:0000000000000050 .LVL78
C:\Users\Karzan\AppData\Local\Temp\ccyAl7yf.s:2476   .text.lio_lcd_init:0000000000000006 .LCFI51
C:\Users\Karzan\AppData\Local\Temp\ccyAl7yf.s:2853   .text.lio_lcd_init:00000000000002bc .LCFI52
C:\Users\Karzan\AppData\Local\Temp\ccyAl7yf.s:1520   .text.lio_lcd_draw_char:0000000000000000 .LVL145
C:\Users\Karzan\AppData\Local\Temp\ccyAl7yf.s:1553   .text.lio_lcd_draw_char:000000000000002a .LVL149
C:\Users\Karzan\AppData\Local\Temp\ccyAl7yf.s:1535   .text.lio_lcd_draw_char:000000000000000a .LVL147
C:\Users\Karzan\AppData\Local\Temp\ccyAl7yf.s:1544   .text.lio_lcd_draw_char:0000000000000018 .LVL148
C:\Users\Karzan\AppData\Local\Temp\ccyAl7yf.s:1528   .text.lio_lcd_draw_char:0000000000000008 .LVL146
C:\Users\Karzan\AppData\Local\Temp\ccyAl7yf.s:2022   .text.lio_lcd_draw_char_scaled:0000000000000000 .LVL201
C:\Users\Karzan\AppData\Local\Temp\ccyAl7yf.s:2070   .text.lio_lcd_draw_char_scaled:000000000000003e .LVL207
C:\Users\Karzan\AppData\Local\Temp\ccyAl7yf.s:2051   .text.lio_lcd_draw_char_scaled:000000000000001e .LVL204
C:\Users\Karzan\AppData\Local\Temp\ccyAl7yf.s:2035   .text.lio_lcd_draw_char_scaled:000000000000000a .LVL203
C:\Users\Karzan\AppData\Local\Temp\ccyAl7yf.s:2065   .text.lio_lcd_draw_char_scaled:0000000000000034 .LVL205
C:\Users\Karzan\AppData\Local\Temp\ccyAl7yf.s:2027   .text.lio_lcd_draw_char_scaled:0000000000000006 .LVL202
C:\Users\Karzan\AppData\Local\Temp\ccyAl7yf.s:2068   .text.lio_lcd_draw_char_scaled:000000000000003a .LVL206
GAS LISTING C:\Users\Karzan\AppData\Local\Temp\ccyAl7yf.s 			page 136


C:\Users\Karzan\AppData\Local\Temp\ccyAl7yf.s:816    .text.lio_lcd_clear:000000000000003a .LBB2
C:\Users\Karzan\AppData\Local\Temp\ccyAl7yf.s:828    .text.lio_lcd_clear:0000000000000048 .LBE2
C:\Users\Karzan\AppData\Local\Temp\ccyAl7yf.s:844    .text.lio_lcd_clear:0000000000000050 .LBB3
C:\Users\Karzan\AppData\Local\Temp\ccyAl7yf.s:854    .text.lio_lcd_clear:0000000000000060 .LBE3
C:\Users\Karzan\AppData\Local\Temp\ccyAl7yf.s:1222   .text.lio_lcd_draw_line:0000000000000068 .LBB4
C:\Users\Karzan\AppData\Local\Temp\ccyAl7yf.s:1229   .text.lio_lcd_draw_line:0000000000000070 .LBE4
C:\Users\Karzan\AppData\Local\Temp\ccyAl7yf.s:1234   .text.lio_lcd_draw_line:0000000000000072 .LBB5
C:\Users\Karzan\AppData\Local\Temp\ccyAl7yf.s:1280   .text.lio_lcd_draw_line:00000000000000b6 .LBE5
C:\Users\Karzan\AppData\Local\Temp\ccyAl7yf.s:1384   .text.lio_lcd_draw_bitmask:0000000000000012 .LBB6
C:\Users\Karzan\AppData\Local\Temp\ccyAl7yf.s:1395   .text.lio_lcd_draw_bitmask:0000000000000022 .LBE6
C:\Users\Karzan\AppData\Local\Temp\ccyAl7yf.s:1409   .text.lio_lcd_draw_bitmask:0000000000000032 .LBB11
C:\Users\Karzan\AppData\Local\Temp\ccyAl7yf.s:1414   .text.lio_lcd_draw_bitmask:0000000000000036 .LBE11
C:\Users\Karzan\AppData\Local\Temp\ccyAl7yf.s:1425   .text.lio_lcd_draw_bitmask:0000000000000040 .LBB12
C:\Users\Karzan\AppData\Local\Temp\ccyAl7yf.s:1430   .text.lio_lcd_draw_bitmask:0000000000000044 .LBE12
C:\Users\Karzan\AppData\Local\Temp\ccyAl7yf.s:1435   .text.lio_lcd_draw_bitmask:000000000000004c .LBB13
C:\Users\Karzan\AppData\Local\Temp\ccyAl7yf.s:1440   .text.lio_lcd_draw_bitmask:0000000000000050 .LBE13
C:\Users\Karzan\AppData\Local\Temp\ccyAl7yf.s:1467   .text.lio_lcd_draw_bitmask:0000000000000062 .LBB14
C:\Users\Karzan\AppData\Local\Temp\ccyAl7yf.s:1508   .text.lio_lcd_draw_bitmask:000000000000008c .LBE14
C:\Users\Karzan\AppData\Local\Temp\ccyAl7yf.s:1410   .text.lio_lcd_draw_bitmask:0000000000000032 .LBB7
C:\Users\Karzan\AppData\Local\Temp\ccyAl7yf.s:1413   .text.lio_lcd_draw_bitmask:0000000000000036 .LBE7
C:\Users\Karzan\AppData\Local\Temp\ccyAl7yf.s:1426   .text.lio_lcd_draw_bitmask:0000000000000040 .LBB8
C:\Users\Karzan\AppData\Local\Temp\ccyAl7yf.s:1429   .text.lio_lcd_draw_bitmask:0000000000000044 .LBE8
C:\Users\Karzan\AppData\Local\Temp\ccyAl7yf.s:1473   .text.lio_lcd_draw_bitmask:0000000000000066 .LBB9
C:\Users\Karzan\AppData\Local\Temp\ccyAl7yf.s:1475   .text.lio_lcd_draw_bitmask:0000000000000066 .LBE9
C:\Users\Karzan\AppData\Local\Temp\ccyAl7yf.s:1480   .text.lio_lcd_draw_bitmask:0000000000000068 .LBB10
C:\Users\Karzan\AppData\Local\Temp\ccyAl7yf.s:1502   .text.lio_lcd_draw_bitmask:0000000000000088 .LBE10
C:\Users\Karzan\AppData\Local\Temp\ccyAl7yf.s:1872   .text.lio_lcd_draw_bitmask_scaled:0000000000000030 .LBB19
C:\Users\Karzan\AppData\Local\Temp\ccyAl7yf.s:1883   .text.lio_lcd_draw_bitmask_scaled:0000000000000040 .LBE19
C:\Users\Karzan\AppData\Local\Temp\ccyAl7yf.s:1896   .text.lio_lcd_draw_bitmask_scaled:0000000000000058 .LBB24
C:\Users\Karzan\AppData\Local\Temp\ccyAl7yf.s:1902   .text.lio_lcd_draw_bitmask_scaled:000000000000005c .LBE24
C:\Users\Karzan\AppData\Local\Temp\ccyAl7yf.s:1905   .text.lio_lcd_draw_bitmask_scaled:000000000000005e .LBB25
C:\Users\Karzan\AppData\Local\Temp\ccyAl7yf.s:1919   .text.lio_lcd_draw_bitmask_scaled:000000000000006e .LBE25
C:\Users\Karzan\AppData\Local\Temp\ccyAl7yf.s:1954   .text.lio_lcd_draw_bitmask_scaled:0000000000000086 .LBB26
C:\Users\Karzan\AppData\Local\Temp\ccyAl7yf.s:2010   .text.lio_lcd_draw_bitmask_scaled:00000000000000c4 .LBE26
C:\Users\Karzan\AppData\Local\Temp\ccyAl7yf.s:1898   .text.lio_lcd_draw_bitmask_scaled:0000000000000058 .LBB20
C:\Users\Karzan\AppData\Local\Temp\ccyAl7yf.s:1901   .text.lio_lcd_draw_bitmask_scaled:000000000000005c .LBE20
C:\Users\Karzan\AppData\Local\Temp\ccyAl7yf.s:1909   .text.lio_lcd_draw_bitmask_scaled:0000000000000062 .LBB21
C:\Users\Karzan\AppData\Local\Temp\ccyAl7yf.s:1912   .text.lio_lcd_draw_bitmask_scaled:0000000000000066 .LBE21
C:\Users\Karzan\AppData\Local\Temp\ccyAl7yf.s:1960   .text.lio_lcd_draw_bitmask_scaled:000000000000008a .LBB22
C:\Users\Karzan\AppData\Local\Temp\ccyAl7yf.s:1962   .text.lio_lcd_draw_bitmask_scaled:000000000000008a .LBE22
C:\Users\Karzan\AppData\Local\Temp\ccyAl7yf.s:1967   .text.lio_lcd_draw_bitmask_scaled:000000000000008c .LBB23
C:\Users\Karzan\AppData\Local\Temp\ccyAl7yf.s:1989   .text.lio_lcd_draw_bitmask_scaled:00000000000000ac .LBE23

UNDEFINED SYMBOLS
spi_i2s_flag_get
spi_i2s_data_transmit
gpio_bit_set
rcu_periph_clock_enable
gpio_init
spi_struct_para_init
spi_init
spi_enable
gpio_bit_reset
itoa
memset
vsnprintf
__floatundidf
GAS LISTING C:\Users\Karzan\AppData\Local\Temp\ccyAl7yf.s 			page 137


__floatunsidf
__divdf3
__muldf3
__ltdf2
get_timer_value
SystemCoreClock
memcpy
