GAS LISTING C:\Users\Karzan\AppData\Local\Temp\ccZbxv8g.s 			page 1


   1              		.file	"low-math.c"
   2              		.option nopic
   3              		.attribute arch, "rv32i2p0_m2p0_a2p0_c2p0"
   4              		.attribute unaligned_access, 0
   5              		.attribute stack_align, 16
   6              		.text
   7              	.Ltext0:
   8              		.cfi_sections	.debug_frame
   9              		.globl	__gesf2
  10              		.section	.text.toPos,"ax",@progbits
  11              		.align	1
  12              		.globl	toPos
  14              	toPos:
  15              	.LFB2:
  16              		.file 1 "low-math.c"
   1:low-math.c    **** #include "low-math.h"
   2:low-math.c    **** 
   3:low-math.c    **** // Absolute value return as float
   4:low-math.c    **** float toPos(float x){
  17              		.loc 1 4 21
  18              		.cfi_startproc
  19              	.LVL0:
   5:low-math.c    ****   if (x>=0) return x;
  20              		.loc 1 5 3
   4:low-math.c    ****   if (x>=0) return x;
  21              		.loc 1 4 21 is_stmt 0
  22 0000 4111     		addi	sp,sp,-16
  23              	.LCFI0:
  24              		.cfi_def_cfa_offset 16
  25              		.loc 1 5 6
  26 0002 93050000 		mv	a1,zero
   4:low-math.c    ****   if (x>=0) return x;
  27              		.loc 1 4 21
  28 0006 22C4     		sw	s0,8(sp)
  29 0008 06C6     		sw	ra,12(sp)
  30              		.cfi_offset 8, -8
  31              		.cfi_offset 1, -4
   4:low-math.c    ****   if (x>=0) return x;
  32              		.loc 1 4 21
  33 000a 2A84     		mv	s0,a0
  34              		.loc 1 5 6
  35 000c 97000000 		call	__gesf2
  35      E7800000 
  36              	.LVL1:
  37 0014 63550500 		bge	a0,zero,.L2
   6:low-math.c    ****   return x*(-1);
  38              		.loc 1 6 3 is_stmt 1
  39              		.loc 1 6 11 is_stmt 0
  40 0018 B7070080 		li	a5,-2147483648
  41 001c 3D8C     		xor	s0,a5,s0
  42              	.LVL2:
  43              	.L2:
   7:low-math.c    **** }
  44              		.loc 1 7 1
  45 001e 2285     		mv	a0,s0
  46 0020 B240     		lw	ra,12(sp)
  47              		.cfi_restore 1
GAS LISTING C:\Users\Karzan\AppData\Local\Temp\ccZbxv8g.s 			page 2


  48 0022 2244     		lw	s0,8(sp)
  49              		.cfi_restore 8
  50 0024 4101     		addi	sp,sp,16
  51              	.LCFI1:
  52              		.cfi_def_cfa_offset 0
  53 0026 8280     		jr	ra
  54              		.cfi_endproc
  55              	.LFE2:
  57              		.globl	__ltsf2
  58              		.globl	__mulsf3
  59              		.globl	__divsf3
  60              		.globl	__addsf3
  61              		.section	.text.newtonSqrt,"ax",@progbits
  62              		.align	1
  63              		.globl	newtonSqrt
  65              	newtonSqrt:
  66              	.LFB3:
   8:low-math.c    **** 
   9:low-math.c    **** /*!
  10:low-math.c    ****   \brief        calculate the Newton–Raphson method with 3 steps
  11:low-math.c    ****   \param[in]    x: 'a' in Newton–Raphson formula ( number to be rooted )
  12:low-math.c    ****   \attention    formula: x_(n+1) = (1/2)(x_(n) + a/x_(n)) {15 iteration->accuracy ~10^8}
  13:low-math.c    ****   \param[out]   x(n+1): approximated value of square root (result)
  14:low-math.c    ****   \retval       float
  15:low-math.c    **** */
  16:low-math.c    **** float newtonSqrt(float x){
  67              		.loc 1 16 26 is_stmt 1
  68              		.cfi_startproc
  69              	.LVL3:
  17:low-math.c    ****   float val;                          // x0 -> guess baes on conditions..
  70              		.loc 1 17 3
  18:low-math.c    ****   if (x<0) return 0;                  // ..1. only real numbers..
  71              		.loc 1 18 3
  16:low-math.c    ****   float val;                          // x0 -> guess baes on conditions..
  72              		.loc 1 16 26 is_stmt 0
  73 0000 0111     		addi	sp,sp,-32
  74              	.LCFI2:
  75              		.cfi_def_cfa_offset 32
  76              		.loc 1 18 6
  77 0002 93050000 		mv	a1,zero
  16:low-math.c    ****   float val;                          // x0 -> guess baes on conditions..
  78              		.loc 1 16 26
  79 0006 22CC     		sw	s0,24(sp)
  80 0008 4AC8     		sw	s2,16(sp)
  81 000a 06CE     		sw	ra,28(sp)
  82 000c 26CA     		sw	s1,20(sp)
  83 000e 4EC6     		sw	s3,12(sp)
  84              		.cfi_offset 8, -8
  85              		.cfi_offset 18, -16
  86              		.cfi_offset 1, -4
  87              		.cfi_offset 9, -12
  88              		.cfi_offset 19, -20
  16:low-math.c    ****   float val;                          // x0 -> guess baes on conditions..
  89              		.loc 1 16 26
  90 0010 2A89     		mv	s2,a0
  91              		.loc 1 18 6
  92 0012 97000000 		call	__ltsf2
GAS LISTING C:\Users\Karzan\AppData\Local\Temp\ccZbxv8g.s 			page 3


  92      E7800000 
  93              	.LVL4:
  94              		.loc 1 18 19
  95 001a 13040000 		mv	s0,zero
  96              		.loc 1 18 6
  97 001e 634D0504 		blt	a0,zero,.L4
  19:low-math.c    ****   else if (x < 1) val = 0.99;         // ..2. guess less than 1 if root term also less than 1
  98              		.loc 1 19 8 is_stmt 1
  99              		.loc 1 19 11 is_stmt 0
 100 0022 B7070000 		lui	a5,%hi(.LC1)
 101 0026 83A50700 		lw	a1,%lo(.LC1)(a5)
 102 002a 4A85     		mv	a0,s2
 103 002c B7090000 		lui	s3,%hi(.LC2)
 104 0030 97000000 		call	__ltsf2
 104      E7800000 
 105              	.LVL5:
 106 0038 63480504 		blt	a0,zero,.L9
  20:low-math.c    ****   else val = x/2.0;                   // ..3. if larger, guess half..
 107              		.loc 1 20 8 is_stmt 1
 108              		.loc 1 20 12 is_stmt 0
 109 003c 83A50900 		lw	a1,%lo(.LC2)(s3)
 110 0040 4A85     		mv	a0,s2
 111 0042 97000000 		call	__mulsf3
 111      E7800000 
 112              	.LVL6:
 113 004a 2A84     		mv	s0,a0
 114              	.LVL7:
 115              	.L6:
 116              	.LBB2:
  21:low-math.c    **** 
  22:low-math.c    ****   // calculate the Newton–Raphson method with 15 iterations { accurate upto ~10^8}
  23:low-math.c    ****   for (int i=0; i<15; i++){
  24:low-math.c    ****     val = 1.0/2.0 * (val + x/val);
 117              		.loc 1 24 9 discriminator 3
 118 004c 83A90900 		lw	s3,%lo(.LC2)(s3)
 119              	.LBE2:
  19:low-math.c    ****   else val = x/2.0;                   // ..3. if larger, guess half..
 120              		.loc 1 19 23 discriminator 3
 121 0050 BD44     		li	s1,15
 122              	.L7:
 123              	.LVL8:
 124              	.LBB3:
 125              		.loc 1 24 5 is_stmt 1 discriminator 3
 126              		.loc 1 24 29 is_stmt 0 discriminator 3
 127 0052 A285     		mv	a1,s0
 128 0054 4A85     		mv	a0,s2
 129 0056 97000000 		call	__divsf3
 129      E7800000 
 130              	.LVL9:
 131              		.loc 1 24 26 discriminator 3
 132 005e A285     		mv	a1,s0
 133 0060 97000000 		call	__addsf3
 133      E7800000 
 134              	.LVL10:
 135              		.loc 1 24 9 discriminator 3
 136 0068 CE85     		mv	a1,s3
 137 006a 97000000 		call	__mulsf3
GAS LISTING C:\Users\Karzan\AppData\Local\Temp\ccZbxv8g.s 			page 4


 137      E7800000 
 138              	.LVL11:
 139 0072 FD14     		addi	s1,s1,-1
 140              	.LVL12:
 141 0074 2A84     		mv	s0,a0
 142              	.LVL13:
  23:low-math.c    ****     val = 1.0/2.0 * (val + x/val);
 143              		.loc 1 23 3 discriminator 3
 144 0076 F1FC     		bne	s1,zero,.L7
 145              	.LVL14:
 146              	.L4:
 147              	.LBE3:
  25:low-math.c    ****   }
  26:low-math.c    ****   return val;
  27:low-math.c    **** }
 148              		.loc 1 27 1
 149 0078 2285     		mv	a0,s0
 150 007a F240     		lw	ra,28(sp)
 151              		.cfi_remember_state
 152              		.cfi_restore 1
 153 007c 6244     		lw	s0,24(sp)
 154              		.cfi_restore 8
 155 007e D244     		lw	s1,20(sp)
 156              		.cfi_restore 9
 157 0080 4249     		lw	s2,16(sp)
 158              		.cfi_restore 18
 159              	.LVL15:
 160 0082 B249     		lw	s3,12(sp)
 161              		.cfi_restore 19
 162 0084 0561     		addi	sp,sp,32
 163              	.LCFI3:
 164              		.cfi_def_cfa_offset 0
 165 0086 8280     		jr	ra
 166              	.LVL16:
 167              	.L9:
 168              	.LCFI4:
 169              		.cfi_restore_state
  19:low-math.c    ****   else val = x/2.0;                   // ..3. if larger, guess half..
 170              		.loc 1 19 23
 171 0088 B7070000 		lui	a5,%hi(.LC0)
 172 008c 03A40700 		lw	s0,%lo(.LC0)(a5)
 173 0090 75BF     		j	.L6
 174              		.cfi_endproc
 175              	.LFE3:
 177              		.section	.text.ssqrt,"ax",@progbits
 178              		.align	1
 179              		.globl	ssqrt
 181              	ssqrt:
 182              	.LFB4:
  28:low-math.c    **** 
  29:low-math.c    **** int32_t ssqrt(int32_t n) {
 183              		.loc 1 29 26 is_stmt 1
 184              		.cfi_startproc
 185              	.LVL17:
  30:low-math.c    ****   int64_t val = n << 10;
 186              		.loc 1 30 3
 187              		.loc 1 30 19 is_stmt 0
GAS LISTING C:\Users\Karzan\AppData\Local\Temp\ccZbxv8g.s 			page 5


 188 0000 1317A500 		slli	a4,a0,10
 189              		.loc 1 30 11
 190 0004 9355F741 		srai	a1,a4,31
 191              	.LVL18:
  31:low-math.c    ****   unsigned long temp, g=0, b = 0x8000, bshft = 15;
 192              		.loc 1 31 3 is_stmt 1
 193              		.loc 1 31 40 is_stmt 0
 194 0008 BD46     		li	a3,15
 195              		.loc 1 31 28
 196 000a 2166     		li	a2,32768
 197              		.loc 1 31 23
 198 000c 0145     		li	a0,0
 199              	.LVL19:
  32:low-math.c    ****   do {
  33:low-math.c    ****     if (val >= (temp = (((g << 1) + b)<<bshft--))) {
 200              		.loc 1 33 22
 201 000e 0143     		li	t1,0
  34:low-math.c    ****       g += b;
  35:low-math.c    ****       val -= temp;
  36:low-math.c    ****     }
  37:low-math.c    ****   } while (b >>= 1);
 202              		.loc 1 37 3
 203 0010 7D58     		li	a6,-1
 204              	.LVL20:
 205              	.L15:
  32:low-math.c    ****   do {
 206              		.loc 1 32 3 is_stmt 1
  33:low-math.c    ****       g += b;
 207              		.loc 1 33 5
  33:low-math.c    ****       g += b;
 208              		.loc 1 33 29 is_stmt 0
 209 0012 93171500 		slli	a5,a0,1
  33:low-math.c    ****       g += b;
 210              		.loc 1 33 35
 211 0016 B297     		add	a5,a5,a2
  33:low-math.c    ****       g += b;
 212              		.loc 1 33 46
 213 0018 9388F6FF 		addi	a7,a3,-1
 214              	.LVL21:
  33:low-math.c    ****       g += b;
 215              		.loc 1 33 22
 216 001c B397D700 		sll	a5,a5,a3
  33:low-math.c    ****       g += b;
 217              		.loc 1 33 8
 218 0020 63CC6500 		bgt	t1,a1,.L13
 219 0024 99E1     		bne	a1,zero,.L16
 220 0026 6369F700 		bgtu	a5,a4,.L13
 221              	.L16:
  34:low-math.c    ****       g += b;
 222              		.loc 1 34 7 is_stmt 1
  35:low-math.c    ****     }
 223              		.loc 1 35 11 is_stmt 0
 224 002a B307F740 		sub	a5,a4,a5
 225 002e B336F700 		sgtu	a3,a5,a4
 226              	.LVL22:
  34:low-math.c    ****       g += b;
 227              		.loc 1 34 9
GAS LISTING C:\Users\Karzan\AppData\Local\Temp\ccZbxv8g.s 			page 6


 228 0032 3295     		add	a0,a0,a2
 229              	.LVL23:
  35:low-math.c    ****     }
 230              		.loc 1 35 7 is_stmt 1
  35:low-math.c    ****     }
 231              		.loc 1 35 11 is_stmt 0
 232 0034 3E87     		mv	a4,a5
 233              	.LVL24:
 234 0036 958D     		sub	a1,a1,a3
 235              	.LVL25:
 236              	.L13:
 237              		.loc 1 37 14
 238 0038 0582     		srli	a2,a2,1
 239              	.LVL26:
 240 003a C686     		mv	a3,a7
 241              		.loc 1 37 3
 242 003c E39B08FD 		bne	a7,a6,.L15
 243              	.LVL27:
  38:low-math.c    ****   return g;
  39:low-math.c    **** }...
 244              		.loc 1 39 1
 245 0040 8280     		ret
 246              		.cfi_endproc
 247              	.LFE4:
 249              		.section	.rodata.newtonSqrt.cst4,"aM",@progbits,4
 250              		.align	2
 251              	.LC0:
 252 0000 A4707D3F 		.word	1065185444
 253              	.LC1:
 254 0004 0000803F 		.word	1065353216
 255              	.LC2:
 256 0008 0000003F 		.word	1056964608
 257              		.text
 258              	.Letext0:
 259              		.file 2 "c:\\users\\karzan\\downloads\\toolchain-gd32v-v202-win\\toolchain-gd32v-v202-win\\compile
 260              		.file 3 "c:\\users\\karzan\\downloads\\toolchain-gd32v-v202-win\\toolchain-gd32v-v202-win\\compile
 261              		.file 4 "./../../firmware/GD32VF103_standard_peripheral/system_gd32vf103.h"
GAS LISTING C:\Users\Karzan\AppData\Local\Temp\ccZbxv8g.s 			page 7

