GAS LISTING C:\Users\Karzan\AppData\Local\Temp\ccZMX4Ct.s 			page 1


   1              		.file	"main.c"
   2              		.option nopic
   3              		.attribute arch, "rv32i2p0_m2p0_a2p0_c2p0"
   4              		.attribute unaligned_access, 0
   5              		.attribute stack_align, 16
   6              		.text
   7              	.Ltext0:
   8              		.cfi_sections	.debug_frame
   9              		.globl	__ltsf2
  10              		.globl	__divsf3
  11              		.globl	__addsf3
  12              		.globl	__fixunssfsi
  13              		.section	.text.startup.main,"ax",@progbits
  14              		.align	1
  15              		.globl	main
  17              	main:
  18              	.LFB5:
  19              		.file 1 "main.c"
   1:main.c        **** /*!
   2:main.c        ****     \file  main.c
   3:main.c        ****     \brief USB CDC ACM device
   4:main.c        **** 
   5:main.c        ****     \version 2019-6-5, V1.0.0, demo for GD32VF103
   6:main.c        **** */
   7:main.c        **** 
   8:main.c        **** /*
   9:main.c        ****     Copyright (c) 2019, GigaDevice Semiconductor Inc.
  10:main.c        **** 
  11:main.c        ****     Redistribution and use in source and binary forms, with or without modification, 
  12:main.c        **** are permitted provided that the following conditions are met:
  13:main.c        **** 
  14:main.c        ****     1. Redistributions of source code must retain the above copyright notice, this 
  15:main.c        ****        list of conditions and the following disclaimer.
  16:main.c        ****     2. Redistributions in binary form must reproduce the above copyright notice, 
  17:main.c        ****        this list of conditions and the following disclaimer in the documentation 
  18:main.c        ****        and/or other materials provided with the distribution.
  19:main.c        ****     3. Neither the name of the copyright holder nor the names of its contributors 
  20:main.c        ****        may be used to endorse or promote products derived from this software without 
  21:main.c        ****        specific prior written permission.
  22:main.c        **** 
  23:main.c        ****     THIS SOFTWARE IS PROVIDED BY THE COPYRIGHT HOLDERS AND CONTRIBUTORS "AS IS" 
  24:main.c        **** AND ANY EXPRESS OR IMPLIED WARRANTIES, INCLUDING, BUT NOT LIMITED TO, THE IMPLIED 
  25:main.c        **** WARRANTIES OF MERCHANTABILITY AND FITNESS FOR A PARTICULAR PURPOSE ARE DISCLAIMED. 
  26:main.c        **** IN NO EVENT SHALL THE COPYRIGHT HOLDER OR CONTRIBUTORS BE LIABLE FOR ANY DIRECT, 
  27:main.c        **** INDIRECT, INCIDENTAL, SPECIAL, EXEMPLARY, OR CONSEQUENTIAL DAMAGES (INCLUDING, BUT 
  28:main.c        **** NOT LIMITED TO, PROCUREMENT OF SUBSTITUTE GOODS OR SERVICES; LOSS OF USE, DATA, OR 
  29:main.c        **** PROFITS; OR BUSINESS INTERRUPTION) HOWEVER CAUSED AND ON ANY THEORY OF LIABILITY, 
  30:main.c        **** WHETHER IN CONTRACT, STRICT LIABILITY, OR TORT (INCLUDING NEGLIGENCE OR OTHERWISE) 
  31:main.c        **** ARISING IN ANY WAY OUT OF THE USE OF THIS SOFTWARE, EVEN IF ADVISED OF THE POSSIBILITY 
  32:main.c        **** OF SUCH DAMAGE.
  33:main.c        **** */
  34:main.c        **** 
  35:main.c        **** 
  36:main.c        **** #include "gd32vf103.h"
  37:main.c        **** #include "drivers.h"
  38:main.c        **** #include "lcd.h"
  39:main.c        **** #include "library/delay/include/delay.h"
GAS LISTING C:\Users\Karzan\AppData\Local\Temp\ccZMX4Ct.s 			page 2


  40:main.c        **** #include "gd32v_mpu6500_if.h"
  41:main.c        **** 
  42:main.c        **** #define GRAPH_HEIGHT    30
  43:main.c        **** 
  44:main.c        **** 
  45:main.c        **** int main(void)
  46:main.c        **** {
  20              		.loc 1 46 1
  21              		.cfi_startproc
  47:main.c        ****     /* The related data structure for the IMU, contains a vector of x, y, z floats*/
  48:main.c        ****     mpu_vector_t vec, vec_temp;
  22              		.loc 1 48 5
  49:main.c        ****     /* for lcd */
  50:main.c        ****     uint16_t line_color;
  23              		.loc 1 50 5
  51:main.c        **** 
  52:main.c        ****     /* Initialize pins for I2C */
  53:main.c        ****     rcu_periph_clock_enable(RCU_GPIOB);
  24              		.loc 1 53 5
  46:main.c        ****     /* The related data structure for the IMU, contains a vector of x, y, z floats*/
  25              		.loc 1 46 1 is_stmt 0
  26 0000 1D71     		addi	sp,sp,-96
  27              	.LCFI0:
  28              		.cfi_def_cfa_offset 96
  29              		.loc 1 53 5
  30 0002 13053060 		li	a0,1539
  46:main.c        ****     /* The related data structure for the IMU, contains a vector of x, y, z floats*/
  31              		.loc 1 46 1
  32 0006 86CE     		sw	ra,92(sp)
  33 0008 A6CA     		sw	s1,84(sp)
  34 000a CAC8     		sw	s2,80(sp)
  35 000c CEC6     		sw	s3,76(sp)
  36 000e D2C4     		sw	s4,72(sp)
  37 0010 D6C2     		sw	s5,68(sp)
  38 0012 DAC0     		sw	s6,64(sp)
  39 0014 5EDE     		sw	s7,60(sp)
  40 0016 62DC     		sw	s8,56(sp)
  41 0018 A2CC     		sw	s0,88(sp)
  42              		.cfi_offset 1, -4
  43              		.cfi_offset 9, -12
  44              		.cfi_offset 18, -16
  45              		.cfi_offset 19, -20
  46              		.cfi_offset 20, -24
  47              		.cfi_offset 21, -28
  48              		.cfi_offset 22, -32
  49              		.cfi_offset 23, -36
  50              		.cfi_offset 24, -40
  51              		.cfi_offset 8, -8
  52              		.loc 1 53 5
  53 001a 97000000 		call	rcu_periph_clock_enable
  53      E7800000 
  54              	.LVL0:
  54:main.c        ****     rcu_periph_clock_enable(RCU_I2C0);
  55              		.loc 1 54 5 is_stmt 1
  56 0022 13055071 		li	a0,1813
  57 0026 97000000 		call	rcu_periph_clock_enable
  57      E7800000 
GAS LISTING C:\Users\Karzan\AppData\Local\Temp\ccZMX4Ct.s 			page 3


  58              	.LVL1:
  55:main.c        ****     gpio_init(GPIOB, GPIO_MODE_AF_OD, GPIO_OSPEED_50MHZ, GPIO_PIN_6 | GPIO_PIN_7);
  59              		.loc 1 55 5
  60 002e 37150140 		li	a0,1073811456
  61 0032 9306000C 		li	a3,192
  62 0036 0D46     		li	a2,3
  63 0038 F145     		li	a1,28
  64 003a 130505C0 		addi	a0,a0,-1024
  65 003e 97000000 		call	gpio_init
  65      E7800000 
  66              	.LVL2:
  56:main.c        ****     /* Initialize the IMU (Notice that MPU6500 is referenced, this is due to the fact that ICM-2060
  57:main.c        ****        ICM-20600 is mostly register compatible with MPU6500, if MPU6500 is used only thing that nee
  58:main.c        ****        to change is MPU6500_WHO_AM_I_ID from 0x11 to 0x70. */
  59:main.c        ****     mpu6500_install(I2C0);
  67              		.loc 1 59 5
  68 0046 37550040 		li	a0,1073762304
  69 004a 13050540 		addi	a0,a0,1024
  70 004e 97000000 		call	mpu6500_install
  70      E7800000 
  71              	.LVL3:
  60:main.c        ****     
  61:main.c        ****     /* Initialize LCD */
  62:main.c        ****     //Lcd_SetType(LCD_INVERTED);
  63:main.c        ****     //Lcd_Init();
  64:main.c        ****     //LCD_Clear(BLACK);                         
  65:main.c        **** 
  66:main.c        ****     //t5omsi();                                 // Initialize timer5 1kHz
  67:main.c        ****     
  68:main.c        ****     mpu6500_getAccel(&vec_temp);
  72              		.loc 1 68 5
  73 0056 4810     		addi	a0,sp,36
  69:main.c        ****     //float moe_temp = 100/(pow(vec.x + vec.y + vec.z, 2));
  70:main.c        ****     float abs_x, abs_y, abs_z;
  71:main.c        ****     int idle=0, s=0;
  72:main.c        ****     while(1){
  73:main.c        ****         /* Get accelleration data (Note: Blocking read) puts a force vector with 1G = 4096 into x, 
  74:main.c        ****         mpu6500_getAccel(&vec);
  75:main.c        **** 
  76:main.c        ****         /* Do some fancy math to make a nice display */
  77:main.c        ****         
  78:main.c        **** 
  79:main.c        ****         /* Green if pointing up, red if down */
  80:main.c        ****         line_color = (vec.z < 0) ? RED : GREEN;
  81:main.c        ****         /* Draw a unit circle (1G) */
  82:main.c        ****         Draw_Circle(160/2, 80/2, 28, BLUE);
  83:main.c        ****         /* Erase last line */
  84:main.c        ****         LCD_DrawLine(160/2, 80/2, (160/2)+(vec_temp.y)/(4096/28), (80/2)+(vec_temp.x/(4096/28)),BLA
  74              		.loc 1 84 85 is_stmt 0
  75 0058 B7090000 		lui	s3,%hi(.LC0)
  68:main.c        ****     //float moe_temp = 100/(pow(vec.x + vec.y + vec.z, 2));
  76              		.loc 1 68 5
  77 005c 97000000 		call	mpu6500_getAccel
  77      E7800000 
  78              	.LVL4:
  70:main.c        ****     int idle=0, s=0;
  79              		.loc 1 70 5 is_stmt 1
GAS LISTING C:\Users\Karzan\AppData\Local\Temp\ccZMX4Ct.s 			page 4


  71:main.c        ****     while(1){
  80              		.loc 1 71 5
  81              		.loc 1 84 73 is_stmt 0
  82 0064 370A0000 		lui	s4,%hi(.LC1)
  83              		.loc 1 84 85
  84 0068 83A40900 		lw	s1,%lo(.LC0)(s3)
  85              		.loc 1 84 42
  86 006c 37090000 		lui	s2,%hi(.LC2)
  87              		.loc 1 84 73
  88 0070 032C0A00 		lw	s8,%lo(.LC1)(s4)
  89              		.loc 1 84 42
  90 0074 032B0900 		lw	s6,%lo(.LC2)(s2)
  91              		.loc 1 84 55
  92 0078 A68B     		mv	s7,s1
  85:main.c        ****         /* Draw new line, scaled to the unit circle */
  86:main.c        ****         LCD_DrawLine(160/2, 80/2, (160/2)+(vec.y)/(4096/28), (80/2)+(vec.x/(4096/28)),line_color);
  93              		.loc 1 86 75
  94 007a A68A     		mv	s5,s1
  95              	.L3:
  72:main.c        ****         /* Get accelleration data (Note: Blocking read) puts a force vector with 1G = 4096 into x, 
  96              		.loc 1 72 5 is_stmt 1
  74:main.c        **** 
  97              		.loc 1 74 9
  98 007c 2808     		addi	a0,sp,24
  99 007e 97000000 		call	mpu6500_getAccel
  99      E7800000 
 100              	.LVL5:
  80:main.c        ****         /* Draw a unit circle (1G) */
 101              		.loc 1 80 9
  80:main.c        ****         /* Draw a unit circle (1G) */
 102              		.loc 1 80 20 is_stmt 0
 103 0086 0255     		lw	a0,32(sp)
 104 0088 93050000 		mv	a1,zero
 105 008c 1304007E 		li	s0,2016
 106 0090 97000000 		call	__ltsf2
 106      E7800000 
 107              	.LVL6:
 108 0098 63550500 		bge	a0,zero,.L2
 109 009c 4164     		li	s0,65536
 110 009e 13040480 		addi	s0,s0,-2048
 111              	.L2:
 112              	.LVL7:
  82:main.c        ****         /* Erase last line */
 113              		.loc 1 82 9 is_stmt 1 discriminator 4
 114 00a2 FD46     		li	a3,31
 115 00a4 7146     		li	a2,28
 116 00a6 93058002 		li	a1,40
 117 00aa 13050005 		li	a0,80
 118 00ae 97000000 		call	Draw_Circle
 118      E7800000 
 119              	.LVL8:
  84:main.c        ****         /* Draw new line, scaled to the unit circle */
 120              		.loc 1 84 9 discriminator 4
  84:main.c        ****         /* Draw new line, scaled to the unit circle */
 121              		.loc 1 84 85 is_stmt 0 discriminator 4
 122 00b6 1255     		lw	a0,36(sp)
 123 00b8 A685     		mv	a1,s1
GAS LISTING C:\Users\Karzan\AppData\Local\Temp\ccZMX4Ct.s 			page 5


 124 00ba 97000000 		call	__divsf3
 124      E7800000 
 125              	.LVL9:
  84:main.c        ****         /* Draw new line, scaled to the unit circle */
 126              		.loc 1 84 73 discriminator 4
 127 00c2 E285     		mv	a1,s8
 128 00c4 97000000 		call	__addsf3
 128      E7800000 
 129              	.LVL10:
  84:main.c        ****         /* Draw new line, scaled to the unit circle */
 130              		.loc 1 84 9 discriminator 4
 131 00cc 97000000 		call	__fixunssfsi
 131      E7800000 
 132              	.LVL11:
 133 00d4 2AC6     		sw	a0,12(sp)
  84:main.c        ****         /* Draw new line, scaled to the unit circle */
 134              		.loc 1 84 55 discriminator 4
 135 00d6 2255     		lw	a0,40(sp)
 136 00d8 DE85     		mv	a1,s7
 137 00da 97000000 		call	__divsf3
 137      E7800000 
 138              	.LVL12:
  84:main.c        ****         /* Draw new line, scaled to the unit circle */
 139              		.loc 1 84 42 discriminator 4
 140 00e2 DA85     		mv	a1,s6
 141 00e4 97000000 		call	__addsf3
 141      E7800000 
 142              	.LVL13:
  84:main.c        ****         /* Draw new line, scaled to the unit circle */
 143              		.loc 1 84 9 discriminator 4
 144 00ec 97000000 		call	__fixunssfsi
 144      E7800000 
 145              	.LVL14:
 146 00f4 B246     		lw	a3,12(sp)
 147 00f6 2A86     		mv	a2,a0
 148 00f8 0147     		li	a4,0
 149 00fa 93058002 		li	a1,40
 150 00fe 13050005 		li	a0,80
 151 0102 97000000 		call	LCD_DrawLine
 151      E7800000 
 152              	.LVL15:
 153              		.loc 1 86 9 is_stmt 1 discriminator 4
 154              		.loc 1 86 75 is_stmt 0 discriminator 4
 155 010a 6245     		lw	a0,24(sp)
 156 010c D685     		mv	a1,s5
 157 010e 97000000 		call	__divsf3
 157      E7800000 
 158              	.LVL16:
 159              		.loc 1 86 68 discriminator 4
 160 0116 83250A00 		lw	a1,%lo(.LC1)(s4)
 161 011a 97000000 		call	__addsf3
 161      E7800000 
 162              	.LVL17:
 163              		.loc 1 86 9 discriminator 4
 164 0122 97000000 		call	__fixunssfsi
 164      E7800000 
 165              	.LVL18:
GAS LISTING C:\Users\Karzan\AppData\Local\Temp\ccZMX4Ct.s 			page 6


 166              		.loc 1 86 50 discriminator 4
 167 012a 83A50900 		lw	a1,%lo(.LC0)(s3)
 168              		.loc 1 86 9 discriminator 4
 169 012e 2AC6     		sw	a0,12(sp)
 170              		.loc 1 86 50 discriminator 4
 171 0130 7245     		lw	a0,28(sp)
 172 0132 97000000 		call	__divsf3
 172      E7800000 
 173              	.LVL19:
 174              		.loc 1 86 42 discriminator 4
 175 013a 83250900 		lw	a1,%lo(.LC2)(s2)
 176 013e 97000000 		call	__addsf3
 176      E7800000 
 177              	.LVL20:
 178              		.loc 1 86 9 discriminator 4
 179 0146 97000000 		call	__fixunssfsi
 179      E7800000 
 180              	.LVL21:
 181 014e B246     		lw	a3,12(sp)
 182 0150 2287     		mv	a4,s0
 183 0152 2A86     		mv	a2,a0
 184 0154 93058002 		li	a1,40
 185 0158 13050005 		li	a0,80
 186 015c 97000000 		call	LCD_DrawLine
 186      E7800000 
 187              	.LVL22:
  87:main.c        ****         /* Store the last vector so it can be erased */
  88:main.c        ****         vec_temp = vec;
 188              		.loc 1 88 9 is_stmt 1 discriminator 4
 189              		.loc 1 88 18 is_stmt 0 discriminator 4
 190 0164 3146     		li	a2,12
 191 0166 2C08     		addi	a1,sp,24
 192 0168 4810     		addi	a0,sp,36
 193 016a 97000000 		call	memcpy
 193      E7800000 
 194              	.LVL23:
  89:main.c        ****         /* Wait for LCD to finish drawing */
  90:main.c        ****         LCD_Wait_On_Queue();
 195              		.loc 1 90 9 is_stmt 1 discriminator 4
 196 0172 97000000 		call	LCD_Wait_On_Queue
 196      E7800000 
 197              	.LVL24:
  74:main.c        **** 
 198              		.loc 1 74 9 is_stmt 0 discriminator 4
 199 017a 09B7     		j	.L3
 200              		.cfi_endproc
 201              	.LFE5:
 203              		.section	.rodata.main.cst4,"aM",@progbits,4
 204              		.align	2
 205              	.LC0:
 206 0000 00001243 		.word	1125253120
 207              	.LC1:
 208 0004 00002042 		.word	1109393408
 209              	.LC2:
 210 0008 0000A042 		.word	1117782016
 211              		.text
 212              	.Letext0:
GAS LISTING C:\Users\Karzan\AppData\Local\Temp\ccZMX4Ct.s 			page 7


 213              		.file 2 "c:\\users\\karzan\\downloads\\toolchain-gd32v-v202-win\\toolchain-gd32v-v202-win\\compile
 214              		.file 3 "c:\\users\\karzan\\downloads\\toolchain-gd32v-v202-win\\toolchain-gd32v-v202-win\\compile
 215              		.file 4 "c:\\users\\karzan\\downloads\\toolchain-gd32v-v202-win\\toolchain-gd32v-v202-win\\compile
 216              		.file 5 "c:\\users\\karzan\\downloads\\toolchain-gd32v-v202-win\\toolchain-gd32v-v202-win\\compile
 217              		.file 6 "c:\\users\\karzan\\downloads\\toolchain-gd32v-v202-win\\toolchain-gd32v-v202-win\\compile
 218              		.file 7 "c:\\users\\karzan\\downloads\\toolchain-gd32v-v202-win\\toolchain-gd32v-v202-win\\compile
 219              		.file 8 "./../../firmware/GD32VF103_standard_peripheral/system_gd32vf103.h"
 220              		.file 9 "c:\\users\\karzan\\downloads\\toolchain-gd32v-v202-win\\toolchain-gd32v-v202-win\\compile
 221              		.file 10 "lcd.h"
 222              		.file 11 "mpu6500_driver.h"
 223              		.file 12 "./../../firmware/GD32VF103_standard_peripheral/Include/gd32vf103_rcu.h"
 224              		.file 13 "./../../firmware/GD32VF103_standard_peripheral/Include/gd32vf103_gpio.h"
 225              		.file 14 "gd32v_mpu6500_if.h"
 226              		.file 15 "<built-in>"
GAS LISTING C:\Users\Karzan\AppData\Local\Temp\ccZMX4Ct.s 			page 8


DEFINED SYMBOLS
                            *ABS*:0000000000000000 main.c
C:\Users\Karzan\AppData\Local\Temp\ccZMX4Ct.s:17     .text.startup.main:0000000000000000 main
C:\Users\Karzan\AppData\Local\Temp\ccZMX4Ct.s:21     .text.startup.main:0000000000000000 .L0 
C:\Users\Karzan\AppData\Local\Temp\ccZMX4Ct.s:22     .text.startup.main:0000000000000000 .L0 
C:\Users\Karzan\AppData\Local\Temp\ccZMX4Ct.s:23     .text.startup.main:0000000000000000 .L0 
C:\Users\Karzan\AppData\Local\Temp\ccZMX4Ct.s:24     .text.startup.main:0000000000000000 .L0 
C:\Users\Karzan\AppData\Local\Temp\ccZMX4Ct.s:25     .text.startup.main:0000000000000000 .L0 
C:\Users\Karzan\AppData\Local\Temp\ccZMX4Ct.s:26     .text.startup.main:0000000000000000 .L0 
C:\Users\Karzan\AppData\Local\Temp\ccZMX4Ct.s:28     .text.startup.main:0000000000000002 .L0 
C:\Users\Karzan\AppData\Local\Temp\ccZMX4Ct.s:30     .text.startup.main:0000000000000002 .L0 
C:\Users\Karzan\AppData\Local\Temp\ccZMX4Ct.s:32     .text.startup.main:0000000000000006 .L0 
C:\Users\Karzan\AppData\Local\Temp\ccZMX4Ct.s:42     .text.startup.main:000000000000001a .L0 
C:\Users\Karzan\AppData\Local\Temp\ccZMX4Ct.s:43     .text.startup.main:000000000000001a .L0 
C:\Users\Karzan\AppData\Local\Temp\ccZMX4Ct.s:44     .text.startup.main:000000000000001a .L0 
C:\Users\Karzan\AppData\Local\Temp\ccZMX4Ct.s:45     .text.startup.main:000000000000001a .L0 
C:\Users\Karzan\AppData\Local\Temp\ccZMX4Ct.s:46     .text.startup.main:000000000000001a .L0 
C:\Users\Karzan\AppData\Local\Temp\ccZMX4Ct.s:47     .text.startup.main:000000000000001a .L0 
C:\Users\Karzan\AppData\Local\Temp\ccZMX4Ct.s:48     .text.startup.main:000000000000001a .L0 
C:\Users\Karzan\AppData\Local\Temp\ccZMX4Ct.s:49     .text.startup.main:000000000000001a .L0 
C:\Users\Karzan\AppData\Local\Temp\ccZMX4Ct.s:50     .text.startup.main:000000000000001a .L0 
C:\Users\Karzan\AppData\Local\Temp\ccZMX4Ct.s:51     .text.startup.main:000000000000001a .L0 
C:\Users\Karzan\AppData\Local\Temp\ccZMX4Ct.s:53     .text.startup.main:000000000000001a .L0 
C:\Users\Karzan\AppData\Local\Temp\ccZMX4Ct.s:56     .text.startup.main:0000000000000022 .L0 
C:\Users\Karzan\AppData\Local\Temp\ccZMX4Ct.s:60     .text.startup.main:000000000000002e .L0 
C:\Users\Karzan\AppData\Local\Temp\ccZMX4Ct.s:68     .text.startup.main:0000000000000046 .L0 
C:\Users\Karzan\AppData\Local\Temp\ccZMX4Ct.s:73     .text.startup.main:0000000000000056 .L0 
C:\Users\Karzan\AppData\Local\Temp\ccZMX4Ct.s:75     .text.startup.main:0000000000000058 .L0 
C:\Users\Karzan\AppData\Local\Temp\ccZMX4Ct.s:77     .text.startup.main:000000000000005c .L0 
C:\Users\Karzan\AppData\Local\Temp\ccZMX4Ct.s:80     .text.startup.main:0000000000000064 .L0 
C:\Users\Karzan\AppData\Local\Temp\ccZMX4Ct.s:81     .text.startup.main:0000000000000064 .L0 
C:\Users\Karzan\AppData\Local\Temp\ccZMX4Ct.s:82     .text.startup.main:0000000000000064 .L0 
C:\Users\Karzan\AppData\Local\Temp\ccZMX4Ct.s:84     .text.startup.main:0000000000000068 .L0 
C:\Users\Karzan\AppData\Local\Temp\ccZMX4Ct.s:86     .text.startup.main:000000000000006c .L0 
C:\Users\Karzan\AppData\Local\Temp\ccZMX4Ct.s:88     .text.startup.main:0000000000000070 .L0 
C:\Users\Karzan\AppData\Local\Temp\ccZMX4Ct.s:90     .text.startup.main:0000000000000074 .L0 
C:\Users\Karzan\AppData\Local\Temp\ccZMX4Ct.s:92     .text.startup.main:0000000000000078 .L0 
C:\Users\Karzan\AppData\Local\Temp\ccZMX4Ct.s:94     .text.startup.main:000000000000007a .L0 
C:\Users\Karzan\AppData\Local\Temp\ccZMX4Ct.s:97     .text.startup.main:000000000000007c .L0 
C:\Users\Karzan\AppData\Local\Temp\ccZMX4Ct.s:98     .text.startup.main:000000000000007c .L0 
C:\Users\Karzan\AppData\Local\Temp\ccZMX4Ct.s:102    .text.startup.main:0000000000000086 .L0 
C:\Users\Karzan\AppData\Local\Temp\ccZMX4Ct.s:103    .text.startup.main:0000000000000086 .L0 
C:\Users\Karzan\AppData\Local\Temp\ccZMX4Ct.s:114    .text.startup.main:00000000000000a2 .L0 
C:\Users\Karzan\AppData\Local\Temp\ccZMX4Ct.s:121    .text.startup.main:00000000000000b6 .L0 
C:\Users\Karzan\AppData\Local\Temp\ccZMX4Ct.s:122    .text.startup.main:00000000000000b6 .L0 
C:\Users\Karzan\AppData\Local\Temp\ccZMX4Ct.s:127    .text.startup.main:00000000000000c2 .L0 
C:\Users\Karzan\AppData\Local\Temp\ccZMX4Ct.s:131    .text.startup.main:00000000000000cc .L0 
C:\Users\Karzan\AppData\Local\Temp\ccZMX4Ct.s:135    .text.startup.main:00000000000000d6 .L0 
C:\Users\Karzan\AppData\Local\Temp\ccZMX4Ct.s:140    .text.startup.main:00000000000000e2 .L0 
C:\Users\Karzan\AppData\Local\Temp\ccZMX4Ct.s:144    .text.startup.main:00000000000000ec .L0 
C:\Users\Karzan\AppData\Local\Temp\ccZMX4Ct.s:154    .text.startup.main:000000000000010a .L0 
C:\Users\Karzan\AppData\Local\Temp\ccZMX4Ct.s:155    .text.startup.main:000000000000010a .L0 
C:\Users\Karzan\AppData\Local\Temp\ccZMX4Ct.s:160    .text.startup.main:0000000000000116 .L0 
C:\Users\Karzan\AppData\Local\Temp\ccZMX4Ct.s:164    .text.startup.main:0000000000000122 .L0 
C:\Users\Karzan\AppData\Local\Temp\ccZMX4Ct.s:167    .text.startup.main:000000000000012a .L0 
C:\Users\Karzan\AppData\Local\Temp\ccZMX4Ct.s:169    .text.startup.main:000000000000012e .L0 
C:\Users\Karzan\AppData\Local\Temp\ccZMX4Ct.s:171    .text.startup.main:0000000000000130 .L0 
GAS LISTING C:\Users\Karzan\AppData\Local\Temp\ccZMX4Ct.s 			page 9


C:\Users\Karzan\AppData\Local\Temp\ccZMX4Ct.s:175    .text.startup.main:000000000000013a .L0 
C:\Users\Karzan\AppData\Local\Temp\ccZMX4Ct.s:179    .text.startup.main:0000000000000146 .L0 
C:\Users\Karzan\AppData\Local\Temp\ccZMX4Ct.s:189    .text.startup.main:0000000000000164 .L0 
C:\Users\Karzan\AppData\Local\Temp\ccZMX4Ct.s:190    .text.startup.main:0000000000000164 .L0 
C:\Users\Karzan\AppData\Local\Temp\ccZMX4Ct.s:196    .text.startup.main:0000000000000172 .L0 
C:\Users\Karzan\AppData\Local\Temp\ccZMX4Ct.s:199    .text.startup.main:000000000000017a .L0 
C:\Users\Karzan\AppData\Local\Temp\ccZMX4Ct.s:200    .text.startup.main:000000000000017c .L0 
C:\Users\Karzan\AppData\Local\Temp\ccZMX4Ct.s:203    .text.startup.main:000000000000017c .L0 
                     .debug_frame:0000000000000000 .L0 
C:\Users\Karzan\AppData\Local\Temp\ccZMX4Ct.s:205    .rodata.main.cst4:0000000000000000 .LC0
C:\Users\Karzan\AppData\Local\Temp\ccZMX4Ct.s:207    .rodata.main.cst4:0000000000000004 .LC1
C:\Users\Karzan\AppData\Local\Temp\ccZMX4Ct.s:209    .rodata.main.cst4:0000000000000008 .LC2
C:\Users\Karzan\AppData\Local\Temp\ccZMX4Ct.s:111    .text.startup.main:00000000000000a2 .L2
C:\Users\Karzan\AppData\Local\Temp\ccZMX4Ct.s:95     .text.startup.main:000000000000007c .L3
C:\Users\Karzan\AppData\Local\Temp\ccZMX4Ct.s:2174   .debug_abbrev:0000000000000000 .Ldebug_abbrev0
C:\Users\Karzan\AppData\Local\Temp\ccZMX4Ct.s:3177   .debug_str:0000000000000680 .LASF181
C:\Users\Karzan\AppData\Local\Temp\ccZMX4Ct.s:3019   .debug_str:0000000000000323 .LASF182
C:\Users\Karzan\AppData\Local\Temp\ccZMX4Ct.s:3029   .debug_str:000000000000034c .LASF183
C:\Users\Karzan\AppData\Local\Temp\ccZMX4Ct.s:2847   .debug_ranges:0000000000000000 .Ldebug_ranges0
C:\Users\Karzan\AppData\Local\Temp\ccZMX4Ct.s:2853   .debug_line:0000000000000000 .Ldebug_line0
C:\Users\Karzan\AppData\Local\Temp\ccZMX4Ct.s:3159   .debug_str:0000000000000628 .LASF0
C:\Users\Karzan\AppData\Local\Temp\ccZMX4Ct.s:2917   .debug_str:0000000000000148 .LASF1
C:\Users\Karzan\AppData\Local\Temp\ccZMX4Ct.s:2873   .debug_str:0000000000000052 .LASF4
C:\Users\Karzan\AppData\Local\Temp\ccZMX4Ct.s:3091   .debug_str:00000000000004ef .LASF2
C:\Users\Karzan\AppData\Local\Temp\ccZMX4Ct.s:3165   .debug_str:0000000000000649 .LASF3
C:\Users\Karzan\AppData\Local\Temp\ccZMX4Ct.s:3161   .debug_str:0000000000000635 .LASF5
C:\Users\Karzan\AppData\Local\Temp\ccZMX4Ct.s:3113   .debug_str:0000000000000551 .LASF6
C:\Users\Karzan\AppData\Local\Temp\ccZMX4Ct.s:2935   .debug_str:0000000000000196 .LASF7
C:\Users\Karzan\AppData\Local\Temp\ccZMX4Ct.s:2965   .debug_str:0000000000000228 .LASF8
C:\Users\Karzan\AppData\Local\Temp\ccZMX4Ct.s:2989   .debug_str:0000000000000293 .LASF9
C:\Users\Karzan\AppData\Local\Temp\ccZMX4Ct.s:2947   .debug_str:00000000000001c9 .LASF10
C:\Users\Karzan\AppData\Local\Temp\ccZMX4Ct.s:2889   .debug_str:00000000000000ad .LASF11
C:\Users\Karzan\AppData\Local\Temp\ccZMX4Ct.s:3169   .debug_str:000000000000065b .LASF12
C:\Users\Karzan\AppData\Local\Temp\ccZMX4Ct.s:2949   .debug_str:00000000000001d7 .LASF13
C:\Users\Karzan\AppData\Local\Temp\ccZMX4Ct.s:3193   .debug_str:0000000000000753 .LASF14
C:\Users\Karzan\AppData\Local\Temp\ccZMX4Ct.s:2981   .debug_str:0000000000000267 .LASF161
C:\Users\Karzan\AppData\Local\Temp\ccZMX4Ct.s:2863   .debug_str:0000000000000027 .LASF15
C:\Users\Karzan\AppData\Local\Temp\ccZMX4Ct.s:2919   .debug_str:0000000000000154 .LASF16
C:\Users\Karzan\AppData\Local\Temp\ccZMX4Ct.s:2913   .debug_str:0000000000000139 .LASF17
C:\Users\Karzan\AppData\Local\Temp\ccZMX4Ct.s:3163   .debug_str:0000000000000640 .LASF18
C:\Users\Karzan\AppData\Local\Temp\ccZMX4Ct.s:2945   .debug_str:00000000000001bf .LASF19
C:\Users\Karzan\AppData\Local\Temp\ccZMX4Ct.s:3079   .debug_str:00000000000004ad .LASF20
C:\Users\Karzan\AppData\Local\Temp\ccZMX4Ct.s:3081   .debug_str:00000000000004b8 .LASF21
C:\Users\Karzan\AppData\Local\Temp\ccZMX4Ct.s:3083   .debug_str:00000000000004c3 .LASF22
C:\Users\Karzan\AppData\Local\Temp\ccZMX4Ct.s:3085   .debug_str:00000000000004ce .LASF23
C:\Users\Karzan\AppData\Local\Temp\ccZMX4Ct.s:3087   .debug_str:00000000000004d9 .LASF24
C:\Users\Karzan\AppData\Local\Temp\ccZMX4Ct.s:3089   .debug_str:00000000000004e4 .LASF25
C:\Users\Karzan\AppData\Local\Temp\ccZMX4Ct.s:3175   .debug_str:0000000000000676 .LASF26
C:\Users\Karzan\AppData\Local\Temp\ccZMX4Ct.s:2859   .debug_str:0000000000000015 .LASF27
C:\Users\Karzan\AppData\Local\Temp\ccZMX4Ct.s:2861   .debug_str:000000000000001e .LASF28
C:\Users\Karzan\AppData\Local\Temp\ccZMX4Ct.s:3051   .debug_str:0000000000000432 .LASF29
C:\Users\Karzan\AppData\Local\Temp\ccZMX4Ct.s:3053   .debug_str:000000000000043d .LASF30
C:\Users\Karzan\AppData\Local\Temp\ccZMX4Ct.s:2891   .debug_str:00000000000000c4 .LASF31
C:\Users\Karzan\AppData\Local\Temp\ccZMX4Ct.s:2893   .debug_str:00000000000000ce .LASF32
C:\Users\Karzan\AppData\Local\Temp\ccZMX4Ct.s:3207   .debug_str:0000000000000791 .LASF33
C:\Users\Karzan\AppData\Local\Temp\ccZMX4Ct.s:3141   .debug_str:00000000000005dd .LASF34
C:\Users\Karzan\AppData\Local\Temp\ccZMX4Ct.s:2959   .debug_str:000000000000020f .LASF35
GAS LISTING C:\Users\Karzan\AppData\Local\Temp\ccZMX4Ct.s 			page 10


C:\Users\Karzan\AppData\Local\Temp\ccZMX4Ct.s:2911   .debug_str:0000000000000130 .LASF36
C:\Users\Karzan\AppData\Local\Temp\ccZMX4Ct.s:3147   .debug_str:00000000000005f8 .LASF37
C:\Users\Karzan\AppData\Local\Temp\ccZMX4Ct.s:3189   .debug_str:0000000000000738 .LASF38
C:\Users\Karzan\AppData\Local\Temp\ccZMX4Ct.s:3007   .debug_str:00000000000002ed .LASF39
C:\Users\Karzan\AppData\Local\Temp\ccZMX4Ct.s:2999   .debug_str:00000000000002cd .LASF40
C:\Users\Karzan\AppData\Local\Temp\ccZMX4Ct.s:2871   .debug_str:000000000000004b .LASF41
C:\Users\Karzan\AppData\Local\Temp\ccZMX4Ct.s:2897   .debug_str:00000000000000e1 .LASF42
C:\Users\Karzan\AppData\Local\Temp\ccZMX4Ct.s:2983   .debug_str:0000000000000277 .LASF43
C:\Users\Karzan\AppData\Local\Temp\ccZMX4Ct.s:2985   .debug_str:0000000000000281 .LASF44
C:\Users\Karzan\AppData\Local\Temp\ccZMX4Ct.s:2901   .debug_str:00000000000000f6 .LASF45
C:\Users\Karzan\AppData\Local\Temp\ccZMX4Ct.s:2903   .debug_str:0000000000000100 .LASF46
C:\Users\Karzan\AppData\Local\Temp\ccZMX4Ct.s:2995   .debug_str:00000000000002bb .LASF47
C:\Users\Karzan\AppData\Local\Temp\ccZMX4Ct.s:2997   .debug_str:00000000000002c4 .LASF48
C:\Users\Karzan\AppData\Local\Temp\ccZMX4Ct.s:3077   .debug_str:00000000000004a2 .LASF49
C:\Users\Karzan\AppData\Local\Temp\ccZMX4Ct.s:2857   .debug_str:000000000000000c .LASF50
C:\Users\Karzan\AppData\Local\Temp\ccZMX4Ct.s:3049   .debug_str:0000000000000427 .LASF51
C:\Users\Karzan\AppData\Local\Temp\ccZMX4Ct.s:3149   .debug_str:0000000000000601 .LASF52
C:\Users\Karzan\AppData\Local\Temp\ccZMX4Ct.s:3069   .debug_str:0000000000000486 .LASF53
C:\Users\Karzan\AppData\Local\Temp\ccZMX4Ct.s:2877   .debug_str:0000000000000065 .LASF54
C:\Users\Karzan\AppData\Local\Temp\ccZMX4Ct.s:3145   .debug_str:00000000000005f0 .LASF55
C:\Users\Karzan\AppData\Local\Temp\ccZMX4Ct.s:3201   .debug_str:0000000000000774 .LASF56
C:\Users\Karzan\AppData\Local\Temp\ccZMX4Ct.s:3015   .debug_str:0000000000000316 .LASF57
C:\Users\Karzan\AppData\Local\Temp\ccZMX4Ct.s:2979   .debug_str:0000000000000260 .LASF58
C:\Users\Karzan\AppData\Local\Temp\ccZMX4Ct.s:3135   .debug_str:00000000000005c7 .LASF59
C:\Users\Karzan\AppData\Local\Temp\ccZMX4Ct.s:3137   .debug_str:00000000000005cf .LASF60
C:\Users\Karzan\AppData\Local\Temp\ccZMX4Ct.s:3107   .debug_str:0000000000000535 .LASF61
C:\Users\Karzan\AppData\Local\Temp\ccZMX4Ct.s:3185   .debug_str:0000000000000723 .LASF62
C:\Users\Karzan\AppData\Local\Temp\ccZMX4Ct.s:3039   .debug_str:00000000000003db .LASF63
C:\Users\Karzan\AppData\Local\Temp\ccZMX4Ct.s:3097   .debug_str:000000000000050c .LASF64
C:\Users\Karzan\AppData\Local\Temp\ccZMX4Ct.s:2973   .debug_str:000000000000024d .LASF69
C:\Users\Karzan\AppData\Local\Temp\ccZMX4Ct.s:3171   .debug_str:0000000000000663 .LASF65
C:\Users\Karzan\AppData\Local\Temp\ccZMX4Ct.s:3129   .debug_str:00000000000005b2 .LASF66
C:\Users\Karzan\AppData\Local\Temp\ccZMX4Ct.s:2967   .debug_str:0000000000000233 .LASF67
C:\Users\Karzan\AppData\Local\Temp\ccZMX4Ct.s:3197   .debug_str:0000000000000769 .LASF68
C:\Users\Karzan\AppData\Local\Temp\ccZMX4Ct.s:2977   .debug_str:000000000000025b .LASF70
C:\Users\Karzan\AppData\Local\Temp\ccZMX4Ct.s:2909   .debug_str:0000000000000127 .LASF71
C:\Users\Karzan\AppData\Local\Temp\ccZMX4Ct.s:3217   .debug_str:00000000000007c2 .LASF72
C:\Users\Karzan\AppData\Local\Temp\ccZMX4Ct.s:2925   .debug_str:0000000000000169 .LASF73
C:\Users\Karzan\AppData\Local\Temp\ccZMX4Ct.s:3227   .debug_str:00000000000007e8 .LASF74
C:\Users\Karzan\AppData\Local\Temp\ccZMX4Ct.s:3043   .debug_str:00000000000003ff .LASF75
C:\Users\Karzan\AppData\Local\Temp\ccZMX4Ct.s:3035   .debug_str:00000000000003c8 .LASF76
C:\Users\Karzan\AppData\Local\Temp\ccZMX4Ct.s:3143   .debug_str:00000000000005e6 .LASF77
C:\Users\Karzan\AppData\Local\Temp\ccZMX4Ct.s:3099   .debug_str:0000000000000515 .LASF78
C:\Users\Karzan\AppData\Local\Temp\ccZMX4Ct.s:3213   .debug_str:00000000000007a8 .LASF79
C:\Users\Karzan\AppData\Local\Temp\ccZMX4Ct.s:2929   .debug_str:0000000000000178 .LASF80
C:\Users\Karzan\AppData\Local\Temp\ccZMX4Ct.s:2865   .debug_str:0000000000000030 .LASF81
C:\Users\Karzan\AppData\Local\Temp\ccZMX4Ct.s:2855   .debug_str:0000000000000000 .LASF82
C:\Users\Karzan\AppData\Local\Temp\ccZMX4Ct.s:3179   .debug_str:0000000000000708 .LASF83
C:\Users\Karzan\AppData\Local\Temp\ccZMX4Ct.s:2939   .debug_str:00000000000001a6 .LASF84
C:\Users\Karzan\AppData\Local\Temp\ccZMX4Ct.s:3055   .debug_str:0000000000000448 .LASF85
C:\Users\Karzan\AppData\Local\Temp\ccZMX4Ct.s:3119   .debug_str:0000000000000576 .LASF86
C:\Users\Karzan\AppData\Local\Temp\ccZMX4Ct.s:2963   .debug_str:0000000000000223 .LASF87
C:\Users\Karzan\AppData\Local\Temp\ccZMX4Ct.s:3101   .debug_str:000000000000051f .LASF88
C:\Users\Karzan\AppData\Local\Temp\ccZMX4Ct.s:2923   .debug_str:0000000000000163 .LASF89
C:\Users\Karzan\AppData\Local\Temp\ccZMX4Ct.s:3157   .debug_str:0000000000000622 .LASF90
C:\Users\Karzan\AppData\Local\Temp\ccZMX4Ct.s:3109   .debug_str:0000000000000540 .LASF91
C:\Users\Karzan\AppData\Local\Temp\ccZMX4Ct.s:2937   .debug_str:000000000000019f .LASF92
GAS LISTING C:\Users\Karzan\AppData\Local\Temp\ccZMX4Ct.s 			page 11


C:\Users\Karzan\AppData\Local\Temp\ccZMX4Ct.s:2991   .debug_str:00000000000002a5 .LASF93
C:\Users\Karzan\AppData\Local\Temp\ccZMX4Ct.s:2895   .debug_str:00000000000000d8 .LASF94
C:\Users\Karzan\AppData\Local\Temp\ccZMX4Ct.s:2931   .debug_str:0000000000000186 .LASF95
C:\Users\Karzan\AppData\Local\Temp\ccZMX4Ct.s:2975   .debug_str:0000000000000255 .LASF96
C:\Users\Karzan\AppData\Local\Temp\ccZMX4Ct.s:3033   .debug_str:00000000000003c1 .LASF97
C:\Users\Karzan\AppData\Local\Temp\ccZMX4Ct.s:3139   .debug_str:00000000000005d7 .LASF98
C:\Users\Karzan\AppData\Local\Temp\ccZMX4Ct.s:2915   .debug_str:0000000000000141 .LASF99
C:\Users\Karzan\AppData\Local\Temp\ccZMX4Ct.s:2921   .debug_str:000000000000015d .LASF100
C:\Users\Karzan\AppData\Local\Temp\ccZMX4Ct.s:3209   .debug_str:000000000000079a .LASF101
C:\Users\Karzan\AppData\Local\Temp\ccZMX4Ct.s:3155   .debug_str:0000000000000619 .LASF102
C:\Users\Karzan\AppData\Local\Temp\ccZMX4Ct.s:2953   .debug_str:00000000000001e8 .LASF103
C:\Users\Karzan\AppData\Local\Temp\ccZMX4Ct.s:3001   .debug_str:00000000000002d5 .LASF104
C:\Users\Karzan\AppData\Local\Temp\ccZMX4Ct.s:3025   .debug_str:0000000000000340 .LASF105
C:\Users\Karzan\AppData\Local\Temp\ccZMX4Ct.s:3111   .debug_str:0000000000000548 .LASF106
C:\Users\Karzan\AppData\Local\Temp\ccZMX4Ct.s:3103   .debug_str:0000000000000526 .LASF107
C:\Users\Karzan\AppData\Local\Temp\ccZMX4Ct.s:3131   .debug_str:00000000000005ba .LASF108
C:\Users\Karzan\AppData\Local\Temp\ccZMX4Ct.s:3151   .debug_str:000000000000060d .LASF109
C:\Users\Karzan\AppData\Local\Temp\ccZMX4Ct.s:2941   .debug_str:00000000000001ae .LASF110
C:\Users\Karzan\AppData\Local\Temp\ccZMX4Ct.s:3167   .debug_str:0000000000000653 .LASF111
C:\Users\Karzan\AppData\Local\Temp\ccZMX4Ct.s:2971   .debug_str:0000000000000245 .LASF112
C:\Users\Karzan\AppData\Local\Temp\ccZMX4Ct.s:3117   .debug_str:0000000000000571 .LASF113
C:\Users\Karzan\AppData\Local\Temp\ccZMX4Ct.s:2869   .debug_str:0000000000000040 .LASF114
C:\Users\Karzan\AppData\Local\Temp\ccZMX4Ct.s:3127   .debug_str:0000000000000599 .LASF115
C:\Users\Karzan\AppData\Local\Temp\ccZMX4Ct.s:3123   .debug_str:0000000000000587 .LASF116
C:\Users\Karzan\AppData\Local\Temp\ccZMX4Ct.s:3059   .debug_str:000000000000045a .LASF117
C:\Users\Karzan\AppData\Local\Temp\ccZMX4Ct.s:3125   .debug_str:000000000000058f .LASF118
C:\Users\Karzan\AppData\Local\Temp\ccZMX4Ct.s:3013   .debug_str:000000000000030e .LASF119
C:\Users\Karzan\AppData\Local\Temp\ccZMX4Ct.s:2943   .debug_str:00000000000001b5 .LASF120
C:\Users\Karzan\AppData\Local\Temp\ccZMX4Ct.s:3223   .debug_str:00000000000007de .LASF121
C:\Users\Karzan\AppData\Local\Temp\ccZMX4Ct.s:3075   .debug_str:0000000000000498 .LASF122
C:\Users\Karzan\AppData\Local\Temp\ccZMX4Ct.s:2987   .debug_str:000000000000028b .LASF123
C:\Users\Karzan\AppData\Local\Temp\ccZMX4Ct.s:2951   .debug_str:00000000000001e0 .LASF124
C:\Users\Karzan\AppData\Local\Temp\ccZMX4Ct.s:3021   .debug_str:000000000000032a .LASF125
C:\Users\Karzan\AppData\Local\Temp\ccZMX4Ct.s:2875   .debug_str:000000000000005c .LASF126
C:\Users\Karzan\AppData\Local\Temp\ccZMX4Ct.s:3205   .debug_str:0000000000000787 .LASF127
C:\Users\Karzan\AppData\Local\Temp\ccZMX4Ct.s:2933   .debug_str:000000000000018e .LASF128
C:\Users\Karzan\AppData\Local\Temp\ccZMX4Ct.s:2927   .debug_str:0000000000000173 .LASF129
C:\Users\Karzan\AppData\Local\Temp\ccZMX4Ct.s:3153   .debug_str:0000000000000614 .LASF130
C:\Users\Karzan\AppData\Local\Temp\ccZMX4Ct.s:3105   .debug_str:000000000000052e .LASF131
C:\Users\Karzan\AppData\Local\Temp\ccZMX4Ct.s:3199   .debug_str:000000000000076e .LASF132
C:\Users\Karzan\AppData\Local\Temp\ccZMX4Ct.s:3003   .debug_str:00000000000002db .LASF133
C:\Users\Karzan\AppData\Local\Temp\ccZMX4Ct.s:3093   .debug_str:00000000000004fd .LASF134
C:\Users\Karzan\AppData\Local\Temp\ccZMX4Ct.s:2867   .debug_str:0000000000000038 .LASF135
C:\Users\Karzan\AppData\Local\Temp\ccZMX4Ct.s:3133   .debug_str:00000000000005c1 .LASF136
C:\Users\Karzan\AppData\Local\Temp\ccZMX4Ct.s:3027   .debug_str:0000000000000346 .LASF137
C:\Users\Karzan\AppData\Local\Temp\ccZMX4Ct.s:3183   .debug_str:000000000000071e .LASF138
C:\Users\Karzan\AppData\Local\Temp\ccZMX4Ct.s:3195   .debug_str:000000000000075c .LASF139
C:\Users\Karzan\AppData\Local\Temp\ccZMX4Ct.s:3173   .debug_str:0000000000000669 .LASF140
C:\Users\Karzan\AppData\Local\Temp\ccZMX4Ct.s:3011   .debug_str:0000000000000301 .LASF141
C:\Users\Karzan\AppData\Local\Temp\ccZMX4Ct.s:3215   .debug_str:00000000000007b3 .LASF142
C:\Users\Karzan\AppData\Local\Temp\ccZMX4Ct.s:3061   .debug_str:0000000000000465 .LASF143
C:\Users\Karzan\AppData\Local\Temp\ccZMX4Ct.s:3005   .debug_str:00000000000002e2 .LASF144
C:\Users\Karzan\AppData\Local\Temp\ccZMX4Ct.s:3219   .debug_str:00000000000007cb .LASF145
C:\Users\Karzan\AppData\Local\Temp\ccZMX4Ct.s:3115   .debug_str:0000000000000564 .LASF146
C:\Users\Karzan\AppData\Local\Temp\ccZMX4Ct.s:3221   .debug_str:00000000000007d0 .LASF147
C:\Users\Karzan\AppData\Local\Temp\ccZMX4Ct.s:2907   .debug_str:0000000000000119 .LASF148
C:\Users\Karzan\AppData\Local\Temp\ccZMX4Ct.s:3203   .debug_str:000000000000077d .LASF149
GAS LISTING C:\Users\Karzan\AppData\Local\Temp\ccZMX4Ct.s 			page 12


C:\Users\Karzan\AppData\Local\Temp\ccZMX4Ct.s:3009   .debug_str:00000000000002f5 .LASF150
C:\Users\Karzan\AppData\Local\Temp\ccZMX4Ct.s:3187   .debug_str:000000000000072b .LASF151
C:\Users\Karzan\AppData\Local\Temp\ccZMX4Ct.s:2957   .debug_str:0000000000000201 .LASF152
C:\Users\Karzan\AppData\Local\Temp\ccZMX4Ct.s:2905   .debug_str:000000000000010a .LASF153
C:\Users\Karzan\AppData\Local\Temp\ccZMX4Ct.s:2955   .debug_str:00000000000001f0 .LASF154
C:\Users\Karzan\AppData\Local\Temp\ccZMX4Ct.s:2881   .debug_str:0000000000000079 .LASF155
C:\Users\Karzan\AppData\Local\Temp\ccZMX4Ct.s:2883   .debug_str:0000000000000088 .LASF156
C:\Users\Karzan\AppData\Local\Temp\ccZMX4Ct.s:3095   .debug_str:0000000000000503 .LASF157
C:\Users\Karzan\AppData\Local\Temp\ccZMX4Ct.s:3047   .debug_str:0000000000000420 .LASF158
C:\Users\Karzan\AppData\Local\Temp\ccZMX4Ct.s:3037   .debug_str:00000000000003d2 .LASF159
C:\Users\Karzan\AppData\Local\Temp\ccZMX4Ct.s:3211   .debug_str:00000000000007a0 .LASF160
C:\Users\Karzan\AppData\Local\Temp\ccZMX4Ct.s:2899   .debug_str:00000000000000eb .LASF184
C:\Users\Karzan\AppData\Local\Temp\ccZMX4Ct.s:2969   .debug_str:0000000000000239 .LASF162
C:\Users\Karzan\AppData\Local\Temp\ccZMX4Ct.s:3191   .debug_str:0000000000000740 .LASF163
C:\Users\Karzan\AppData\Local\Temp\ccZMX4Ct.s:3057   .debug_str:0000000000000450 .LASF164
C:\Users\Karzan\AppData\Local\Temp\ccZMX4Ct.s:2887   .debug_str:00000000000000a2 .LASF165
C:\Users\Karzan\AppData\Local\Temp\ccZMX4Ct.s:3073   .debug_str:0000000000000492 .LASF166
C:\Users\Karzan\AppData\Local\Temp\ccZMX4Ct.s:2879   .debug_str:000000000000006c .LASF167
C:\Users\Karzan\AppData\Local\Temp\ccZMX4Ct.s:3225   .debug_str:00000000000007e3 .LASF185
C:\Users\Karzan\AppData\Local\Temp\ccZMX4Ct.s:18     .text.startup.main:0000000000000000 .LFB5
C:\Users\Karzan\AppData\Local\Temp\ccZMX4Ct.s:201    .text.startup.main:000000000000017c .LFE5
C:\Users\Karzan\AppData\Local\Temp\ccZMX4Ct.s:2821   .debug_loc:0000000000000000 .LLST0
C:\Users\Karzan\AppData\Local\Temp\ccZMX4Ct.s:2885   .debug_str:0000000000000099 .LASF168
C:\Users\Karzan\AppData\Local\Temp\ccZMX4Ct.s:2961   .debug_str:0000000000000218 .LASF169
C:\Users\Karzan\AppData\Local\Temp\ccZMX4Ct.s:3063   .debug_str:0000000000000474 .LASF170
C:\Users\Karzan\AppData\Local\Temp\ccZMX4Ct.s:3065   .debug_str:000000000000047a .LASF171
C:\Users\Karzan\AppData\Local\Temp\ccZMX4Ct.s:3067   .debug_str:0000000000000480 .LASF172
C:\Users\Karzan\AppData\Local\Temp\ccZMX4Ct.s:3071   .debug_str:000000000000048d .LASF173
C:\Users\Karzan\AppData\Local\Temp\ccZMX4Ct.s:54     .text.startup.main:0000000000000022 .LVL0
C:\Users\Karzan\AppData\Local\Temp\ccZMX4Ct.s:58     .text.startup.main:000000000000002e .LVL1
C:\Users\Karzan\AppData\Local\Temp\ccZMX4Ct.s:66     .text.startup.main:0000000000000046 .LVL2
C:\Users\Karzan\AppData\Local\Temp\ccZMX4Ct.s:71     .text.startup.main:0000000000000056 .LVL3
C:\Users\Karzan\AppData\Local\Temp\ccZMX4Ct.s:78     .text.startup.main:0000000000000064 .LVL4
C:\Users\Karzan\AppData\Local\Temp\ccZMX4Ct.s:100    .text.startup.main:0000000000000086 .LVL5
C:\Users\Karzan\AppData\Local\Temp\ccZMX4Ct.s:119    .text.startup.main:00000000000000b6 .LVL8
C:\Users\Karzan\AppData\Local\Temp\ccZMX4Ct.s:152    .text.startup.main:000000000000010a .LVL15
C:\Users\Karzan\AppData\Local\Temp\ccZMX4Ct.s:187    .text.startup.main:0000000000000164 .LVL22
C:\Users\Karzan\AppData\Local\Temp\ccZMX4Ct.s:194    .text.startup.main:0000000000000172 .LVL23
C:\Users\Karzan\AppData\Local\Temp\ccZMX4Ct.s:197    .text.startup.main:000000000000017a .LVL24
C:\Users\Karzan\AppData\Local\Temp\ccZMX4Ct.s:3045   .debug_str:0000000000000408 .LASF174
C:\Users\Karzan\AppData\Local\Temp\ccZMX4Ct.s:3229   .debug_str:00000000000007f2 .LASF175
C:\Users\Karzan\AppData\Local\Temp\ccZMX4Ct.s:2993   .debug_str:00000000000002ab .LASF176
C:\Users\Karzan\AppData\Local\Temp\ccZMX4Ct.s:3031   .debug_str:00000000000003b0 .LASF177
C:\Users\Karzan\AppData\Local\Temp\ccZMX4Ct.s:3121   .debug_str:000000000000057b .LASF178
C:\Users\Karzan\AppData\Local\Temp\ccZMX4Ct.s:3181   .debug_str:0000000000000711 .LASF179
C:\Users\Karzan\AppData\Local\Temp\ccZMX4Ct.s:3017   .debug_str:000000000000031c .LASF186
C:\Users\Karzan\AppData\Local\Temp\ccZMX4Ct.s:3023   .debug_str:000000000000032f .LASF187
C:\Users\Karzan\AppData\Local\Temp\ccZMX4Ct.s:3041   .debug_str:00000000000003ed .LASF180
C:\Users\Karzan\AppData\Local\Temp\ccZMX4Ct.s:27     .text.startup.main:0000000000000002 .LCFI0
C:\Users\Karzan\AppData\Local\Temp\ccZMX4Ct.s:228    .debug_info:0000000000000000 .Ldebug_info0

UNDEFINED SYMBOLS
__ltsf2
__divsf3
__addsf3
__fixunssfsi
rcu_periph_clock_enable
GAS LISTING C:\Users\Karzan\AppData\Local\Temp\ccZMX4Ct.s 			page 13


gpio_init
mpu6500_install
mpu6500_getAccel
Draw_Circle
LCD_DrawLine
memcpy
LCD_Wait_On_Queue
