GAS LISTING C:\Users\Karzan\AppData\Local\Temp\ccinAOuN.s 			page 1


   1              		.file	"main.c"
   2              		.option nopic
   3              		.attribute arch, "rv32i2p0_m2p0_a2p0_c2p0"
   4              		.attribute unaligned_access, 0
   5              		.attribute stack_align, 16
   6              		.text
   7              	.Ltext0:
   8              		.cfi_sections	.debug_frame
   9              		.globl	__ltsf2
  10              		.globl	__divsf3
  11              		.globl	__addsf3
  12              		.globl	__fixunssfsi
  13              		.globl	__fixsfsi
  14              		.globl	__floatsisf
  15              		.globl	__gesf2
  16              		.globl	__lesf2
  17              		.section	.text.startup.main,"ax",@progbits
  18              		.align	1
  19              		.globl	main
  21              	main:
  22              	.LFB5:
  23              		.file 1 "main.c"
   1:main.c        **** /*!
   2:main.c        ****     \file  main.c
   3:main.c        ****     \brief USB CDC ACM device
   4:main.c        **** 
   5:main.c        ****     \version 2019-6-5, V1.0.0, demo for GD32VF103
   6:main.c        **** */
   7:main.c        **** 
   8:main.c        **** /*
   9:main.c        ****     Copyright (c) 2019, GigaDevice Semiconductor Inc.
  10:main.c        **** 
  11:main.c        ****     Redistribution and use in source and binary forms, with or without modification, 
  12:main.c        **** are permitted provided that the following conditions are met:
  13:main.c        **** 
  14:main.c        ****     1. Redistributions of source code must retain the above copyright notice, this 
  15:main.c        ****        list of conditions and the following disclaimer.
  16:main.c        ****     2. Redistributions in binary form must reproduce the above copyright notice, 
  17:main.c        ****        this list of conditions and the following disclaimer in the documentation 
  18:main.c        ****        and/or other materials provided with the distribution.
  19:main.c        ****     3. Neither the name of the copyright holder nor the names of its contributors 
  20:main.c        ****        may be used to endorse or promote products derived from this software without 
  21:main.c        ****        specific prior written permission.
  22:main.c        **** 
  23:main.c        ****     THIS SOFTWARE IS PROVIDED BY THE COPYRIGHT HOLDERS AND CONTRIBUTORS "AS IS" 
  24:main.c        **** AND ANY EXPRESS OR IMPLIED WARRANTIES, INCLUDING, BUT NOT LIMITED TO, THE IMPLIED 
  25:main.c        **** WARRANTIES OF MERCHANTABILITY AND FITNESS FOR A PARTICULAR PURPOSE ARE DISCLAIMED. 
  26:main.c        **** IN NO EVENT SHALL THE COPYRIGHT HOLDER OR CONTRIBUTORS BE LIABLE FOR ANY DIRECT, 
  27:main.c        **** INDIRECT, INCIDENTAL, SPECIAL, EXEMPLARY, OR CONSEQUENTIAL DAMAGES (INCLUDING, BUT 
  28:main.c        **** NOT LIMITED TO, PROCUREMENT OF SUBSTITUTE GOODS OR SERVICES; LOSS OF USE, DATA, OR 
  29:main.c        **** PROFITS; OR BUSINESS INTERRUPTION) HOWEVER CAUSED AND ON ANY THEORY OF LIABILITY, 
  30:main.c        **** WHETHER IN CONTRACT, STRICT LIABILITY, OR TORT (INCLUDING NEGLIGENCE OR OTHERWISE) 
  31:main.c        **** ARISING IN ANY WAY OUT OF THE USE OF THIS SOFTWARE, EVEN IF ADVISED OF THE POSSIBILITY 
  32:main.c        **** OF SUCH DAMAGE.
  33:main.c        **** */
  34:main.c        **** 
  35:main.c        **** 
GAS LISTING C:\Users\Karzan\AppData\Local\Temp\ccinAOuN.s 			page 2


  36:main.c        **** #include "gd32vf103.h"
  37:main.c        **** #include "drivers.h"
  38:main.c        **** #include "lcd.h"
  39:main.c        **** #include "library/delay/include/delay.h"
  40:main.c        **** #include "gd32v_mpu6500_if.h"
  41:main.c        **** 
  42:main.c        **** #define GRAPH_HEIGHT    30
  43:main.c        **** 
  44:main.c        **** 
  45:main.c        **** int main(void)
  46:main.c        **** {
  24              		.loc 1 46 1
  25              		.cfi_startproc
  47:main.c        ****     /* The related data structure for the IMU, contains a vector of x, y, z floats*/
  48:main.c        ****     mpu_vector_t vec, vec_temp;
  26              		.loc 1 48 5
  49:main.c        ****     /* for lcd */
  50:main.c        ****     uint16_t line_color;
  27              		.loc 1 50 5
  51:main.c        **** 
  52:main.c        ****     /* Initialize pins for I2C */
  53:main.c        ****     rcu_periph_clock_enable(RCU_GPIOB);
  28              		.loc 1 53 5
  46:main.c        ****     /* The related data structure for the IMU, contains a vector of x, y, z floats*/
  29              		.loc 1 46 1 is_stmt 0
  30 0000 1D71     		addi	sp,sp,-96
  31              	.LCFI0:
  32              		.cfi_def_cfa_offset 96
  33              		.loc 1 53 5
  34 0002 13053060 		li	a0,1539
  46:main.c        ****     /* The related data structure for the IMU, contains a vector of x, y, z floats*/
  35              		.loc 1 46 1
  36 0006 86CE     		sw	ra,92(sp)
  37 0008 A2CC     		sw	s0,88(sp)
  38 000a A6CA     		sw	s1,84(sp)
  39 000c CAC8     		sw	s2,80(sp)
  40 000e CEC6     		sw	s3,76(sp)
  41 0010 D2C4     		sw	s4,72(sp)
  42 0012 D6C2     		sw	s5,68(sp)
  43 0014 DAC0     		sw	s6,64(sp)
  44 0016 5EDE     		sw	s7,60(sp)
  45 0018 62DC     		sw	s8,56(sp)
  46 001a 66DA     		sw	s9,52(sp)
  47 001c 6AD8     		sw	s10,48(sp)
  48              		.cfi_offset 1, -4
  49              		.cfi_offset 8, -8
  50              		.cfi_offset 9, -12
  51              		.cfi_offset 18, -16
  52              		.cfi_offset 19, -20
  53              		.cfi_offset 20, -24
  54              		.cfi_offset 21, -28
  55              		.cfi_offset 22, -32
  56              		.cfi_offset 23, -36
  57              		.cfi_offset 24, -40
  58              		.cfi_offset 25, -44
  59              		.cfi_offset 26, -48
  60              		.loc 1 53 5
GAS LISTING C:\Users\Karzan\AppData\Local\Temp\ccinAOuN.s 			page 3


  61 001e 97000000 		call	rcu_periph_clock_enable
  61      E7800000 
  62              	.LVL0:
  54:main.c        ****     rcu_periph_clock_enable(RCU_I2C0);
  63              		.loc 1 54 5 is_stmt 1
  64 0026 13055071 		li	a0,1813
  65 002a 97000000 		call	rcu_periph_clock_enable
  65      E7800000 
  66              	.LVL1:
  55:main.c        ****     gpio_init(GPIOB, GPIO_MODE_AF_OD, GPIO_OSPEED_50MHZ, GPIO_PIN_6 | GPIO_PIN_7);
  67              		.loc 1 55 5
  68 0032 37150140 		li	a0,1073811456
  69 0036 9306000C 		li	a3,192
  70 003a 0D46     		li	a2,3
  71 003c F145     		li	a1,28
  72 003e 130505C0 		addi	a0,a0,-1024
  73 0042 97000000 		call	gpio_init
  73      E7800000 
  74              	.LVL2:
  56:main.c        ****     /* Initialize the IMU (Notice that MPU6500 is referenced, this is due to the fact that ICM-2060
  57:main.c        ****        ICM-20600 is mostly register compatible with MPU6500, if MPU6500 is used only thing that nee
  58:main.c        ****        to change is MPU6500_WHO_AM_I_ID from 0x11 to 0x70. */
  59:main.c        ****     mpu6500_install(I2C0);
  75              		.loc 1 59 5
  76 004a 37550040 		li	a0,1073762304
  77 004e 13050540 		addi	a0,a0,1024
  78 0052 97000000 		call	mpu6500_install
  78      E7800000 
  79              	.LVL3:
  60:main.c        ****     
  61:main.c        ****     /* Initialize LCD */
  62:main.c        ****     Lcd_SetType(LCD_INVERTED);
  80              		.loc 1 62 5
  81 005a 0545     		li	a0,1
  82 005c 97000000 		call	Lcd_SetType
  82      E7800000 
  83              	.LVL4:
  63:main.c        ****     Lcd_Init();
  84              		.loc 1 63 5
  85 0064 97000000 		call	Lcd_Init
  85      E7800000 
  86              	.LVL5:
  64:main.c        ****     LCD_Clear(BLACK);
  87              		.loc 1 64 5
  88 006c 0145     		li	a0,0
  89 006e 97000000 		call	LCD_Clear
  89      E7800000 
  90              	.LVL6:
  65:main.c        ****     
  66:main.c        ****     t5omsi();                                 // Initialize timer5 1kHz
  91              		.loc 1 66 5
  92 0076 97000000 		call	t5omsi
  92      E7800000 
  93              	.LVL7:
  67:main.c        **** 
  68:main.c        ****     mpu6500_getAccel(&vec_temp);
  94              		.loc 1 68 5
GAS LISTING C:\Users\Karzan\AppData\Local\Temp\ccinAOuN.s 			page 4


  95 007e 4810     		addi	a0,sp,36
  69:main.c        ****     int s=0;
  70:main.c        ****     float abs_x, abs_y, abs_z;
  71:main.c        ****     while(1){
  72:main.c        ****         /* Get accelleration data (Note: Blocking read) puts a force vector with 1G = 4096 into x, 
  73:main.c        ****         mpu6500_getAccel(&vec);
  74:main.c        **** 
  75:main.c        ****         /* Do some fancy math to make a nice display */
  76:main.c        **** 
  77:main.c        ****         /* Green if pointing up, red if down */
  78:main.c        ****         line_color = (vec.z < 0) ? RED : GREEN;
  79:main.c        ****         /* Draw a unit circle (1G) */
  80:main.c        ****         Draw_Circle(160/2, 80/2, 28, BLUE);
  81:main.c        ****         /* Erase last line */
  82:main.c        ****         LCD_DrawLine(160/2, 80/2, (160/2)+(vec_temp.y)/(4096/28), (80/2)+(vec_temp.x/(4096/28)),BLA
  96              		.loc 1 82 85 is_stmt 0
  97 0080 37090000 		lui	s2,%hi(.LC0)
  68:main.c        ****     int s=0;
  98              		.loc 1 68 5
  99 0084 97000000 		call	mpu6500_getAccel
  99      E7800000 
 100              	.LVL8:
  69:main.c        ****     int s=0;
 101              		.loc 1 69 5 is_stmt 1
 102              		.loc 1 82 73 is_stmt 0
 103 008c B7090000 		lui	s3,%hi(.LC1)
 104              		.loc 1 82 85
 105 0090 83240900 		lw	s1,%lo(.LC0)(s2)
 106              		.loc 1 82 42
 107 0094 370A0000 		lui	s4,%hi(.LC2)
 108              		.loc 1 82 73
 109 0098 83AA0900 		lw	s5,%lo(.LC1)(s3)
 110              		.loc 1 82 42
 111 009c 832B0A00 		lw	s7,%lo(.LC2)(s4)
  69:main.c        ****     int s=0;
 112              		.loc 1 69 9
 113 00a0 0144     		li	s0,0
 114              		.loc 1 82 55
 115 00a2 268B     		mv	s6,s1
  83:main.c        ****         /* Draw new line, scaled to the unit circle */
  84:main.c        ****         LCD_DrawLine(160/2, 80/2, (160/2)+(vec.y)/(4096/28), (80/2)+(vec.x/(4096/28)),line_color);
 116              		.loc 1 84 75
 117 00a4 268C     		mv	s8,s1
 118              	.LVL9:
 119              	.L2:
  70:main.c        ****     while(1){
 120              		.loc 1 70 5 is_stmt 1
  71:main.c        ****         /* Get accelleration data (Note: Blocking read) puts a force vector with 1G = 4096 into x, 
 121              		.loc 1 71 5
  73:main.c        **** 
 122              		.loc 1 73 9
 123 00a6 2808     		addi	a0,sp,24
 124 00a8 97000000 		call	mpu6500_getAccel
 124      E7800000 
 125              	.LVL10:
  78:main.c        ****         /* Draw a unit circle (1G) */
 126              		.loc 1 78 9
GAS LISTING C:\Users\Karzan\AppData\Local\Temp\ccinAOuN.s 			page 5


  78:main.c        ****         /* Draw a unit circle (1G) */
 127              		.loc 1 78 20 is_stmt 0
 128 00b0 0255     		lw	a0,32(sp)
 129 00b2 93050000 		mv	a1,zero
 130 00b6 930C007E 		li	s9,2016
 131 00ba 97000000 		call	__ltsf2
 131      E7800000 
 132              	.LVL11:
 133 00c2 63550500 		bge	a0,zero,.L3
 134 00c6 C16C     		li	s9,65536
 135 00c8 938C0C80 		addi	s9,s9,-2048
 136              	.L3:
 137              	.LVL12:
  80:main.c        ****         /* Erase last line */
 138              		.loc 1 80 9 is_stmt 1 discriminator 4
 139 00cc FD46     		li	a3,31
 140 00ce 7146     		li	a2,28
 141 00d0 93058002 		li	a1,40
 142 00d4 13050005 		li	a0,80
 143 00d8 97000000 		call	Draw_Circle
 143      E7800000 
 144              	.LVL13:
  82:main.c        ****         /* Draw new line, scaled to the unit circle */
 145              		.loc 1 82 9 discriminator 4
  82:main.c        ****         /* Draw new line, scaled to the unit circle */
 146              		.loc 1 82 85 is_stmt 0 discriminator 4
 147 00e0 1255     		lw	a0,36(sp)
 148 00e2 A685     		mv	a1,s1
 149 00e4 97000000 		call	__divsf3
 149      E7800000 
 150              	.LVL14:
  82:main.c        ****         /* Draw new line, scaled to the unit circle */
 151              		.loc 1 82 73 discriminator 4
 152 00ec D685     		mv	a1,s5
 153 00ee 97000000 		call	__addsf3
 153      E7800000 
 154              	.LVL15:
  82:main.c        ****         /* Draw new line, scaled to the unit circle */
 155              		.loc 1 82 9 discriminator 4
 156 00f6 97000000 		call	__fixunssfsi
 156      E7800000 
 157              	.LVL16:
 158 00fe 2AC6     		sw	a0,12(sp)
  82:main.c        ****         /* Draw new line, scaled to the unit circle */
 159              		.loc 1 82 55 discriminator 4
 160 0100 2255     		lw	a0,40(sp)
 161 0102 DA85     		mv	a1,s6
 162 0104 97000000 		call	__divsf3
 162      E7800000 
 163              	.LVL17:
  82:main.c        ****         /* Draw new line, scaled to the unit circle */
 164              		.loc 1 82 42 discriminator 4
 165 010c DE85     		mv	a1,s7
 166 010e 97000000 		call	__addsf3
 166      E7800000 
 167              	.LVL18:
  82:main.c        ****         /* Draw new line, scaled to the unit circle */
GAS LISTING C:\Users\Karzan\AppData\Local\Temp\ccinAOuN.s 			page 6


 168              		.loc 1 82 9 discriminator 4
 169 0116 97000000 		call	__fixunssfsi
 169      E7800000 
 170              	.LVL19:
 171 011e B246     		lw	a3,12(sp)
 172 0120 2A86     		mv	a2,a0
 173 0122 0147     		li	a4,0
 174 0124 93058002 		li	a1,40
 175 0128 13050005 		li	a0,80
 176 012c 97000000 		call	LCD_DrawLine
 176      E7800000 
 177              	.LVL20:
 178              		.loc 1 84 9 is_stmt 1 discriminator 4
 179              		.loc 1 84 75 is_stmt 0 discriminator 4
 180 0134 6245     		lw	a0,24(sp)
 181 0136 E285     		mv	a1,s8
 182 0138 97000000 		call	__divsf3
 182      E7800000 
 183              	.LVL21:
 184              		.loc 1 84 68 discriminator 4
 185 0140 83A50900 		lw	a1,%lo(.LC1)(s3)
 186 0144 97000000 		call	__addsf3
 186      E7800000 
 187              	.LVL22:
 188              		.loc 1 84 9 discriminator 4
 189 014c 97000000 		call	__fixunssfsi
 189      E7800000 
 190              	.LVL23:
 191              		.loc 1 84 50 discriminator 4
 192 0154 83250900 		lw	a1,%lo(.LC0)(s2)
 193              		.loc 1 84 9 discriminator 4
 194 0158 2AC6     		sw	a0,12(sp)
 195              		.loc 1 84 50 discriminator 4
 196 015a 7245     		lw	a0,28(sp)
 197 015c 97000000 		call	__divsf3
 197      E7800000 
 198              	.LVL24:
 199              		.loc 1 84 42 discriminator 4
 200 0164 83250A00 		lw	a1,%lo(.LC2)(s4)
 201 0168 97000000 		call	__addsf3
 201      E7800000 
 202              	.LVL25:
 203              		.loc 1 84 9 discriminator 4
 204 0170 97000000 		call	__fixunssfsi
 204      E7800000 
 205              	.LVL26:
 206 0178 B246     		lw	a3,12(sp)
 207 017a 6687     		mv	a4,s9
 208 017c 2A86     		mv	a2,a0
 209 017e 93058002 		li	a1,40
 210 0182 13050005 		li	a0,80
 211 0186 97000000 		call	LCD_DrawLine
 211      E7800000 
 212              	.LVL27:
  85:main.c        ****         /* Store the last vector so it can be erased */
  86:main.c        ****         vec_temp = vec;
 213              		.loc 1 86 9 is_stmt 1 discriminator 4
GAS LISTING C:\Users\Karzan\AppData\Local\Temp\ccinAOuN.s 			page 7


 214              		.loc 1 86 18 is_stmt 0 discriminator 4
 215 018e 3146     		li	a2,12
 216 0190 2C08     		addi	a1,sp,24
 217 0192 4810     		addi	a0,sp,36
 218 0194 97000000 		call	memcpy
 218      E7800000 
 219              	.LVL28:
  87:main.c        ****         /* Wait for LCD to finish drawing */
  88:main.c        ****         LCD_Wait_On_Queue();
 220              		.loc 1 88 9 is_stmt 1 discriminator 4
 221 019c 97000000 		call	LCD_Wait_On_Queue
 221      E7800000 
 222              	.LVL29:
  89:main.c        **** 
  90:main.c        ****         if (t5expq()){
 223              		.loc 1 90 9 discriminator 4
 224              		.loc 1 90 13 is_stmt 0 discriminator 4
 225 01a4 97000000 		call	t5expq
 225      E7800000 
 226              	.LVL30:
 227              		.loc 1 90 12 discriminator 4
 228 01ac E30D05EE 		beq	a0,zero,.L2
 229 01b0 0504     		addi	s0,s0,1
 230              	.LVL31:
  91:main.c        ****             s++;
 231              		.loc 1 91 13 is_stmt 1
  92:main.c        ****             if (s==10){
 232              		.loc 1 92 13
 233              		.loc 1 92 16 is_stmt 0
 234 01b2 A947     		li	a5,10
 235 01b4 E319F4EE 		bne	s0,a5,.L2
  93:main.c        ****                 abs_x=abs(vec.x);
 236              		.loc 1 93 17 is_stmt 1
 237              		.loc 1 93 23 is_stmt 0
 238 01b8 6245     		lw	a0,24(sp)
 239 01ba 97000000 		call	__fixsfsi
 239      E7800000 
 240              	.LVL32:
 241 01c2 9357F541 		srai	a5,a0,31
 242 01c6 3D8D     		xor	a0,a5,a0
 243              		.loc 1 93 22
 244 01c8 1D8D     		sub	a0,a0,a5
 245 01ca 97000000 		call	__floatsisf
 245      E7800000 
 246              	.LVL33:
 247 01d2 2A84     		mv	s0,a0
 248              	.LVL34:
  94:main.c        ****                 abs_y=abs(vec.y);
 249              		.loc 1 94 17 is_stmt 1
 250              		.loc 1 94 23 is_stmt 0
 251 01d4 7245     		lw	a0,28(sp)
 252 01d6 97000000 		call	__fixsfsi
 252      E7800000 
 253              	.LVL35:
 254 01de 9357F541 		srai	a5,a0,31
 255 01e2 3D8D     		xor	a0,a5,a0
 256              		.loc 1 94 22
GAS LISTING C:\Users\Karzan\AppData\Local\Temp\ccinAOuN.s 			page 8


 257 01e4 1D8D     		sub	a0,a0,a5
 258 01e6 97000000 		call	__floatsisf
 258      E7800000 
 259              	.LVL36:
 260 01ee AA8C     		mv	s9,a0
 261              	.LVL37:
  95:main.c        ****                 abs_z=abs(vec.z);
 262              		.loc 1 95 17 is_stmt 1
 263              		.loc 1 95 23 is_stmt 0
 264 01f0 0255     		lw	a0,32(sp)
 265              	.LVL38:
 266 01f2 97000000 		call	__fixsfsi
 266      E7800000 
 267              	.LVL39:
 268 01fa 9357F541 		srai	a5,a0,31
 269 01fe 3D8D     		xor	a0,a5,a0
 270              		.loc 1 95 22
 271 0200 1D8D     		sub	a0,a0,a5
 272 0202 97000000 		call	__floatsisf
 272      E7800000 
 273              	.LVL40:
 274 020a 2A8D     		mv	s10,a0
 275              	.LVL41:
  96:main.c        ****                 if (abs_x >= abs_y && abs_x >= abs_z) LCD_ShowString(10, 10, "x prio", WHITE);
 276              		.loc 1 96 17 is_stmt 1
 277              		.loc 1 96 20 is_stmt 0
 278 020c E685     		mv	a1,s9
 279 020e 2285     		mv	a0,s0
 280              	.LVL42:
 281 0210 97000000 		call	__gesf2
 281      E7800000 
 282              	.LVL43:
 283 0218 63480502 		blt	a0,zero,.L5
 284              		.loc 1 96 36 discriminator 1
 285 021c EA85     		mv	a1,s10
 286 021e 2285     		mv	a0,s0
 287 0220 97000000 		call	__gesf2
 287      E7800000 
 288              	.LVL44:
 289 0228 63400502 		blt	a0,zero,.L5
 290              		.loc 1 96 55 is_stmt 1 discriminator 2
 291 022c C166     		li	a3,65536
 292 022e 37060000 		lui	a2,%hi(.LC3)
 293 0232 FD16     		addi	a3,a3,-1
 294 0234 13060600 		addi	a2,a2,%lo(.LC3)
 295              	.L20:
  97:main.c        ****                 else if (abs_y >= abs_x && abs_y >= abs_z) LCD_ShowString(10, 10, "y prio", WHITE);
  98:main.c        ****                 else LCD_ShowString(10, 10, "z prio", WHITE);
 296              		.loc 1 98 22 is_stmt 0
 297 0238 A945     		li	a1,10
 298 023a 2945     		li	a0,10
 299 023c 97000000 		call	LCD_ShowString
 299      E7800000 
 300              	.LVL45:
  99:main.c        ****                 s=0;
 301              		.loc 1 99 18
 302 0244 0144     		li	s0,0
GAS LISTING C:\Users\Karzan\AppData\Local\Temp\ccinAOuN.s 			page 9


 303              	.LVL46:
 304 0246 85B5     		j	.L2
 305              	.LVL47:
 306              	.L5:
  97:main.c        ****                 else if (abs_y >= abs_x && abs_y >= abs_z) LCD_ShowString(10, 10, "y prio", WHITE);
 307              		.loc 1 97 22 is_stmt 1
  97:main.c        ****                 else if (abs_y >= abs_x && abs_y >= abs_z) LCD_ShowString(10, 10, "y prio", WHITE);
 308              		.loc 1 97 25 is_stmt 0
 309 0248 E685     		mv	a1,s9
 310 024a 2285     		mv	a0,s0
 311 024c 97000000 		call	__lesf2
 311      E7800000 
 312              	.LVL48:
 313 0254 6341A002 		bgt	a0,zero,.L8
  97:main.c        ****                 else if (abs_y >= abs_x && abs_y >= abs_z) LCD_ShowString(10, 10, "y prio", WHITE);
 314              		.loc 1 97 41 discriminator 1
 315 0258 EA85     		mv	a1,s10
 316 025a 6685     		mv	a0,s9
 317 025c 97000000 		call	__gesf2
 317      E7800000 
 318              	.LVL49:
 319 0264 63490500 		blt	a0,zero,.L8
  97:main.c        ****                 else if (abs_y >= abs_x && abs_y >= abs_z) LCD_ShowString(10, 10, "y prio", WHITE);
 320              		.loc 1 97 60 is_stmt 1 discriminator 2
 321 0268 C166     		li	a3,65536
 322 026a 37060000 		lui	a2,%hi(.LC4)
 323 026e FD16     		addi	a3,a3,-1
 324 0270 13060600 		addi	a2,a2,%lo(.LC4)
 325 0274 D1B7     		j	.L20
 326              	.L8:
  98:main.c        ****                 s=0;
 327              		.loc 1 98 22
 328 0276 C166     		li	a3,65536
 329 0278 37060000 		lui	a2,%hi(.LC5)
 330 027c FD16     		addi	a3,a3,-1
 331 027e 13060600 		addi	a2,a2,%lo(.LC5)
 332 0282 5DBF     		j	.L20
 333              		.cfi_endproc
 334              	.LFE5:
 336              		.section	.rodata.main.cst4,"aM",@progbits,4
 337              		.align	2
 338              	.LC0:
 339 0000 00001243 		.word	1125253120
 340              	.LC1:
 341 0004 00002042 		.word	1109393408
 342              	.LC2:
 343 0008 0000A042 		.word	1117782016
 344              		.section	.rodata.main.str1.4,"aMS",@progbits,1
 345              		.align	2
 346              	.LC3:
 347 0000 78207072 		.string	"x prio"
 347      696F00
 348 0007 00       		.zero	1
 349              	.LC4:
 350 0008 79207072 		.string	"y prio"
 350      696F00
 351 000f 00       		.zero	1
GAS LISTING C:\Users\Karzan\AppData\Local\Temp\ccinAOuN.s 			page 10


 352              	.LC5:
 353 0010 7A207072 		.string	"z prio"
 353      696F00
 354              		.text
 355              	.Letext0:
 356              		.file 2 "c:\\users\\karzan\\downloads\\toolchain-gd32v-v202-win\\toolchain-gd32v-v202-win\\compile
 357              		.file 3 "c:\\users\\karzan\\downloads\\toolchain-gd32v-v202-win\\toolchain-gd32v-v202-win\\compile
 358              		.file 4 "c:\\users\\karzan\\downloads\\toolchain-gd32v-v202-win\\toolchain-gd32v-v202-win\\compile
 359              		.file 5 "c:\\users\\karzan\\downloads\\toolchain-gd32v-v202-win\\toolchain-gd32v-v202-win\\compile
 360              		.file 6 "c:\\users\\karzan\\downloads\\toolchain-gd32v-v202-win\\toolchain-gd32v-v202-win\\compile
 361              		.file 7 "c:\\users\\karzan\\downloads\\toolchain-gd32v-v202-win\\toolchain-gd32v-v202-win\\compile
 362              		.file 8 "./../../firmware/GD32VF103_standard_peripheral/system_gd32vf103.h"
 363              		.file 9 "c:\\users\\karzan\\downloads\\toolchain-gd32v-v202-win\\toolchain-gd32v-v202-win\\compile
 364              		.file 10 "lcd.h"
 365              		.file 11 "mpu6500_driver.h"
 366              		.file 12 "./../../firmware/GD32VF103_standard_peripheral/Include/gd32vf103_rcu.h"
 367              		.file 13 "./../../firmware/GD32VF103_standard_peripheral/Include/gd32vf103_gpio.h"
 368              		.file 14 "gd32v_mpu6500_if.h"
 369              		.file 15 "drivers.h"
 370              		.file 16 "<built-in>"
GAS LISTING C:\Users\Karzan\AppData\Local\Temp\ccinAOuN.s 			page 11

