GAS LISTING C:\Users\Karzan\AppData\Local\Temp\ccJPv6HS.s 			page 1


   1              		.file	"mpu6500_driver.c"
   2              		.option nopic
   3              		.attribute arch, "rv32i2p0_m2p0_a2p0_c2p0"
   4              		.attribute unaligned_access, 0
   5              		.attribute stack_align, 16
   6              		.text
   7              	.Ltext0:
   8              		.cfi_sections	.debug_frame
   9              		.section	.text.read_mpu,"ax",@progbits
  10              		.align	1
  11              		.globl	read_mpu
  13              	read_mpu:
  14              	.LFB3:
  15              		.file 1 "mpu6500_driver.c"
   1:mpu6500_driver.c **** #include "mpu6500_driver.h"
   2:mpu6500_driver.c **** #include "stdint.h"
   3:mpu6500_driver.c **** 
   4:mpu6500_driver.c **** typedef struct{
   5:mpu6500_driver.c **** 	void (*read)(void* pHandle, uint8_t addr, uint8_t reg, uint8_t size, uint8_t* pData);
   6:mpu6500_driver.c **** 	void (*write)(void* pHandle, uint8_t addr, uint8_t reg, uint8_t size, uint8_t* pData);
   7:mpu6500_driver.c **** 	void (*delay)(int millis);
   8:mpu6500_driver.c **** 	void* pHandle;
   9:mpu6500_driver.c **** }mpu6500_comms_t;
  10:mpu6500_driver.c **** 
  11:mpu6500_driver.c **** mpu6500_comms_t cb;
  12:mpu6500_driver.c **** 
  13:mpu6500_driver.c **** void read_mpu(uint8_t reg, uint8_t size, uint8_t* data){
  16              		.loc 1 13 56
  17              		.cfi_startproc
  18              	.LVL0:
  14:mpu6500_driver.c **** 	cb.read(cb.pHandle, MPU6500_ADDR, reg, size, data);
  19              		.loc 1 14 2
  20 0000 B7070000 		lui	a5,%hi(cb)
  21 0004 93870700 		addi	a5,a5,%lo(cb)
  22 0008 3287     		mv	a4,a2
  23 000a 03A30700 		lw	t1,0(a5)
  24 000e 2A86     		mv	a2,a0
  25              	.LVL1:
  26 0010 C847     		lw	a0,12(a5)
  27              	.LVL2:
  28 0012 AE86     		mv	a3,a1
  29 0014 93059006 		li	a1,105
  30              	.LVL3:
  31 0018 0283     		jr	t1
  32              	.LVL4:
  33              		.cfi_endproc
  34              	.LFE3:
  36              		.section	.text.write_mpu,"ax",@progbits
  37              		.align	1
  38              		.globl	write_mpu
  40              	write_mpu:
  41              	.LFB4:
  15:mpu6500_driver.c **** }
  16:mpu6500_driver.c **** 
  17:mpu6500_driver.c **** void write_mpu(uint8_t reg, uint8_t size, uint8_t* data){
  42              		.loc 1 17 57
  43              		.cfi_startproc
GAS LISTING C:\Users\Karzan\AppData\Local\Temp\ccJPv6HS.s 			page 2


  44              	.LVL5:
  18:mpu6500_driver.c **** 	cb.write(cb.pHandle, MPU6500_ADDR, reg, size, data);
  45              		.loc 1 18 2
  46 0000 B7070000 		lui	a5,%hi(cb)
  47 0004 93870700 		addi	a5,a5,%lo(cb)
  48 0008 3287     		mv	a4,a2
  49 000a 03A34700 		lw	t1,4(a5)
  50 000e 2A86     		mv	a2,a0
  51              	.LVL6:
  52 0010 C847     		lw	a0,12(a5)
  53              	.LVL7:
  54 0012 AE86     		mv	a3,a1
  55 0014 93059006 		li	a1,105
  56              	.LVL8:
  57 0018 0283     		jr	t1
  58              	.LVL9:
  59              		.cfi_endproc
  60              	.LFE4:
  62              		.section	.text.flip_bytes,"ax",@progbits
  63              		.align	1
  64              		.globl	flip_bytes
  66              	flip_bytes:
  67              	.LFB5:
  19:mpu6500_driver.c **** }
  20:mpu6500_driver.c **** 
  21:mpu6500_driver.c **** int16_t flip_bytes(int16_t bt){
  68              		.loc 1 21 31
  69              		.cfi_startproc
  70              	.LVL10:
  22:mpu6500_driver.c **** 	uint8_t* pByte = (uint8_t*)&bt;
  71              		.loc 1 22 2
  23:mpu6500_driver.c **** 	uint8_t temp = pByte[1];
  24:mpu6500_driver.c **** 	pByte[1] = pByte[0];
  25:mpu6500_driver.c **** 	pByte[0] = temp;
  72              		.loc 1 25 11 is_stmt 0
  73 0000 93178500 		slli	a5,a0,8
  74 0004 4205     		slli	a0,a0,16
  75              	.LVL11:
  76 0006 4181     		srli	a0,a0,16
  77 0008 2181     		srli	a0,a0,8
  78 000a 5D8D     		or	a0,a5,a0
  21:mpu6500_driver.c **** 	uint8_t* pByte = (uint8_t*)&bt;
  79              		.loc 1 21 31
  80 000c 4111     		addi	sp,sp,-16
  81              	.LCFI0:
  82              		.cfi_def_cfa_offset 16
  83              	.LVL12:
  23:mpu6500_driver.c **** 	uint8_t temp = pByte[1];
  84              		.loc 1 23 2 is_stmt 1
  24:mpu6500_driver.c **** 	pByte[0] = temp;
  85              		.loc 1 24 2
  86              		.loc 1 25 2
  26:mpu6500_driver.c **** 	return bt; 
  87              		.loc 1 26 2
  27:mpu6500_driver.c **** }
  88              		.loc 1 27 1 is_stmt 0
  89 000e 4205     		slli	a0,a0,16
GAS LISTING C:\Users\Karzan\AppData\Local\Temp\ccJPv6HS.s 			page 3


  90 0010 4185     		srai	a0,a0,16
  91 0012 4101     		addi	sp,sp,16
  92              	.LCFI1:
  93              		.cfi_def_cfa_offset 0
  94              	.LVL13:
  95 0014 8280     		jr	ra
  96              		.cfi_endproc
  97              	.LFE5:
  99              		.section	.text.mpu6500_init,"ax",@progbits
 100              		.align	1
 101              		.globl	mpu6500_init
 103              	mpu6500_init:
 104              	.LFB6:
  28:mpu6500_driver.c **** 
  29:mpu6500_driver.c **** int mpu6500_init(void (*read_cb)(void* pHandle, uint8_t addr, uint8_t reg, uint8_t size, uint8_t* p
  30:mpu6500_driver.c **** 				 void (*write_cb)(void* pHandle, uint8_t addr, uint8_t reg, uint8_t size, uint8_t* pData),
  31:mpu6500_driver.c **** 				 void (*delay_cb)(int millis),
  32:mpu6500_driver.c **** 				 void* pHandle){
 105              		.loc 1 32 20 is_stmt 1
 106              		.cfi_startproc
 107              	.LVL14:
  33:mpu6500_driver.c **** 	uint8_t read_buffer[4];
 108              		.loc 1 33 2
  34:mpu6500_driver.c **** 	uint8_t write_buffer[4];
 109              		.loc 1 34 2
  35:mpu6500_driver.c **** 	cb.read = read_cb;
 110              		.loc 1 35 2
  32:mpu6500_driver.c **** 	uint8_t read_buffer[4];
 111              		.loc 1 32 20 is_stmt 0
 112 0000 0111     		addi	sp,sp,-32
 113              	.LCFI2:
 114              		.cfi_def_cfa_offset 32
 115 0002 22CC     		sw	s0,24(sp)
 116              		.cfi_offset 8, -8
 117              		.loc 1 35 10
 118 0004 37040000 		lui	s0,%hi(cb)
 119 0008 93070400 		addi	a5,s0,%lo(cb)
  32:mpu6500_driver.c **** 	uint8_t read_buffer[4];
 120              		.loc 1 32 20
 121 000c 06CE     		sw	ra,28(sp)
 122              		.cfi_offset 1, -4
 123              		.loc 1 35 10
 124 000e 88C3     		sw	a0,0(a5)
  36:mpu6500_driver.c **** 	cb.write = write_cb;
 125              		.loc 1 36 2 is_stmt 1
 126              		.loc 1 36 11 is_stmt 0
 127 0010 CCC3     		sw	a1,4(a5)
  37:mpu6500_driver.c **** 	cb.delay = delay_cb;
 128              		.loc 1 37 2 is_stmt 1
 129              		.loc 1 37 11 is_stmt 0
 130 0012 90C7     		sw	a2,8(a5)
  38:mpu6500_driver.c **** 	cb.pHandle = pHandle;
 131              		.loc 1 38 2 is_stmt 1
  39:mpu6500_driver.c **** 
  40:mpu6500_driver.c **** 
  41:mpu6500_driver.c **** 
  42:mpu6500_driver.c **** 	read_mpu(MPU6500_WHO_AM_I, 1, read_buffer);
GAS LISTING C:\Users\Karzan\AppData\Local\Temp\ccJPv6HS.s 			page 4


 132              		.loc 1 42 2 is_stmt 0
 133 0014 13055007 		li	a0,117
 134              	.LVL15:
 135 0018 3000     		addi	a2,sp,8
 136              	.LVL16:
 137 001a 8545     		li	a1,1
 138              	.LVL17:
  38:mpu6500_driver.c **** 	cb.pHandle = pHandle;
 139              		.loc 1 38 13
 140 001c D4C7     		sw	a3,12(a5)
 141              		.loc 1 42 2 is_stmt 1
 142 001e 97000000 		call	read_mpu
 142      E7800000 
 143              	.LVL18:
  43:mpu6500_driver.c **** 	if(read_buffer[0] != MPU6500_WHO_AM_I_ID) return -1;
 144              		.loc 1 43 2
 145              		.loc 1 43 4 is_stmt 0
 146 0026 03478100 		lbu	a4,8(sp)
 147 002a C547     		li	a5,17
 148              		.loc 1 43 51
 149 002c 7D55     		li	a0,-1
 150              		.loc 1 43 4
 151 002e 631FF70C 		bne	a4,a5,.L5
  44:mpu6500_driver.c **** 
  45:mpu6500_driver.c **** 	write_buffer[0] = MPU6500_DEVICE_RESET;
 152              		.loc 1 45 18
 153 0032 930700F8 		li	a5,-128
  46:mpu6500_driver.c **** 	write_mpu(MPU6500_PWR_MGMT_1, 1, write_buffer);
 154              		.loc 1 46 2
 155 0036 1305B006 		li	a0,107
 156 003a 7000     		addi	a2,sp,12
 157 003c 8545     		li	a1,1
  45:mpu6500_driver.c **** 	write_mpu(MPU6500_PWR_MGMT_1, 1, write_buffer);
 158              		.loc 1 45 18
 159 003e 2306F100 		sb	a5,12(sp)
 160 0042 13040400 		addi	s0,s0,%lo(cb)
  45:mpu6500_driver.c **** 	write_mpu(MPU6500_PWR_MGMT_1, 1, write_buffer);
 161              		.loc 1 45 2 is_stmt 1
 162              		.loc 1 46 2
 163 0046 97000000 		call	write_mpu
 163      E7800000 
 164              	.LVL19:
  47:mpu6500_driver.c **** 
  48:mpu6500_driver.c **** 	cb.delay(100);
 165              		.loc 1 48 2
 166 004e 1C44     		lw	a5,8(s0)
 167 0050 13054006 		li	a0,100
 168 0054 8297     		jalr	a5
 169              	.LVL20:
  49:mpu6500_driver.c **** 
  50:mpu6500_driver.c **** 	while(read_buffer[0] & MPU6500_DEVICE_RESET) read_mpu(MPU6500_PWR_MGMT_1, 1, read_buffer);
 170              		.loc 1 50 2
 171              	.L7:
 172              		.loc 1 50 7 is_stmt 0 discriminator 1
 173 0056 83078100 		lb	a5,8(sp)
 174 005a 63CD070A 		blt	a5,zero,.L8
  51:mpu6500_driver.c **** 
GAS LISTING C:\Users\Karzan\AppData\Local\Temp\ccJPv6HS.s 			page 5


  52:mpu6500_driver.c **** 	cb.delay(100);
 175              		.loc 1 52 2 is_stmt 1
 176 005e 1C44     		lw	a5,8(s0)
 177 0060 13054006 		li	a0,100
  53:mpu6500_driver.c **** 
  54:mpu6500_driver.c **** 	write_buffer[0] = MPU6500_TEMP_DIS | 0x01; //select PLL
  55:mpu6500_driver.c **** 	write_mpu(MPU6500_PWR_MGMT_1, 1, write_buffer);
  56:mpu6500_driver.c **** 
  57:mpu6500_driver.c **** 	write_buffer[0] = 0x00;
  58:mpu6500_driver.c **** 	write_mpu(MPU6500_SMPLRT_DIV, 1, write_buffer);
  59:mpu6500_driver.c **** 
  60:mpu6500_driver.c **** 	write_buffer[0] = MPU6500_G_DLPF_92HZ;
 178              		.loc 1 60 18 is_stmt 0
 179 0064 0944     		li	s0,2
  52:mpu6500_driver.c **** 
 180              		.loc 1 52 2
 181 0066 8297     		jalr	a5
 182              	.LVL21:
  54:mpu6500_driver.c **** 	write_mpu(MPU6500_PWR_MGMT_1, 1, write_buffer);
 183              		.loc 1 54 2 is_stmt 1
  54:mpu6500_driver.c **** 	write_mpu(MPU6500_PWR_MGMT_1, 1, write_buffer);
 184              		.loc 1 54 18 is_stmt 0
 185 0068 A547     		li	a5,9
  55:mpu6500_driver.c **** 
 186              		.loc 1 55 2
 187 006a 7000     		addi	a2,sp,12
 188 006c 8545     		li	a1,1
 189 006e 1305B006 		li	a0,107
  54:mpu6500_driver.c **** 	write_mpu(MPU6500_PWR_MGMT_1, 1, write_buffer);
 190              		.loc 1 54 18
 191 0072 2306F100 		sb	a5,12(sp)
  55:mpu6500_driver.c **** 
 192              		.loc 1 55 2 is_stmt 1
 193 0076 97000000 		call	write_mpu
 193      E7800000 
 194              	.LVL22:
  57:mpu6500_driver.c **** 	write_mpu(MPU6500_SMPLRT_DIV, 1, write_buffer);
 195              		.loc 1 57 2
  58:mpu6500_driver.c **** 
 196              		.loc 1 58 2 is_stmt 0
 197 007e 7000     		addi	a2,sp,12
 198 0080 8545     		li	a1,1
 199 0082 6545     		li	a0,25
  57:mpu6500_driver.c **** 	write_mpu(MPU6500_SMPLRT_DIV, 1, write_buffer);
 200              		.loc 1 57 18
 201 0084 23060100 		sb	zero,12(sp)
  58:mpu6500_driver.c **** 
 202              		.loc 1 58 2 is_stmt 1
 203 0088 97000000 		call	write_mpu
 203      E7800000 
 204              	.LVL23:
 205              		.loc 1 60 2
  61:mpu6500_driver.c **** 	write_mpu(MPU6500_CONFIG, 1, write_buffer);
 206              		.loc 1 61 2 is_stmt 0
 207 0090 7000     		addi	a2,sp,12
 208 0092 8545     		li	a1,1
 209 0094 6945     		li	a0,26
GAS LISTING C:\Users\Karzan\AppData\Local\Temp\ccJPv6HS.s 			page 6


  60:mpu6500_driver.c **** 	write_mpu(MPU6500_CONFIG, 1, write_buffer);
 210              		.loc 1 60 18
 211 0096 23068100 		sb	s0,12(sp)
 212              		.loc 1 61 2 is_stmt 1
 213 009a 97000000 		call	write_mpu
 213      E7800000 
 214              	.LVL24:
  62:mpu6500_driver.c **** 
  63:mpu6500_driver.c **** 	write_buffer[0] = MPU6500_GYRO_FS_2000DPS;
 215              		.loc 1 63 2
 216              		.loc 1 63 18 is_stmt 0
 217 00a2 E147     		li	a5,24
  64:mpu6500_driver.c **** 	write_mpu(MPU6500_GYRO_CONFIG, 1, write_buffer);
 218              		.loc 1 64 2
 219 00a4 7000     		addi	a2,sp,12
 220 00a6 8545     		li	a1,1
 221 00a8 6D45     		li	a0,27
  63:mpu6500_driver.c **** 	write_mpu(MPU6500_GYRO_CONFIG, 1, write_buffer);
 222              		.loc 1 63 18
 223 00aa 2306F100 		sb	a5,12(sp)
 224              		.loc 1 64 2 is_stmt 1
 225 00ae 97000000 		call	write_mpu
 225      E7800000 
 226              	.LVL25:
  65:mpu6500_driver.c **** 
  66:mpu6500_driver.c **** 	write_buffer[0] = MPU6500_ACCEL_FS_8G;
 227              		.loc 1 66 2
 228              		.loc 1 66 18 is_stmt 0
 229 00b6 C147     		li	a5,16
  67:mpu6500_driver.c **** 	write_mpu(MPU6500_ACCEL_CONFIG, 1, write_buffer);
 230              		.loc 1 67 2
 231 00b8 7000     		addi	a2,sp,12
 232 00ba 8545     		li	a1,1
 233 00bc 7145     		li	a0,28
  66:mpu6500_driver.c **** 	write_mpu(MPU6500_ACCEL_CONFIG, 1, write_buffer);
 234              		.loc 1 66 18
 235 00be 2306F100 		sb	a5,12(sp)
 236              		.loc 1 67 2 is_stmt 1
 237 00c2 97000000 		call	write_mpu
 237      E7800000 
 238              	.LVL26:
  68:mpu6500_driver.c **** 	
  69:mpu6500_driver.c **** 	write_buffer[0] = MPU6500_A_DPLF_92HZ;
 239              		.loc 1 69 2
  70:mpu6500_driver.c **** 	write_mpu(MPU6500_ACCEL_CONFIG2, 1, write_buffer);
 240              		.loc 1 70 2 is_stmt 0
 241 00ca 7000     		addi	a2,sp,12
 242 00cc 8545     		li	a1,1
 243 00ce 7545     		li	a0,29
  69:mpu6500_driver.c **** 	write_mpu(MPU6500_ACCEL_CONFIG2, 1, write_buffer);
 244              		.loc 1 69 18
 245 00d0 23068100 		sb	s0,12(sp)
 246              		.loc 1 70 2 is_stmt 1
 247 00d4 97000000 		call	write_mpu
 247      E7800000 
 248              	.LVL27:
  71:mpu6500_driver.c **** 
GAS LISTING C:\Users\Karzan\AppData\Local\Temp\ccJPv6HS.s 			page 7


  72:mpu6500_driver.c **** 	write_buffer[0] = MPU6500_LATCH_INT_EN | MPU6500_INT_ANYRD_2CLEAR | MPU6500_INT_BYPASS_EN;
 249              		.loc 1 72 2
 250              		.loc 1 72 18 is_stmt 0
 251 00dc 93072003 		li	a5,50
  73:mpu6500_driver.c **** 	write_mpu(MPU6500_INT_PIN_CFG, 1, write_buffer);
 252              		.loc 1 73 2
 253 00e0 7000     		addi	a2,sp,12
 254 00e2 8545     		li	a1,1
 255 00e4 13057003 		li	a0,55
  72:mpu6500_driver.c **** 	write_mpu(MPU6500_INT_PIN_CFG, 1, write_buffer);
 256              		.loc 1 72 18
 257 00e8 2306F100 		sb	a5,12(sp)
 258              		.loc 1 73 2 is_stmt 1
 259 00ec 97000000 		call	write_mpu
 259      E7800000 
 260              	.LVL28:
  74:mpu6500_driver.c **** 
  75:mpu6500_driver.c **** 	write_buffer[0] = MPU6500_INT_RAW_RDY_EN;
 261              		.loc 1 75 2
 262              		.loc 1 75 18 is_stmt 0
 263 00f4 8547     		li	a5,1
  76:mpu6500_driver.c **** 	write_mpu(MPU6500_INT_ENABLE, 1, write_buffer);
 264              		.loc 1 76 2
 265 00f6 13058003 		li	a0,56
 266 00fa 7000     		addi	a2,sp,12
 267 00fc 8545     		li	a1,1
  75:mpu6500_driver.c **** 	write_mpu(MPU6500_INT_ENABLE, 1, write_buffer);
 268              		.loc 1 75 18
 269 00fe 2306F100 		sb	a5,12(sp)
 270              		.loc 1 76 2 is_stmt 1
 271 0102 97000000 		call	write_mpu
 271      E7800000 
 272              	.LVL29:
  77:mpu6500_driver.c **** 
  78:mpu6500_driver.c **** 	return 1;
 273              		.loc 1 78 2
 274              		.loc 1 78 9 is_stmt 0
 275 010a 0545     		li	a0,1
 276              	.L5:
  79:mpu6500_driver.c **** 
  80:mpu6500_driver.c **** }
 277              		.loc 1 80 1
 278 010c F240     		lw	ra,28(sp)
 279              		.cfi_remember_state
 280              		.cfi_restore 1
 281 010e 6244     		lw	s0,24(sp)
 282              		.cfi_restore 8
 283 0110 0561     		addi	sp,sp,32
 284              	.LCFI3:
 285              		.cfi_def_cfa_offset 0
 286 0112 8280     		jr	ra
 287              	.L8:
 288              	.LCFI4:
 289              		.cfi_restore_state
  50:mpu6500_driver.c **** 
 290              		.loc 1 50 47 is_stmt 1 discriminator 2
 291 0114 3000     		addi	a2,sp,8
GAS LISTING C:\Users\Karzan\AppData\Local\Temp\ccJPv6HS.s 			page 8


 292 0116 8545     		li	a1,1
 293 0118 1305B006 		li	a0,107
 294 011c 97000000 		call	read_mpu
 294      E7800000 
 295              	.LVL30:
 296 0124 0DBF     		j	.L7
 297              		.cfi_endproc
 298              	.LFE6:
 300              		.globl	__floatsisf
 301              		.section	.text.mpu6500_getAccel,"ax",@progbits
 302              		.align	1
 303              		.globl	mpu6500_getAccel
 305              	mpu6500_getAccel:
 306              	.LFB7:
  81:mpu6500_driver.c **** 
  82:mpu6500_driver.c **** int mpu6500_getAccel(mpu_vector_t* pAccel){
 307              		.loc 1 82 43
 308              		.cfi_startproc
 309              	.LVL31:
  83:mpu6500_driver.c **** 	mpu_raw_vector_t accel;
 310              		.loc 1 83 2
  84:mpu6500_driver.c **** 	read_mpu(MPU6500_ACCEL_XOUT_H, 6, (uint8_t*) &accel);
 311              		.loc 1 84 2
  82:mpu6500_driver.c **** 	mpu_raw_vector_t accel;
 312              		.loc 1 82 43 is_stmt 0
 313 0000 0111     		addi	sp,sp,-32
 314              	.LCFI5:
 315              		.cfi_def_cfa_offset 32
 316 0002 22CC     		sw	s0,24(sp)
 317              		.loc 1 84 2
 318 0004 3000     		addi	a2,sp,8
 319              		.cfi_offset 8, -8
  82:mpu6500_driver.c **** 	mpu_raw_vector_t accel;
 320              		.loc 1 82 43
 321 0006 2A84     		mv	s0,a0
 322              		.loc 1 84 2
 323 0008 9945     		li	a1,6
 324 000a 1305B003 		li	a0,59
 325              	.LVL32:
  82:mpu6500_driver.c **** 	mpu_raw_vector_t accel;
 326              		.loc 1 82 43
 327 000e 06CE     		sw	ra,28(sp)
 328              		.cfi_offset 1, -4
 329              		.loc 1 84 2
 330 0010 97000000 		call	read_mpu
 330      E7800000 
 331              	.LVL33:
  85:mpu6500_driver.c **** 	pAccel->x = (float) flip_bytes(accel.x);
 332              		.loc 1 85 2 is_stmt 1
 333              		.loc 1 85 22 is_stmt 0
 334 0018 83178100 		lh	a5,8(sp)
 335              	.LVL34:
 336              	.LBB14:
 337              	.LBB15:
  22:mpu6500_driver.c **** 	uint8_t temp = pByte[1];
 338              		.loc 1 22 2 is_stmt 1
  23:mpu6500_driver.c **** 	pByte[1] = pByte[0];
GAS LISTING C:\Users\Karzan\AppData\Local\Temp\ccJPv6HS.s 			page 9


 339              		.loc 1 23 2
  24:mpu6500_driver.c **** 	pByte[0] = temp;
 340              		.loc 1 24 2
  24:mpu6500_driver.c **** 	pByte[0] = temp;
 341              		.loc 1 24 11 is_stmt 0
 342 001c A303F100 		sb	a5,7(sp)
 343              	.LVL35:
  25:mpu6500_driver.c **** 	return bt; 
 344              		.loc 1 25 2 is_stmt 1
  25:mpu6500_driver.c **** 	return bt; 
 345              		.loc 1 25 11 is_stmt 0
 346 0020 A183     		srli	a5,a5,8
 347              	.LVL36:
 348 0022 2303F100 		sb	a5,6(sp)
  26:mpu6500_driver.c **** }
 349              		.loc 1 26 2 is_stmt 1
 350              	.LVL37:
 351              	.LBE15:
 352              	.LBE14:
 353              		.loc 1 85 14 is_stmt 0
 354 0026 03156100 		lh	a0,6(sp)
 355 002a 97000000 		call	__floatsisf
 355      E7800000 
 356              	.LVL38:
  86:mpu6500_driver.c **** 	pAccel->y = (float) flip_bytes(accel.y);
 357              		.loc 1 86 22
 358 0032 8317A100 		lh	a5,10(sp)
  85:mpu6500_driver.c **** 	pAccel->y = (float) flip_bytes(accel.y);
 359              		.loc 1 85 14
 360 0036 08C0     		sw	a0,0(s0)
 361              		.loc 1 86 2 is_stmt 1
 362              	.LVL39:
 363              	.LBB16:
 364              	.LBB17:
  22:mpu6500_driver.c **** 	uint8_t temp = pByte[1];
 365              		.loc 1 22 2
  23:mpu6500_driver.c **** 	pByte[1] = pByte[0];
 366              		.loc 1 23 2
  24:mpu6500_driver.c **** 	pByte[0] = temp;
 367              		.loc 1 24 2
  24:mpu6500_driver.c **** 	pByte[0] = temp;
 368              		.loc 1 24 11 is_stmt 0
 369 0038 A303F100 		sb	a5,7(sp)
  25:mpu6500_driver.c **** 	return bt; 
 370              		.loc 1 25 2 is_stmt 1
  25:mpu6500_driver.c **** 	return bt; 
 371              		.loc 1 25 11 is_stmt 0
 372 003c A183     		srli	a5,a5,8
 373              	.LVL40:
 374 003e 2303F100 		sb	a5,6(sp)
  26:mpu6500_driver.c **** }
 375              		.loc 1 26 2 is_stmt 1
 376              	.LVL41:
 377              	.LBE17:
 378              	.LBE16:
 379              		.loc 1 86 14 is_stmt 0
 380 0042 03156100 		lh	a0,6(sp)
GAS LISTING C:\Users\Karzan\AppData\Local\Temp\ccJPv6HS.s 			page 10


 381 0046 97000000 		call	__floatsisf
 381      E7800000 
 382              	.LVL42:
  87:mpu6500_driver.c **** 	pAccel->z = (float) flip_bytes(accel.z);
 383              		.loc 1 87 22
 384 004e 8317C100 		lh	a5,12(sp)
  86:mpu6500_driver.c **** 	pAccel->z = (float) flip_bytes(accel.z);
 385              		.loc 1 86 14
 386 0052 48C0     		sw	a0,4(s0)
 387              		.loc 1 87 2 is_stmt 1
 388              	.LVL43:
 389              	.LBB18:
 390              	.LBB19:
  22:mpu6500_driver.c **** 	uint8_t temp = pByte[1];
 391              		.loc 1 22 2
  23:mpu6500_driver.c **** 	pByte[1] = pByte[0];
 392              		.loc 1 23 2
  24:mpu6500_driver.c **** 	pByte[0] = temp;
 393              		.loc 1 24 2
  24:mpu6500_driver.c **** 	pByte[0] = temp;
 394              		.loc 1 24 11 is_stmt 0
 395 0054 A303F100 		sb	a5,7(sp)
  25:mpu6500_driver.c **** 	return bt; 
 396              		.loc 1 25 2 is_stmt 1
  25:mpu6500_driver.c **** 	return bt; 
 397              		.loc 1 25 11 is_stmt 0
 398 0058 A183     		srli	a5,a5,8
 399              	.LVL44:
 400 005a 2303F100 		sb	a5,6(sp)
  26:mpu6500_driver.c **** }
 401              		.loc 1 26 2 is_stmt 1
 402              	.LVL45:
 403              	.LBE19:
 404              	.LBE18:
 405              		.loc 1 87 14 is_stmt 0
 406 005e 03156100 		lh	a0,6(sp)
 407 0062 97000000 		call	__floatsisf
 407      E7800000 
 408              	.LVL46:
 409 006a 08C4     		sw	a0,8(s0)
  88:mpu6500_driver.c **** 	return 1;
 410              		.loc 1 88 2 is_stmt 1
  89:mpu6500_driver.c **** }
 411              		.loc 1 89 1 is_stmt 0
 412 006c F240     		lw	ra,28(sp)
 413              		.cfi_restore 1
 414 006e 6244     		lw	s0,24(sp)
 415              		.cfi_restore 8
 416              	.LVL47:
 417 0070 0545     		li	a0,1
 418 0072 0561     		addi	sp,sp,32
 419              	.LCFI6:
 420              		.cfi_def_cfa_offset 0
 421              	.LVL48:
 422 0074 8280     		jr	ra
 423              		.cfi_endproc
 424              	.LFE7:
GAS LISTING C:\Users\Karzan\AppData\Local\Temp\ccJPv6HS.s 			page 11


 426              		.section	.text.mpu6500_getGyro,"ax",@progbits
 427              		.align	1
 428              		.globl	mpu6500_getGyro
 430              	mpu6500_getGyro:
 431              	.LFB8:
  90:mpu6500_driver.c **** 
  91:mpu6500_driver.c **** int mpu6500_getGyro(mpu_vector_t* pGyro){
 432              		.loc 1 91 41 is_stmt 1
 433              		.cfi_startproc
 434              	.LVL49:
  92:mpu6500_driver.c **** 	mpu_raw_vector_t gyro;
 435              		.loc 1 92 2
  93:mpu6500_driver.c **** 	read_mpu(MPU6500_GYRO_XOUT_H, 6, (uint8_t*) &gyro);
 436              		.loc 1 93 2
  91:mpu6500_driver.c **** 	mpu_raw_vector_t gyro;
 437              		.loc 1 91 41 is_stmt 0
 438 0000 0111     		addi	sp,sp,-32
 439              	.LCFI7:
 440              		.cfi_def_cfa_offset 32
 441 0002 22CC     		sw	s0,24(sp)
 442              		.loc 1 93 2
 443 0004 3000     		addi	a2,sp,8
 444              		.cfi_offset 8, -8
  91:mpu6500_driver.c **** 	mpu_raw_vector_t gyro;
 445              		.loc 1 91 41
 446 0006 2A84     		mv	s0,a0
 447              		.loc 1 93 2
 448 0008 9945     		li	a1,6
 449 000a 13053004 		li	a0,67
 450              	.LVL50:
  91:mpu6500_driver.c **** 	mpu_raw_vector_t gyro;
 451              		.loc 1 91 41
 452 000e 06CE     		sw	ra,28(sp)
 453              		.cfi_offset 1, -4
 454              		.loc 1 93 2
 455 0010 97000000 		call	read_mpu
 455      E7800000 
 456              	.LVL51:
  94:mpu6500_driver.c **** 	pGyro->x = (float) flip_bytes(gyro.x);
 457              		.loc 1 94 2 is_stmt 1
 458              		.loc 1 94 21 is_stmt 0
 459 0018 83178100 		lh	a5,8(sp)
 460              	.LVL52:
 461              	.LBB20:
 462              	.LBB21:
  22:mpu6500_driver.c **** 	uint8_t temp = pByte[1];
 463              		.loc 1 22 2 is_stmt 1
  23:mpu6500_driver.c **** 	pByte[1] = pByte[0];
 464              		.loc 1 23 2
  24:mpu6500_driver.c **** 	pByte[0] = temp;
 465              		.loc 1 24 2
  24:mpu6500_driver.c **** 	pByte[0] = temp;
 466              		.loc 1 24 11 is_stmt 0
 467 001c A303F100 		sb	a5,7(sp)
 468              	.LVL53:
  25:mpu6500_driver.c **** 	return bt; 
 469              		.loc 1 25 2 is_stmt 1
GAS LISTING C:\Users\Karzan\AppData\Local\Temp\ccJPv6HS.s 			page 12


  25:mpu6500_driver.c **** 	return bt; 
 470              		.loc 1 25 11 is_stmt 0
 471 0020 A183     		srli	a5,a5,8
 472              	.LVL54:
 473 0022 2303F100 		sb	a5,6(sp)
  26:mpu6500_driver.c **** }
 474              		.loc 1 26 2 is_stmt 1
 475              	.LVL55:
 476              	.LBE21:
 477              	.LBE20:
 478              		.loc 1 94 13 is_stmt 0
 479 0026 03156100 		lh	a0,6(sp)
 480 002a 97000000 		call	__floatsisf
 480      E7800000 
 481              	.LVL56:
  95:mpu6500_driver.c **** 	pGyro->y = (float) flip_bytes(gyro.y);
 482              		.loc 1 95 21
 483 0032 8317A100 		lh	a5,10(sp)
  94:mpu6500_driver.c **** 	pGyro->y = (float) flip_bytes(gyro.y);
 484              		.loc 1 94 13
 485 0036 08C0     		sw	a0,0(s0)
 486              		.loc 1 95 2 is_stmt 1
 487              	.LVL57:
 488              	.LBB22:
 489              	.LBB23:
  22:mpu6500_driver.c **** 	uint8_t temp = pByte[1];
 490              		.loc 1 22 2
  23:mpu6500_driver.c **** 	pByte[1] = pByte[0];
 491              		.loc 1 23 2
  24:mpu6500_driver.c **** 	pByte[0] = temp;
 492              		.loc 1 24 2
  24:mpu6500_driver.c **** 	pByte[0] = temp;
 493              		.loc 1 24 11 is_stmt 0
 494 0038 A303F100 		sb	a5,7(sp)
  25:mpu6500_driver.c **** 	return bt; 
 495              		.loc 1 25 2 is_stmt 1
  25:mpu6500_driver.c **** 	return bt; 
 496              		.loc 1 25 11 is_stmt 0
 497 003c A183     		srli	a5,a5,8
 498              	.LVL58:
 499 003e 2303F100 		sb	a5,6(sp)
  26:mpu6500_driver.c **** }
 500              		.loc 1 26 2 is_stmt 1
 501              	.LVL59:
 502              	.LBE23:
 503              	.LBE22:
 504              		.loc 1 95 13 is_stmt 0
 505 0042 03156100 		lh	a0,6(sp)
 506 0046 97000000 		call	__floatsisf
 506      E7800000 
 507              	.LVL60:
  96:mpu6500_driver.c **** 	pGyro->z = (float) flip_bytes(gyro.z);
 508              		.loc 1 96 21
 509 004e 8317C100 		lh	a5,12(sp)
  95:mpu6500_driver.c **** 	pGyro->z = (float) flip_bytes(gyro.z);
 510              		.loc 1 95 13
 511 0052 48C0     		sw	a0,4(s0)
GAS LISTING C:\Users\Karzan\AppData\Local\Temp\ccJPv6HS.s 			page 13


 512              		.loc 1 96 2 is_stmt 1
 513              	.LVL61:
 514              	.LBB24:
 515              	.LBB25:
  22:mpu6500_driver.c **** 	uint8_t temp = pByte[1];
 516              		.loc 1 22 2
  23:mpu6500_driver.c **** 	pByte[1] = pByte[0];
 517              		.loc 1 23 2
  24:mpu6500_driver.c **** 	pByte[0] = temp;
 518              		.loc 1 24 2
  24:mpu6500_driver.c **** 	pByte[0] = temp;
 519              		.loc 1 24 11 is_stmt 0
 520 0054 A303F100 		sb	a5,7(sp)
  25:mpu6500_driver.c **** 	return bt; 
 521              		.loc 1 25 2 is_stmt 1
  25:mpu6500_driver.c **** 	return bt; 
 522              		.loc 1 25 11 is_stmt 0
 523 0058 A183     		srli	a5,a5,8
 524              	.LVL62:
 525 005a 2303F100 		sb	a5,6(sp)
  26:mpu6500_driver.c **** }
 526              		.loc 1 26 2 is_stmt 1
 527              	.LVL63:
 528              	.LBE25:
 529              	.LBE24:
 530              		.loc 1 96 13 is_stmt 0
 531 005e 03156100 		lh	a0,6(sp)
 532 0062 97000000 		call	__floatsisf
 532      E7800000 
 533              	.LVL64:
 534 006a 08C4     		sw	a0,8(s0)
  97:mpu6500_driver.c **** 	return 1;
 535              		.loc 1 97 2 is_stmt 1
  98:mpu6500_driver.c **** }
 536              		.loc 1 98 1 is_stmt 0
 537 006c F240     		lw	ra,28(sp)
 538              		.cfi_restore 1
 539 006e 6244     		lw	s0,24(sp)
 540              		.cfi_restore 8
 541              	.LVL65:
 542 0070 0545     		li	a0,1
 543 0072 0561     		addi	sp,sp,32
 544              	.LCFI8:
 545              		.cfi_def_cfa_offset 0
 546              	.LVL66:
 547 0074 8280     		jr	ra
 548              		.cfi_endproc
 549              	.LFE8:
 551              		.section	.text.mpu6500_getGyroAccel,"ax",@progbits
 552              		.align	1
 553              		.globl	mpu6500_getGyroAccel
 555              	mpu6500_getGyroAccel:
 556              	.LFB9:
  99:mpu6500_driver.c **** 
 100:mpu6500_driver.c **** int mpu6500_getGyroAccel(mpu_vector_t* pGyro, mpu_vector_t* pAccel){
 557              		.loc 1 100 68 is_stmt 1
 558              		.cfi_startproc
GAS LISTING C:\Users\Karzan\AppData\Local\Temp\ccJPv6HS.s 			page 14


 559              	.LVL67:
 101:mpu6500_driver.c **** 	mpu6500_getAccel(pAccel);
 560              		.loc 1 101 2
 100:mpu6500_driver.c **** 	mpu6500_getAccel(pAccel);
 561              		.loc 1 100 68 is_stmt 0
 562 0000 4111     		addi	sp,sp,-16
 563              	.LCFI9:
 564              		.cfi_def_cfa_offset 16
 565 0002 22C4     		sw	s0,8(sp)
 566              		.cfi_offset 8, -8
 567 0004 2A84     		mv	s0,a0
 568              		.loc 1 101 2
 569 0006 2E85     		mv	a0,a1
 570              	.LVL68:
 100:mpu6500_driver.c **** 	mpu6500_getAccel(pAccel);
 571              		.loc 1 100 68
 572 0008 06C6     		sw	ra,12(sp)
 573              		.cfi_offset 1, -4
 574              		.loc 1 101 2
 575 000a 97000000 		call	mpu6500_getAccel
 575      E7800000 
 576              	.LVL69:
 102:mpu6500_driver.c **** 	mpu6500_getGyro(pGyro);
 577              		.loc 1 102 2 is_stmt 1
 578 0012 2285     		mv	a0,s0
 579 0014 97000000 		call	mpu6500_getGyro
 579      E7800000 
 580              	.LVL70:
 103:mpu6500_driver.c **** 	return 1;
 581              		.loc 1 103 2
 104:mpu6500_driver.c **** }
 582              		.loc 1 104 1 is_stmt 0
 583 001c B240     		lw	ra,12(sp)
 584              		.cfi_restore 1
 585 001e 2244     		lw	s0,8(sp)
 586              		.cfi_restore 8
 587              	.LVL71:
 588 0020 0545     		li	a0,1
 589 0022 4101     		addi	sp,sp,16
 590              	.LCFI10:
 591              		.cfi_def_cfa_offset 0
 592 0024 8280     		jr	ra
 593              		.cfi_endproc
 594              	.LFE9:
 596              		.comm	cb,16,4
 597              		.text
 598              	.Letext0:
 599              		.file 2 "c:\\users\\karzan\\downloads\\toolchain-gd32v-v202-win\\toolchain-gd32v-v202-win\\compile
 600              		.file 3 "c:\\users\\karzan\\downloads\\toolchain-gd32v-v202-win\\toolchain-gd32v-v202-win\\compile
 601              		.file 4 "c:\\users\\karzan\\downloads\\toolchain-gd32v-v202-win\\toolchain-gd32v-v202-win\\compile
 602              		.file 5 "c:\\users\\karzan\\downloads\\toolchain-gd32v-v202-win\\toolchain-gd32v-v202-win\\compile
 603              		.file 6 "c:\\users\\karzan\\downloads\\toolchain-gd32v-v202-win\\toolchain-gd32v-v202-win\\compile
 604              		.file 7 "c:\\users\\karzan\\downloads\\toolchain-gd32v-v202-win\\toolchain-gd32v-v202-win\\compile
 605              		.file 8 "mpu6500_driver.h"
GAS LISTING C:\Users\Karzan\AppData\Local\Temp\ccJPv6HS.s 			page 15

