GAS LISTING C:\Users\Karzan\AppData\Local\Temp\ccJPv6HS.s 			page 1


   1              		.file	"mpu6500_driver.c"
   2              		.option nopic
   3              		.attribute arch, "rv32i2p0_m2p0_a2p0_c2p0"
   4              		.attribute unaligned_access, 0
   5              		.attribute stack_align, 16
   6              		.text
   7              	.Ltext0:
   8              		.cfi_sections	.debug_frame
   9              		.section	.text.read_mpu,"ax",@progbits
  10              		.align	1
  11              		.globl	read_mpu
  13              	read_mpu:
  14              	.LFB3:
  15              		.file 1 "mpu6500_driver.c"
   1:mpu6500_driver.c **** #include "mpu6500_driver.h"
   2:mpu6500_driver.c **** #include "stdint.h"
   3:mpu6500_driver.c **** 
   4:mpu6500_driver.c **** typedef struct{
   5:mpu6500_driver.c **** 	void (*read)(void* pHandle, uint8_t addr, uint8_t reg, uint8_t size, uint8_t* pData);
   6:mpu6500_driver.c **** 	void (*write)(void* pHandle, uint8_t addr, uint8_t reg, uint8_t size, uint8_t* pData);
   7:mpu6500_driver.c **** 	void (*delay)(int millis);
   8:mpu6500_driver.c **** 	void* pHandle;
   9:mpu6500_driver.c **** }mpu6500_comms_t;
  10:mpu6500_driver.c **** 
  11:mpu6500_driver.c **** mpu6500_comms_t cb;
  12:mpu6500_driver.c **** 
  13:mpu6500_driver.c **** void read_mpu(uint8_t reg, uint8_t size, uint8_t* data){
  16              		.loc 1 13 56
  17              		.cfi_startproc
  18              	.LVL0:
  14:mpu6500_driver.c **** 	cb.read(cb.pHandle, MPU6500_ADDR, reg, size, data);
  19              		.loc 1 14 2
  20 0000 B7070000 		lui	a5,%hi(cb)
  21 0004 93870700 		addi	a5,a5,%lo(cb)
  22 0008 3287     		mv	a4,a2
  23 000a 03A30700 		lw	t1,0(a5)
  24 000e 2A86     		mv	a2,a0
  25              	.LVL1:
  26 0010 C847     		lw	a0,12(a5)
  27              	.LVL2:
  28 0012 AE86     		mv	a3,a1
  29 0014 93059006 		li	a1,105
  30              	.LVL3:
  31 0018 0283     		jr	t1
  32              	.LVL4:
  33              		.cfi_endproc
  34              	.LFE3:
  36              		.section	.text.write_mpu,"ax",@progbits
  37              		.align	1
  38              		.globl	write_mpu
  40              	write_mpu:
  41              	.LFB4:
  15:mpu6500_driver.c **** }
  16:mpu6500_driver.c **** 
  17:mpu6500_driver.c **** void write_mpu(uint8_t reg, uint8_t size, uint8_t* data){
  42              		.loc 1 17 57
  43              		.cfi_startproc
GAS LISTING C:\Users\Karzan\AppData\Local\Temp\ccJPv6HS.s 			page 2


  44              	.LVL5:
  18:mpu6500_driver.c **** 	cb.write(cb.pHandle, MPU6500_ADDR, reg, size, data);
  45              		.loc 1 18 2
  46 0000 B7070000 		lui	a5,%hi(cb)
  47 0004 93870700 		addi	a5,a5,%lo(cb)
  48 0008 3287     		mv	a4,a2
  49 000a 03A34700 		lw	t1,4(a5)
  50 000e 2A86     		mv	a2,a0
  51              	.LVL6:
  52 0010 C847     		lw	a0,12(a5)
  53              	.LVL7:
  54 0012 AE86     		mv	a3,a1
  55 0014 93059006 		li	a1,105
  56              	.LVL8:
  57 0018 0283     		jr	t1
  58              	.LVL9:
  59              		.cfi_endproc
  60              	.LFE4:
  62              		.section	.text.flip_bytes,"ax",@progbits
  63              		.align	1
  64              		.globl	flip_bytes
  66              	flip_bytes:
  67              	.LFB5:
  19:mpu6500_driver.c **** }
  20:mpu6500_driver.c **** 
  21:mpu6500_driver.c **** int16_t flip_bytes(int16_t bt){
  68              		.loc 1 21 31
  69              		.cfi_startproc
  70              	.LVL10:
  22:mpu6500_driver.c **** 	uint8_t* pByte = (uint8_t*)&bt;
  71              		.loc 1 22 2
  23:mpu6500_driver.c **** 	uint8_t temp = pByte[1];
  24:mpu6500_driver.c **** 	pByte[1] = pByte[0];
  25:mpu6500_driver.c **** 	pByte[0] = temp;
  72              		.loc 1 25 11 is_stmt 0
  73 0000 93178500 		slli	a5,a0,8
  74 0004 4205     		slli	a0,a0,16
  75              	.LVL11:
  76 0006 4181     		srli	a0,a0,16
  77 0008 2181     		srli	a0,a0,8
  78 000a 5D8D     		or	a0,a5,a0
  21:mpu6500_driver.c **** 	uint8_t* pByte = (uint8_t*)&bt;
  79              		.loc 1 21 31
  80 000c 4111     		addi	sp,sp,-16
  81              	.LCFI0:
  82              		.cfi_def_cfa_offset 16
  83              	.LVL12:
  23:mpu6500_driver.c **** 	uint8_t temp = pByte[1];
  84              		.loc 1 23 2 is_stmt 1
  24:mpu6500_driver.c **** 	pByte[0] = temp;
  85              		.loc 1 24 2
  86              		.loc 1 25 2
  26:mpu6500_driver.c **** 	return bt; 
  87              		.loc 1 26 2
  27:mpu6500_driver.c **** }
  88              		.loc 1 27 1 is_stmt 0
  89 000e 4205     		slli	a0,a0,16
GAS LISTING C:\Users\Karzan\AppData\Local\Temp\ccJPv6HS.s 			page 3


  90 0010 4185     		srai	a0,a0,16
  91 0012 4101     		addi	sp,sp,16
  92              	.LCFI1:
  93              		.cfi_def_cfa_offset 0
  94              	.LVL13:
  95 0014 8280     		jr	ra
  96              		.cfi_endproc
  97              	.LFE5:
  99              		.section	.text.mpu6500_init,"ax",@progbits
 100              		.align	1
 101              		.globl	mpu6500_init
 103              	mpu6500_init:
 104              	.LFB6:
  28:mpu6500_driver.c **** 
  29:mpu6500_driver.c **** int mpu6500_init(void (*read_cb)(void* pHandle, uint8_t addr, uint8_t reg, uint8_t size, uint8_t* p
  30:mpu6500_driver.c **** 				 void (*write_cb)(void* pHandle, uint8_t addr, uint8_t reg, uint8_t size, uint8_t* pData),
  31:mpu6500_driver.c **** 				 void (*delay_cb)(int millis),
  32:mpu6500_driver.c **** 				 void* pHandle){
 105              		.loc 1 32 20 is_stmt 1
 106              		.cfi_startproc
 107              	.LVL14:
  33:mpu6500_driver.c **** 	uint8_t read_buffer[4];
 108              		.loc 1 33 2
  34:mpu6500_driver.c **** 	uint8_t write_buffer[4];
 109              		.loc 1 34 2
  35:mpu6500_driver.c **** 	cb.read = read_cb;
 110              		.loc 1 35 2
  32:mpu6500_driver.c **** 	uint8_t read_buffer[4];
 111              		.loc 1 32 20 is_stmt 0
 112 0000 0111     		addi	sp,sp,-32
 113              	.LCFI2:
 114              		.cfi_def_cfa_offset 32
 115 0002 22CC     		sw	s0,24(sp)
 116              		.cfi_offset 8, -8
 117              		.loc 1 35 10
 118 0004 37040000 		lui	s0,%hi(cb)
 119 0008 93070400 		addi	a5,s0,%lo(cb)
  32:mpu6500_driver.c **** 	uint8_t read_buffer[4];
 120              		.loc 1 32 20
 121 000c 06CE     		sw	ra,28(sp)
 122              		.cfi_offset 1, -4
 123              		.loc 1 35 10
 124 000e 88C3     		sw	a0,0(a5)
  36:mpu6500_driver.c **** 	cb.write = write_cb;
 125              		.loc 1 36 2 is_stmt 1
 126              		.loc 1 36 11 is_stmt 0
 127 0010 CCC3     		sw	a1,4(a5)
  37:mpu6500_driver.c **** 	cb.delay = delay_cb;
 128              		.loc 1 37 2 is_stmt 1
 129              		.loc 1 37 11 is_stmt 0
 130 0012 90C7     		sw	a2,8(a5)
  38:mpu6500_driver.c **** 	cb.pHandle = pHandle;
 131              		.loc 1 38 2 is_stmt 1
  39:mpu6500_driver.c **** 
  40:mpu6500_driver.c **** 
  41:mpu6500_driver.c **** 
  42:mpu6500_driver.c **** 	read_mpu(MPU6500_WHO_AM_I, 1, read_buffer);
GAS LISTING C:\Users\Karzan\AppData\Local\Temp\ccJPv6HS.s 			page 4


 132              		.loc 1 42 2 is_stmt 0
 133 0014 13055007 		li	a0,117
 134              	.LVL15:
 135 0018 3000     		addi	a2,sp,8
 136              	.LVL16:
 137 001a 8545     		li	a1,1
 138              	.LVL17:
  38:mpu6500_driver.c **** 	cb.pHandle = pHandle;
 139              		.loc 1 38 13
 140 001c D4C7     		sw	a3,12(a5)
 141              		.loc 1 42 2 is_stmt 1
 142 001e 97000000 		call	read_mpu
 142      E7800000 
 143              	.LVL18:
  43:mpu6500_driver.c **** 	if(read_buffer[0] != MPU6500_WHO_AM_I_ID) return -1;
 144              		.loc 1 43 2
 145              		.loc 1 43 4 is_stmt 0
 146 0026 03478100 		lbu	a4,8(sp)
 147 002a C547     		li	a5,17
 148              		.loc 1 43 51
 149 002c 7D55     		li	a0,-1
 150              		.loc 1 43 4
 151 002e 631FF70C 		bne	a4,a5,.L5
  44:mpu6500_driver.c **** 
  45:mpu6500_driver.c **** 	write_buffer[0] = MPU6500_DEVICE_RESET;
 152              		.loc 1 45 18
 153 0032 930700F8 		li	a5,-128
  46:mpu6500_driver.c **** 	write_mpu(MPU6500_PWR_MGMT_1, 1, write_buffer);
 154              		.loc 1 46 2
 155 0036 1305B006 		li	a0,107
 156 003a 7000     		addi	a2,sp,12
 157 003c 8545     		li	a1,1
  45:mpu6500_driver.c **** 	write_mpu(MPU6500_PWR_MGMT_1, 1, write_buffer);
 158              		.loc 1 45 18
 159 003e 2306F100 		sb	a5,12(sp)
 160 0042 13040400 		addi	s0,s0,%lo(cb)
  45:mpu6500_driver.c **** 	write_mpu(MPU6500_PWR_MGMT_1, 1, write_buffer);
 161              		.loc 1 45 2 is_stmt 1
 162              		.loc 1 46 2
 163 0046 97000000 		call	write_mpu
 163      E7800000 
 164              	.LVL19:
  47:mpu6500_driver.c **** 
  48:mpu6500_driver.c **** 	cb.delay(100);
 165              		.loc 1 48 2
 166 004e 1C44     		lw	a5,8(s0)
 167 0050 13054006 		li	a0,100
 168 0054 8297     		jalr	a5
 169              	.LVL20:
  49:mpu6500_driver.c **** 
  50:mpu6500_driver.c **** 	while(read_buffer[0] & MPU6500_DEVICE_RESET) read_mpu(MPU6500_PWR_MGMT_1, 1, read_buffer);
 170              		.loc 1 50 2
 171              	.L7:
 172              		.loc 1 50 7 is_stmt 0 discriminator 1
 173 0056 83078100 		lb	a5,8(sp)
 174 005a 63CD070A 		blt	a5,zero,.L8
  51:mpu6500_driver.c **** 
GAS LISTING C:\Users\Karzan\AppData\Local\Temp\ccJPv6HS.s 			page 5


  52:mpu6500_driver.c **** 	cb.delay(100);
 175              		.loc 1 52 2 is_stmt 1
 176 005e 1C44     		lw	a5,8(s0)
 177 0060 13054006 		li	a0,100
  53:mpu6500_driver.c **** 
  54:mpu6500_driver.c **** 	write_buffer[0] = MPU6500_TEMP_DIS | 0x01; //select PLL
  55:mpu6500_driver.c **** 	write_mpu(MPU6500_PWR_MGMT_1, 1, write_buffer);
  56:mpu6500_driver.c **** 
  57:mpu6500_driver.c **** 	write_buffer[0] = 0x00;
  58:mpu6500_driver.c **** 	write_mpu(MPU6500_SMPLRT_DIV, 1, write_buffer);
  59:mpu6500_driver.c **** 
  60:mpu6500_driver.c **** 	write_buffer[0] = MPU6500_G_DLPF_92HZ;
 178              		.loc 1 60 18 is_stmt 0
 179 0064 0944     		li	s0,2
  52:mpu6500_driver.c **** 
 180              		.loc 1 52 2
 181 0066 8297     		jalr	a5
 182              	.LVL21:
  54:mpu6500_driver.c **** 	write_mpu(MPU6500_PWR_MGMT_1, 1, write_buffer);
 183              		.loc 1 54 2 is_stmt 1
  54:mpu6500_driver.c **** 	write_mpu(MPU6500_PWR_MGMT_1, 1, write_buffer);
 184              		.loc 1 54 18 is_stmt 0
 185 0068 A547     		li	a5,9
  55:mpu6500_driver.c **** 
 186              		.loc 1 55 2
 187 006a 7000     		addi	a2,sp,12
 188 006c 8545     		li	a1,1
 189 006e 1305B006 		li	a0,107
  54:mpu6500_driver.c **** 	write_mpu(MPU6500_PWR_MGMT_1, 1, write_buffer);
 190              		.loc 1 54 18
 191 0072 2306F100 		sb	a5,12(sp)
  55:mpu6500_driver.c **** 
 192              		.loc 1 55 2 is_stmt 1
 193 0076 97000000 		call	write_mpu
 193      E7800000 
 194              	.LVL22:
  57:mpu6500_driver.c **** 	write_mpu(MPU6500_SMPLRT_DIV, 1, write_buffer);
 195              		.loc 1 57 2
  58:mpu6500_driver.c **** 
 196              		.loc 1 58 2 is_stmt 0
 197 007e 7000     		addi	a2,sp,12
 198 0080 8545     		li	a1,1
 199 0082 6545     		li	a0,25
  57:mpu6500_driver.c **** 	write_mpu(MPU6500_SMPLRT_DIV, 1, write_buffer);
 200              		.loc 1 57 18
 201 0084 23060100 		sb	zero,12(sp)
  58:mpu6500_driver.c **** 
 202              		.loc 1 58 2 is_stmt 1
 203 0088 97000000 		call	write_mpu
 203      E7800000 
 204              	.LVL23:
 205              		.loc 1 60 2
  61:mpu6500_driver.c **** 	write_mpu(MPU6500_CONFIG, 1, write_buffer);
 206              		.loc 1 61 2 is_stmt 0
 207 0090 7000     		addi	a2,sp,12
 208 0092 8545     		li	a1,1
 209 0094 6945     		li	a0,26
GAS LISTING C:\Users\Karzan\AppData\Local\Temp\ccJPv6HS.s 			page 6


  60:mpu6500_driver.c **** 	write_mpu(MPU6500_CONFIG, 1, write_buffer);
 210              		.loc 1 60 18
 211 0096 23068100 		sb	s0,12(sp)
 212              		.loc 1 61 2 is_stmt 1
 213 009a 97000000 		call	write_mpu
 213      E7800000 
 214              	.LVL24:
  62:mpu6500_driver.c **** 
  63:mpu6500_driver.c **** 	write_buffer[0] = MPU6500_GYRO_FS_2000DPS;
 215              		.loc 1 63 2
 216              		.loc 1 63 18 is_stmt 0
 217 00a2 E147     		li	a5,24
  64:mpu6500_driver.c **** 	write_mpu(MPU6500_GYRO_CONFIG, 1, write_buffer);
 218              		.loc 1 64 2
 219 00a4 7000     		addi	a2,sp,12
 220 00a6 8545     		li	a1,1
 221 00a8 6D45     		li	a0,27
  63:mpu6500_driver.c **** 	write_mpu(MPU6500_GYRO_CONFIG, 1, write_buffer);
 222              		.loc 1 63 18
 223 00aa 2306F100 		sb	a5,12(sp)
 224              		.loc 1 64 2 is_stmt 1
 225 00ae 97000000 		call	write_mpu
 225      E7800000 
 226              	.LVL25:
  65:mpu6500_driver.c **** 
  66:mpu6500_driver.c **** 	write_buffer[0] = MPU6500_ACCEL_FS_8G;
 227              		.loc 1 66 2
 228              		.loc 1 66 18 is_stmt 0
 229 00b6 C147     		li	a5,16
  67:mpu6500_driver.c **** 	write_mpu(MPU6500_ACCEL_CONFIG, 1, write_buffer);
 230              		.loc 1 67 2
 231 00b8 7000     		addi	a2,sp,12
 232 00ba 8545     		li	a1,1
 233 00bc 7145     		li	a0,28
  66:mpu6500_driver.c **** 	write_mpu(MPU6500_ACCEL_CONFIG, 1, write_buffer);
 234              		.loc 1 66 18
 235 00be 2306F100 		sb	a5,12(sp)
 236              		.loc 1 67 2 is_stmt 1
 237 00c2 97000000 		call	write_mpu
 237      E7800000 
 238              	.LVL26:
  68:mpu6500_driver.c **** 	
  69:mpu6500_driver.c **** 	write_buffer[0] = MPU6500_A_DPLF_92HZ;
 239              		.loc 1 69 2
  70:mpu6500_driver.c **** 	write_mpu(MPU6500_ACCEL_CONFIG2, 1, write_buffer);
 240              		.loc 1 70 2 is_stmt 0
 241 00ca 7000     		addi	a2,sp,12
 242 00cc 8545     		li	a1,1
 243 00ce 7545     		li	a0,29
  69:mpu6500_driver.c **** 	write_mpu(MPU6500_ACCEL_CONFIG2, 1, write_buffer);
 244              		.loc 1 69 18
 245 00d0 23068100 		sb	s0,12(sp)
 246              		.loc 1 70 2 is_stmt 1
 247 00d4 97000000 		call	write_mpu
 247      E7800000 
 248              	.LVL27:
  71:mpu6500_driver.c **** 
GAS LISTING C:\Users\Karzan\AppData\Local\Temp\ccJPv6HS.s 			page 7


  72:mpu6500_driver.c **** 	write_buffer[0] = MPU6500_LATCH_INT_EN | MPU6500_INT_ANYRD_2CLEAR | MPU6500_INT_BYPASS_EN;
 249              		.loc 1 72 2
 250              		.loc 1 72 18 is_stmt 0
 251 00dc 93072003 		li	a5,50
  73:mpu6500_driver.c **** 	write_mpu(MPU6500_INT_PIN_CFG, 1, write_buffer);
 252              		.loc 1 73 2
 253 00e0 7000     		addi	a2,sp,12
 254 00e2 8545     		li	a1,1
 255 00e4 13057003 		li	a0,55
  72:mpu6500_driver.c **** 	write_mpu(MPU6500_INT_PIN_CFG, 1, write_buffer);
 256              		.loc 1 72 18
 257 00e8 2306F100 		sb	a5,12(sp)
 258              		.loc 1 73 2 is_stmt 1
 259 00ec 97000000 		call	write_mpu
 259      E7800000 
 260              	.LVL28:
  74:mpu6500_driver.c **** 
  75:mpu6500_driver.c **** 	write_buffer[0] = MPU6500_INT_RAW_RDY_EN;
 261              		.loc 1 75 2
 262              		.loc 1 75 18 is_stmt 0
 263 00f4 8547     		li	a5,1
  76:mpu6500_driver.c **** 	write_mpu(MPU6500_INT_ENABLE, 1, write_buffer);
 264              		.loc 1 76 2
 265 00f6 13058003 		li	a0,56
 266 00fa 7000     		addi	a2,sp,12
 267 00fc 8545     		li	a1,1
  75:mpu6500_driver.c **** 	write_mpu(MPU6500_INT_ENABLE, 1, write_buffer);
 268              		.loc 1 75 18
 269 00fe 2306F100 		sb	a5,12(sp)
 270              		.loc 1 76 2 is_stmt 1
 271 0102 97000000 		call	write_mpu
 271      E7800000 
 272              	.LVL29:
  77:mpu6500_driver.c **** 
  78:mpu6500_driver.c **** 	return 1;
 273              		.loc 1 78 2
 274              		.loc 1 78 9 is_stmt 0
 275 010a 0545     		li	a0,1
 276              	.L5:
  79:mpu6500_driver.c **** 
  80:mpu6500_driver.c **** }
 277              		.loc 1 80 1
 278 010c F240     		lw	ra,28(sp)
 279              		.cfi_remember_state
 280              		.cfi_restore 1
 281 010e 6244     		lw	s0,24(sp)
 282              		.cfi_restore 8
 283 0110 0561     		addi	sp,sp,32
 284              	.LCFI3:
 285              		.cfi_def_cfa_offset 0
 286 0112 8280     		jr	ra
 287              	.L8:
 288              	.LCFI4:
 289              		.cfi_restore_state
  50:mpu6500_driver.c **** 
 290              		.loc 1 50 47 is_stmt 1 discriminator 2
 291 0114 3000     		addi	a2,sp,8
GAS LISTING C:\Users\Karzan\AppData\Local\Temp\ccJPv6HS.s 			page 8


 292 0116 8545     		li	a1,1
 293 0118 1305B006 		li	a0,107
 294 011c 97000000 		call	read_mpu
 294      E7800000 
 295              	.LVL30:
 296 0124 0DBF     		j	.L7
 297              		.cfi_endproc
 298              	.LFE6:
 300              		.globl	__floatsisf
 301              		.section	.text.mpu6500_getAccel,"ax",@progbits
 302              		.align	1
 303              		.globl	mpu6500_getAccel
 305              	mpu6500_getAccel:
 306              	.LFB7:
  81:mpu6500_driver.c **** 
  82:mpu6500_driver.c **** int mpu6500_getAccel(mpu_vector_t* pAccel){
 307              		.loc 1 82 43
 308              		.cfi_startproc
 309              	.LVL31:
  83:mpu6500_driver.c **** 	mpu_raw_vector_t accel;
 310              		.loc 1 83 2
  84:mpu6500_driver.c **** 	read_mpu(MPU6500_ACCEL_XOUT_H, 6, (uint8_t*) &accel);
 311              		.loc 1 84 2
  82:mpu6500_driver.c **** 	mpu_raw_vector_t accel;
 312              		.loc 1 82 43 is_stmt 0
 313 0000 0111     		addi	sp,sp,-32
 314              	.LCFI5:
 315              		.cfi_def_cfa_offset 32
 316 0002 22CC     		sw	s0,24(sp)
 317              		.loc 1 84 2
 318 0004 3000     		addi	a2,sp,8
 319              		.cfi_offset 8, -8
  82:mpu6500_driver.c **** 	mpu_raw_vector_t accel;
 320              		.loc 1 82 43
 321 0006 2A84     		mv	s0,a0
 322              		.loc 1 84 2
 323 0008 9945     		li	a1,6
 324 000a 1305B003 		li	a0,59
 325              	.LVL32:
  82:mpu6500_driver.c **** 	mpu_raw_vector_t accel;
 326              		.loc 1 82 43
 327 000e 06CE     		sw	ra,28(sp)
 328              		.cfi_offset 1, -4
 329              		.loc 1 84 2
 330 0010 97000000 		call	read_mpu
 330      E7800000 
 331              	.LVL33:
  85:mpu6500_driver.c **** 	pAccel->x = (float) flip_bytes(accel.x);
 332              		.loc 1 85 2 is_stmt 1
 333              		.loc 1 85 22 is_stmt 0
 334 0018 83178100 		lh	a5,8(sp)
 335              	.LVL34:
 336              	.LBB14:
 337              	.LBB15:
  22:mpu6500_driver.c **** 	uint8_t temp = pByte[1];
 338              		.loc 1 22 2 is_stmt 1
  23:mpu6500_driver.c **** 	pByte[1] = pByte[0];
GAS LISTING C:\Users\Karzan\AppData\Local\Temp\ccJPv6HS.s 			page 9


 339              		.loc 1 23 2
  24:mpu6500_driver.c **** 	pByte[0] = temp;
 340              		.loc 1 24 2
  24:mpu6500_driver.c **** 	pByte[0] = temp;
 341              		.loc 1 24 11 is_stmt 0
 342 001c A303F100 		sb	a5,7(sp)
 343              	.LVL35:
  25:mpu6500_driver.c **** 	return bt; 
 344              		.loc 1 25 2 is_stmt 1
  25:mpu6500_driver.c **** 	return bt; 
 345              		.loc 1 25 11 is_stmt 0
 346 0020 A183     		srli	a5,a5,8
 347              	.LVL36:
 348 0022 2303F100 		sb	a5,6(sp)
  26:mpu6500_driver.c **** }
 349              		.loc 1 26 2 is_stmt 1
 350              	.LVL37:
 351              	.LBE15:
 352              	.LBE14:
 353              		.loc 1 85 14 is_stmt 0
 354 0026 03156100 		lh	a0,6(sp)
 355 002a 97000000 		call	__floatsisf
 355      E7800000 
 356              	.LVL38:
  86:mpu6500_driver.c **** 	pAccel->y = (float) flip_bytes(accel.y);
 357              		.loc 1 86 22
 358 0032 8317A100 		lh	a5,10(sp)
  85:mpu6500_driver.c **** 	pAccel->y = (float) flip_bytes(accel.y);
 359              		.loc 1 85 14
 360 0036 08C0     		sw	a0,0(s0)
 361              		.loc 1 86 2 is_stmt 1
 362              	.LVL39:
 363              	.LBB16:
 364              	.LBB17:
  22:mpu6500_driver.c **** 	uint8_t temp = pByte[1];
 365              		.loc 1 22 2
  23:mpu6500_driver.c **** 	pByte[1] = pByte[0];
 366              		.loc 1 23 2
  24:mpu6500_driver.c **** 	pByte[0] = temp;
 367              		.loc 1 24 2
  24:mpu6500_driver.c **** 	pByte[0] = temp;
 368              		.loc 1 24 11 is_stmt 0
 369 0038 A303F100 		sb	a5,7(sp)
  25:mpu6500_driver.c **** 	return bt; 
 370              		.loc 1 25 2 is_stmt 1
  25:mpu6500_driver.c **** 	return bt; 
 371              		.loc 1 25 11 is_stmt 0
 372 003c A183     		srli	a5,a5,8
 373              	.LVL40:
 374 003e 2303F100 		sb	a5,6(sp)
  26:mpu6500_driver.c **** }
 375              		.loc 1 26 2 is_stmt 1
 376              	.LVL41:
 377              	.LBE17:
 378              	.LBE16:
 379              		.loc 1 86 14 is_stmt 0
 380 0042 03156100 		lh	a0,6(sp)
GAS LISTING C:\Users\Karzan\AppData\Local\Temp\ccJPv6HS.s 			page 10


 381 0046 97000000 		call	__floatsisf
 381      E7800000 
 382              	.LVL42:
  87:mpu6500_driver.c **** 	pAccel->z = (float) flip_bytes(accel.z);
 383              		.loc 1 87 22
 384 004e 8317C100 		lh	a5,12(sp)
  86:mpu6500_driver.c **** 	pAccel->z = (float) flip_bytes(accel.z);
 385              		.loc 1 86 14
 386 0052 48C0     		sw	a0,4(s0)
 387              		.loc 1 87 2 is_stmt 1
 388              	.LVL43:
 389              	.LBB18:
 390              	.LBB19:
  22:mpu6500_driver.c **** 	uint8_t temp = pByte[1];
 391              		.loc 1 22 2
  23:mpu6500_driver.c **** 	pByte[1] = pByte[0];
 392              		.loc 1 23 2
  24:mpu6500_driver.c **** 	pByte[0] = temp;
 393              		.loc 1 24 2
  24:mpu6500_driver.c **** 	pByte[0] = temp;
 394              		.loc 1 24 11 is_stmt 0
 395 0054 A303F100 		sb	a5,7(sp)
  25:mpu6500_driver.c **** 	return bt; 
 396              		.loc 1 25 2 is_stmt 1
  25:mpu6500_driver.c **** 	return bt; 
 397              		.loc 1 25 11 is_stmt 0
 398 0058 A183     		srli	a5,a5,8
 399              	.LVL44:
 400 005a 2303F100 		sb	a5,6(sp)
  26:mpu6500_driver.c **** }
 401              		.loc 1 26 2 is_stmt 1
 402              	.LVL45:
 403              	.LBE19:
 404              	.LBE18:
 405              		.loc 1 87 14 is_stmt 0
 406 005e 03156100 		lh	a0,6(sp)
 407 0062 97000000 		call	__floatsisf
 407      E7800000 
 408              	.LVL46:
 409 006a 08C4     		sw	a0,8(s0)
  88:mpu6500_driver.c **** 	return 1;
 410              		.loc 1 88 2 is_stmt 1
  89:mpu6500_driver.c **** }
 411              		.loc 1 89 1 is_stmt 0
 412 006c F240     		lw	ra,28(sp)
 413              		.cfi_restore 1
 414 006e 6244     		lw	s0,24(sp)
 415              		.cfi_restore 8
 416              	.LVL47:
 417 0070 0545     		li	a0,1
 418 0072 0561     		addi	sp,sp,32
 419              	.LCFI6:
 420              		.cfi_def_cfa_offset 0
 421              	.LVL48:
 422 0074 8280     		jr	ra
 423              		.cfi_endproc
 424              	.LFE7:
GAS LISTING C:\Users\Karzan\AppData\Local\Temp\ccJPv6HS.s 			page 11


 426              		.section	.text.mpu6500_getGyro,"ax",@progbits
 427              		.align	1
 428              		.globl	mpu6500_getGyro
 430              	mpu6500_getGyro:
 431              	.LFB8:
  90:mpu6500_driver.c **** 
  91:mpu6500_driver.c **** int mpu6500_getGyro(mpu_vector_t* pGyro){
 432              		.loc 1 91 41 is_stmt 1
 433              		.cfi_startproc
 434              	.LVL49:
  92:mpu6500_driver.c **** 	mpu_raw_vector_t gyro;
 435              		.loc 1 92 2
  93:mpu6500_driver.c **** 	read_mpu(MPU6500_GYRO_XOUT_H, 6, (uint8_t*) &gyro);
 436              		.loc 1 93 2
  91:mpu6500_driver.c **** 	mpu_raw_vector_t gyro;
 437              		.loc 1 91 41 is_stmt 0
 438 0000 0111     		addi	sp,sp,-32
 439              	.LCFI7:
 440              		.cfi_def_cfa_offset 32
 441 0002 22CC     		sw	s0,24(sp)
 442              		.loc 1 93 2
 443 0004 3000     		addi	a2,sp,8
 444              		.cfi_offset 8, -8
  91:mpu6500_driver.c **** 	mpu_raw_vector_t gyro;
 445              		.loc 1 91 41
 446 0006 2A84     		mv	s0,a0
 447              		.loc 1 93 2
 448 0008 9945     		li	a1,6
 449 000a 13053004 		li	a0,67
 450              	.LVL50:
  91:mpu6500_driver.c **** 	mpu_raw_vector_t gyro;
 451              		.loc 1 91 41
 452 000e 06CE     		sw	ra,28(sp)
 453              		.cfi_offset 1, -4
 454              		.loc 1 93 2
 455 0010 97000000 		call	read_mpu
 455      E7800000 
 456              	.LVL51:
  94:mpu6500_driver.c **** 	pGyro->x = (float) flip_bytes(gyro.x);
 457              		.loc 1 94 2 is_stmt 1
 458              		.loc 1 94 21 is_stmt 0
 459 0018 83178100 		lh	a5,8(sp)
 460              	.LVL52:
 461              	.LBB20:
 462              	.LBB21:
  22:mpu6500_driver.c **** 	uint8_t temp = pByte[1];
 463              		.loc 1 22 2 is_stmt 1
  23:mpu6500_driver.c **** 	pByte[1] = pByte[0];
 464              		.loc 1 23 2
  24:mpu6500_driver.c **** 	pByte[0] = temp;
 465              		.loc 1 24 2
  24:mpu6500_driver.c **** 	pByte[0] = temp;
 466              		.loc 1 24 11 is_stmt 0
 467 001c A303F100 		sb	a5,7(sp)
 468              	.LVL53:
  25:mpu6500_driver.c **** 	return bt; 
 469              		.loc 1 25 2 is_stmt 1
GAS LISTING C:\Users\Karzan\AppData\Local\Temp\ccJPv6HS.s 			page 12


  25:mpu6500_driver.c **** 	return bt; 
 470              		.loc 1 25 11 is_stmt 0
 471 0020 A183     		srli	a5,a5,8
 472              	.LVL54:
 473 0022 2303F100 		sb	a5,6(sp)
  26:mpu6500_driver.c **** }
 474              		.loc 1 26 2 is_stmt 1
 475              	.LVL55:
 476              	.LBE21:
 477              	.LBE20:
 478              		.loc 1 94 13 is_stmt 0
 479 0026 03156100 		lh	a0,6(sp)
 480 002a 97000000 		call	__floatsisf
 480      E7800000 
 481              	.LVL56:
  95:mpu6500_driver.c **** 	pGyro->y = (float) flip_bytes(gyro.y);
 482              		.loc 1 95 21
 483 0032 8317A100 		lh	a5,10(sp)
  94:mpu6500_driver.c **** 	pGyro->y = (float) flip_bytes(gyro.y);
 484              		.loc 1 94 13
 485 0036 08C0     		sw	a0,0(s0)
 486              		.loc 1 95 2 is_stmt 1
 487              	.LVL57:
 488              	.LBB22:
 489              	.LBB23:
  22:mpu6500_driver.c **** 	uint8_t temp = pByte[1];
 490              		.loc 1 22 2
  23:mpu6500_driver.c **** 	pByte[1] = pByte[0];
 491              		.loc 1 23 2
  24:mpu6500_driver.c **** 	pByte[0] = temp;
 492              		.loc 1 24 2
  24:mpu6500_driver.c **** 	pByte[0] = temp;
 493              		.loc 1 24 11 is_stmt 0
 494 0038 A303F100 		sb	a5,7(sp)
  25:mpu6500_driver.c **** 	return bt; 
 495              		.loc 1 25 2 is_stmt 1
  25:mpu6500_driver.c **** 	return bt; 
 496              		.loc 1 25 11 is_stmt 0
 497 003c A183     		srli	a5,a5,8
 498              	.LVL58:
 499 003e 2303F100 		sb	a5,6(sp)
  26:mpu6500_driver.c **** }
 500              		.loc 1 26 2 is_stmt 1
 501              	.LVL59:
 502              	.LBE23:
 503              	.LBE22:
 504              		.loc 1 95 13 is_stmt 0
 505 0042 03156100 		lh	a0,6(sp)
 506 0046 97000000 		call	__floatsisf
 506      E7800000 
 507              	.LVL60:
  96:mpu6500_driver.c **** 	pGyro->z = (float) flip_bytes(gyro.z);
 508              		.loc 1 96 21
 509 004e 8317C100 		lh	a5,12(sp)
  95:mpu6500_driver.c **** 	pGyro->z = (float) flip_bytes(gyro.z);
 510              		.loc 1 95 13
 511 0052 48C0     		sw	a0,4(s0)
GAS LISTING C:\Users\Karzan\AppData\Local\Temp\ccJPv6HS.s 			page 13


 512              		.loc 1 96 2 is_stmt 1
 513              	.LVL61:
 514              	.LBB24:
 515              	.LBB25:
  22:mpu6500_driver.c **** 	uint8_t temp = pByte[1];
 516              		.loc 1 22 2
  23:mpu6500_driver.c **** 	pByte[1] = pByte[0];
 517              		.loc 1 23 2
  24:mpu6500_driver.c **** 	pByte[0] = temp;
 518              		.loc 1 24 2
  24:mpu6500_driver.c **** 	pByte[0] = temp;
 519              		.loc 1 24 11 is_stmt 0
 520 0054 A303F100 		sb	a5,7(sp)
  25:mpu6500_driver.c **** 	return bt; 
 521              		.loc 1 25 2 is_stmt 1
  25:mpu6500_driver.c **** 	return bt; 
 522              		.loc 1 25 11 is_stmt 0
 523 0058 A183     		srli	a5,a5,8
 524              	.LVL62:
 525 005a 2303F100 		sb	a5,6(sp)
  26:mpu6500_driver.c **** }
 526              		.loc 1 26 2 is_stmt 1
 527              	.LVL63:
 528              	.LBE25:
 529              	.LBE24:
 530              		.loc 1 96 13 is_stmt 0
 531 005e 03156100 		lh	a0,6(sp)
 532 0062 97000000 		call	__floatsisf
 532      E7800000 
 533              	.LVL64:
 534 006a 08C4     		sw	a0,8(s0)
  97:mpu6500_driver.c **** 	return 1;
 535              		.loc 1 97 2 is_stmt 1
  98:mpu6500_driver.c **** }
 536              		.loc 1 98 1 is_stmt 0
 537 006c F240     		lw	ra,28(sp)
 538              		.cfi_restore 1
 539 006e 6244     		lw	s0,24(sp)
 540              		.cfi_restore 8
 541              	.LVL65:
 542 0070 0545     		li	a0,1
 543 0072 0561     		addi	sp,sp,32
 544              	.LCFI8:
 545              		.cfi_def_cfa_offset 0
 546              	.LVL66:
 547 0074 8280     		jr	ra
 548              		.cfi_endproc
 549              	.LFE8:
 551              		.section	.text.mpu6500_getGyroAccel,"ax",@progbits
 552              		.align	1
 553              		.globl	mpu6500_getGyroAccel
 555              	mpu6500_getGyroAccel:
 556              	.LFB9:
  99:mpu6500_driver.c **** 
 100:mpu6500_driver.c **** int mpu6500_getGyroAccel(mpu_vector_t* pGyro, mpu_vector_t* pAccel){
 557              		.loc 1 100 68 is_stmt 1
 558              		.cfi_startproc
GAS LISTING C:\Users\Karzan\AppData\Local\Temp\ccJPv6HS.s 			page 14


 559              	.LVL67:
 101:mpu6500_driver.c **** 	mpu6500_getAccel(pAccel);
 560              		.loc 1 101 2
 100:mpu6500_driver.c **** 	mpu6500_getAccel(pAccel);
 561              		.loc 1 100 68 is_stmt 0
 562 0000 4111     		addi	sp,sp,-16
 563              	.LCFI9:
 564              		.cfi_def_cfa_offset 16
 565 0002 22C4     		sw	s0,8(sp)
 566              		.cfi_offset 8, -8
 567 0004 2A84     		mv	s0,a0
 568              		.loc 1 101 2
 569 0006 2E85     		mv	a0,a1
 570              	.LVL68:
 100:mpu6500_driver.c **** 	mpu6500_getAccel(pAccel);
 571              		.loc 1 100 68
 572 0008 06C6     		sw	ra,12(sp)
 573              		.cfi_offset 1, -4
 574              		.loc 1 101 2
 575 000a 97000000 		call	mpu6500_getAccel
 575      E7800000 
 576              	.LVL69:
 102:mpu6500_driver.c **** 	mpu6500_getGyro(pGyro);
 577              		.loc 1 102 2 is_stmt 1
 578 0012 2285     		mv	a0,s0
 579 0014 97000000 		call	mpu6500_getGyro
 579      E7800000 
 580              	.LVL70:
 103:mpu6500_driver.c **** 	return 1;
 581              		.loc 1 103 2
 104:mpu6500_driver.c **** }
 582              		.loc 1 104 1 is_stmt 0
 583 001c B240     		lw	ra,12(sp)
 584              		.cfi_restore 1
 585 001e 2244     		lw	s0,8(sp)
 586              		.cfi_restore 8
 587              	.LVL71:
 588 0020 0545     		li	a0,1
 589 0022 4101     		addi	sp,sp,16
 590              	.LCFI10:
 591              		.cfi_def_cfa_offset 0
 592 0024 8280     		jr	ra
 593              		.cfi_endproc
 594              	.LFE9:
 596              		.comm	cb,16,4
 597              		.text
 598              	.Letext0:
 599              		.file 2 "c:\\users\\karzan\\downloads\\toolchain-gd32v-v202-win\\toolchain-gd32v-v202-win\\compile
 600              		.file 3 "c:\\users\\karzan\\downloads\\toolchain-gd32v-v202-win\\toolchain-gd32v-v202-win\\compile
 601              		.file 4 "c:\\users\\karzan\\downloads\\toolchain-gd32v-v202-win\\toolchain-gd32v-v202-win\\compile
 602              		.file 5 "c:\\users\\karzan\\downloads\\toolchain-gd32v-v202-win\\toolchain-gd32v-v202-win\\compile
 603              		.file 6 "c:\\users\\karzan\\downloads\\toolchain-gd32v-v202-win\\toolchain-gd32v-v202-win\\compile
 604              		.file 7 "c:\\users\\karzan\\downloads\\toolchain-gd32v-v202-win\\toolchain-gd32v-v202-win\\compile
 605              		.file 8 "mpu6500_driver.h"
GAS LISTING C:\Users\Karzan\AppData\Local\Temp\ccJPv6HS.s 			page 15


DEFINED SYMBOLS
                            *ABS*:0000000000000000 mpu6500_driver.c
C:\Users\Karzan\AppData\Local\Temp\ccJPv6HS.s:13     .text.read_mpu:0000000000000000 read_mpu
C:\Users\Karzan\AppData\Local\Temp\ccJPv6HS.s:17     .text.read_mpu:0000000000000000 .L0 
C:\Users\Karzan\AppData\Local\Temp\ccJPv6HS.s:19     .text.read_mpu:0000000000000000 .L0 
                            *COM*:0000000000000010 cb
C:\Users\Karzan\AppData\Local\Temp\ccJPv6HS.s:20     .text.read_mpu:0000000000000000 .L0 
C:\Users\Karzan\AppData\Local\Temp\ccJPv6HS.s:33     .text.read_mpu:000000000000001a .L0 
C:\Users\Karzan\AppData\Local\Temp\ccJPv6HS.s:40     .text.write_mpu:0000000000000000 write_mpu
C:\Users\Karzan\AppData\Local\Temp\ccJPv6HS.s:43     .text.write_mpu:0000000000000000 .L0 
C:\Users\Karzan\AppData\Local\Temp\ccJPv6HS.s:45     .text.write_mpu:0000000000000000 .L0 
C:\Users\Karzan\AppData\Local\Temp\ccJPv6HS.s:46     .text.write_mpu:0000000000000000 .L0 
C:\Users\Karzan\AppData\Local\Temp\ccJPv6HS.s:59     .text.write_mpu:000000000000001a .L0 
C:\Users\Karzan\AppData\Local\Temp\ccJPv6HS.s:66     .text.flip_bytes:0000000000000000 flip_bytes
C:\Users\Karzan\AppData\Local\Temp\ccJPv6HS.s:69     .text.flip_bytes:0000000000000000 .L0 
C:\Users\Karzan\AppData\Local\Temp\ccJPv6HS.s:71     .text.flip_bytes:0000000000000000 .L0 
C:\Users\Karzan\AppData\Local\Temp\ccJPv6HS.s:72     .text.flip_bytes:0000000000000000 .L0 
C:\Users\Karzan\AppData\Local\Temp\ccJPv6HS.s:73     .text.flip_bytes:0000000000000000 .L0 
C:\Users\Karzan\AppData\Local\Temp\ccJPv6HS.s:80     .text.flip_bytes:000000000000000c .L0 
C:\Users\Karzan\AppData\Local\Temp\ccJPv6HS.s:82     .text.flip_bytes:000000000000000e .L0 
C:\Users\Karzan\AppData\Local\Temp\ccJPv6HS.s:85     .text.flip_bytes:000000000000000e .L0 
C:\Users\Karzan\AppData\Local\Temp\ccJPv6HS.s:86     .text.flip_bytes:000000000000000e .L0 
C:\Users\Karzan\AppData\Local\Temp\ccJPv6HS.s:87     .text.flip_bytes:000000000000000e .L0 
C:\Users\Karzan\AppData\Local\Temp\ccJPv6HS.s:88     .text.flip_bytes:000000000000000e .L0 
C:\Users\Karzan\AppData\Local\Temp\ccJPv6HS.s:89     .text.flip_bytes:000000000000000e .L0 
C:\Users\Karzan\AppData\Local\Temp\ccJPv6HS.s:93     .text.flip_bytes:0000000000000014 .L0 
C:\Users\Karzan\AppData\Local\Temp\ccJPv6HS.s:96     .text.flip_bytes:0000000000000016 .L0 
C:\Users\Karzan\AppData\Local\Temp\ccJPv6HS.s:103    .text.mpu6500_init:0000000000000000 mpu6500_init
C:\Users\Karzan\AppData\Local\Temp\ccJPv6HS.s:106    .text.mpu6500_init:0000000000000000 .L0 
C:\Users\Karzan\AppData\Local\Temp\ccJPv6HS.s:108    .text.mpu6500_init:0000000000000000 .L0 
C:\Users\Karzan\AppData\Local\Temp\ccJPv6HS.s:109    .text.mpu6500_init:0000000000000000 .L0 
C:\Users\Karzan\AppData\Local\Temp\ccJPv6HS.s:110    .text.mpu6500_init:0000000000000000 .L0 
C:\Users\Karzan\AppData\Local\Temp\ccJPv6HS.s:111    .text.mpu6500_init:0000000000000000 .L0 
C:\Users\Karzan\AppData\Local\Temp\ccJPv6HS.s:112    .text.mpu6500_init:0000000000000000 .L0 
C:\Users\Karzan\AppData\Local\Temp\ccJPv6HS.s:114    .text.mpu6500_init:0000000000000002 .L0 
C:\Users\Karzan\AppData\Local\Temp\ccJPv6HS.s:116    .text.mpu6500_init:0000000000000004 .L0 
C:\Users\Karzan\AppData\Local\Temp\ccJPv6HS.s:118    .text.mpu6500_init:0000000000000004 .L0 
C:\Users\Karzan\AppData\Local\Temp\ccJPv6HS.s:121    .text.mpu6500_init:000000000000000c .L0 
C:\Users\Karzan\AppData\Local\Temp\ccJPv6HS.s:122    .text.mpu6500_init:000000000000000e .L0 
C:\Users\Karzan\AppData\Local\Temp\ccJPv6HS.s:124    .text.mpu6500_init:000000000000000e .L0 
C:\Users\Karzan\AppData\Local\Temp\ccJPv6HS.s:126    .text.mpu6500_init:0000000000000010 .L0 
C:\Users\Karzan\AppData\Local\Temp\ccJPv6HS.s:127    .text.mpu6500_init:0000000000000010 .L0 
C:\Users\Karzan\AppData\Local\Temp\ccJPv6HS.s:129    .text.mpu6500_init:0000000000000012 .L0 
C:\Users\Karzan\AppData\Local\Temp\ccJPv6HS.s:130    .text.mpu6500_init:0000000000000012 .L0 
C:\Users\Karzan\AppData\Local\Temp\ccJPv6HS.s:132    .text.mpu6500_init:0000000000000014 .L0 
C:\Users\Karzan\AppData\Local\Temp\ccJPv6HS.s:133    .text.mpu6500_init:0000000000000014 .L0 
C:\Users\Karzan\AppData\Local\Temp\ccJPv6HS.s:140    .text.mpu6500_init:000000000000001c .L0 
C:\Users\Karzan\AppData\Local\Temp\ccJPv6HS.s:142    .text.mpu6500_init:000000000000001e .L0 
C:\Users\Karzan\AppData\Local\Temp\ccJPv6HS.s:145    .text.mpu6500_init:0000000000000026 .L0 
C:\Users\Karzan\AppData\Local\Temp\ccJPv6HS.s:146    .text.mpu6500_init:0000000000000026 .L0 
C:\Users\Karzan\AppData\Local\Temp\ccJPv6HS.s:149    .text.mpu6500_init:000000000000002c .L0 
C:\Users\Karzan\AppData\Local\Temp\ccJPv6HS.s:151    .text.mpu6500_init:000000000000002e .L0 
C:\Users\Karzan\AppData\Local\Temp\ccJPv6HS.s:153    .text.mpu6500_init:0000000000000032 .L0 
C:\Users\Karzan\AppData\Local\Temp\ccJPv6HS.s:155    .text.mpu6500_init:0000000000000036 .L0 
C:\Users\Karzan\AppData\Local\Temp\ccJPv6HS.s:159    .text.mpu6500_init:000000000000003e .L0 
C:\Users\Karzan\AppData\Local\Temp\ccJPv6HS.s:162    .text.mpu6500_init:0000000000000046 .L0 
C:\Users\Karzan\AppData\Local\Temp\ccJPv6HS.s:163    .text.mpu6500_init:0000000000000046 .L0 
GAS LISTING C:\Users\Karzan\AppData\Local\Temp\ccJPv6HS.s 			page 16


C:\Users\Karzan\AppData\Local\Temp\ccJPv6HS.s:166    .text.mpu6500_init:000000000000004e .L0 
C:\Users\Karzan\AppData\Local\Temp\ccJPv6HS.s:172    .text.mpu6500_init:0000000000000056 .L0 
C:\Users\Karzan\AppData\Local\Temp\ccJPv6HS.s:173    .text.mpu6500_init:0000000000000056 .L0 
C:\Users\Karzan\AppData\Local\Temp\ccJPv6HS.s:176    .text.mpu6500_init:000000000000005e .L0 
C:\Users\Karzan\AppData\Local\Temp\ccJPv6HS.s:179    .text.mpu6500_init:0000000000000064 .L0 
C:\Users\Karzan\AppData\Local\Temp\ccJPv6HS.s:181    .text.mpu6500_init:0000000000000066 .L0 
C:\Users\Karzan\AppData\Local\Temp\ccJPv6HS.s:184    .text.mpu6500_init:0000000000000068 .L0 
C:\Users\Karzan\AppData\Local\Temp\ccJPv6HS.s:185    .text.mpu6500_init:0000000000000068 .L0 
C:\Users\Karzan\AppData\Local\Temp\ccJPv6HS.s:187    .text.mpu6500_init:000000000000006a .L0 
C:\Users\Karzan\AppData\Local\Temp\ccJPv6HS.s:191    .text.mpu6500_init:0000000000000072 .L0 
C:\Users\Karzan\AppData\Local\Temp\ccJPv6HS.s:193    .text.mpu6500_init:0000000000000076 .L0 
C:\Users\Karzan\AppData\Local\Temp\ccJPv6HS.s:196    .text.mpu6500_init:000000000000007e .L0 
C:\Users\Karzan\AppData\Local\Temp\ccJPv6HS.s:197    .text.mpu6500_init:000000000000007e .L0 
C:\Users\Karzan\AppData\Local\Temp\ccJPv6HS.s:201    .text.mpu6500_init:0000000000000084 .L0 
C:\Users\Karzan\AppData\Local\Temp\ccJPv6HS.s:203    .text.mpu6500_init:0000000000000088 .L0 
C:\Users\Karzan\AppData\Local\Temp\ccJPv6HS.s:206    .text.mpu6500_init:0000000000000090 .L0 
C:\Users\Karzan\AppData\Local\Temp\ccJPv6HS.s:207    .text.mpu6500_init:0000000000000090 .L0 
C:\Users\Karzan\AppData\Local\Temp\ccJPv6HS.s:211    .text.mpu6500_init:0000000000000096 .L0 
C:\Users\Karzan\AppData\Local\Temp\ccJPv6HS.s:213    .text.mpu6500_init:000000000000009a .L0 
C:\Users\Karzan\AppData\Local\Temp\ccJPv6HS.s:216    .text.mpu6500_init:00000000000000a2 .L0 
C:\Users\Karzan\AppData\Local\Temp\ccJPv6HS.s:217    .text.mpu6500_init:00000000000000a2 .L0 
C:\Users\Karzan\AppData\Local\Temp\ccJPv6HS.s:219    .text.mpu6500_init:00000000000000a4 .L0 
C:\Users\Karzan\AppData\Local\Temp\ccJPv6HS.s:223    .text.mpu6500_init:00000000000000aa .L0 
C:\Users\Karzan\AppData\Local\Temp\ccJPv6HS.s:225    .text.mpu6500_init:00000000000000ae .L0 
C:\Users\Karzan\AppData\Local\Temp\ccJPv6HS.s:228    .text.mpu6500_init:00000000000000b6 .L0 
C:\Users\Karzan\AppData\Local\Temp\ccJPv6HS.s:229    .text.mpu6500_init:00000000000000b6 .L0 
C:\Users\Karzan\AppData\Local\Temp\ccJPv6HS.s:231    .text.mpu6500_init:00000000000000b8 .L0 
C:\Users\Karzan\AppData\Local\Temp\ccJPv6HS.s:235    .text.mpu6500_init:00000000000000be .L0 
C:\Users\Karzan\AppData\Local\Temp\ccJPv6HS.s:237    .text.mpu6500_init:00000000000000c2 .L0 
C:\Users\Karzan\AppData\Local\Temp\ccJPv6HS.s:240    .text.mpu6500_init:00000000000000ca .L0 
C:\Users\Karzan\AppData\Local\Temp\ccJPv6HS.s:241    .text.mpu6500_init:00000000000000ca .L0 
C:\Users\Karzan\AppData\Local\Temp\ccJPv6HS.s:245    .text.mpu6500_init:00000000000000d0 .L0 
C:\Users\Karzan\AppData\Local\Temp\ccJPv6HS.s:247    .text.mpu6500_init:00000000000000d4 .L0 
C:\Users\Karzan\AppData\Local\Temp\ccJPv6HS.s:250    .text.mpu6500_init:00000000000000dc .L0 
C:\Users\Karzan\AppData\Local\Temp\ccJPv6HS.s:251    .text.mpu6500_init:00000000000000dc .L0 
C:\Users\Karzan\AppData\Local\Temp\ccJPv6HS.s:253    .text.mpu6500_init:00000000000000e0 .L0 
C:\Users\Karzan\AppData\Local\Temp\ccJPv6HS.s:257    .text.mpu6500_init:00000000000000e8 .L0 
C:\Users\Karzan\AppData\Local\Temp\ccJPv6HS.s:259    .text.mpu6500_init:00000000000000ec .L0 
C:\Users\Karzan\AppData\Local\Temp\ccJPv6HS.s:262    .text.mpu6500_init:00000000000000f4 .L0 
C:\Users\Karzan\AppData\Local\Temp\ccJPv6HS.s:263    .text.mpu6500_init:00000000000000f4 .L0 
C:\Users\Karzan\AppData\Local\Temp\ccJPv6HS.s:265    .text.mpu6500_init:00000000000000f6 .L0 
C:\Users\Karzan\AppData\Local\Temp\ccJPv6HS.s:269    .text.mpu6500_init:00000000000000fe .L0 
C:\Users\Karzan\AppData\Local\Temp\ccJPv6HS.s:271    .text.mpu6500_init:0000000000000102 .L0 
C:\Users\Karzan\AppData\Local\Temp\ccJPv6HS.s:274    .text.mpu6500_init:000000000000010a .L0 
C:\Users\Karzan\AppData\Local\Temp\ccJPv6HS.s:275    .text.mpu6500_init:000000000000010a .L0 
C:\Users\Karzan\AppData\Local\Temp\ccJPv6HS.s:278    .text.mpu6500_init:000000000000010c .L0 
C:\Users\Karzan\AppData\Local\Temp\ccJPv6HS.s:279    .text.mpu6500_init:000000000000010e .L0 
C:\Users\Karzan\AppData\Local\Temp\ccJPv6HS.s:280    .text.mpu6500_init:000000000000010e .L0 
C:\Users\Karzan\AppData\Local\Temp\ccJPv6HS.s:282    .text.mpu6500_init:0000000000000110 .L0 
C:\Users\Karzan\AppData\Local\Temp\ccJPv6HS.s:285    .text.mpu6500_init:0000000000000112 .L0 
C:\Users\Karzan\AppData\Local\Temp\ccJPv6HS.s:289    .text.mpu6500_init:0000000000000114 .L0 
C:\Users\Karzan\AppData\Local\Temp\ccJPv6HS.s:291    .text.mpu6500_init:0000000000000114 .L0 
C:\Users\Karzan\AppData\Local\Temp\ccJPv6HS.s:297    .text.mpu6500_init:0000000000000126 .L0 
C:\Users\Karzan\AppData\Local\Temp\ccJPv6HS.s:305    .text.mpu6500_getAccel:0000000000000000 mpu6500_getAccel
C:\Users\Karzan\AppData\Local\Temp\ccJPv6HS.s:308    .text.mpu6500_getAccel:0000000000000000 .L0 
C:\Users\Karzan\AppData\Local\Temp\ccJPv6HS.s:310    .text.mpu6500_getAccel:0000000000000000 .L0 
C:\Users\Karzan\AppData\Local\Temp\ccJPv6HS.s:311    .text.mpu6500_getAccel:0000000000000000 .L0 
GAS LISTING C:\Users\Karzan\AppData\Local\Temp\ccJPv6HS.s 			page 17


C:\Users\Karzan\AppData\Local\Temp\ccJPv6HS.s:312    .text.mpu6500_getAccel:0000000000000000 .L0 
C:\Users\Karzan\AppData\Local\Temp\ccJPv6HS.s:313    .text.mpu6500_getAccel:0000000000000000 .L0 
C:\Users\Karzan\AppData\Local\Temp\ccJPv6HS.s:315    .text.mpu6500_getAccel:0000000000000002 .L0 
C:\Users\Karzan\AppData\Local\Temp\ccJPv6HS.s:318    .text.mpu6500_getAccel:0000000000000004 .L0 
C:\Users\Karzan\AppData\Local\Temp\ccJPv6HS.s:319    .text.mpu6500_getAccel:0000000000000006 .L0 
C:\Users\Karzan\AppData\Local\Temp\ccJPv6HS.s:321    .text.mpu6500_getAccel:0000000000000006 .L0 
C:\Users\Karzan\AppData\Local\Temp\ccJPv6HS.s:323    .text.mpu6500_getAccel:0000000000000008 .L0 
C:\Users\Karzan\AppData\Local\Temp\ccJPv6HS.s:327    .text.mpu6500_getAccel:000000000000000e .L0 
C:\Users\Karzan\AppData\Local\Temp\ccJPv6HS.s:328    .text.mpu6500_getAccel:0000000000000010 .L0 
C:\Users\Karzan\AppData\Local\Temp\ccJPv6HS.s:330    .text.mpu6500_getAccel:0000000000000010 .L0 
C:\Users\Karzan\AppData\Local\Temp\ccJPv6HS.s:333    .text.mpu6500_getAccel:0000000000000018 .L0 
C:\Users\Karzan\AppData\Local\Temp\ccJPv6HS.s:334    .text.mpu6500_getAccel:0000000000000018 .L0 
C:\Users\Karzan\AppData\Local\Temp\ccJPv6HS.s:339    .text.mpu6500_getAccel:000000000000001c .L0 
C:\Users\Karzan\AppData\Local\Temp\ccJPv6HS.s:340    .text.mpu6500_getAccel:000000000000001c .L0 
C:\Users\Karzan\AppData\Local\Temp\ccJPv6HS.s:341    .text.mpu6500_getAccel:000000000000001c .L0 
C:\Users\Karzan\AppData\Local\Temp\ccJPv6HS.s:342    .text.mpu6500_getAccel:000000000000001c .L0 
C:\Users\Karzan\AppData\Local\Temp\ccJPv6HS.s:345    .text.mpu6500_getAccel:0000000000000020 .L0 
C:\Users\Karzan\AppData\Local\Temp\ccJPv6HS.s:346    .text.mpu6500_getAccel:0000000000000020 .L0 
C:\Users\Karzan\AppData\Local\Temp\ccJPv6HS.s:353    .text.mpu6500_getAccel:0000000000000026 .L0 
C:\Users\Karzan\AppData\Local\Temp\ccJPv6HS.s:354    .text.mpu6500_getAccel:0000000000000026 .L0 
C:\Users\Karzan\AppData\Local\Temp\ccJPv6HS.s:358    .text.mpu6500_getAccel:0000000000000032 .L0 
C:\Users\Karzan\AppData\Local\Temp\ccJPv6HS.s:360    .text.mpu6500_getAccel:0000000000000036 .L0 
C:\Users\Karzan\AppData\Local\Temp\ccJPv6HS.s:365    .text.mpu6500_getAccel:0000000000000038 .L0 
C:\Users\Karzan\AppData\Local\Temp\ccJPv6HS.s:366    .text.mpu6500_getAccel:0000000000000038 .L0 
C:\Users\Karzan\AppData\Local\Temp\ccJPv6HS.s:367    .text.mpu6500_getAccel:0000000000000038 .L0 
C:\Users\Karzan\AppData\Local\Temp\ccJPv6HS.s:368    .text.mpu6500_getAccel:0000000000000038 .L0 
C:\Users\Karzan\AppData\Local\Temp\ccJPv6HS.s:369    .text.mpu6500_getAccel:0000000000000038 .L0 
C:\Users\Karzan\AppData\Local\Temp\ccJPv6HS.s:371    .text.mpu6500_getAccel:000000000000003c .L0 
C:\Users\Karzan\AppData\Local\Temp\ccJPv6HS.s:372    .text.mpu6500_getAccel:000000000000003c .L0 
C:\Users\Karzan\AppData\Local\Temp\ccJPv6HS.s:379    .text.mpu6500_getAccel:0000000000000042 .L0 
C:\Users\Karzan\AppData\Local\Temp\ccJPv6HS.s:380    .text.mpu6500_getAccel:0000000000000042 .L0 
C:\Users\Karzan\AppData\Local\Temp\ccJPv6HS.s:384    .text.mpu6500_getAccel:000000000000004e .L0 
C:\Users\Karzan\AppData\Local\Temp\ccJPv6HS.s:386    .text.mpu6500_getAccel:0000000000000052 .L0 
C:\Users\Karzan\AppData\Local\Temp\ccJPv6HS.s:391    .text.mpu6500_getAccel:0000000000000054 .L0 
C:\Users\Karzan\AppData\Local\Temp\ccJPv6HS.s:392    .text.mpu6500_getAccel:0000000000000054 .L0 
C:\Users\Karzan\AppData\Local\Temp\ccJPv6HS.s:393    .text.mpu6500_getAccel:0000000000000054 .L0 
C:\Users\Karzan\AppData\Local\Temp\ccJPv6HS.s:394    .text.mpu6500_getAccel:0000000000000054 .L0 
C:\Users\Karzan\AppData\Local\Temp\ccJPv6HS.s:395    .text.mpu6500_getAccel:0000000000000054 .L0 
C:\Users\Karzan\AppData\Local\Temp\ccJPv6HS.s:397    .text.mpu6500_getAccel:0000000000000058 .L0 
C:\Users\Karzan\AppData\Local\Temp\ccJPv6HS.s:398    .text.mpu6500_getAccel:0000000000000058 .L0 
C:\Users\Karzan\AppData\Local\Temp\ccJPv6HS.s:405    .text.mpu6500_getAccel:000000000000005e .L0 
C:\Users\Karzan\AppData\Local\Temp\ccJPv6HS.s:406    .text.mpu6500_getAccel:000000000000005e .L0 
C:\Users\Karzan\AppData\Local\Temp\ccJPv6HS.s:411    .text.mpu6500_getAccel:000000000000006c .L0 
C:\Users\Karzan\AppData\Local\Temp\ccJPv6HS.s:412    .text.mpu6500_getAccel:000000000000006c .L0 
C:\Users\Karzan\AppData\Local\Temp\ccJPv6HS.s:413    .text.mpu6500_getAccel:000000000000006e .L0 
C:\Users\Karzan\AppData\Local\Temp\ccJPv6HS.s:415    .text.mpu6500_getAccel:0000000000000070 .L0 
C:\Users\Karzan\AppData\Local\Temp\ccJPv6HS.s:420    .text.mpu6500_getAccel:0000000000000074 .L0 
C:\Users\Karzan\AppData\Local\Temp\ccJPv6HS.s:423    .text.mpu6500_getAccel:0000000000000076 .L0 
C:\Users\Karzan\AppData\Local\Temp\ccJPv6HS.s:430    .text.mpu6500_getGyro:0000000000000000 mpu6500_getGyro
C:\Users\Karzan\AppData\Local\Temp\ccJPv6HS.s:433    .text.mpu6500_getGyro:0000000000000000 .L0 
C:\Users\Karzan\AppData\Local\Temp\ccJPv6HS.s:435    .text.mpu6500_getGyro:0000000000000000 .L0 
C:\Users\Karzan\AppData\Local\Temp\ccJPv6HS.s:436    .text.mpu6500_getGyro:0000000000000000 .L0 
C:\Users\Karzan\AppData\Local\Temp\ccJPv6HS.s:437    .text.mpu6500_getGyro:0000000000000000 .L0 
C:\Users\Karzan\AppData\Local\Temp\ccJPv6HS.s:438    .text.mpu6500_getGyro:0000000000000000 .L0 
C:\Users\Karzan\AppData\Local\Temp\ccJPv6HS.s:440    .text.mpu6500_getGyro:0000000000000002 .L0 
C:\Users\Karzan\AppData\Local\Temp\ccJPv6HS.s:443    .text.mpu6500_getGyro:0000000000000004 .L0 
C:\Users\Karzan\AppData\Local\Temp\ccJPv6HS.s:444    .text.mpu6500_getGyro:0000000000000006 .L0 
GAS LISTING C:\Users\Karzan\AppData\Local\Temp\ccJPv6HS.s 			page 18


C:\Users\Karzan\AppData\Local\Temp\ccJPv6HS.s:446    .text.mpu6500_getGyro:0000000000000006 .L0 
C:\Users\Karzan\AppData\Local\Temp\ccJPv6HS.s:448    .text.mpu6500_getGyro:0000000000000008 .L0 
C:\Users\Karzan\AppData\Local\Temp\ccJPv6HS.s:452    .text.mpu6500_getGyro:000000000000000e .L0 
C:\Users\Karzan\AppData\Local\Temp\ccJPv6HS.s:453    .text.mpu6500_getGyro:0000000000000010 .L0 
C:\Users\Karzan\AppData\Local\Temp\ccJPv6HS.s:455    .text.mpu6500_getGyro:0000000000000010 .L0 
C:\Users\Karzan\AppData\Local\Temp\ccJPv6HS.s:458    .text.mpu6500_getGyro:0000000000000018 .L0 
C:\Users\Karzan\AppData\Local\Temp\ccJPv6HS.s:459    .text.mpu6500_getGyro:0000000000000018 .L0 
C:\Users\Karzan\AppData\Local\Temp\ccJPv6HS.s:464    .text.mpu6500_getGyro:000000000000001c .L0 
C:\Users\Karzan\AppData\Local\Temp\ccJPv6HS.s:465    .text.mpu6500_getGyro:000000000000001c .L0 
C:\Users\Karzan\AppData\Local\Temp\ccJPv6HS.s:466    .text.mpu6500_getGyro:000000000000001c .L0 
C:\Users\Karzan\AppData\Local\Temp\ccJPv6HS.s:467    .text.mpu6500_getGyro:000000000000001c .L0 
C:\Users\Karzan\AppData\Local\Temp\ccJPv6HS.s:470    .text.mpu6500_getGyro:0000000000000020 .L0 
C:\Users\Karzan\AppData\Local\Temp\ccJPv6HS.s:471    .text.mpu6500_getGyro:0000000000000020 .L0 
C:\Users\Karzan\AppData\Local\Temp\ccJPv6HS.s:478    .text.mpu6500_getGyro:0000000000000026 .L0 
C:\Users\Karzan\AppData\Local\Temp\ccJPv6HS.s:479    .text.mpu6500_getGyro:0000000000000026 .L0 
C:\Users\Karzan\AppData\Local\Temp\ccJPv6HS.s:483    .text.mpu6500_getGyro:0000000000000032 .L0 
C:\Users\Karzan\AppData\Local\Temp\ccJPv6HS.s:485    .text.mpu6500_getGyro:0000000000000036 .L0 
C:\Users\Karzan\AppData\Local\Temp\ccJPv6HS.s:490    .text.mpu6500_getGyro:0000000000000038 .L0 
C:\Users\Karzan\AppData\Local\Temp\ccJPv6HS.s:491    .text.mpu6500_getGyro:0000000000000038 .L0 
C:\Users\Karzan\AppData\Local\Temp\ccJPv6HS.s:492    .text.mpu6500_getGyro:0000000000000038 .L0 
C:\Users\Karzan\AppData\Local\Temp\ccJPv6HS.s:493    .text.mpu6500_getGyro:0000000000000038 .L0 
C:\Users\Karzan\AppData\Local\Temp\ccJPv6HS.s:494    .text.mpu6500_getGyro:0000000000000038 .L0 
C:\Users\Karzan\AppData\Local\Temp\ccJPv6HS.s:496    .text.mpu6500_getGyro:000000000000003c .L0 
C:\Users\Karzan\AppData\Local\Temp\ccJPv6HS.s:497    .text.mpu6500_getGyro:000000000000003c .L0 
C:\Users\Karzan\AppData\Local\Temp\ccJPv6HS.s:504    .text.mpu6500_getGyro:0000000000000042 .L0 
C:\Users\Karzan\AppData\Local\Temp\ccJPv6HS.s:505    .text.mpu6500_getGyro:0000000000000042 .L0 
C:\Users\Karzan\AppData\Local\Temp\ccJPv6HS.s:509    .text.mpu6500_getGyro:000000000000004e .L0 
C:\Users\Karzan\AppData\Local\Temp\ccJPv6HS.s:511    .text.mpu6500_getGyro:0000000000000052 .L0 
C:\Users\Karzan\AppData\Local\Temp\ccJPv6HS.s:516    .text.mpu6500_getGyro:0000000000000054 .L0 
C:\Users\Karzan\AppData\Local\Temp\ccJPv6HS.s:517    .text.mpu6500_getGyro:0000000000000054 .L0 
C:\Users\Karzan\AppData\Local\Temp\ccJPv6HS.s:518    .text.mpu6500_getGyro:0000000000000054 .L0 
C:\Users\Karzan\AppData\Local\Temp\ccJPv6HS.s:519    .text.mpu6500_getGyro:0000000000000054 .L0 
C:\Users\Karzan\AppData\Local\Temp\ccJPv6HS.s:520    .text.mpu6500_getGyro:0000000000000054 .L0 
C:\Users\Karzan\AppData\Local\Temp\ccJPv6HS.s:522    .text.mpu6500_getGyro:0000000000000058 .L0 
C:\Users\Karzan\AppData\Local\Temp\ccJPv6HS.s:523    .text.mpu6500_getGyro:0000000000000058 .L0 
C:\Users\Karzan\AppData\Local\Temp\ccJPv6HS.s:530    .text.mpu6500_getGyro:000000000000005e .L0 
C:\Users\Karzan\AppData\Local\Temp\ccJPv6HS.s:531    .text.mpu6500_getGyro:000000000000005e .L0 
C:\Users\Karzan\AppData\Local\Temp\ccJPv6HS.s:536    .text.mpu6500_getGyro:000000000000006c .L0 
C:\Users\Karzan\AppData\Local\Temp\ccJPv6HS.s:537    .text.mpu6500_getGyro:000000000000006c .L0 
C:\Users\Karzan\AppData\Local\Temp\ccJPv6HS.s:538    .text.mpu6500_getGyro:000000000000006e .L0 
C:\Users\Karzan\AppData\Local\Temp\ccJPv6HS.s:540    .text.mpu6500_getGyro:0000000000000070 .L0 
C:\Users\Karzan\AppData\Local\Temp\ccJPv6HS.s:545    .text.mpu6500_getGyro:0000000000000074 .L0 
C:\Users\Karzan\AppData\Local\Temp\ccJPv6HS.s:548    .text.mpu6500_getGyro:0000000000000076 .L0 
C:\Users\Karzan\AppData\Local\Temp\ccJPv6HS.s:555    .text.mpu6500_getGyroAccel:0000000000000000 mpu6500_getGyroAccel
C:\Users\Karzan\AppData\Local\Temp\ccJPv6HS.s:558    .text.mpu6500_getGyroAccel:0000000000000000 .L0 
C:\Users\Karzan\AppData\Local\Temp\ccJPv6HS.s:560    .text.mpu6500_getGyroAccel:0000000000000000 .L0 
C:\Users\Karzan\AppData\Local\Temp\ccJPv6HS.s:561    .text.mpu6500_getGyroAccel:0000000000000000 .L0 
C:\Users\Karzan\AppData\Local\Temp\ccJPv6HS.s:562    .text.mpu6500_getGyroAccel:0000000000000000 .L0 
C:\Users\Karzan\AppData\Local\Temp\ccJPv6HS.s:564    .text.mpu6500_getGyroAccel:0000000000000002 .L0 
C:\Users\Karzan\AppData\Local\Temp\ccJPv6HS.s:566    .text.mpu6500_getGyroAccel:0000000000000004 .L0 
C:\Users\Karzan\AppData\Local\Temp\ccJPv6HS.s:569    .text.mpu6500_getGyroAccel:0000000000000006 .L0 
C:\Users\Karzan\AppData\Local\Temp\ccJPv6HS.s:572    .text.mpu6500_getGyroAccel:0000000000000008 .L0 
C:\Users\Karzan\AppData\Local\Temp\ccJPv6HS.s:573    .text.mpu6500_getGyroAccel:000000000000000a .L0 
C:\Users\Karzan\AppData\Local\Temp\ccJPv6HS.s:575    .text.mpu6500_getGyroAccel:000000000000000a .L0 
C:\Users\Karzan\AppData\Local\Temp\ccJPv6HS.s:578    .text.mpu6500_getGyroAccel:0000000000000012 .L0 
C:\Users\Karzan\AppData\Local\Temp\ccJPv6HS.s:582    .text.mpu6500_getGyroAccel:000000000000001c .L0 
C:\Users\Karzan\AppData\Local\Temp\ccJPv6HS.s:583    .text.mpu6500_getGyroAccel:000000000000001c .L0 
GAS LISTING C:\Users\Karzan\AppData\Local\Temp\ccJPv6HS.s 			page 19


C:\Users\Karzan\AppData\Local\Temp\ccJPv6HS.s:584    .text.mpu6500_getGyroAccel:000000000000001e .L0 
C:\Users\Karzan\AppData\Local\Temp\ccJPv6HS.s:586    .text.mpu6500_getGyroAccel:0000000000000020 .L0 
C:\Users\Karzan\AppData\Local\Temp\ccJPv6HS.s:591    .text.mpu6500_getGyroAccel:0000000000000024 .L0 
C:\Users\Karzan\AppData\Local\Temp\ccJPv6HS.s:593    .text.mpu6500_getGyroAccel:0000000000000026 .L0 
C:\Users\Karzan\AppData\Local\Temp\ccJPv6HS.s:36     .text.read_mpu:000000000000001a .L0 
C:\Users\Karzan\AppData\Local\Temp\ccJPv6HS.s:62     .text.write_mpu:000000000000001a .L0 
C:\Users\Karzan\AppData\Local\Temp\ccJPv6HS.s:99     .text.flip_bytes:0000000000000016 .L0 
C:\Users\Karzan\AppData\Local\Temp\ccJPv6HS.s:301    .text.mpu6500_init:0000000000000126 .L0 
C:\Users\Karzan\AppData\Local\Temp\ccJPv6HS.s:426    .text.mpu6500_getAccel:0000000000000076 .L0 
C:\Users\Karzan\AppData\Local\Temp\ccJPv6HS.s:551    .text.mpu6500_getGyro:0000000000000076 .L0 
C:\Users\Karzan\AppData\Local\Temp\ccJPv6HS.s:597    .text.mpu6500_getGyroAccel:0000000000000026 .L0 
                     .debug_frame:0000000000000000 .L0 
C:\Users\Karzan\AppData\Local\Temp\ccJPv6HS.s:276    .text.mpu6500_init:000000000000010c .L5
C:\Users\Karzan\AppData\Local\Temp\ccJPv6HS.s:287    .text.mpu6500_init:0000000000000114 .L8
C:\Users\Karzan\AppData\Local\Temp\ccJPv6HS.s:171    .text.mpu6500_init:0000000000000056 .L7
C:\Users\Karzan\AppData\Local\Temp\ccJPv6HS.s:2933   .debug_abbrev:0000000000000000 .Ldebug_abbrev0
C:\Users\Karzan\AppData\Local\Temp\ccJPv6HS.s:4427   .debug_str:0000000000000520 .LASF151
C:\Users\Karzan\AppData\Local\Temp\ccJPv6HS.s:4473   .debug_str:000000000000067b .LASF152
C:\Users\Karzan\AppData\Local\Temp\ccJPv6HS.s:4351   .debug_str:000000000000036d .LASF153
C:\Users\Karzan\AppData\Local\Temp\ccJPv6HS.s:4151   .debug_ranges:0000000000000000 .Ldebug_ranges0
C:\Users\Karzan\AppData\Local\Temp\ccJPv6HS.s:4169   .debug_line:0000000000000000 .Ldebug_line0
C:\Users\Karzan\AppData\Local\Temp\ccJPv6HS.s:4211   .debug_str:00000000000000e1 .LASF0
C:\Users\Karzan\AppData\Local\Temp\ccJPv6HS.s:4181   .debug_str:000000000000002b .LASF2
C:\Users\Karzan\AppData\Local\Temp\ccJPv6HS.s:4353   .debug_str:00000000000003d3 .LASF1
C:\Users\Karzan\AppData\Local\Temp\ccJPv6HS.s:4257   .debug_str:00000000000001ac .LASF3
C:\Users\Karzan\AppData\Local\Temp\ccJPv6HS.s:4361   .debug_str:00000000000003f5 .LASF4
C:\Users\Karzan\AppData\Local\Temp\ccJPv6HS.s:4295   .debug_str:0000000000000256 .LASF5
C:\Users\Karzan\AppData\Local\Temp\ccJPv6HS.s:4231   .debug_str:0000000000000131 .LASF6
C:\Users\Karzan\AppData\Local\Temp\ccJPv6HS.s:4279   .debug_str:000000000000020e .LASF7
C:\Users\Karzan\AppData\Local\Temp\ccJPv6HS.s:4209   .debug_str:00000000000000d3 .LASF8
C:\Users\Karzan\AppData\Local\Temp\ccJPv6HS.s:4191   .debug_str:0000000000000068 .LASF9
C:\Users\Karzan\AppData\Local\Temp\ccJPv6HS.s:4271   .debug_str:00000000000001ea .LASF10
C:\Users\Karzan\AppData\Local\Temp\ccJPv6HS.s:4325   .debug_str:00000000000002f6 .LASF11
C:\Users\Karzan\AppData\Local\Temp\ccJPv6HS.s:4307   .debug_str:0000000000000299 .LASF12
C:\Users\Karzan\AppData\Local\Temp\ccJPv6HS.s:4337   .debug_str:000000000000032b .LASF13
C:\Users\Karzan\AppData\Local\Temp\ccJPv6HS.s:4411   .debug_str:00000000000004e2 .LASF14
C:\Users\Karzan\AppData\Local\Temp\ccJPv6HS.s:4451   .debug_str:0000000000000611 .LASF15
C:\Users\Karzan\AppData\Local\Temp\ccJPv6HS.s:4305   .debug_str:0000000000000293 .LASF16
C:\Users\Karzan\AppData\Local\Temp\ccJPv6HS.s:4273   .debug_str:00000000000001f7 .LASF17
C:\Users\Karzan\AppData\Local\Temp\ccJPv6HS.s:4401   .debug_str:00000000000004b9 .LASF18
C:\Users\Karzan\AppData\Local\Temp\ccJPv6HS.s:4403   .debug_str:00000000000004c1 .LASF19
C:\Users\Karzan\AppData\Local\Temp\ccJPv6HS.s:4373   .debug_str:0000000000000432 .LASF20
C:\Users\Karzan\AppData\Local\Temp\ccJPv6HS.s:4433   .debug_str:00000000000005b6 .LASF21
C:\Users\Karzan\AppData\Local\Temp\ccJPv6HS.s:4349   .debug_str:000000000000035b .LASF22
C:\Users\Karzan\AppData\Local\Temp\ccJPv6HS.s:4459   .debug_str:0000000000000639 .LASF23
C:\Users\Karzan\AppData\Local\Temp\ccJPv6HS.s:4261   .debug_str:00000000000001be .LASF28
C:\Users\Karzan\AppData\Local\Temp\ccJPv6HS.s:4423   .debug_str:000000000000050d .LASF24
C:\Users\Karzan\AppData\Local\Temp\ccJPv6HS.s:4395   .debug_str:00000000000004a4 .LASF25
C:\Users\Karzan\AppData\Local\Temp\ccJPv6HS.s:4255   .debug_str:00000000000001a6 .LASF26
C:\Users\Karzan\AppData\Local\Temp\ccJPv6HS.s:4445   .debug_str:00000000000005fc .LASF27
C:\Users\Karzan\AppData\Local\Temp\ccJPv6HS.s:4269   .debug_str:00000000000001e5 .LASF29
C:\Users\Karzan\AppData\Local\Temp\ccJPv6HS.s:4203   .debug_str:00000000000000b5 .LASF30
C:\Users\Karzan\AppData\Local\Temp\ccJPv6HS.s:4417   .debug_str:00000000000004f6 .LASF31
C:\Users\Karzan\AppData\Local\Temp\ccJPv6HS.s:4219   .debug_str:00000000000000ff .LASF32
C:\Users\Karzan\AppData\Local\Temp\ccJPv6HS.s:4481   .debug_str:00000000000006a4 .LASF33
C:\Users\Karzan\AppData\Local\Temp\ccJPv6HS.s:4331   .debug_str:000000000000030f .LASF34
C:\Users\Karzan\AppData\Local\Temp\ccJPv6HS.s:4321   .debug_str:00000000000002e3 .LASF35
GAS LISTING C:\Users\Karzan\AppData\Local\Temp\ccJPv6HS.s 			page 20


C:\Users\Karzan\AppData\Local\Temp\ccJPv6HS.s:4447   .debug_str:0000000000000601 .LASF36
C:\Users\Karzan\AppData\Local\Temp\ccJPv6HS.s:4363   .debug_str:00000000000003ff .LASF37
C:\Users\Karzan\AppData\Local\Temp\ccJPv6HS.s:4469   .debug_str:0000000000000661 .LASF38
C:\Users\Karzan\AppData\Local\Temp\ccJPv6HS.s:4223   .debug_str:000000000000010e .LASF39
C:\Users\Karzan\AppData\Local\Temp\ccJPv6HS.s:4251   .debug_str:0000000000000199 .LASF40
C:\Users\Karzan\AppData\Local\Temp\ccJPv6HS.s:4171   .debug_str:0000000000000000 .LASF41
C:\Users\Karzan\AppData\Local\Temp\ccJPv6HS.s:4429   .debug_str:00000000000005a8 .LASF42
C:\Users\Karzan\AppData\Local\Temp\ccJPv6HS.s:4237   .debug_str:0000000000000152 .LASF43
C:\Users\Karzan\AppData\Local\Temp\ccJPv6HS.s:4333   .debug_str:0000000000000318 .LASF44
C:\Users\Karzan\AppData\Local\Temp\ccJPv6HS.s:4385   .debug_str:000000000000046b .LASF45
C:\Users\Karzan\AppData\Local\Temp\ccJPv6HS.s:4253   .debug_str:00000000000001a1 .LASF46
C:\Users\Karzan\AppData\Local\Temp\ccJPv6HS.s:4367   .debug_str:000000000000041e .LASF47
C:\Users\Karzan\AppData\Local\Temp\ccJPv6HS.s:4215   .debug_str:00000000000000f3 .LASF48
C:\Users\Karzan\AppData\Local\Temp\ccJPv6HS.s:4173   .debug_str:000000000000000c .LASF49
C:\Users\Karzan\AppData\Local\Temp\ccJPv6HS.s:4375   .debug_str:000000000000043d .LASF50
C:\Users\Karzan\AppData\Local\Temp\ccJPv6HS.s:4235   .debug_str:000000000000014b .LASF51
C:\Users\Karzan\AppData\Local\Temp\ccJPv6HS.s:4281   .debug_str:0000000000000220 .LASF52
C:\Users\Karzan\AppData\Local\Temp\ccJPv6HS.s:4193   .debug_str:000000000000007f .LASF53
C:\Users\Karzan\AppData\Local\Temp\ccJPv6HS.s:4225   .debug_str:000000000000011c .LASF54
C:\Users\Karzan\AppData\Local\Temp\ccJPv6HS.s:4265   .debug_str:00000000000001d5 .LASF55
C:\Users\Karzan\AppData\Local\Temp\ccJPv6HS.s:4319   .debug_str:00000000000002dc .LASF56
C:\Users\Karzan\AppData\Local\Temp\ccJPv6HS.s:4405   .debug_str:00000000000004c9 .LASF57
C:\Users\Karzan\AppData\Local\Temp\ccJPv6HS.s:4409   .debug_str:00000000000004db .LASF58
C:\Users\Karzan\AppData\Local\Temp\ccJPv6HS.s:4213   .debug_str:00000000000000ed .LASF59
C:\Users\Karzan\AppData\Local\Temp\ccJPv6HS.s:4463   .debug_str:000000000000064a .LASF60
C:\Users\Karzan\AppData\Local\Temp\ccJPv6HS.s:4241   .debug_str:0000000000000161 .LASF61
C:\Users\Karzan\AppData\Local\Temp\ccJPv6HS.s:4245   .debug_str:0000000000000172 .LASF62
C:\Users\Karzan\AppData\Local\Temp\ccJPv6HS.s:4183   .debug_str:0000000000000035 .LASF63
C:\Users\Karzan\AppData\Local\Temp\ccJPv6HS.s:4309   .debug_str:00000000000002a0 .LASF64
C:\Users\Karzan\AppData\Local\Temp\ccJPv6HS.s:4377   .debug_str:0000000000000445 .LASF65
C:\Users\Karzan\AppData\Local\Temp\ccJPv6HS.s:4313   .debug_str:00000000000002b6 .LASF66
C:\Users\Karzan\AppData\Local\Temp\ccJPv6HS.s:4397   .debug_str:00000000000004ac .LASF67
C:\Users\Karzan\AppData\Local\Temp\ccJPv6HS.s:4413   .debug_str:00000000000004ea .LASF68
C:\Users\Karzan\AppData\Local\Temp\ccJPv6HS.s:4239   .debug_str:000000000000015a .LASF69
C:\Users\Karzan\AppData\Local\Temp\ccJPv6HS.s:4275   .debug_str:00000000000001fe .LASF70
C:\Users\Karzan\AppData\Local\Temp\ccJPv6HS.s:4259   .debug_str:00000000000001b6 .LASF71
C:\Users\Karzan\AppData\Local\Temp\ccJPv6HS.s:4383   .debug_str:0000000000000466 .LASF72
C:\Users\Karzan\AppData\Local\Temp\ccJPv6HS.s:4177   .debug_str:000000000000001a .LASF73
C:\Users\Karzan\AppData\Local\Temp\ccJPv6HS.s:4393   .debug_str:000000000000048b .LASF74
C:\Users\Karzan\AppData\Local\Temp\ccJPv6HS.s:4389   .debug_str:0000000000000479 .LASF75
C:\Users\Karzan\AppData\Local\Temp\ccJPv6HS.s:4335   .debug_str:0000000000000320 .LASF76
C:\Users\Karzan\AppData\Local\Temp\ccJPv6HS.s:4391   .debug_str:0000000000000481 .LASF77
C:\Users\Karzan\AppData\Local\Temp\ccJPv6HS.s:4303   .debug_str:000000000000028b .LASF78
C:\Users\Karzan\AppData\Local\Temp\ccJPv6HS.s:4267   .debug_str:00000000000001db .LASF79
C:\Users\Karzan\AppData\Local\Temp\ccJPv6HS.s:4479   .debug_str:000000000000069f .LASF80
C:\Users\Karzan\AppData\Local\Temp\ccJPv6HS.s:4345   .debug_str:0000000000000345 .LASF81
C:\Users\Karzan\AppData\Local\Temp\ccJPv6HS.s:4277   .debug_str:0000000000000206 .LASF82
C:\Users\Karzan\AppData\Local\Temp\ccJPv6HS.s:4243   .debug_str:000000000000016a .LASF83
C:\Users\Karzan\AppData\Local\Temp\ccJPv6HS.s:4355   .debug_str:00000000000003e1 .LASF84
C:\Users\Karzan\AppData\Local\Temp\ccJPv6HS.s:4297   .debug_str:0000000000000269 .LASF85
C:\Users\Karzan\AppData\Local\Temp\ccJPv6HS.s:4457   .debug_str:000000000000062f .LASF86
C:\Users\Karzan\AppData\Local\Temp\ccJPv6HS.s:4227   .debug_str:0000000000000124 .LASF87
C:\Users\Karzan\AppData\Local\Temp\ccJPv6HS.s:4221   .debug_str:0000000000000109 .LASF88
C:\Users\Karzan\AppData\Local\Temp\ccJPv6HS.s:4415   .debug_str:00000000000004f1 .LASF89
C:\Users\Karzan\AppData\Local\Temp\ccJPv6HS.s:4371   .debug_str:000000000000042b .LASF90
C:\Users\Karzan\AppData\Local\Temp\ccJPv6HS.s:4449   .debug_str:000000000000060b .LASF91
C:\Users\Karzan\AppData\Local\Temp\ccJPv6HS.s:4287   .debug_str:000000000000023c .LASF92
GAS LISTING C:\Users\Karzan\AppData\Local\Temp\ccJPv6HS.s 			page 21


C:\Users\Karzan\AppData\Local\Temp\ccJPv6HS.s:4369   .debug_str:0000000000000425 .LASF93
C:\Users\Karzan\AppData\Local\Temp\ccJPv6HS.s:4175   .debug_str:0000000000000012 .LASF94
C:\Users\Karzan\AppData\Local\Temp\ccJPv6HS.s:4399   .debug_str:00000000000004b3 .LASF95
C:\Users\Karzan\AppData\Local\Temp\ccJPv6HS.s:4421   .debug_str:0000000000000507 .LASF96
C:\Users\Karzan\AppData\Local\Temp\ccJPv6HS.s:4431   .debug_str:00000000000005b1 .LASF97
C:\Users\Karzan\AppData\Local\Temp\ccJPv6HS.s:4439   .debug_str:00000000000005de .LASF98
C:\Users\Karzan\AppData\Local\Temp\ccJPv6HS.s:4425   .debug_str:0000000000000513 .LASF99
C:\Users\Karzan\AppData\Local\Temp\ccJPv6HS.s:4301   .debug_str:000000000000027e .LASF100
C:\Users\Karzan\AppData\Local\Temp\ccJPv6HS.s:4471   .debug_str:000000000000066c .LASF101
C:\Users\Karzan\AppData\Local\Temp\ccJPv6HS.s:4263   .debug_str:00000000000001c6 .LASF102
C:\Users\Karzan\AppData\Local\Temp\ccJPv6HS.s:4379   .debug_str:000000000000044e .LASF103
C:\Users\Karzan\AppData\Local\Temp\ccJPv6HS.s:4475   .debug_str:000000000000068c .LASF104
C:\Users\Karzan\AppData\Local\Temp\ccJPv6HS.s:4381   .debug_str:0000000000000459 .LASF105
C:\Users\Karzan\AppData\Local\Temp\ccJPv6HS.s:4477   .debug_str:0000000000000691 .LASF106
C:\Users\Karzan\AppData\Local\Temp\ccJPv6HS.s:4201   .debug_str:00000000000000a7 .LASF107
C:\Users\Karzan\AppData\Local\Temp\ccJPv6HS.s:4453   .debug_str:000000000000061a .LASF108
C:\Users\Karzan\AppData\Local\Temp\ccJPv6HS.s:4299   .debug_str:0000000000000272 .LASF109
C:\Users\Karzan\AppData\Local\Temp\ccJPv6HS.s:4435   .debug_str:00000000000005be .LASF110
C:\Users\Karzan\AppData\Local\Temp\ccJPv6HS.s:4249   .debug_str:000000000000018b .LASF111
C:\Users\Karzan\AppData\Local\Temp\ccJPv6HS.s:4199   .debug_str:0000000000000098 .LASF112
C:\Users\Karzan\AppData\Local\Temp\ccJPv6HS.s:4247   .debug_str:000000000000017a .LASF113
C:\Users\Karzan\AppData\Local\Temp\ccJPv6HS.s:4187   .debug_str:0000000000000048 .LASF114
C:\Users\Karzan\AppData\Local\Temp\ccJPv6HS.s:4189   .debug_str:0000000000000057 .LASF115
C:\Users\Karzan\AppData\Local\Temp\ccJPv6HS.s:4359   .debug_str:00000000000003ec .LASF116
C:\Users\Karzan\AppData\Local\Temp\ccJPv6HS.s:4327   .debug_str:0000000000000302 .LASF117
C:\Users\Karzan\AppData\Local\Temp\ccJPv6HS.s:4323   .debug_str:00000000000002ed .LASF118
C:\Users\Karzan\AppData\Local\Temp\ccJPv6HS.s:4465   .debug_str:0000000000000650 .LASF119
C:\Users\Karzan\AppData\Local\Temp\ccJPv6HS.s:4195   .debug_str:0000000000000088 .LASF154
C:\Users\Karzan\AppData\Local\Temp\ccJPv6HS.s:4407   .debug_str:00000000000004cf .LASF120
C:\Users\Karzan\AppData\Local\Temp\ccJPv6HS.s:4437   .debug_str:00000000000005cb .LASF121
C:\Users\Karzan\AppData\Local\Temp\ccJPv6HS.s:4419   .debug_str:00000000000004ff .LASF122
C:\Users\Karzan\AppData\Local\Temp\ccJPv6HS.s:4205   .debug_str:00000000000000be .LASF123
C:\Users\Karzan\AppData\Local\Temp\ccJPv6HS.s:4341   .debug_str:0000000000000337 .LASF124
C:\Users\Karzan\AppData\Local\Temp\ccJPv6HS.s:4185   .debug_str:000000000000003b .LASF125
C:\Users\Karzan\AppData\Local\Temp\ccJPv6HS.s:4233   .debug_str:000000000000013a .LASF126
C:\Users\Karzan\AppData\Local\Temp\ccJPv6HS.s:4339   .debug_str:0000000000000332 .LASF127
C:\Users\Karzan\AppData\Local\Temp\ccJPv6HS.s:4179   .debug_str:0000000000000025 .LASF128
C:\Users\Karzan\AppData\Local\Temp\ccJPv6HS.s:4357   .debug_str:00000000000003e6 .LASF129
C:\Users\Karzan\AppData\Local\Temp\ccJPv6HS.s:4461   .debug_str:0000000000000642 .LASF130
C:\Users\Karzan\AppData\Local\Temp\ccJPv6HS.s:4311   .debug_str:00000000000002a6 .LASF131
C:\Users\Karzan\AppData\Local\Temp\ccJPv6HS.s:4365   .debug_str:0000000000000409 .LASF134
C:\Users\Karzan\AppData\Local\Temp\ccJPv6HS.s:556    .text.mpu6500_getGyroAccel:0000000000000000 .LFB9
C:\Users\Karzan\AppData\Local\Temp\ccJPv6HS.s:594    .text.mpu6500_getGyroAccel:0000000000000026 .LFE9
C:\Users\Karzan\AppData\Local\Temp\ccJPv6HS.s:3652   .debug_loc:0000000000000000 .LLST27
C:\Users\Karzan\AppData\Local\Temp\ccJPv6HS.s:4285   .debug_str:0000000000000236 .LASF132
C:\Users\Karzan\AppData\Local\Temp\ccJPv6HS.s:3670   .debug_loc:000000000000002c .LLST28
C:\Users\Karzan\AppData\Local\Temp\ccJPv6HS.s:4443   .debug_str:00000000000005f5 .LASF133
C:\Users\Karzan\AppData\Local\Temp\ccJPv6HS.s:3688   .debug_loc:0000000000000058 .LLST29
C:\Users\Karzan\AppData\Local\Temp\ccJPv6HS.s:576    .text.mpu6500_getGyroAccel:0000000000000012 .LVL69
C:\Users\Karzan\AppData\Local\Temp\ccJPv6HS.s:580    .text.mpu6500_getGyroAccel:000000000000001c .LVL70
C:\Users\Karzan\AppData\Local\Temp\ccJPv6HS.s:4283   .debug_str:0000000000000226 .LASF135
C:\Users\Karzan\AppData\Local\Temp\ccJPv6HS.s:431    .text.mpu6500_getGyro:0000000000000000 .LFB8
C:\Users\Karzan\AppData\Local\Temp\ccJPv6HS.s:549    .text.mpu6500_getGyro:0000000000000076 .LFE8
C:\Users\Karzan\AppData\Local\Temp\ccJPv6HS.s:3702   .debug_loc:0000000000000079 .LLST21
C:\Users\Karzan\AppData\Local\Temp\ccJPv6HS.s:3720   .debug_loc:00000000000000a5 .LLST22
C:\Users\Karzan\AppData\Local\Temp\ccJPv6HS.s:4197   .debug_str:0000000000000093 .LASF137
C:\Users\Karzan\AppData\Local\Temp\ccJPv6HS.s:461    .text.mpu6500_getGyro:000000000000001c .LBB20
GAS LISTING C:\Users\Karzan\AppData\Local\Temp\ccJPv6HS.s 			page 22


C:\Users\Karzan\AppData\Local\Temp\ccJPv6HS.s:477    .text.mpu6500_getGyro:0000000000000026 .LBE20
C:\Users\Karzan\AppData\Local\Temp\ccJPv6HS.s:3738   .debug_loc:00000000000000d1 .LLST23
C:\Users\Karzan\AppData\Local\Temp\ccJPv6HS.s:462    .text.mpu6500_getGyro:000000000000001c .LBB21
C:\Users\Karzan\AppData\Local\Temp\ccJPv6HS.s:476    .text.mpu6500_getGyro:0000000000000026 .LBE21
C:\Users\Karzan\AppData\Local\Temp\ccJPv6HS.s:3746   .debug_loc:00000000000000e5 .LLST24
C:\Users\Karzan\AppData\Local\Temp\ccJPv6HS.s:488    .text.mpu6500_getGyro:0000000000000038 .LBB22
C:\Users\Karzan\AppData\Local\Temp\ccJPv6HS.s:503    .text.mpu6500_getGyro:0000000000000042 .LBE22
C:\Users\Karzan\AppData\Local\Temp\ccJPv6HS.s:489    .text.mpu6500_getGyro:0000000000000038 .LBB23
C:\Users\Karzan\AppData\Local\Temp\ccJPv6HS.s:502    .text.mpu6500_getGyro:0000000000000042 .LBE23
C:\Users\Karzan\AppData\Local\Temp\ccJPv6HS.s:3761   .debug_loc:0000000000000107 .LLST25
C:\Users\Karzan\AppData\Local\Temp\ccJPv6HS.s:514    .text.mpu6500_getGyro:0000000000000054 .LBB24
C:\Users\Karzan\AppData\Local\Temp\ccJPv6HS.s:529    .text.mpu6500_getGyro:000000000000005e .LBE24
C:\Users\Karzan\AppData\Local\Temp\ccJPv6HS.s:515    .text.mpu6500_getGyro:0000000000000054 .LBB25
C:\Users\Karzan\AppData\Local\Temp\ccJPv6HS.s:528    .text.mpu6500_getGyro:000000000000005e .LBE25
C:\Users\Karzan\AppData\Local\Temp\ccJPv6HS.s:3776   .debug_loc:0000000000000129 .LLST26
C:\Users\Karzan\AppData\Local\Temp\ccJPv6HS.s:456    .text.mpu6500_getGyro:0000000000000018 .LVL51
C:\Users\Karzan\AppData\Local\Temp\ccJPv6HS.s:4317   .debug_str:00000000000002cb .LASF136
C:\Users\Karzan\AppData\Local\Temp\ccJPv6HS.s:306    .text.mpu6500_getAccel:0000000000000000 .LFB7
C:\Users\Karzan\AppData\Local\Temp\ccJPv6HS.s:424    .text.mpu6500_getAccel:0000000000000076 .LFE7
C:\Users\Karzan\AppData\Local\Temp\ccJPv6HS.s:3791   .debug_loc:000000000000014b .LLST15
C:\Users\Karzan\AppData\Local\Temp\ccJPv6HS.s:3809   .debug_loc:0000000000000177 .LLST16
C:\Users\Karzan\AppData\Local\Temp\ccJPv6HS.s:4329   .debug_str:0000000000000309 .LASF138
C:\Users\Karzan\AppData\Local\Temp\ccJPv6HS.s:336    .text.mpu6500_getAccel:000000000000001c .LBB14
C:\Users\Karzan\AppData\Local\Temp\ccJPv6HS.s:352    .text.mpu6500_getAccel:0000000000000026 .LBE14
C:\Users\Karzan\AppData\Local\Temp\ccJPv6HS.s:3827   .debug_loc:00000000000001a3 .LLST17
C:\Users\Karzan\AppData\Local\Temp\ccJPv6HS.s:337    .text.mpu6500_getAccel:000000000000001c .LBB15
C:\Users\Karzan\AppData\Local\Temp\ccJPv6HS.s:351    .text.mpu6500_getAccel:0000000000000026 .LBE15
C:\Users\Karzan\AppData\Local\Temp\ccJPv6HS.s:3835   .debug_loc:00000000000001b7 .LLST18
C:\Users\Karzan\AppData\Local\Temp\ccJPv6HS.s:363    .text.mpu6500_getAccel:0000000000000038 .LBB16
C:\Users\Karzan\AppData\Local\Temp\ccJPv6HS.s:378    .text.mpu6500_getAccel:0000000000000042 .LBE16
C:\Users\Karzan\AppData\Local\Temp\ccJPv6HS.s:364    .text.mpu6500_getAccel:0000000000000038 .LBB17
C:\Users\Karzan\AppData\Local\Temp\ccJPv6HS.s:377    .text.mpu6500_getAccel:0000000000000042 .LBE17
C:\Users\Karzan\AppData\Local\Temp\ccJPv6HS.s:3850   .debug_loc:00000000000001d9 .LLST19
C:\Users\Karzan\AppData\Local\Temp\ccJPv6HS.s:389    .text.mpu6500_getAccel:0000000000000054 .LBB18
C:\Users\Karzan\AppData\Local\Temp\ccJPv6HS.s:404    .text.mpu6500_getAccel:000000000000005e .LBE18
C:\Users\Karzan\AppData\Local\Temp\ccJPv6HS.s:390    .text.mpu6500_getAccel:0000000000000054 .LBB19
C:\Users\Karzan\AppData\Local\Temp\ccJPv6HS.s:403    .text.mpu6500_getAccel:000000000000005e .LBE19
C:\Users\Karzan\AppData\Local\Temp\ccJPv6HS.s:3865   .debug_loc:00000000000001fb .LLST20
C:\Users\Karzan\AppData\Local\Temp\ccJPv6HS.s:331    .text.mpu6500_getAccel:0000000000000018 .LVL33
C:\Users\Karzan\AppData\Local\Temp\ccJPv6HS.s:4315   .debug_str:00000000000002be .LASF139
C:\Users\Karzan\AppData\Local\Temp\ccJPv6HS.s:104    .text.mpu6500_init:0000000000000000 .LFB6
C:\Users\Karzan\AppData\Local\Temp\ccJPv6HS.s:298    .text.mpu6500_init:0000000000000126 .LFE6
C:\Users\Karzan\AppData\Local\Temp\ccJPv6HS.s:3880   .debug_loc:000000000000021d .LLST10
C:\Users\Karzan\AppData\Local\Temp\ccJPv6HS.s:4343   .debug_str:000000000000033d .LASF140
C:\Users\Karzan\AppData\Local\Temp\ccJPv6HS.s:3903   .debug_loc:0000000000000255 .LLST11
C:\Users\Karzan\AppData\Local\Temp\ccJPv6HS.s:4387   .debug_str:0000000000000470 .LASF141
C:\Users\Karzan\AppData\Local\Temp\ccJPv6HS.s:3922   .debug_loc:0000000000000285 .LLST12
C:\Users\Karzan\AppData\Local\Temp\ccJPv6HS.s:4289   .debug_str:0000000000000243 .LASF142
C:\Users\Karzan\AppData\Local\Temp\ccJPv6HS.s:3941   .debug_loc:00000000000002b5 .LLST13
C:\Users\Karzan\AppData\Local\Temp\ccJPv6HS.s:3960   .debug_loc:00000000000002e5 .LLST14
C:\Users\Karzan\AppData\Local\Temp\ccJPv6HS.s:4347   .debug_str:000000000000034f .LASF143
C:\Users\Karzan\AppData\Local\Temp\ccJPv6HS.s:4207   .debug_str:00000000000000c6 .LASF144
C:\Users\Karzan\AppData\Local\Temp\ccJPv6HS.s:143    .text.mpu6500_init:0000000000000026 .LVL18
C:\Users\Karzan\AppData\Local\Temp\ccJPv6HS.s:164    .text.mpu6500_init:000000000000004e .LVL19
C:\Users\Karzan\AppData\Local\Temp\ccJPv6HS.s:169    .text.mpu6500_init:0000000000000056 .LVL20
C:\Users\Karzan\AppData\Local\Temp\ccJPv6HS.s:182    .text.mpu6500_init:0000000000000068 .LVL21
C:\Users\Karzan\AppData\Local\Temp\ccJPv6HS.s:194    .text.mpu6500_init:000000000000007e .LVL22
GAS LISTING C:\Users\Karzan\AppData\Local\Temp\ccJPv6HS.s 			page 23


C:\Users\Karzan\AppData\Local\Temp\ccJPv6HS.s:204    .text.mpu6500_init:0000000000000090 .LVL23
C:\Users\Karzan\AppData\Local\Temp\ccJPv6HS.s:214    .text.mpu6500_init:00000000000000a2 .LVL24
C:\Users\Karzan\AppData\Local\Temp\ccJPv6HS.s:226    .text.mpu6500_init:00000000000000b6 .LVL25
C:\Users\Karzan\AppData\Local\Temp\ccJPv6HS.s:238    .text.mpu6500_init:00000000000000ca .LVL26
C:\Users\Karzan\AppData\Local\Temp\ccJPv6HS.s:248    .text.mpu6500_init:00000000000000dc .LVL27
C:\Users\Karzan\AppData\Local\Temp\ccJPv6HS.s:260    .text.mpu6500_init:00000000000000f4 .LVL28
C:\Users\Karzan\AppData\Local\Temp\ccJPv6HS.s:272    .text.mpu6500_init:000000000000010a .LVL29
C:\Users\Karzan\AppData\Local\Temp\ccJPv6HS.s:295    .text.mpu6500_init:0000000000000124 .LVL30
C:\Users\Karzan\AppData\Local\Temp\ccJPv6HS.s:4455   .debug_str:0000000000000624 .LASF155
C:\Users\Karzan\AppData\Local\Temp\ccJPv6HS.s:4217   .debug_str:00000000000000f9 .LASF145
C:\Users\Karzan\AppData\Local\Temp\ccJPv6HS.s:4229   .debug_str:000000000000012c .LASF146
C:\Users\Karzan\AppData\Local\Temp\ccJPv6HS.s:4441   .debug_str:00000000000005eb .LASF149
C:\Users\Karzan\AppData\Local\Temp\ccJPv6HS.s:41     .text.write_mpu:0000000000000000 .LFB4
C:\Users\Karzan\AppData\Local\Temp\ccJPv6HS.s:60     .text.write_mpu:000000000000001a .LFE4
C:\Users\Karzan\AppData\Local\Temp\ccJPv6HS.s:3974   .debug_loc:0000000000000306 .LLST3
C:\Users\Karzan\AppData\Local\Temp\ccJPv6HS.s:4293   .debug_str:0000000000000251 .LASF147
C:\Users\Karzan\AppData\Local\Temp\ccJPv6HS.s:3988   .debug_loc:0000000000000327 .LLST4
C:\Users\Karzan\AppData\Local\Temp\ccJPv6HS.s:4291   .debug_str:000000000000024c .LASF148
C:\Users\Karzan\AppData\Local\Temp\ccJPv6HS.s:4002   .debug_loc:0000000000000348 .LLST5
C:\Users\Karzan\AppData\Local\Temp\ccJPv6HS.s:58     .text.write_mpu:000000000000001a .LVL9
C:\Users\Karzan\AppData\Local\Temp\ccJPv6HS.s:4467   .debug_str:0000000000000658 .LASF150
C:\Users\Karzan\AppData\Local\Temp\ccJPv6HS.s:14     .text.read_mpu:0000000000000000 .LFB3
C:\Users\Karzan\AppData\Local\Temp\ccJPv6HS.s:34     .text.read_mpu:000000000000001a .LFE3
C:\Users\Karzan\AppData\Local\Temp\ccJPv6HS.s:4020   .debug_loc:0000000000000374 .LLST0
C:\Users\Karzan\AppData\Local\Temp\ccJPv6HS.s:4034   .debug_loc:0000000000000395 .LLST1
C:\Users\Karzan\AppData\Local\Temp\ccJPv6HS.s:4048   .debug_loc:00000000000003b6 .LLST2
C:\Users\Karzan\AppData\Local\Temp\ccJPv6HS.s:32     .text.read_mpu:000000000000001a .LVL4
C:\Users\Karzan\AppData\Local\Temp\ccJPv6HS.s:67     .text.flip_bytes:0000000000000000 .LFB5
C:\Users\Karzan\AppData\Local\Temp\ccJPv6HS.s:97     .text.flip_bytes:0000000000000016 .LFE5
C:\Users\Karzan\AppData\Local\Temp\ccJPv6HS.s:4066   .debug_loc:00000000000003e2 .LLST6
C:\Users\Karzan\AppData\Local\Temp\ccJPv6HS.s:4084   .debug_loc:000000000000040e .LLST7
C:\Users\Karzan\AppData\Local\Temp\ccJPv6HS.s:4098   .debug_loc:000000000000042f .LLST8
C:\Users\Karzan\AppData\Local\Temp\ccJPv6HS.s:4113   .debug_loc:0000000000000451 .LLST9
C:\Users\Karzan\AppData\Local\Temp\ccJPv6HS.s:563    .text.mpu6500_getGyroAccel:0000000000000002 .LCFI9
C:\Users\Karzan\AppData\Local\Temp\ccJPv6HS.s:590    .text.mpu6500_getGyroAccel:0000000000000024 .LCFI10
C:\Users\Karzan\AppData\Local\Temp\ccJPv6HS.s:559    .text.mpu6500_getGyroAccel:0000000000000000 .LVL67
C:\Users\Karzan\AppData\Local\Temp\ccJPv6HS.s:570    .text.mpu6500_getGyroAccel:0000000000000008 .LVL68
C:\Users\Karzan\AppData\Local\Temp\ccJPv6HS.s:587    .text.mpu6500_getGyroAccel:0000000000000020 .LVL71
C:\Users\Karzan\AppData\Local\Temp\ccJPv6HS.s:439    .text.mpu6500_getGyro:0000000000000002 .LCFI7
C:\Users\Karzan\AppData\Local\Temp\ccJPv6HS.s:544    .text.mpu6500_getGyro:0000000000000074 .LCFI8
C:\Users\Karzan\AppData\Local\Temp\ccJPv6HS.s:434    .text.mpu6500_getGyro:0000000000000000 .LVL49
C:\Users\Karzan\AppData\Local\Temp\ccJPv6HS.s:450    .text.mpu6500_getGyro:000000000000000e .LVL50
C:\Users\Karzan\AppData\Local\Temp\ccJPv6HS.s:541    .text.mpu6500_getGyro:0000000000000070 .LVL65
C:\Users\Karzan\AppData\Local\Temp\ccJPv6HS.s:460    .text.mpu6500_getGyro:000000000000001c .LVL52
C:\Users\Karzan\AppData\Local\Temp\ccJPv6HS.s:468    .text.mpu6500_getGyro:0000000000000020 .LVL53
C:\Users\Karzan\AppData\Local\Temp\ccJPv6HS.s:546    .text.mpu6500_getGyro:0000000000000074 .LVL66
C:\Users\Karzan\AppData\Local\Temp\ccJPv6HS.s:487    .text.mpu6500_getGyro:0000000000000038 .LVL57
C:\Users\Karzan\AppData\Local\Temp\ccJPv6HS.s:513    .text.mpu6500_getGyro:0000000000000054 .LVL61
C:\Users\Karzan\AppData\Local\Temp\ccJPv6HS.s:314    .text.mpu6500_getAccel:0000000000000002 .LCFI5
C:\Users\Karzan\AppData\Local\Temp\ccJPv6HS.s:419    .text.mpu6500_getAccel:0000000000000074 .LCFI6
C:\Users\Karzan\AppData\Local\Temp\ccJPv6HS.s:309    .text.mpu6500_getAccel:0000000000000000 .LVL31
C:\Users\Karzan\AppData\Local\Temp\ccJPv6HS.s:325    .text.mpu6500_getAccel:000000000000000e .LVL32
C:\Users\Karzan\AppData\Local\Temp\ccJPv6HS.s:416    .text.mpu6500_getAccel:0000000000000070 .LVL47
C:\Users\Karzan\AppData\Local\Temp\ccJPv6HS.s:335    .text.mpu6500_getAccel:000000000000001c .LVL34
C:\Users\Karzan\AppData\Local\Temp\ccJPv6HS.s:343    .text.mpu6500_getAccel:0000000000000020 .LVL35
C:\Users\Karzan\AppData\Local\Temp\ccJPv6HS.s:421    .text.mpu6500_getAccel:0000000000000074 .LVL48
C:\Users\Karzan\AppData\Local\Temp\ccJPv6HS.s:362    .text.mpu6500_getAccel:0000000000000038 .LVL39
GAS LISTING C:\Users\Karzan\AppData\Local\Temp\ccJPv6HS.s 			page 24


C:\Users\Karzan\AppData\Local\Temp\ccJPv6HS.s:388    .text.mpu6500_getAccel:0000000000000054 .LVL43
C:\Users\Karzan\AppData\Local\Temp\ccJPv6HS.s:113    .text.mpu6500_init:0000000000000002 .LCFI2
C:\Users\Karzan\AppData\Local\Temp\ccJPv6HS.s:284    .text.mpu6500_init:0000000000000112 .LCFI3
C:\Users\Karzan\AppData\Local\Temp\ccJPv6HS.s:288    .text.mpu6500_init:0000000000000114 .LCFI4
C:\Users\Karzan\AppData\Local\Temp\ccJPv6HS.s:107    .text.mpu6500_init:0000000000000000 .LVL14
C:\Users\Karzan\AppData\Local\Temp\ccJPv6HS.s:134    .text.mpu6500_init:0000000000000018 .LVL15
C:\Users\Karzan\AppData\Local\Temp\ccJPv6HS.s:138    .text.mpu6500_init:000000000000001c .LVL17
C:\Users\Karzan\AppData\Local\Temp\ccJPv6HS.s:136    .text.mpu6500_init:000000000000001a .LVL16
C:\Users\Karzan\AppData\Local\Temp\ccJPv6HS.s:44     .text.write_mpu:0000000000000000 .LVL5
C:\Users\Karzan\AppData\Local\Temp\ccJPv6HS.s:53     .text.write_mpu:0000000000000012 .LVL7
C:\Users\Karzan\AppData\Local\Temp\ccJPv6HS.s:56     .text.write_mpu:0000000000000018 .LVL8
C:\Users\Karzan\AppData\Local\Temp\ccJPv6HS.s:51     .text.write_mpu:0000000000000010 .LVL6
C:\Users\Karzan\AppData\Local\Temp\ccJPv6HS.s:18     .text.read_mpu:0000000000000000 .LVL0
C:\Users\Karzan\AppData\Local\Temp\ccJPv6HS.s:27     .text.read_mpu:0000000000000012 .LVL2
C:\Users\Karzan\AppData\Local\Temp\ccJPv6HS.s:30     .text.read_mpu:0000000000000018 .LVL3
C:\Users\Karzan\AppData\Local\Temp\ccJPv6HS.s:25     .text.read_mpu:0000000000000010 .LVL1
C:\Users\Karzan\AppData\Local\Temp\ccJPv6HS.s:81     .text.flip_bytes:000000000000000e .LCFI0
C:\Users\Karzan\AppData\Local\Temp\ccJPv6HS.s:92     .text.flip_bytes:0000000000000014 .LCFI1
C:\Users\Karzan\AppData\Local\Temp\ccJPv6HS.s:70     .text.flip_bytes:0000000000000000 .LVL10
C:\Users\Karzan\AppData\Local\Temp\ccJPv6HS.s:75     .text.flip_bytes:0000000000000006 .LVL11
C:\Users\Karzan\AppData\Local\Temp\ccJPv6HS.s:83     .text.flip_bytes:000000000000000e .LVL12
C:\Users\Karzan\AppData\Local\Temp\ccJPv6HS.s:94     .text.flip_bytes:0000000000000014 .LVL13
C:\Users\Karzan\AppData\Local\Temp\ccJPv6HS.s:607    .debug_info:0000000000000000 .Ldebug_info0

UNDEFINED SYMBOLS
__floatsisf
