GAS LISTING C:\Users\Karzan\AppData\Local\Temp\ccUlsDYc.s 			page 1


   1              		.file	"n200_func.c"
   2              		.option nopic
   3              		.attribute arch, "rv32i2p0_m2p0_a2p0_c2p0"
   4              		.attribute unaligned_access, 0
   5              		.attribute stack_align, 16
   6              		.text
   7              	.Ltext0:
   8              		.cfi_sections	.debug_frame
   9              		.section	.text.pmp_open_all_space,"ax",@progbits
  10              		.align	1
  11              		.globl	pmp_open_all_space
  13              	pmp_open_all_space:
  14              	.LFB6:
  15              		.file 1 "./../../firmware/RISCV/drivers/n200_func.c"
   1:./../../firmware/RISCV/drivers/n200_func.c **** /* See LICENSE for license details. */
   2:./../../firmware/RISCV/drivers/n200_func.c **** #include <gd32vf103.h>
   3:./../../firmware/RISCV/drivers/n200_func.c **** #include <stdio.h>
   4:./../../firmware/RISCV/drivers/n200_func.c **** #include <stdlib.h>
   5:./../../firmware/RISCV/drivers/n200_func.c **** #include <string.h>
   6:./../../firmware/RISCV/drivers/n200_func.c **** 
   7:./../../firmware/RISCV/drivers/n200_func.c **** #if   defined (__ICCRISCV__)
   8:./../../firmware/RISCV/drivers/n200_func.c ****     #include "compiler.h"
   9:./../../firmware/RISCV/drivers/n200_func.c **** #elif defined ( __GNUC__ )
  10:./../../firmware/RISCV/drivers/n200_func.c ****     #include <unistd.h>
  11:./../../firmware/RISCV/drivers/n200_func.c **** #endif
  12:./../../firmware/RISCV/drivers/n200_func.c **** 
  13:./../../firmware/RISCV/drivers/n200_func.c **** #include "riscv_encoding.h"
  14:./../../firmware/RISCV/drivers/n200_func.c **** #include "n200_func.h"
  15:./../../firmware/RISCV/drivers/n200_func.c **** 
  16:./../../firmware/RISCV/drivers/n200_func.c **** /* Configure PMP to make all the address space accesable and executable */
  17:./../../firmware/RISCV/drivers/n200_func.c **** void pmp_open_all_space(void){
  16              		.loc 1 17 30
  17              		.cfi_startproc
  18:./../../firmware/RISCV/drivers/n200_func.c ****     /* Config entry0 addr to all 1s to make the range cover all space */
  19:./../../firmware/RISCV/drivers/n200_func.c ****     asm volatile ("li x6, 0xffffffff":::"x6");
  18              		.loc 1 19 5
  19              	 #APP
  20              	# 19 "./../../firmware/RISCV/drivers/n200_func.c" 1
  20              	    asm volatile ("csrw pmpaddr0, x6":::);
  21              		li x6, 0xffffffff
  22              	# 0 "" 2
  23              		.loc 1 20 5
  24              	# 20 "./../../firmware/RISCV/drivers/n200_func.c" 1
  21              	    /* Config entry0 cfg to make it NAPOT address mode, and R/W/X okay */
  22:./../../firmware/RISCV/drivers/n200_func.c ****     asm volatile ("li x6, 0x7f":::"x6");
  25              		csrw pmpaddr0, x6
  26              	# 0 "" 2
  27              		.loc 1 22 5
  28              	# 22 "./../../firmware/RISCV/drivers/n200_func.c" 1
  23              	    asm volatile ("csrw pmpcfg0, x6":::);
  29              		li x6, 0x7f
  30              	# 0 "" 2
  31              		.loc 1 23 5
  32              	# 23 "./../../firmware/RISCV/drivers/n200_func.c" 1
  24              	}
  33              		csrw pmpcfg0, x6
  34              	# 0 "" 2
GAS LISTING C:\Users\Karzan\AppData\Local\Temp\ccUlsDYc.s 			page 2


  35              		.loc 1 24 1 is_stmt 0
  36              	 #NO_APP
  37 0010 8280     		ret
  38              		.cfi_endproc
  39              	.LFE6:
  41              		.section	.text.switch_m2u_mode,"ax",@progbits
  42              		.align	1
  43              		.globl	switch_m2u_mode
  45              	switch_m2u_mode:
  46              	.LFB7:
  25:./../../firmware/RISCV/drivers/n200_func.c **** 
  26:./../../firmware/RISCV/drivers/n200_func.c **** void switch_m2u_mode(void){
  47              		.loc 1 26 27 is_stmt 1
  48              		.cfi_startproc
  27:./../../firmware/RISCV/drivers/n200_func.c **** #if   defined (__ICCRISCV__)
  28:./../../firmware/RISCV/drivers/n200_func.c ****     clear_csr (CSR_MSTATUS,MSTATUS_MPP);
  29:./../../firmware/RISCV/drivers/n200_func.c **** #elif defined ( __GNUC__ )
  30:./../../firmware/RISCV/drivers/n200_func.c ****     clear_csr (mstatus,MSTATUS_MPP);
  49              		.loc 1 30 5
  50              	.LBB63:
  51              		.loc 1 30 5
  52              		.loc 1 30 5
  53              		.loc 1 30 5
  54 0000 8967     		li	a5,8192
  55 0002 93870780 		addi	a5,a5,-2048
  56              	 #APP
  57              	# 30 "./../../firmware/RISCV/drivers/n200_func.c" 1
  31              	#endif
  58              		csrrc a5, mstatus, a5
  59              	# 0 "" 2
  60              	.LVL0:
  30:./../../firmware/RISCV/drivers/n200_func.c ****     clear_csr (mstatus,MSTATUS_MPP);
  61              		.loc 1 30 5
  62              	 #NO_APP
  63              	.LBE63:
  32:./../../firmware/RISCV/drivers/n200_func.c ****     /* printf("\nIn the m2u function, the mstatus is 0x%x\n", read_csr(mstatus)); */
  33:./../../firmware/RISCV/drivers/n200_func.c ****     /* printf("\nIn the m2u function, the mepc is 0x%x\n", read_csr(mepc)); */
  34:./../../firmware/RISCV/drivers/n200_func.c **** #if defined ( __GNUC__ )
  35:./../../firmware/RISCV/drivers/n200_func.c ****     asm volatile ("la x6, 1f    ":::"x6");
  64              		.loc 1 35 5
  65              	 #APP
  66              	# 35 "./../../firmware/RISCV/drivers/n200_func.c" 1
  36              	#endif
  37:./../../firmware/RISCV/drivers/n200_func.c ****     asm volatile ("csrw mepc, x6":::);
  67              		la x6, 1f    
  68              	# 0 "" 2
  69              		.loc 1 37 5
  70              	# 37 "./../../firmware/RISCV/drivers/n200_func.c" 1
  38              	    asm volatile ("mret":::);
  71              		csrw mepc, x6
  72              	# 0 "" 2
  73              		.loc 1 38 5
  74              	# 38 "./../../firmware/RISCV/drivers/n200_func.c" 1
  39              	    asm volatile ("1:":::);
  75              		mret
  76              	# 0 "" 2
  77              		.loc 1 39 5
GAS LISTING C:\Users\Karzan\AppData\Local\Temp\ccUlsDYc.s 			page 3


  78              	# 39 "./../../firmware/RISCV/drivers/n200_func.c" 1
  40              	} 
  79              		1:
  80              	# 0 "" 2
  81              		.loc 1 40 1 is_stmt 0
  82              	 #NO_APP
  83 001a 8280     		ret
  84              		.cfi_endproc
  85              	.LFE7:
  87              		.section	.text.mtime_lo,"ax",@progbits
  88              		.align	1
  89              		.globl	mtime_lo
  91              	mtime_lo:
  92              	.LFB8:
  41:./../../firmware/RISCV/drivers/n200_func.c **** 
  42:./../../firmware/RISCV/drivers/n200_func.c **** uint32_t mtime_lo(void)
  43:./../../firmware/RISCV/drivers/n200_func.c **** {
  93              		.loc 1 43 1 is_stmt 1
  94              		.cfi_startproc
  44:./../../firmware/RISCV/drivers/n200_func.c ****   return *(volatile uint32_t *)(TIMER_CTRL_ADDR + TIMER_MTIME);
  95              		.loc 1 44 3
  96              		.loc 1 44 10 is_stmt 0
  97 0000 B70700D1 		li	a5,-788529152
  98 0004 8843     		lw	a0,0(a5)
  45:./../../firmware/RISCV/drivers/n200_func.c **** }
  99              		.loc 1 45 1
 100 0006 8280     		ret
 101              		.cfi_endproc
 102              	.LFE8:
 104              		.section	.text.mtime_hi,"ax",@progbits
 105              		.align	1
 106              		.globl	mtime_hi
 108              	mtime_hi:
 109              	.LFB9:
  46:./../../firmware/RISCV/drivers/n200_func.c **** 
  47:./../../firmware/RISCV/drivers/n200_func.c **** 
  48:./../../firmware/RISCV/drivers/n200_func.c **** uint32_t mtime_hi(void)
  49:./../../firmware/RISCV/drivers/n200_func.c **** {
 110              		.loc 1 49 1 is_stmt 1
 111              		.cfi_startproc
  50:./../../firmware/RISCV/drivers/n200_func.c ****   return *(volatile uint32_t *)(TIMER_CTRL_ADDR + TIMER_MTIME + 4);
 112              		.loc 1 50 3
 113              		.loc 1 50 10 is_stmt 0
 114 0000 B70700D1 		li	a5,-788529152
 115 0004 C843     		lw	a0,4(a5)
  51:./../../firmware/RISCV/drivers/n200_func.c **** }
 116              		.loc 1 51 1
 117 0006 8280     		ret
 118              		.cfi_endproc
 119              	.LFE9:
 121              		.section	.text.get_timer_value,"ax",@progbits
 122              		.align	1
 123              		.globl	get_timer_value
 125              	get_timer_value:
 126              	.LFB10:
  52:./../../firmware/RISCV/drivers/n200_func.c **** 
  53:./../../firmware/RISCV/drivers/n200_func.c **** uint64_t get_timer_value(void)
GAS LISTING C:\Users\Karzan\AppData\Local\Temp\ccUlsDYc.s 			page 4


  54:./../../firmware/RISCV/drivers/n200_func.c **** {
 127              		.loc 1 54 1 is_stmt 1
 128              		.cfi_startproc
 129              	.LBB64:
 130              	.LBB65:
 131              	.LBB66:
  50:./../../firmware/RISCV/drivers/n200_func.c **** }
 132              		.loc 1 50 10 is_stmt 0
 133 0000 B70700D1 		li	a5,-788529152
 134              	.L6:
 135              	.LBE66:
 136              	.LBE65:
 137              	.LBE64:
  55:./../../firmware/RISCV/drivers/n200_func.c ****   while (1) {
 138              		.loc 1 55 3 is_stmt 1
 139              	.LBB73:
  56:./../../firmware/RISCV/drivers/n200_func.c ****     uint32_t hi = mtime_hi();
 140              		.loc 1 56 5
 141              	.LBB68:
 142              	.LBB67:
  50:./../../firmware/RISCV/drivers/n200_func.c **** }
 143              		.loc 1 50 3
  50:./../../firmware/RISCV/drivers/n200_func.c **** }
 144              		.loc 1 50 10 is_stmt 0
 145 0004 D843     		lw	a4,4(a5)
 146              	.LVL1:
 147              	.LBE67:
 148              	.LBE68:
  57:./../../firmware/RISCV/drivers/n200_func.c ****     uint32_t lo = mtime_lo();
 149              		.loc 1 57 5 is_stmt 1
 150              	.LBB69:
 151              	.LBB70:
  44:./../../firmware/RISCV/drivers/n200_func.c **** }
 152              		.loc 1 44 3
  44:./../../firmware/RISCV/drivers/n200_func.c **** }
 153              		.loc 1 44 10 is_stmt 0
 154 0006 8843     		lw	a0,0(a5)
 155              	.LVL2:
 156              	.LBE70:
 157              	.LBE69:
  58:./../../firmware/RISCV/drivers/n200_func.c ****     if (hi == mtime_hi())
 158              		.loc 1 58 5 is_stmt 1
 159              	.LBB71:
 160              	.LBB72:
  50:./../../firmware/RISCV/drivers/n200_func.c **** }
 161              		.loc 1 50 3
  50:./../../firmware/RISCV/drivers/n200_func.c **** }
 162              		.loc 1 50 10 is_stmt 0
 163 0008 CC43     		lw	a1,4(a5)
 164              	.LBE72:
 165              	.LBE71:
 166              		.loc 1 58 8
 167 000a E39DE5FE 		bne	a1,a4,.L6
 168              	.LBE73:
  59:./../../firmware/RISCV/drivers/n200_func.c ****       return ((uint64_t)hi << 32) | lo;
  60:./../../firmware/RISCV/drivers/n200_func.c ****   }
  61:./../../firmware/RISCV/drivers/n200_func.c **** }
GAS LISTING C:\Users\Karzan\AppData\Local\Temp\ccUlsDYc.s 			page 5


 169              		.loc 1 61 1
 170 000e 8280     		ret
 171              		.cfi_endproc
 172              	.LFE10:
 174              		.section	.text.get_timer_freq,"ax",@progbits
 175              		.align	1
 176              		.globl	get_timer_freq
 178              	get_timer_freq:
 179              	.LFB11:
  62:./../../firmware/RISCV/drivers/n200_func.c **** 
  63:./../../firmware/RISCV/drivers/n200_func.c **** uint32_t get_timer_freq(void)
  64:./../../firmware/RISCV/drivers/n200_func.c **** {
 180              		.loc 1 64 1 is_stmt 1
 181              		.cfi_startproc
  65:./../../firmware/RISCV/drivers/n200_func.c ****   return TIMER_FREQ;
 182              		.loc 1 65 3
 183              		.loc 1 65 10 is_stmt 0
 184 0000 B7070000 		lui	a5,%hi(SystemCoreClock)
 185 0004 03A50700 		lw	a0,%lo(SystemCoreClock)(a5)
  66:./../../firmware/RISCV/drivers/n200_func.c **** }
 186              		.loc 1 66 1
 187 0008 0981     		srli	a0,a0,2
 188 000a 8280     		ret
 189              		.cfi_endproc
 190              	.LFE11:
 192              		.section	.text.get_instret_value,"ax",@progbits
 193              		.align	1
 194              		.globl	get_instret_value
 196              	get_instret_value:
 197              	.LFB12:
  67:./../../firmware/RISCV/drivers/n200_func.c **** 
  68:./../../firmware/RISCV/drivers/n200_func.c **** uint64_t get_instret_value(void)
  69:./../../firmware/RISCV/drivers/n200_func.c **** {
 198              		.loc 1 69 1 is_stmt 1
 199              		.cfi_startproc
 200              	.L10:
  70:./../../firmware/RISCV/drivers/n200_func.c ****   while (1) {
 201              		.loc 1 70 3
 202              	.LBB74:
  71:./../../firmware/RISCV/drivers/n200_func.c **** #if   defined (__ICCRISCV__)
  72:./../../firmware/RISCV/drivers/n200_func.c ****     uint32_t hi = read_csr(CSR_MINSTRETH);
  73:./../../firmware/RISCV/drivers/n200_func.c ****     uint32_t lo = read_csr(CSR_MINSTRETH);
  74:./../../firmware/RISCV/drivers/n200_func.c ****     if (hi == read_csr(CSR_MINSTRETH))
  75:./../../firmware/RISCV/drivers/n200_func.c **** #elif defined ( __GNUC__ )
  76:./../../firmware/RISCV/drivers/n200_func.c ****     uint32_t hi = read_csr(minstreth);
 203              		.loc 1 76 5
 204              	.LBB75:
 205              		.loc 1 76 19
 206              		.loc 1 76 19
 207              	 #APP
 208              	# 76 "./../../firmware/RISCV/drivers/n200_func.c" 1
  77              	    uint32_t lo = read_csr(minstret);
 209              		csrr a1, minstreth
 210              	# 0 "" 2
 211              	.LVL3:
  76:./../../firmware/RISCV/drivers/n200_func.c ****     uint32_t hi = read_csr(minstreth);
 212              		.loc 1 76 19
GAS LISTING C:\Users\Karzan\AppData\Local\Temp\ccUlsDYc.s 			page 6


 213              	 #NO_APP
 214              	.LBE75:
 215              		.loc 1 77 5
 216              	.LBB76:
 217              		.loc 1 77 19
 218              		.loc 1 77 19
 219              	 #APP
 220              	# 77 "./../../firmware/RISCV/drivers/n200_func.c" 1
  78              	    if (hi == read_csr(minstreth))
 221              		csrr a0, minstret
 222              	# 0 "" 2
 223              	.LVL4:
  77:./../../firmware/RISCV/drivers/n200_func.c ****     if (hi == read_csr(minstreth))
 224              		.loc 1 77 19
 225              	 #NO_APP
 226              	.LBE76:
 227              		.loc 1 78 5
 228              	.LBB77:
 229              		.loc 1 78 15
 230              		.loc 1 78 15
 231              	 #APP
 232              	# 78 "./../../firmware/RISCV/drivers/n200_func.c" 1
  79              	#endif  
 233              		csrr a5, minstreth
 234              	# 0 "" 2
 235              	.LVL5:
  78:./../../firmware/RISCV/drivers/n200_func.c **** #endif  
 236              		.loc 1 78 15
 237              	 #NO_APP
 238              	.LBE77:
  78:./../../firmware/RISCV/drivers/n200_func.c **** #endif  
 239              		.loc 1 78 8 is_stmt 0
 240 000c E39AF5FE 		bne	a1,a5,.L10
 241              	.LBE74:
  80:./../../firmware/RISCV/drivers/n200_func.c **** 
  81:./../../firmware/RISCV/drivers/n200_func.c ****       return ((uint64_t)hi << 32) | lo;
  82:./../../firmware/RISCV/drivers/n200_func.c ****   }
  83:./../../firmware/RISCV/drivers/n200_func.c **** }
 242              		.loc 1 83 1
 243 0010 8280     		ret
 244              		.cfi_endproc
 245              	.LFE12:
 247              		.section	.text.get_cycle_value,"ax",@progbits
 248              		.align	1
 249              		.globl	get_cycle_value
 251              	get_cycle_value:
 252              	.LFB13:
  84:./../../firmware/RISCV/drivers/n200_func.c **** 
  85:./../../firmware/RISCV/drivers/n200_func.c **** uint64_t get_cycle_value(void)
  86:./../../firmware/RISCV/drivers/n200_func.c **** {
 253              		.loc 1 86 1 is_stmt 1
 254              		.cfi_startproc
 255              	.L13:
  87:./../../firmware/RISCV/drivers/n200_func.c ****   while (1) {
 256              		.loc 1 87 3
 257              	.LBB78:
  88:./../../firmware/RISCV/drivers/n200_func.c **** #if   defined (__ICCRISCV__)
GAS LISTING C:\Users\Karzan\AppData\Local\Temp\ccUlsDYc.s 			page 7


  89:./../../firmware/RISCV/drivers/n200_func.c ****     uint32_t hi = read_csr(CSR_MCYCLEH);
  90:./../../firmware/RISCV/drivers/n200_func.c ****     uint32_t lo = read_csr(CSR_MCYCLE);
  91:./../../firmware/RISCV/drivers/n200_func.c ****     if (hi == read_csr(CSR_MCYCLEH))
  92:./../../firmware/RISCV/drivers/n200_func.c **** #elif defined ( __GNUC__ )
  93:./../../firmware/RISCV/drivers/n200_func.c ****     uint32_t hi = read_csr(mcycleh);
 258              		.loc 1 93 5
 259              	.LBB79:
 260              		.loc 1 93 19
 261              		.loc 1 93 19
 262              	 #APP
 263              	# 93 "./../../firmware/RISCV/drivers/n200_func.c" 1
  94              	    uint32_t lo = read_csr(mcycle);
 264              		csrr a1, mcycleh
 265              	# 0 "" 2
 266              	.LVL6:
  93:./../../firmware/RISCV/drivers/n200_func.c ****     uint32_t hi = read_csr(mcycleh);
 267              		.loc 1 93 19
 268              	 #NO_APP
 269              	.LBE79:
 270              		.loc 1 94 5
 271              	.LBB80:
 272              		.loc 1 94 19
 273              		.loc 1 94 19
 274              	 #APP
 275              	# 94 "./../../firmware/RISCV/drivers/n200_func.c" 1
  95              	    if (hi == read_csr(mcycleh))
 276              		csrr a0, mcycle
 277              	# 0 "" 2
 278              	.LVL7:
  94:./../../firmware/RISCV/drivers/n200_func.c ****     if (hi == read_csr(mcycleh))
 279              		.loc 1 94 19
 280              	 #NO_APP
 281              	.LBE80:
 282              		.loc 1 95 5
 283              	.LBB81:
 284              		.loc 1 95 15
 285              		.loc 1 95 15
 286              	 #APP
 287              	# 95 "./../../firmware/RISCV/drivers/n200_func.c" 1
  96              	#endif    
 288              		csrr a5, mcycleh
 289              	# 0 "" 2
 290              	.LVL8:
  95:./../../firmware/RISCV/drivers/n200_func.c **** #endif    
 291              		.loc 1 95 15
 292              	 #NO_APP
 293              	.LBE81:
  95:./../../firmware/RISCV/drivers/n200_func.c **** #endif    
 294              		.loc 1 95 8 is_stmt 0
 295 000c E39AF5FE 		bne	a1,a5,.L13
 296              	.LBE78:
  97:./../../firmware/RISCV/drivers/n200_func.c **** 
  98:./../../firmware/RISCV/drivers/n200_func.c ****       return ((uint64_t)hi << 32) | lo;
  99:./../../firmware/RISCV/drivers/n200_func.c ****   }
 100:./../../firmware/RISCV/drivers/n200_func.c **** }
 297              		.loc 1 100 1
 298 0010 8280     		ret
GAS LISTING C:\Users\Karzan\AppData\Local\Temp\ccUlsDYc.s 			page 8


 299              		.cfi_endproc
 300              	.LFE13:
 302              		.section	.text.measure_cpu_freq,"ax",@progbits
 303              		.align	1
 304              		.globl	measure_cpu_freq
 306              	measure_cpu_freq:
 307              	.LFB14:
 101:./../../firmware/RISCV/drivers/n200_func.c **** 
 102:./../../firmware/RISCV/drivers/n200_func.c **** uint32_t __attribute__((noinline)) measure_cpu_freq(size_t n)
 103:./../../firmware/RISCV/drivers/n200_func.c **** {
 308              		.loc 1 103 1 is_stmt 1
 309              		.cfi_startproc
 310              	.LVL9:
 104:./../../firmware/RISCV/drivers/n200_func.c ****   uint32_t start_mtime, delta_mtime;
 311              		.loc 1 104 3
 105:./../../firmware/RISCV/drivers/n200_func.c ****   uint32_t mtime_freq = get_timer_freq();
 312              		.loc 1 105 3
 313              	.LBB82:
 314              	.LBB83:
  65:./../../firmware/RISCV/drivers/n200_func.c **** }
 315              		.loc 1 65 3
  65:./../../firmware/RISCV/drivers/n200_func.c **** }
 316              		.loc 1 65 10 is_stmt 0
 317 0000 B7070000 		lui	a5,%hi(SystemCoreClock)
 318 0004 83A70700 		lw	a5,%lo(SystemCoreClock)(a5)
 319              	.LBE83:
 320              	.LBE82:
 321              	.LBB85:
 322              	.LBB86:
  44:./../../firmware/RISCV/drivers/n200_func.c **** }
 323              		.loc 1 44 10
 324 0008 B70600D1 		li	a3,-788529152
 325              	.LBE86:
 326              	.LBE85:
 327              	.LBB88:
 328              	.LBB84:
  65:./../../firmware/RISCV/drivers/n200_func.c **** }
 329              		.loc 1 65 10
 330 000c 13D62700 		srli	a2,a5,2
 331              	.LVL10:
 332              	.LBE84:
 333              	.LBE88:
 106:./../../firmware/RISCV/drivers/n200_func.c **** 
 107:./../../firmware/RISCV/drivers/n200_func.c ****   /* Don't start measuruing until we see an mtime tick */
 108:./../../firmware/RISCV/drivers/n200_func.c ****   uint32_t tmp = mtime_lo();
 334              		.loc 1 108 3 is_stmt 1
 335              	.LBB89:
 336              	.LBB90:
  44:./../../firmware/RISCV/drivers/n200_func.c **** }
 337              		.loc 1 44 3
  44:./../../firmware/RISCV/drivers/n200_func.c **** }
 338              		.loc 1 44 10 is_stmt 0
 339 0010 B70700D1 		li	a5,-788529152
 340 0014 9C43     		lw	a5,0(a5)
 341              	.LVL11:
 342              	.L16:
 343              	.LBE90:
GAS LISTING C:\Users\Karzan\AppData\Local\Temp\ccUlsDYc.s 			page 9


 344              	.LBE89:
 109:./../../firmware/RISCV/drivers/n200_func.c ****   do {
 345              		.loc 1 109 3 is_stmt 1 discriminator 1
 110:./../../firmware/RISCV/drivers/n200_func.c ****     start_mtime = mtime_lo();
 346              		.loc 1 110 5 discriminator 1
 347              	.LBB91:
 348              	.LBB87:
  44:./../../firmware/RISCV/drivers/n200_func.c **** }
 349              		.loc 1 44 3 discriminator 1
  44:./../../firmware/RISCV/drivers/n200_func.c **** }
 350              		.loc 1 44 10 is_stmt 0 discriminator 1
 351 0016 9842     		lw	a4,0(a3)
 352              	.LVL12:
 353              	.LBE87:
 354              	.LBE91:
 111:./../../firmware/RISCV/drivers/n200_func.c ****   } while (start_mtime == tmp);
 355              		.loc 1 111 3 discriminator 1
 356 0018 E38FE7FE 		beq	a5,a4,.L16
 112:./../../firmware/RISCV/drivers/n200_func.c **** 
 113:./../../firmware/RISCV/drivers/n200_func.c **** #if   defined (__ICCRISCV__)
 114:./../../firmware/RISCV/drivers/n200_func.c ****   uint32_t start_mcycle = read_csr(CSR_MCYCLE);
 115:./../../firmware/RISCV/drivers/n200_func.c **** #elif defined ( __GNUC__ )
 116:./../../firmware/RISCV/drivers/n200_func.c ****   uint32_t start_mcycle = read_csr(mcycle);
 357              		.loc 1 116 3 is_stmt 1
 358              	.LBB92:
 359              		.loc 1 116 27
 360              		.loc 1 116 27
 361              	 #APP
 362              	# 116 "./../../firmware/RISCV/drivers/n200_func.c" 1
 117              	#endif
 363              		csrr a1, mcycle
 364              	# 0 "" 2
 365              	.LVL13:
 116:./../../firmware/RISCV/drivers/n200_func.c ****   uint32_t start_mcycle = read_csr(mcycle);
 366              		.loc 1 116 27
 367              	 #NO_APP
 368              	.LBE92:
 369              	.LBB93:
 370              	.LBB94:
  44:./../../firmware/RISCV/drivers/n200_func.c **** }
 371              		.loc 1 44 10 is_stmt 0
 372 0020 370800D1 		li	a6,-788529152
 373              	.LVL14:
 374              	.L17:
 375              	.LBE94:
 376              	.LBE93:
 118:./../../firmware/RISCV/drivers/n200_func.c **** 
 119:./../../firmware/RISCV/drivers/n200_func.c ****   do {
 377              		.loc 1 119 3 is_stmt 1 discriminator 1
 120:./../../firmware/RISCV/drivers/n200_func.c ****     delta_mtime = mtime_lo() - start_mtime;
 378              		.loc 1 120 5 discriminator 1
 379              	.LBB96:
 380              	.LBB95:
  44:./../../firmware/RISCV/drivers/n200_func.c **** }
 381              		.loc 1 44 3 discriminator 1
  44:./../../firmware/RISCV/drivers/n200_func.c **** }
 382              		.loc 1 44 10 is_stmt 0 discriminator 1
GAS LISTING C:\Users\Karzan\AppData\Local\Temp\ccUlsDYc.s 			page 10


 383 0024 83270800 		lw	a5,0(a6)
 384              	.LBE95:
 385              	.LBE96:
 386              		.loc 1 120 17 discriminator 1
 387 0028 B386E740 		sub	a3,a5,a4
 388              	.LVL15:
 121:./../../firmware/RISCV/drivers/n200_func.c ****   } while (delta_mtime < n);
 389              		.loc 1 121 3 discriminator 1
 390 002c E3ECA6FE 		bltu	a3,a0,.L17
 122:./../../firmware/RISCV/drivers/n200_func.c ****   
 123:./../../firmware/RISCV/drivers/n200_func.c **** #if   defined (__ICCRISCV__)
 124:./../../firmware/RISCV/drivers/n200_func.c ****   uint32_t delta_mcycle = read_csr(CSR_MCYCLE) - start_mcycle;
 125:./../../firmware/RISCV/drivers/n200_func.c **** #elif defined ( __GNUC__ )
 126:./../../firmware/RISCV/drivers/n200_func.c ****   uint32_t delta_mcycle = read_csr(mcycle) - start_mcycle;
 391              		.loc 1 126 3 is_stmt 1
 392              	.LBB97:
 393              		.loc 1 126 27
 394              		.loc 1 126 27
 395              	 #APP
 396              	# 126 "./../../firmware/RISCV/drivers/n200_func.c" 1
 127              	#endif
 397              		csrr a4, mcycle
 398              	# 0 "" 2
 399              	.LVL16:
 126:./../../firmware/RISCV/drivers/n200_func.c ****   uint32_t delta_mcycle = read_csr(mcycle) - start_mcycle;
 400              		.loc 1 126 27
 401              	 #NO_APP
 402              	.LBE97:
 126:./../../firmware/RISCV/drivers/n200_func.c ****   uint32_t delta_mcycle = read_csr(mcycle) - start_mcycle;
 403              		.loc 1 126 12 is_stmt 0
 404 0034 B307B740 		sub	a5,a4,a1
 405              	.LVL17:
 128:./../../firmware/RISCV/drivers/n200_func.c **** 
 129:./../../firmware/RISCV/drivers/n200_func.c ****   return (delta_mcycle / delta_mtime) * mtime_freq
 406              		.loc 1 129 3 is_stmt 1
 130:./../../firmware/RISCV/drivers/n200_func.c ****          + ((delta_mcycle % delta_mtime) * mtime_freq) / delta_mtime;
 407              		.loc 1 130 27 is_stmt 0
 408 0038 33F5D702 		remu	a0,a5,a3
 409              	.LVL18:
 129:./../../firmware/RISCV/drivers/n200_func.c ****          + ((delta_mcycle % delta_mtime) * mtime_freq) / delta_mtime;
 410              		.loc 1 129 24
 411 003c B3D7D702 		divu	a5,a5,a3
 412              	.LVL19:
 413              		.loc 1 130 42
 414 0040 3305C502 		mul	a0,a0,a2
 415              		.loc 1 130 56
 416 0044 3355D502 		divu	a0,a0,a3
 129:./../../firmware/RISCV/drivers/n200_func.c ****          + ((delta_mcycle % delta_mtime) * mtime_freq) / delta_mtime;
 417              		.loc 1 129 39
 418 0048 B387C702 		mul	a5,a5,a2
 131:./../../firmware/RISCV/drivers/n200_func.c **** }
 419              		.loc 1 131 1
 420 004c 3E95     		add	a0,a0,a5
 421 004e 8280     		ret
 422              		.cfi_endproc
 423              	.LFE14:
 425              		.section	.text.get_cpu_freq,"ax",@progbits
GAS LISTING C:\Users\Karzan\AppData\Local\Temp\ccUlsDYc.s 			page 11


 426              		.align	1
 427              		.globl	get_cpu_freq
 429              	get_cpu_freq:
 430              	.LFB15:
 132:./../../firmware/RISCV/drivers/n200_func.c **** 
 133:./../../firmware/RISCV/drivers/n200_func.c **** uint32_t get_cpu_freq(void)
 134:./../../firmware/RISCV/drivers/n200_func.c **** {
 431              		.loc 1 134 1 is_stmt 1
 432              		.cfi_startproc
 135:./../../firmware/RISCV/drivers/n200_func.c ****   uint32_t cpu_freq;
 433              		.loc 1 135 3
 136:./../../firmware/RISCV/drivers/n200_func.c **** 
 137:./../../firmware/RISCV/drivers/n200_func.c ****   /* warm up */
 138:./../../firmware/RISCV/drivers/n200_func.c ****   measure_cpu_freq(1);
 434              		.loc 1 138 3
 134:./../../firmware/RISCV/drivers/n200_func.c ****   uint32_t cpu_freq;
 435              		.loc 1 134 1 is_stmt 0
 436 0000 4111     		addi	sp,sp,-16
 437              	.LCFI0:
 438              		.cfi_def_cfa_offset 16
 439              		.loc 1 138 3
 440 0002 0545     		li	a0,1
 134:./../../firmware/RISCV/drivers/n200_func.c ****   uint32_t cpu_freq;
 441              		.loc 1 134 1
 442 0004 06C6     		sw	ra,12(sp)
 443              		.cfi_offset 1, -4
 444              		.loc 1 138 3
 445 0006 97000000 		call	measure_cpu_freq
 445      E7800000 
 446              	.LVL20:
 139:./../../firmware/RISCV/drivers/n200_func.c ****   /* measure for real */
 140:./../../firmware/RISCV/drivers/n200_func.c ****   cpu_freq = measure_cpu_freq(100);
 447              		.loc 1 140 3 is_stmt 1
 141:./../../firmware/RISCV/drivers/n200_func.c **** 
 142:./../../firmware/RISCV/drivers/n200_func.c ****   return cpu_freq;
 143:./../../firmware/RISCV/drivers/n200_func.c **** }
 448              		.loc 1 143 1 is_stmt 0
 449 000e B240     		lw	ra,12(sp)
 450              		.cfi_restore 1
 140:./../../firmware/RISCV/drivers/n200_func.c **** 
 451              		.loc 1 140 14
 452 0010 13054006 		li	a0,100
 453              		.loc 1 143 1
 454 0014 4101     		addi	sp,sp,16
 455              	.LCFI1:
 456              		.cfi_def_cfa_offset 0
 140:./../../firmware/RISCV/drivers/n200_func.c **** 
 457              		.loc 1 140 14
 458 0016 17030000 		tail	measure_cpu_freq
 458      67000300 
 459              	.LVL21:
 460              		.cfi_endproc
 461              	.LFE15:
 463              		.section	.text.eclic_init,"ax",@progbits
 464              		.align	1
 465              		.globl	eclic_init
 467              	eclic_init:
GAS LISTING C:\Users\Karzan\AppData\Local\Temp\ccUlsDYc.s 			page 12


 468              	.LFB16:
 144:./../../firmware/RISCV/drivers/n200_func.c **** 
 145:./../../firmware/RISCV/drivers/n200_func.c **** /* Note that there are no assertions or bounds checking on these */
 146:./../../firmware/RISCV/drivers/n200_func.c **** /* parameter values. */
 147:./../../firmware/RISCV/drivers/n200_func.c **** void eclic_init ( uint32_t num_irq )
 148:./../../firmware/RISCV/drivers/n200_func.c **** {
 469              		.loc 1 148 1 is_stmt 1
 470              		.cfi_startproc
 471              	.LVL22:
 149:./../../firmware/RISCV/drivers/n200_func.c **** 
 150:./../../firmware/RISCV/drivers/n200_func.c ****   typedef volatile uint32_t vuint32_t;
 472              		.loc 1 150 3
 151:./../../firmware/RISCV/drivers/n200_func.c **** 
 152:./../../firmware/RISCV/drivers/n200_func.c ****   /* clear cfg register */
 153:./../../firmware/RISCV/drivers/n200_func.c ****   *(volatile uint8_t*)(ECLIC_ADDR_BASE+ECLIC_CFG_OFFSET)=0;
 473              		.loc 1 153 3
 474              		.loc 1 153 57 is_stmt 0
 475 0000 B70700D2 		li	a5,-771751936
 476 0004 23800700 		sb	zero,0(a5)
 154:./../../firmware/RISCV/drivers/n200_func.c **** 
 155:./../../firmware/RISCV/drivers/n200_func.c ****   /* clear minthresh register */
 156:./../../firmware/RISCV/drivers/n200_func.c ****   *(volatile uint8_t*)(ECLIC_ADDR_BASE+ECLIC_MTH_OFFSET)=0;
 477              		.loc 1 156 3 is_stmt 1
 478              		.loc 1 156 57 is_stmt 0
 479 0008 A3850700 		sb	zero,11(a5)
 157:./../../firmware/RISCV/drivers/n200_func.c **** 
 158:./../../firmware/RISCV/drivers/n200_func.c ****   /* clear all IP/IE/ATTR/CTRL bits for all interrupt sources */
 159:./../../firmware/RISCV/drivers/n200_func.c ****   vuint32_t * ptr;
 480              		.loc 1 159 3 is_stmt 1
 160:./../../firmware/RISCV/drivers/n200_func.c **** 
 161:./../../firmware/RISCV/drivers/n200_func.c ****   vuint32_t * base = (vuint32_t*)(ECLIC_ADDR_BASE + ECLIC_INT_IP_OFFSET);
 481              		.loc 1 161 3
 482              	.LVL23:
 162:./../../firmware/RISCV/drivers/n200_func.c ****   vuint32_t * upper = (vuint32_t*)(base + num_irq*4);
 483              		.loc 1 162 3
 484              		.loc 1 162 41 is_stmt 0
 485 000c 1205     		slli	a0,a0,4
 486              	.LVL24:
 487              		.loc 1 162 15
 488 000e B71700D2 		li	a5,-771747840
 489 0012 3E95     		add	a0,a5,a0
 490              	.LVL25:
 163:./../../firmware/RISCV/drivers/n200_func.c **** 
 164:./../../firmware/RISCV/drivers/n200_func.c ****   for (ptr = base; ptr < upper; ptr=ptr+4){
 491              		.loc 1 164 3 is_stmt 1
 492              	.L23:
 493              		.loc 1 164 3 is_stmt 0 discriminator 1
 494 0014 63E3A700 		bltu	a5,a0,.L24
 165:./../../firmware/RISCV/drivers/n200_func.c ****     *ptr = 0;
 166:./../../firmware/RISCV/drivers/n200_func.c ****   }
 167:./../../firmware/RISCV/drivers/n200_func.c **** }
 495              		.loc 1 167 1
 496 0018 8280     		ret
 497              	.L24:
 165:./../../firmware/RISCV/drivers/n200_func.c ****     *ptr = 0;
 498              		.loc 1 165 5 is_stmt 1 discriminator 3
 165:./../../firmware/RISCV/drivers/n200_func.c ****     *ptr = 0;
GAS LISTING C:\Users\Karzan\AppData\Local\Temp\ccUlsDYc.s 			page 13


 499              		.loc 1 165 10 is_stmt 0 discriminator 3
 500 001a 23A00700 		sw	zero,0(a5)
 164:./../../firmware/RISCV/drivers/n200_func.c ****     *ptr = 0;
 501              		.loc 1 164 36 discriminator 3
 502 001e C107     		addi	a5,a5,16
 503              	.LVL26:
 504 0020 D5BF     		j	.L23
 505              		.cfi_endproc
 506              	.LFE16:
 508              		.section	.text.eclic_enable_interrupt,"ax",@progbits
 509              		.align	1
 510              		.globl	eclic_enable_interrupt
 512              	eclic_enable_interrupt:
 513              	.LFB17:
 168:./../../firmware/RISCV/drivers/n200_func.c **** 
 169:./../../firmware/RISCV/drivers/n200_func.c **** void eclic_enable_interrupt (uint32_t source) {
 514              		.loc 1 169 47 is_stmt 1
 515              		.cfi_startproc
 516              	.LVL27:
 170:./../../firmware/RISCV/drivers/n200_func.c ****     *(volatile uint8_t*)(ECLIC_ADDR_BASE+ECLIC_INT_IE_OFFSET+source*4) = 1;
 517              		.loc 1 170 5
 518              		.loc 1 170 61 is_stmt 0
 519 0000 B71700D2 		li	a5,-771747840
 520 0004 8507     		addi	a5,a5,1
 521              		.loc 1 170 68
 522 0006 0A05     		slli	a0,a0,2
 523              	.LVL28:
 524              		.loc 1 170 61
 525 0008 3E95     		add	a0,a0,a5
 526              		.loc 1 170 72
 527 000a 8547     		li	a5,1
 528 000c 2300F500 		sb	a5,0(a0)
 171:./../../firmware/RISCV/drivers/n200_func.c **** }
 529              		.loc 1 171 1
 530 0010 8280     		ret
 531              		.cfi_endproc
 532              	.LFE17:
 534              		.section	.text.eclic_disable_interrupt,"ax",@progbits
 535              		.align	1
 536              		.globl	eclic_disable_interrupt
 538              	eclic_disable_interrupt:
 539              	.LFB18:
 172:./../../firmware/RISCV/drivers/n200_func.c **** 
 173:./../../firmware/RISCV/drivers/n200_func.c **** void eclic_disable_interrupt (uint32_t source){
 540              		.loc 1 173 47 is_stmt 1
 541              		.cfi_startproc
 542              	.LVL29:
 174:./../../firmware/RISCV/drivers/n200_func.c ****     *(volatile uint8_t*)(ECLIC_ADDR_BASE+ECLIC_INT_IE_OFFSET+source*4) = 0;
 543              		.loc 1 174 5
 544              		.loc 1 174 61 is_stmt 0
 545 0000 B71700D2 		li	a5,-771747840
 546              		.loc 1 174 68
 547 0004 0A05     		slli	a0,a0,2
 548              	.LVL30:
 549              		.loc 1 174 61
 550 0006 8507     		addi	a5,a5,1
 551 0008 3E95     		add	a0,a0,a5
GAS LISTING C:\Users\Karzan\AppData\Local\Temp\ccUlsDYc.s 			page 14


 552              		.loc 1 174 72
 553 000a 23000500 		sb	zero,0(a0)
 175:./../../firmware/RISCV/drivers/n200_func.c **** }
 554              		.loc 1 175 1
 555 000e 8280     		ret
 556              		.cfi_endproc
 557              	.LFE18:
 559              		.section	.text.eclic_set_pending,"ax",@progbits
 560              		.align	1
 561              		.globl	eclic_set_pending
 563              	eclic_set_pending:
 564              	.LFB19:
 176:./../../firmware/RISCV/drivers/n200_func.c **** 
 177:./../../firmware/RISCV/drivers/n200_func.c **** void eclic_set_pending(uint32_t source){
 565              		.loc 1 177 40 is_stmt 1
 566              		.cfi_startproc
 567              	.LVL31:
 178:./../../firmware/RISCV/drivers/n200_func.c ****     *(volatile uint8_t*)(ECLIC_ADDR_BASE+ECLIC_INT_IP_OFFSET+source*4) = 1;
 568              		.loc 1 178 5
 569              		.loc 1 178 61 is_stmt 0
 570 0000 B7078034 		li	a5,880803840
 571 0004 93870740 		addi	a5,a5,1024
 572 0008 3E95     		add	a0,a0,a5
 573              	.LVL32:
 574 000a 0A05     		slli	a0,a0,2
 575              	.LVL33:
 576              		.loc 1 178 72
 577 000c 8547     		li	a5,1
 578 000e 2300F500 		sb	a5,0(a0)
 179:./../../firmware/RISCV/drivers/n200_func.c **** }
 579              		.loc 1 179 1
 580 0012 8280     		ret
 581              		.cfi_endproc
 582              	.LFE19:
 584              		.section	.text.eclic_clear_pending,"ax",@progbits
 585              		.align	1
 586              		.globl	eclic_clear_pending
 588              	eclic_clear_pending:
 589              	.LFB20:
 180:./../../firmware/RISCV/drivers/n200_func.c **** 
 181:./../../firmware/RISCV/drivers/n200_func.c **** void eclic_clear_pending(uint32_t source){
 590              		.loc 1 181 42 is_stmt 1
 591              		.cfi_startproc
 592              	.LVL34:
 182:./../../firmware/RISCV/drivers/n200_func.c ****     *(volatile uint8_t*)(ECLIC_ADDR_BASE+ECLIC_INT_IP_OFFSET+source*4) = 0;
 593              		.loc 1 182 5
 594              		.loc 1 182 61 is_stmt 0
 595 0000 B7078034 		li	a5,880803840
 596 0004 93870740 		addi	a5,a5,1024
 597 0008 3E95     		add	a0,a0,a5
 598              	.LVL35:
 599 000a 0A05     		slli	a0,a0,2
 600              	.LVL36:
 601              		.loc 1 182 72
 602 000c 23000500 		sb	zero,0(a0)
 183:./../../firmware/RISCV/drivers/n200_func.c **** }
 603              		.loc 1 183 1
GAS LISTING C:\Users\Karzan\AppData\Local\Temp\ccUlsDYc.s 			page 15


 604 0010 8280     		ret
 605              		.cfi_endproc
 606              	.LFE20:
 608              		.section	.text.eclic_set_intctrl,"ax",@progbits
 609              		.align	1
 610              		.globl	eclic_set_intctrl
 612              	eclic_set_intctrl:
 613              	.LFB21:
 184:./../../firmware/RISCV/drivers/n200_func.c **** 
 185:./../../firmware/RISCV/drivers/n200_func.c **** void eclic_set_intctrl (uint32_t source, uint8_t intctrl){
 614              		.loc 1 185 58 is_stmt 1
 615              		.cfi_startproc
 616              	.LVL37:
 186:./../../firmware/RISCV/drivers/n200_func.c ****   *(volatile uint8_t*)(ECLIC_ADDR_BASE+ECLIC_INT_CTRL_OFFSET+source*4) = intctrl;
 617              		.loc 1 186 3
 618              		.loc 1 186 61 is_stmt 0
 619 0000 B71700D2 		li	a5,-771747840
 620              		.loc 1 186 68
 621 0004 0A05     		slli	a0,a0,2
 622              	.LVL38:
 623              		.loc 1 186 61
 624 0006 8D07     		addi	a5,a5,3
 625 0008 3E95     		add	a0,a0,a5
 626              		.loc 1 186 72
 627 000a 2300B500 		sb	a1,0(a0)
 187:./../../firmware/RISCV/drivers/n200_func.c **** }
 628              		.loc 1 187 1
 629 000e 8280     		ret
 630              		.cfi_endproc
 631              	.LFE21:
 633              		.section	.text.eclic_get_intctrl,"ax",@progbits
 634              		.align	1
 635              		.globl	eclic_get_intctrl
 637              	eclic_get_intctrl:
 638              	.LFB22:
 188:./../../firmware/RISCV/drivers/n200_func.c **** 
 189:./../../firmware/RISCV/drivers/n200_func.c **** uint8_t eclic_get_intctrl  (uint32_t source){
 639              		.loc 1 189 45 is_stmt 1
 640              		.cfi_startproc
 641              	.LVL39:
 190:./../../firmware/RISCV/drivers/n200_func.c ****   return *(volatile uint8_t*)(ECLIC_ADDR_BASE+ECLIC_INT_CTRL_OFFSET+source*4);
 642              		.loc 1 190 3
 643              		.loc 1 190 68 is_stmt 0
 644 0000 B71700D2 		li	a5,-771747840
 645 0004 8D07     		addi	a5,a5,3
 646              		.loc 1 190 75
 647 0006 0A05     		slli	a0,a0,2
 648              	.LVL40:
 649              		.loc 1 190 68
 650 0008 3E95     		add	a0,a0,a5
 651              		.loc 1 190 10
 652 000a 03450500 		lbu	a0,0(a0)
 191:./../../firmware/RISCV/drivers/n200_func.c **** }
 653              		.loc 1 191 1
 654 000e 8280     		ret
 655              		.cfi_endproc
 656              	.LFE22:
GAS LISTING C:\Users\Karzan\AppData\Local\Temp\ccUlsDYc.s 			page 16


 658              		.section	.text.eclic_set_intattr,"ax",@progbits
 659              		.align	1
 660              		.globl	eclic_set_intattr
 662              	eclic_set_intattr:
 663              	.LFB23:
 192:./../../firmware/RISCV/drivers/n200_func.c **** 
 193:./../../firmware/RISCV/drivers/n200_func.c **** void eclic_set_intattr (uint32_t source, uint8_t intattr){
 664              		.loc 1 193 58 is_stmt 1
 665              		.cfi_startproc
 666              	.LVL41:
 194:./../../firmware/RISCV/drivers/n200_func.c ****   *(volatile uint8_t*)(ECLIC_ADDR_BASE+ECLIC_INT_ATTR_OFFSET+source*4) = intattr;
 667              		.loc 1 194 3
 668              		.loc 1 194 61 is_stmt 0
 669 0000 B71700D2 		li	a5,-771747840
 670              		.loc 1 194 68
 671 0004 0A05     		slli	a0,a0,2
 672              	.LVL42:
 673              		.loc 1 194 61
 674 0006 8907     		addi	a5,a5,2
 675 0008 3E95     		add	a0,a0,a5
 676              		.loc 1 194 72
 677 000a 2300B500 		sb	a1,0(a0)
 195:./../../firmware/RISCV/drivers/n200_func.c **** }
 678              		.loc 1 195 1
 679 000e 8280     		ret
 680              		.cfi_endproc
 681              	.LFE23:
 683              		.section	.text.eclic_get_intattr,"ax",@progbits
 684              		.align	1
 685              		.globl	eclic_get_intattr
 687              	eclic_get_intattr:
 688              	.LFB24:
 196:./../../firmware/RISCV/drivers/n200_func.c **** 
 197:./../../firmware/RISCV/drivers/n200_func.c **** uint8_t eclic_get_intattr  (uint32_t source){
 689              		.loc 1 197 45 is_stmt 1
 690              		.cfi_startproc
 691              	.LVL43:
 198:./../../firmware/RISCV/drivers/n200_func.c ****   return *(volatile uint8_t*)(ECLIC_ADDR_BASE+ECLIC_INT_ATTR_OFFSET+source*4);
 692              		.loc 1 198 3
 693              		.loc 1 198 68 is_stmt 0
 694 0000 B71700D2 		li	a5,-771747840
 695 0004 8907     		addi	a5,a5,2
 696              		.loc 1 198 75
 697 0006 0A05     		slli	a0,a0,2
 698              	.LVL44:
 699              		.loc 1 198 68
 700 0008 3E95     		add	a0,a0,a5
 701              		.loc 1 198 10
 702 000a 03450500 		lbu	a0,0(a0)
 199:./../../firmware/RISCV/drivers/n200_func.c **** }
 703              		.loc 1 199 1
 704 000e 8280     		ret
 705              		.cfi_endproc
 706              	.LFE24:
 708              		.section	.text.eclic_set_cliccfg,"ax",@progbits
 709              		.align	1
 710              		.globl	eclic_set_cliccfg
GAS LISTING C:\Users\Karzan\AppData\Local\Temp\ccUlsDYc.s 			page 17


 712              	eclic_set_cliccfg:
 713              	.LFB25:
 200:./../../firmware/RISCV/drivers/n200_func.c **** 
 201:./../../firmware/RISCV/drivers/n200_func.c **** void eclic_set_cliccfg (uint8_t cliccfg){
 714              		.loc 1 201 41 is_stmt 1
 715              		.cfi_startproc
 716              	.LVL45:
 202:./../../firmware/RISCV/drivers/n200_func.c ****   *(volatile uint8_t*)(ECLIC_ADDR_BASE+ECLIC_CFG_OFFSET) = cliccfg;
 717              		.loc 1 202 3
 718              		.loc 1 202 58 is_stmt 0
 719 0000 B70700D2 		li	a5,-771751936
 720 0004 2380A700 		sb	a0,0(a5)
 203:./../../firmware/RISCV/drivers/n200_func.c **** }
 721              		.loc 1 203 1
 722 0008 8280     		ret
 723              		.cfi_endproc
 724              	.LFE25:
 726              		.section	.text.eclic_get_cliccfg,"ax",@progbits
 727              		.align	1
 728              		.globl	eclic_get_cliccfg
 730              	eclic_get_cliccfg:
 731              	.LFB26:
 204:./../../firmware/RISCV/drivers/n200_func.c **** 
 205:./../../firmware/RISCV/drivers/n200_func.c **** uint8_t eclic_get_cliccfg (void){
 732              		.loc 1 205 33 is_stmt 1
 733              		.cfi_startproc
 206:./../../firmware/RISCV/drivers/n200_func.c ****   return *(volatile uint8_t*)(ECLIC_ADDR_BASE+ECLIC_CFG_OFFSET);
 734              		.loc 1 206 3
 735              		.loc 1 206 10 is_stmt 0
 736 0000 B70700D2 		li	a5,-771751936
 737 0004 03C50700 		lbu	a0,0(a5)
 207:./../../firmware/RISCV/drivers/n200_func.c **** }
 738              		.loc 1 207 1
 739 0008 8280     		ret
 740              		.cfi_endproc
 741              	.LFE26:
 743              		.section	.text.eclic_set_mth,"ax",@progbits
 744              		.align	1
 745              		.globl	eclic_set_mth
 747              	eclic_set_mth:
 748              	.LFB27:
 208:./../../firmware/RISCV/drivers/n200_func.c **** 
 209:./../../firmware/RISCV/drivers/n200_func.c **** void eclic_set_mth (uint8_t mth){
 749              		.loc 1 209 33 is_stmt 1
 750              		.cfi_startproc
 751              	.LVL46:
 210:./../../firmware/RISCV/drivers/n200_func.c ****   *(volatile uint8_t*)(ECLIC_ADDR_BASE+ECLIC_MTH_OFFSET) = mth;
 752              		.loc 1 210 3
 753              		.loc 1 210 58 is_stmt 0
 754 0000 B70700D2 		li	a5,-771751936
 755 0004 A385A700 		sb	a0,11(a5)
 211:./../../firmware/RISCV/drivers/n200_func.c **** }
 756              		.loc 1 211 1
 757 0008 8280     		ret
 758              		.cfi_endproc
 759              	.LFE27:
 761              		.section	.text.eclic_get_mth,"ax",@progbits
GAS LISTING C:\Users\Karzan\AppData\Local\Temp\ccUlsDYc.s 			page 18


 762              		.align	1
 763              		.globl	eclic_get_mth
 765              	eclic_get_mth:
 766              	.LFB28:
 212:./../../firmware/RISCV/drivers/n200_func.c **** 
 213:./../../firmware/RISCV/drivers/n200_func.c **** uint8_t eclic_get_mth (void){
 767              		.loc 1 213 29 is_stmt 1
 768              		.cfi_startproc
 214:./../../firmware/RISCV/drivers/n200_func.c ****   return *(volatile uint8_t*)(ECLIC_ADDR_BASE+ECLIC_MTH_OFFSET);
 769              		.loc 1 214 3
 770              		.loc 1 214 10 is_stmt 0
 771 0000 B70700D2 		li	a5,-771751936
 772 0004 03C5B700 		lbu	a0,11(a5)
 215:./../../firmware/RISCV/drivers/n200_func.c **** }
 773              		.loc 1 215 1
 774 0008 8280     		ret
 775              		.cfi_endproc
 776              	.LFE28:
 778              		.section	.text.eclic_set_nlbits,"ax",@progbits
 779              		.align	1
 780              		.globl	eclic_set_nlbits
 782              	eclic_set_nlbits:
 783              	.LFB29:
 216:./../../firmware/RISCV/drivers/n200_func.c **** 
 217:./../../firmware/RISCV/drivers/n200_func.c **** /* sets nlbits */
 218:./../../firmware/RISCV/drivers/n200_func.c **** void eclic_set_nlbits(uint8_t nlbits) {
 784              		.loc 1 218 39 is_stmt 1
 785              		.cfi_startproc
 786              	.LVL47:
 219:./../../firmware/RISCV/drivers/n200_func.c ****   /* shift nlbits to correct position */
 220:./../../firmware/RISCV/drivers/n200_func.c ****   uint8_t nlbits_shifted = nlbits << ECLIC_CFG_NLBITS_LSB;
 787              		.loc 1 220 3
 221:./../../firmware/RISCV/drivers/n200_func.c **** 
 222:./../../firmware/RISCV/drivers/n200_func.c ****   /* read the current cliccfg */ 
 223:./../../firmware/RISCV/drivers/n200_func.c ****   uint8_t old_cliccfg = eclic_get_cliccfg();
 788              		.loc 1 223 3
 789              	.LBB98:
 790              	.LBB99:
 206:./../../firmware/RISCV/drivers/n200_func.c **** }
 791              		.loc 1 206 3
 206:./../../firmware/RISCV/drivers/n200_func.c **** }
 792              		.loc 1 206 10 is_stmt 0
 793 0000 370700D2 		li	a4,-771751936
 794 0004 83470700 		lbu	a5,0(a4)
 795              	.LVL48:
 796              	.LBE99:
 797              	.LBE98:
 224:./../../firmware/RISCV/drivers/n200_func.c ****   uint8_t new_cliccfg = (old_cliccfg & (~ECLIC_CFG_NLBITS_MASK)) | (ECLIC_CFG_NLBITS_MASK & nlbits_
 798              		.loc 1 224 3 is_stmt 1
 220:./../../firmware/RISCV/drivers/n200_func.c **** 
 799              		.loc 1 220 11 is_stmt 0
 800 0008 0605     		slli	a0,a0,1
 801              	.LVL49:
 802              		.loc 1 224 91
 803 000a 7989     		andi	a0,a0,30
 804              		.loc 1 224 38
 805 000c 93F7170E 		andi	a5,a5,225
GAS LISTING C:\Users\Karzan\AppData\Local\Temp\ccUlsDYc.s 			page 19


 806              	.LVL50:
 807              		.loc 1 224 11
 808 0010 5D8D     		or	a0,a0,a5
 809              	.LVL51:
 225:./../../firmware/RISCV/drivers/n200_func.c **** 
 226:./../../firmware/RISCV/drivers/n200_func.c ****   eclic_set_cliccfg(new_cliccfg);
 810              		.loc 1 226 3 is_stmt 1
 811              	.LBB100:
 812              	.LBB101:
 202:./../../firmware/RISCV/drivers/n200_func.c **** }
 813              		.loc 1 202 3
 202:./../../firmware/RISCV/drivers/n200_func.c **** }
 814              		.loc 1 202 58 is_stmt 0
 815 0012 2300A700 		sb	a0,0(a4)
 816              	.LVL52:
 817              	.LBE101:
 818              	.LBE100:
 227:./../../firmware/RISCV/drivers/n200_func.c **** }
 819              		.loc 1 227 1
 820 0016 8280     		ret
 821              		.cfi_endproc
 822              	.LFE29:
 824              		.section	.text.eclic_get_nlbits,"ax",@progbits
 825              		.align	1
 826              		.globl	eclic_get_nlbits
 828              	eclic_get_nlbits:
 829              	.LFB30:
 228:./../../firmware/RISCV/drivers/n200_func.c **** 
 229:./../../firmware/RISCV/drivers/n200_func.c **** /* get nlbits */
 230:./../../firmware/RISCV/drivers/n200_func.c **** uint8_t eclic_get_nlbits(void) {
 830              		.loc 1 230 32 is_stmt 1
 831              		.cfi_startproc
 231:./../../firmware/RISCV/drivers/n200_func.c ****   /* extract nlbits */
 232:./../../firmware/RISCV/drivers/n200_func.c ****   uint8_t nlbits = eclic_get_cliccfg();
 832              		.loc 1 232 3
 833              	.LBB102:
 834              	.LBB103:
 206:./../../firmware/RISCV/drivers/n200_func.c **** }
 835              		.loc 1 206 3
 206:./../../firmware/RISCV/drivers/n200_func.c **** }
 836              		.loc 1 206 10 is_stmt 0
 837 0000 B70700D2 		li	a5,-771751936
 838 0004 03C50700 		lbu	a0,0(a5)
 839              	.LVL53:
 840              	.LBE103:
 841              	.LBE102:
 233:./../../firmware/RISCV/drivers/n200_func.c ****   nlbits = (nlbits & ECLIC_CFG_NLBITS_MASK) >> ECLIC_CFG_NLBITS_LSB;
 842              		.loc 1 233 3 is_stmt 1
 234:./../../firmware/RISCV/drivers/n200_func.c ****   return nlbits;
 843              		.loc 1 234 3
 233:./../../firmware/RISCV/drivers/n200_func.c ****   nlbits = (nlbits & ECLIC_CFG_NLBITS_MASK) >> ECLIC_CFG_NLBITS_LSB;
 844              		.loc 1 233 45 is_stmt 0
 845 0008 0581     		srli	a0,a0,1
 846              	.LVL54:
 235:./../../firmware/RISCV/drivers/n200_func.c **** }
 847              		.loc 1 235 1
 848 000a 3D89     		andi	a0,a0,15
GAS LISTING C:\Users\Karzan\AppData\Local\Temp\ccUlsDYc.s 			page 20


 849 000c 8280     		ret
 850              		.cfi_endproc
 851              	.LFE30:
 853              		.section	.text.eclic_set_irq_lvl,"ax",@progbits
 854              		.align	1
 855              		.globl	eclic_set_irq_lvl
 857              	eclic_set_irq_lvl:
 858              	.LFB31:
 236:./../../firmware/RISCV/drivers/n200_func.c **** 
 237:./../../firmware/RISCV/drivers/n200_func.c **** /* sets an interrupt level based encoding of nlbits and ECLICINTCTLBITS */
 238:./../../firmware/RISCV/drivers/n200_func.c **** void eclic_set_irq_lvl(uint32_t source, uint8_t lvl) {
 859              		.loc 1 238 54 is_stmt 1
 860              		.cfi_startproc
 861              	.LVL55:
 239:./../../firmware/RISCV/drivers/n200_func.c ****   /* extract nlbits */
 240:./../../firmware/RISCV/drivers/n200_func.c ****   uint8_t nlbits = eclic_get_nlbits();
 862              		.loc 1 240 3
 238:./../../firmware/RISCV/drivers/n200_func.c ****   /* extract nlbits */
 863              		.loc 1 238 54 is_stmt 0
 864 0000 0111     		addi	sp,sp,-32
 865              	.LCFI2:
 866              		.cfi_def_cfa_offset 32
 867 0002 22CC     		sw	s0,24(sp)
 868 0004 2EC6     		sw	a1,12(sp)
 869 0006 06CE     		sw	ra,28(sp)
 870              		.cfi_offset 8, -8
 871              		.cfi_offset 1, -4
 238:./../../firmware/RISCV/drivers/n200_func.c ****   /* extract nlbits */
 872              		.loc 1 238 54
 873 0008 2A84     		mv	s0,a0
 874              		.loc 1 240 20
 875 000a 97000000 		call	eclic_get_nlbits
 875      E7800000 
 876              	.LVL56:
 241:./../../firmware/RISCV/drivers/n200_func.c ****   if (nlbits > ECLICINTCTLBITS) {
 877              		.loc 1 241 3 is_stmt 1
 242:./../../firmware/RISCV/drivers/n200_func.c ****     nlbits = ECLICINTCTLBITS;
 243:./../../firmware/RISCV/drivers/n200_func.c ****   }
 244:./../../firmware/RISCV/drivers/n200_func.c **** 
 245:./../../firmware/RISCV/drivers/n200_func.c ****   /* shift lvl right to mask off unused bits */
 246:./../../firmware/RISCV/drivers/n200_func.c ****   lvl = lvl >> (8-nlbits);
 878              		.loc 1 246 3
 879              		.loc 1 246 18 is_stmt 0
 880 0012 9147     		li	a5,4
 881 0014 B245     		lw	a1,12(sp)
 882 0016 1147     		li	a4,4
 883 0018 63E3A700 		bgtu	a0,a5,.L40
 884 001c 2A87     		mv	a4,a0
 885              	.L40:
 886 001e 9376F70F 		andi	a3,a4,0xff
 887 0022 A147     		li	a5,8
 888              	.LBB104:
 889              	.LBB105:
 190:./../../firmware/RISCV/drivers/n200_func.c **** }
 890              		.loc 1 190 68
 891 0024 371500D2 		li	a0,-771747840
 892              	.LVL57:
GAS LISTING C:\Users\Karzan\AppData\Local\Temp\ccUlsDYc.s 			page 21


 893              	.LBE105:
 894              	.LBE104:
 895              		.loc 1 246 18
 896 0028 958F     		sub	a5,a5,a3
 897              	.LVL58:
 247:./../../firmware/RISCV/drivers/n200_func.c ****   /* shift lvl into correct bit position */
 248:./../../firmware/RISCV/drivers/n200_func.c ****   lvl = lvl << (8-nlbits);
 898              		.loc 1 248 3 is_stmt 1
 899              	.LBB108:
 900              	.LBB106:
 190:./../../firmware/RISCV/drivers/n200_func.c **** }
 901              		.loc 1 190 75 is_stmt 0
 902 002a 0A04     		slli	s0,s0,2
 903              	.LVL59:
 190:./../../firmware/RISCV/drivers/n200_func.c **** }
 904              		.loc 1 190 68
 905 002c 0D05     		addi	a0,a0,3
 906 002e 2295     		add	a0,s0,a0
 907              	.LBE106:
 908              	.LBE108:
 246:./../../firmware/RISCV/drivers/n200_func.c ****   /* shift lvl into correct bit position */
 909              		.loc 1 246 13
 910 0030 B3D5F540 		sra	a1,a1,a5
 911              	.LVL60:
 912              		.loc 1 248 13
 913 0034 B395F500 		sll	a1,a1,a5
 914              	.LVL61:
 249:./../../firmware/RISCV/drivers/n200_func.c ****  
 250:./../../firmware/RISCV/drivers/n200_func.c ****   /* write to clicintctrl */
 251:./../../firmware/RISCV/drivers/n200_func.c ****   uint8_t current_intctrl = eclic_get_intctrl(source);
 915              		.loc 1 251 3 is_stmt 1
 916              	.LBB109:
 917              	.LBB107:
 190:./../../firmware/RISCV/drivers/n200_func.c **** }
 918              		.loc 1 190 3
 190:./../../firmware/RISCV/drivers/n200_func.c **** }
 919              		.loc 1 190 10 is_stmt 0
 920 0038 83470500 		lbu	a5,0(a0)
 921              	.LVL62:
 922              	.LBE107:
 923              	.LBE109:
 252:./../../firmware/RISCV/drivers/n200_func.c ****   /* shift intctrl left to mask off unused bits */
 253:./../../firmware/RISCV/drivers/n200_func.c ****   current_intctrl = current_intctrl << nlbits;
 924              		.loc 1 253 3 is_stmt 1
 254:./../../firmware/RISCV/drivers/n200_func.c ****   /* shift intctrl into correct bit position */
 255:./../../firmware/RISCV/drivers/n200_func.c ****   current_intctrl = current_intctrl >> nlbits;
 925              		.loc 1 255 3
 256:./../../firmware/RISCV/drivers/n200_func.c **** 
 257:./../../firmware/RISCV/drivers/n200_func.c ****   eclic_set_intctrl(source, (current_intctrl | lvl));
 926              		.loc 1 257 3
 253:./../../firmware/RISCV/drivers/n200_func.c ****   /* shift intctrl into correct bit position */
 927              		.loc 1 253 37 is_stmt 0
 928 003c B397E700 		sll	a5,a5,a4
 929              	.LVL63:
 255:./../../firmware/RISCV/drivers/n200_func.c **** 
 930              		.loc 1 255 37
 931 0040 93F7F70F 		andi	a5,a5,255
GAS LISTING C:\Users\Karzan\AppData\Local\Temp\ccUlsDYc.s 			page 22


 932 0044 B3D7E740 		sra	a5,a5,a4
 933              		.loc 1 257 3
 934 0048 CD8F     		or	a5,a5,a1
 935 004a 93F7F70F 		andi	a5,a5,0xff
 936              	.LVL64:
 937              	.LBB110:
 938              	.LBB111:
 186:./../../firmware/RISCV/drivers/n200_func.c **** }
 939              		.loc 1 186 3 is_stmt 1
 186:./../../firmware/RISCV/drivers/n200_func.c **** }
 940              		.loc 1 186 72 is_stmt 0
 941 004e 2300F500 		sb	a5,0(a0)
 942              	.LVL65:
 943              	.LBE111:
 944              	.LBE110:
 258:./../../firmware/RISCV/drivers/n200_func.c **** }
 945              		.loc 1 258 1
 946 0052 F240     		lw	ra,28(sp)
 947              		.cfi_restore 1
 948 0054 6244     		lw	s0,24(sp)
 949              		.cfi_restore 8
 950 0056 0561     		addi	sp,sp,32
 951              	.LCFI3:
 952              		.cfi_def_cfa_offset 0
 953 0058 8280     		jr	ra
 954              		.cfi_endproc
 955              	.LFE31:
 957              		.section	.text.eclic_get_irq_lvl,"ax",@progbits
 958              		.align	1
 959              		.globl	eclic_get_irq_lvl
 961              	eclic_get_irq_lvl:
 962              	.LFB32:
 259:./../../firmware/RISCV/drivers/n200_func.c **** 
 260:./../../firmware/RISCV/drivers/n200_func.c **** /* gets an interrupt level based encoding of nlbits */
 261:./../../firmware/RISCV/drivers/n200_func.c **** uint8_t eclic_get_irq_lvl(uint32_t source) {
 963              		.loc 1 261 44 is_stmt 1
 964              		.cfi_startproc
 965              	.LVL66:
 262:./../../firmware/RISCV/drivers/n200_func.c ****   /* extract nlbits */
 263:./../../firmware/RISCV/drivers/n200_func.c ****   uint8_t nlbits = eclic_get_nlbits();
 966              		.loc 1 263 3
 261:./../../firmware/RISCV/drivers/n200_func.c ****   /* extract nlbits */
 967              		.loc 1 261 44 is_stmt 0
 968 0000 4111     		addi	sp,sp,-16
 969              	.LCFI4:
 970              		.cfi_def_cfa_offset 16
 971 0002 22C4     		sw	s0,8(sp)
 972 0004 06C6     		sw	ra,12(sp)
 973              		.cfi_offset 8, -8
 974              		.cfi_offset 1, -4
 261:./../../firmware/RISCV/drivers/n200_func.c ****   /* extract nlbits */
 975              		.loc 1 261 44
 976 0006 2A84     		mv	s0,a0
 977              		.loc 1 263 20
 978 0008 97000000 		call	eclic_get_nlbits
 978      E7800000 
 979              	.LVL67:
GAS LISTING C:\Users\Karzan\AppData\Local\Temp\ccUlsDYc.s 			page 23


 264:./../../firmware/RISCV/drivers/n200_func.c ****   if (nlbits > ECLICINTCTLBITS) {
 980              		.loc 1 264 3 is_stmt 1
 265:./../../firmware/RISCV/drivers/n200_func.c ****     nlbits = ECLICINTCTLBITS;
 266:./../../firmware/RISCV/drivers/n200_func.c ****   }
 267:./../../firmware/RISCV/drivers/n200_func.c **** 
 268:./../../firmware/RISCV/drivers/n200_func.c ****   uint8_t intctrl = eclic_get_intctrl(source);
 981              		.loc 1 268 3
 982              	.LBB112:
 983              	.LBB113:
 190:./../../firmware/RISCV/drivers/n200_func.c **** }
 984              		.loc 1 190 3
 190:./../../firmware/RISCV/drivers/n200_func.c **** }
 985              		.loc 1 190 68 is_stmt 0
 986 0010 B71700D2 		li	a5,-771747840
 987 0014 8D07     		addi	a5,a5,3
 190:./../../firmware/RISCV/drivers/n200_func.c **** }
 988              		.loc 1 190 75
 989 0016 0A04     		slli	s0,s0,2
 990              	.LVL68:
 190:./../../firmware/RISCV/drivers/n200_func.c **** }
 991              		.loc 1 190 68
 992 0018 3E94     		add	s0,s0,a5
 190:./../../firmware/RISCV/drivers/n200_func.c **** }
 993              		.loc 1 190 10
 994 001a 83470400 		lbu	a5,0(s0)
 995              	.LBE113:
 996              	.LBE112:
 269:./../../firmware/RISCV/drivers/n200_func.c **** 
 270:./../../firmware/RISCV/drivers/n200_func.c ****   /* shift intctrl */
 271:./../../firmware/RISCV/drivers/n200_func.c ****   intctrl = intctrl >> (8-nlbits);
 997              		.loc 1 271 26
 998 001e 9146     		li	a3,4
 999 0020 1147     		li	a4,4
 1000              	.LBB115:
 1001              	.LBB114:
 190:./../../firmware/RISCV/drivers/n200_func.c **** }
 1002              		.loc 1 190 10
 1003 0022 93F7F70F 		andi	a5,a5,0xff
 1004              	.LVL69:
 1005              	.LBE114:
 1006              	.LBE115:
 1007              		.loc 1 271 3 is_stmt 1
 1008              		.loc 1 271 26 is_stmt 0
 1009 0026 63E4A600 		bgtu	a0,a3,.L44
 1010 002a 1377F50F 		andi	a4,a0,0xff
 1011              	.L44:
 1012 002e 2145     		li	a0,8
 1013              	.LVL70:
 1014 0030 198D     		sub	a0,a0,a4
 1015              	.LVL71:
 272:./../../firmware/RISCV/drivers/n200_func.c ****   /* shift intctrl */
 273:./../../firmware/RISCV/drivers/n200_func.c ****   uint8_t lvl = intctrl << (8-nlbits);
 1016              		.loc 1 273 3 is_stmt 1
 274:./../../firmware/RISCV/drivers/n200_func.c **** 
 275:./../../firmware/RISCV/drivers/n200_func.c ****   return lvl;
 1017              		.loc 1 275 3
 276:./../../firmware/RISCV/drivers/n200_func.c **** }
GAS LISTING C:\Users\Karzan\AppData\Local\Temp\ccUlsDYc.s 			page 24


 1018              		.loc 1 276 1 is_stmt 0
 1019 0032 B240     		lw	ra,12(sp)
 1020              		.cfi_restore 1
 1021 0034 2244     		lw	s0,8(sp)
 1022              		.cfi_restore 8
 271:./../../firmware/RISCV/drivers/n200_func.c ****   /* shift intctrl */
 1023              		.loc 1 271 21
 1024 0036 B3D7A740 		sra	a5,a5,a0
 1025              	.LVL72:
 273:./../../firmware/RISCV/drivers/n200_func.c **** 
 1026              		.loc 1 273 25
 1027 003a 3395A700 		sll	a0,a5,a0
 1028              		.loc 1 276 1
 1029 003e 1375F50F 		andi	a0,a0,0xff
 1030 0042 4101     		addi	sp,sp,16
 1031              	.LCFI5:
 1032              		.cfi_def_cfa_offset 0
 1033 0044 8280     		jr	ra
 1034              		.cfi_endproc
 1035              	.LFE32:
 1037              		.section	.text.eclic_set_irq_lvl_abs,"ax",@progbits
 1038              		.align	1
 1039              		.globl	eclic_set_irq_lvl_abs
 1041              	eclic_set_irq_lvl_abs:
 1042              	.LFB33:
 277:./../../firmware/RISCV/drivers/n200_func.c **** 
 278:./../../firmware/RISCV/drivers/n200_func.c **** void eclic_set_irq_lvl_abs(uint32_t source, uint8_t lvl_abs) {
 1043              		.loc 1 278 62 is_stmt 1
 1044              		.cfi_startproc
 1045              	.LVL73:
 279:./../../firmware/RISCV/drivers/n200_func.c ****   /* extract nlbits */
 280:./../../firmware/RISCV/drivers/n200_func.c ****   uint8_t nlbits = eclic_get_nlbits();
 1046              		.loc 1 280 3
 278:./../../firmware/RISCV/drivers/n200_func.c ****   /* extract nlbits */
 1047              		.loc 1 278 62 is_stmt 0
 1048 0000 4111     		addi	sp,sp,-16
 1049              	.LCFI6:
 1050              		.cfi_def_cfa_offset 16
 1051 0002 22C4     		sw	s0,8(sp)
 1052 0004 26C2     		sw	s1,4(sp)
 1053 0006 06C6     		sw	ra,12(sp)
 1054              		.cfi_offset 8, -8
 1055              		.cfi_offset 9, -12
 1056              		.cfi_offset 1, -4
 278:./../../firmware/RISCV/drivers/n200_func.c ****   /* extract nlbits */
 1057              		.loc 1 278 62
 1058 0008 2A84     		mv	s0,a0
 1059 000a AE84     		mv	s1,a1
 1060              		.loc 1 280 20
 1061 000c 97000000 		call	eclic_get_nlbits
 1061      E7800000 
 1062              	.LVL74:
 281:./../../firmware/RISCV/drivers/n200_func.c ****   if (nlbits > ECLICINTCTLBITS) {
 1063              		.loc 1 281 3 is_stmt 1
 282:./../../firmware/RISCV/drivers/n200_func.c ****     nlbits = ECLICINTCTLBITS;
 283:./../../firmware/RISCV/drivers/n200_func.c ****   }
 284:./../../firmware/RISCV/drivers/n200_func.c **** 
GAS LISTING C:\Users\Karzan\AppData\Local\Temp\ccUlsDYc.s 			page 25


 285:./../../firmware/RISCV/drivers/n200_func.c ****   /* shift lvl_abs into correct bit position */
 286:./../../firmware/RISCV/drivers/n200_func.c ****   uint8_t lvl = lvl_abs << (8-nlbits);
 1064              		.loc 1 286 3
 1065              		.loc 1 286 30 is_stmt 0
 1066 0014 9147     		li	a5,4
 1067 0016 1147     		li	a4,4
 1068 0018 63E3A700 		bgtu	a0,a5,.L48
 1069 001c 2A87     		mv	a4,a0
 1070              	.L48:
 1071              	.LBB116:
 1072              	.LBB117:
 190:./../../firmware/RISCV/drivers/n200_func.c **** }
 1073              		.loc 1 190 68
 1074 001e 371500D2 		li	a0,-771747840
 1075              	.LVL75:
 190:./../../firmware/RISCV/drivers/n200_func.c **** }
 1076              		.loc 1 190 75
 1077 0022 0A04     		slli	s0,s0,2
 1078              	.LVL76:
 190:./../../firmware/RISCV/drivers/n200_func.c **** }
 1079              		.loc 1 190 68
 1080 0024 0D05     		addi	a0,a0,3
 1081 0026 2295     		add	a0,s0,a0
 190:./../../firmware/RISCV/drivers/n200_func.c **** }
 1082              		.loc 1 190 10
 1083 0028 83470500 		lbu	a5,0(a0)
 1084              	.LBE117:
 1085              	.LBE116:
 1086              		.loc 1 286 30
 1087 002c 9376F70F 		andi	a3,a4,0xff
 1088              	.LVL77:
 287:./../../firmware/RISCV/drivers/n200_func.c ****  
 288:./../../firmware/RISCV/drivers/n200_func.c ****   /* write to clicintctrl */
 289:./../../firmware/RISCV/drivers/n200_func.c ****   uint8_t current_intctrl = eclic_get_intctrl(source);
 1089              		.loc 1 289 3 is_stmt 1
 1090              	.LBB119:
 1091              	.LBB118:
 190:./../../firmware/RISCV/drivers/n200_func.c **** }
 1092              		.loc 1 190 3
 1093              	.LBE118:
 1094              	.LBE119:
 290:./../../firmware/RISCV/drivers/n200_func.c ****   /* shift intctrl left to mask off unused bits */
 291:./../../firmware/RISCV/drivers/n200_func.c ****   current_intctrl = current_intctrl << nlbits;
 1095              		.loc 1 291 3
 292:./../../firmware/RISCV/drivers/n200_func.c ****   /* shift intctrl into correct bit position */
 293:./../../firmware/RISCV/drivers/n200_func.c ****   current_intctrl = current_intctrl >> nlbits;
 1096              		.loc 1 293 3
 294:./../../firmware/RISCV/drivers/n200_func.c **** 
 295:./../../firmware/RISCV/drivers/n200_func.c ****   eclic_set_intctrl(source, (current_intctrl | lvl));
 1097              		.loc 1 295 3
 286:./../../firmware/RISCV/drivers/n200_func.c ****  
 1098              		.loc 1 286 30 is_stmt 0
 1099 0030 A145     		li	a1,8
 291:./../../firmware/RISCV/drivers/n200_func.c ****   /* shift intctrl into correct bit position */
 1100              		.loc 1 291 37
 1101 0032 B397E700 		sll	a5,a5,a4
 1102              	.LVL78:
GAS LISTING C:\Users\Karzan\AppData\Local\Temp\ccUlsDYc.s 			page 26


 293:./../../firmware/RISCV/drivers/n200_func.c **** 
 1103              		.loc 1 293 37
 1104 0036 93F7F70F 		andi	a5,a5,255
 286:./../../firmware/RISCV/drivers/n200_func.c ****  
 1105              		.loc 1 286 30
 1106 003a 958D     		sub	a1,a1,a3
 286:./../../firmware/RISCV/drivers/n200_func.c ****  
 1107              		.loc 1 286 25
 1108 003c B394B400 		sll	s1,s1,a1
 1109              	.LVL79:
 293:./../../firmware/RISCV/drivers/n200_func.c **** 
 1110              		.loc 1 293 37
 1111 0040 B3D7E740 		sra	a5,a5,a4
 1112              		.loc 1 295 3
 1113 0044 C58F     		or	a5,a5,s1
 1114 0046 93F7F70F 		andi	a5,a5,0xff
 1115              	.LVL80:
 1116              	.LBB120:
 1117              	.LBB121:
 186:./../../firmware/RISCV/drivers/n200_func.c **** }
 1118              		.loc 1 186 3 is_stmt 1
 186:./../../firmware/RISCV/drivers/n200_func.c **** }
 1119              		.loc 1 186 72 is_stmt 0
 1120 004a 2300F500 		sb	a5,0(a0)
 1121              	.LVL81:
 1122              	.LBE121:
 1123              	.LBE120:
 296:./../../firmware/RISCV/drivers/n200_func.c **** }
 1124              		.loc 1 296 1
 1125 004e B240     		lw	ra,12(sp)
 1126              		.cfi_restore 1
 1127 0050 2244     		lw	s0,8(sp)
 1128              		.cfi_restore 8
 1129 0052 9244     		lw	s1,4(sp)
 1130              		.cfi_restore 9
 1131 0054 4101     		addi	sp,sp,16
 1132              	.LCFI7:
 1133              		.cfi_def_cfa_offset 0
 1134 0056 8280     		jr	ra
 1135              		.cfi_endproc
 1136              	.LFE33:
 1138              		.section	.text.eclic_get_irq_lvl_abs,"ax",@progbits
 1139              		.align	1
 1140              		.globl	eclic_get_irq_lvl_abs
 1142              	eclic_get_irq_lvl_abs:
 1143              	.LFB34:
 297:./../../firmware/RISCV/drivers/n200_func.c **** 
 298:./../../firmware/RISCV/drivers/n200_func.c **** uint8_t eclic_get_irq_lvl_abs(uint32_t source) {
 1144              		.loc 1 298 48 is_stmt 1
 1145              		.cfi_startproc
 1146              	.LVL82:
 299:./../../firmware/RISCV/drivers/n200_func.c ****   /* extract nlbits */
 300:./../../firmware/RISCV/drivers/n200_func.c ****   uint8_t nlbits = eclic_get_nlbits();
 1147              		.loc 1 300 3
 298:./../../firmware/RISCV/drivers/n200_func.c ****   /* extract nlbits */
 1148              		.loc 1 298 48 is_stmt 0
 1149 0000 4111     		addi	sp,sp,-16
GAS LISTING C:\Users\Karzan\AppData\Local\Temp\ccUlsDYc.s 			page 27


 1150              	.LCFI8:
 1151              		.cfi_def_cfa_offset 16
 1152 0002 22C4     		sw	s0,8(sp)
 1153 0004 06C6     		sw	ra,12(sp)
 1154              		.cfi_offset 8, -8
 1155              		.cfi_offset 1, -4
 298:./../../firmware/RISCV/drivers/n200_func.c ****   /* extract nlbits */
 1156              		.loc 1 298 48
 1157 0006 2A84     		mv	s0,a0
 1158              		.loc 1 300 20
 1159 0008 97000000 		call	eclic_get_nlbits
 1159      E7800000 
 1160              	.LVL83:
 301:./../../firmware/RISCV/drivers/n200_func.c ****   if (nlbits > ECLICINTCTLBITS) {
 1161              		.loc 1 301 3 is_stmt 1
 302:./../../firmware/RISCV/drivers/n200_func.c ****     nlbits = ECLICINTCTLBITS;
 303:./../../firmware/RISCV/drivers/n200_func.c ****   }
 304:./../../firmware/RISCV/drivers/n200_func.c **** 
 305:./../../firmware/RISCV/drivers/n200_func.c ****   uint8_t intctrl = eclic_get_intctrl(source);
 1162              		.loc 1 305 3
 1163              	.LBB122:
 1164              	.LBB123:
 190:./../../firmware/RISCV/drivers/n200_func.c **** }
 1165              		.loc 1 190 3
 190:./../../firmware/RISCV/drivers/n200_func.c **** }
 1166              		.loc 1 190 68 is_stmt 0
 1167 0010 B71700D2 		li	a5,-771747840
 1168 0014 8D07     		addi	a5,a5,3
 190:./../../firmware/RISCV/drivers/n200_func.c **** }
 1169              		.loc 1 190 75
 1170 0016 0A04     		slli	s0,s0,2
 1171              	.LVL84:
 190:./../../firmware/RISCV/drivers/n200_func.c **** }
 1172              		.loc 1 190 68
 1173 0018 3E94     		add	s0,s0,a5
 190:./../../firmware/RISCV/drivers/n200_func.c **** }
 1174              		.loc 1 190 10
 1175 001a 83470400 		lbu	a5,0(s0)
 1176              	.LBE123:
 1177              	.LBE122:
 306:./../../firmware/RISCV/drivers/n200_func.c **** 
 307:./../../firmware/RISCV/drivers/n200_func.c ****   /* shift intctrl */
 308:./../../firmware/RISCV/drivers/n200_func.c ****   intctrl = intctrl >> (8-nlbits);
 1178              		.loc 1 308 26
 1179 001e 9146     		li	a3,4
 1180 0020 1147     		li	a4,4
 1181              	.LBB125:
 1182              	.LBB124:
 190:./../../firmware/RISCV/drivers/n200_func.c **** }
 1183              		.loc 1 190 10
 1184 0022 93F7F70F 		andi	a5,a5,0xff
 1185              	.LVL85:
 1186              	.LBE124:
 1187              	.LBE125:
 1188              		.loc 1 308 3 is_stmt 1
 309:./../../firmware/RISCV/drivers/n200_func.c ****   /* shift intctrl */
 310:./../../firmware/RISCV/drivers/n200_func.c ****   uint8_t lvl_abs = intctrl;
GAS LISTING C:\Users\Karzan\AppData\Local\Temp\ccUlsDYc.s 			page 28


 1189              		.loc 1 310 3
 311:./../../firmware/RISCV/drivers/n200_func.c **** 
 312:./../../firmware/RISCV/drivers/n200_func.c ****   return lvl_abs;
 1190              		.loc 1 312 3
 308:./../../firmware/RISCV/drivers/n200_func.c ****   /* shift intctrl */
 1191              		.loc 1 308 26 is_stmt 0
 1192 0026 63E4A600 		bgtu	a0,a3,.L52
 1193 002a 1377F50F 		andi	a4,a0,0xff
 1194              	.L52:
 1195 002e 2145     		li	a0,8
 1196              	.LVL86:
 313:./../../firmware/RISCV/drivers/n200_func.c **** }
 1197              		.loc 1 313 1
 1198 0030 B240     		lw	ra,12(sp)
 1199              		.cfi_restore 1
 1200 0032 2244     		lw	s0,8(sp)
 1201              		.cfi_restore 8
 308:./../../firmware/RISCV/drivers/n200_func.c ****   /* shift intctrl */
 1202              		.loc 1 308 26
 1203 0034 3307E540 		sub	a4,a0,a4
 308:./../../firmware/RISCV/drivers/n200_func.c ****   /* shift intctrl */
 1204              		.loc 1 308 21
 1205 0038 33D5E740 		sra	a0,a5,a4
 1206              		.loc 1 313 1
 1207 003c 1375F50F 		andi	a0,a0,0xff
 1208 0040 4101     		addi	sp,sp,16
 1209              	.LCFI9:
 1210              		.cfi_def_cfa_offset 0
 1211 0042 8280     		jr	ra
 1212              		.cfi_endproc
 1213              	.LFE34:
 1215              		.section	.text.eclic_set_irq_priority,"ax",@progbits
 1216              		.align	1
 1217              		.globl	eclic_set_irq_priority
 1219              	eclic_set_irq_priority:
 1220              	.LFB35:
 314:./../../firmware/RISCV/drivers/n200_func.c **** 
 315:./../../firmware/RISCV/drivers/n200_func.c **** /* sets an interrupt priority based encoding of nlbits and ECLICINTCTLBITS */
 316:./../../firmware/RISCV/drivers/n200_func.c **** uint8_t eclic_set_irq_priority(uint32_t source, uint8_t priority) {
 1221              		.loc 1 316 67 is_stmt 1
 1222              		.cfi_startproc
 1223              	.LVL87:
 317:./../../firmware/RISCV/drivers/n200_func.c ****     /* extract nlbits */
 318:./../../firmware/RISCV/drivers/n200_func.c ****     uint8_t nlbits = eclic_get_nlbits();
 1224              		.loc 1 318 5
 316:./../../firmware/RISCV/drivers/n200_func.c ****     /* extract nlbits */
 1225              		.loc 1 316 67 is_stmt 0
 1226 0000 0111     		addi	sp,sp,-32
 1227              	.LCFI10:
 1228              		.cfi_def_cfa_offset 32
 1229 0002 22CC     		sw	s0,24(sp)
 1230 0004 2EC6     		sw	a1,12(sp)
 1231 0006 06CE     		sw	ra,28(sp)
 1232              		.cfi_offset 8, -8
 1233              		.cfi_offset 1, -4
 316:./../../firmware/RISCV/drivers/n200_func.c ****     /* extract nlbits */
 1234              		.loc 1 316 67
GAS LISTING C:\Users\Karzan\AppData\Local\Temp\ccUlsDYc.s 			page 29


 1235 0008 2A84     		mv	s0,a0
 1236              		.loc 1 318 22
 1237 000a 97000000 		call	eclic_get_nlbits
 1237      E7800000 
 1238              	.LVL88:
 319:./../../firmware/RISCV/drivers/n200_func.c ****     if (nlbits >= ECLICINTCTLBITS) {
 1239              		.loc 1 319 5 is_stmt 1
 1240              		.loc 1 319 8 is_stmt 0
 1241 0012 8D47     		li	a5,3
 320:./../../firmware/RISCV/drivers/n200_func.c ****         nlbits = ECLICINTCTLBITS;
 321:./../../firmware/RISCV/drivers/n200_func.c ****         return 0;
 1242              		.loc 1 321 16
 1243 0014 8145     		li	a1,0
 319:./../../firmware/RISCV/drivers/n200_func.c ****     if (nlbits >= ECLICINTCTLBITS) {
 1244              		.loc 1 319 8
 1245 0016 63E9A702 		bgtu	a0,a5,.L56
 322:./../../firmware/RISCV/drivers/n200_func.c ****     }
 323:./../../firmware/RISCV/drivers/n200_func.c **** 
 324:./../../firmware/RISCV/drivers/n200_func.c ****     /* shift priority into correct bit position */
 325:./../../firmware/RISCV/drivers/n200_func.c ****     priority = priority << (8 - ECLICINTCTLBITS);
 1246              		.loc 1 325 5 is_stmt 1
 1247              	.LBB126:
 1248              	.LBB127:
 190:./../../firmware/RISCV/drivers/n200_func.c **** }
 1249              		.loc 1 190 68 is_stmt 0
 1250 001a 371700D2 		li	a4,-771747840
 190:./../../firmware/RISCV/drivers/n200_func.c **** }
 1251              		.loc 1 190 75
 1252 001e 0A04     		slli	s0,s0,2
 1253              	.LVL89:
 190:./../../firmware/RISCV/drivers/n200_func.c **** }
 1254              		.loc 1 190 68
 1255 0020 0D07     		addi	a4,a4,3
 1256 0022 2297     		add	a4,s0,a4
 190:./../../firmware/RISCV/drivers/n200_func.c **** }
 1257              		.loc 1 190 10
 1258 0024 83470700 		lbu	a5,0(a4)
 1259              	.LBE127:
 1260              	.LBE126:
 1261              		.loc 1 325 14
 1262 0028 B245     		lw	a1,12(sp)
 326:./../../firmware/RISCV/drivers/n200_func.c **** 
 327:./../../firmware/RISCV/drivers/n200_func.c ****     /* write to eclicintctrl */
 328:./../../firmware/RISCV/drivers/n200_func.c ****     uint8_t current_intctrl = eclic_get_intctrl(source);
 329:./../../firmware/RISCV/drivers/n200_func.c ****     /* shift intctrl right to mask off unused bits */
 330:./../../firmware/RISCV/drivers/n200_func.c ****     current_intctrl = current_intctrl >> (8-nlbits);
 1263              		.loc 1 330 44
 1264 002a A146     		li	a3,8
 1265 002c 3385A640 		sub	a0,a3,a0
 1266              	.LVL90:
 325:./../../firmware/RISCV/drivers/n200_func.c **** 
 1267              		.loc 1 325 14
 1268 0030 9205     		slli	a1,a1,4
 1269              		.loc 1 330 39
 1270 0032 B3D7A740 		sra	a5,a5,a0
 325:./../../firmware/RISCV/drivers/n200_func.c **** 
 1271              		.loc 1 325 14
GAS LISTING C:\Users\Karzan\AppData\Local\Temp\ccUlsDYc.s 			page 30


 1272 0036 93F5F50F 		andi	a1,a1,0xff
 1273              	.LVL91:
 328:./../../firmware/RISCV/drivers/n200_func.c ****     /* shift intctrl right to mask off unused bits */
 1274              		.loc 1 328 5 is_stmt 1
 1275              	.LBB129:
 1276              	.LBB128:
 190:./../../firmware/RISCV/drivers/n200_func.c **** }
 1277              		.loc 1 190 3
 1278              	.LBE128:
 1279              	.LBE129:
 1280              		.loc 1 330 5
 331:./../../firmware/RISCV/drivers/n200_func.c ****     /* shift intctrl into correct bit position */
 332:./../../firmware/RISCV/drivers/n200_func.c ****     current_intctrl = current_intctrl << (8-nlbits);
 1281              		.loc 1 332 5
 333:./../../firmware/RISCV/drivers/n200_func.c **** 
 334:./../../firmware/RISCV/drivers/n200_func.c ****     eclic_set_intctrl(source, (current_intctrl | priority));
 1282              		.loc 1 334 5
 332:./../../firmware/RISCV/drivers/n200_func.c **** 
 1283              		.loc 1 332 39 is_stmt 0
 1284 003a B397A700 		sll	a5,a5,a0
 1285              		.loc 1 334 5
 1286 003e CD8F     		or	a5,a1,a5
 1287 0040 93F7F70F 		andi	a5,a5,0xff
 1288              	.LVL92:
 1289              	.LBB130:
 1290              	.LBB131:
 186:./../../firmware/RISCV/drivers/n200_func.c **** }
 1291              		.loc 1 186 3 is_stmt 1
 186:./../../firmware/RISCV/drivers/n200_func.c **** }
 1292              		.loc 1 186 72 is_stmt 0
 1293 0044 2300F700 		sb	a5,0(a4)
 1294              	.LVL93:
 1295              	.LBE131:
 1296              	.LBE130:
 335:./../../firmware/RISCV/drivers/n200_func.c **** 
 336:./../../firmware/RISCV/drivers/n200_func.c ****     return priority;
 1297              		.loc 1 336 5 is_stmt 1
 1298              	.L56:
 337:./../../firmware/RISCV/drivers/n200_func.c **** }
 1299              		.loc 1 337 1 is_stmt 0
 1300 0048 F240     		lw	ra,28(sp)
 1301              		.cfi_restore 1
 1302 004a 6244     		lw	s0,24(sp)
 1303              		.cfi_restore 8
 1304 004c 2E85     		mv	a0,a1
 1305 004e 0561     		addi	sp,sp,32
 1306              	.LCFI11:
 1307              		.cfi_def_cfa_offset 0
 1308 0050 8280     		jr	ra
 1309              		.cfi_endproc
 1310              	.LFE35:
 1312              		.section	.text.eclic_get_irq_priority,"ax",@progbits
 1313              		.align	1
 1314              		.globl	eclic_get_irq_priority
 1316              	eclic_get_irq_priority:
 1317              	.LFB36:
 338:./../../firmware/RISCV/drivers/n200_func.c **** 
GAS LISTING C:\Users\Karzan\AppData\Local\Temp\ccUlsDYc.s 			page 31


 339:./../../firmware/RISCV/drivers/n200_func.c **** /* gets an interrupt priority based encoding of nlbits */
 340:./../../firmware/RISCV/drivers/n200_func.c **** uint8_t eclic_get_irq_priority(uint32_t source) {
 1318              		.loc 1 340 49 is_stmt 1
 1319              		.cfi_startproc
 1320              	.LVL94:
 341:./../../firmware/RISCV/drivers/n200_func.c ****     /* extract nlbits */
 342:./../../firmware/RISCV/drivers/n200_func.c ****     uint8_t nlbits = eclic_get_nlbits();
 1321              		.loc 1 342 5
 340:./../../firmware/RISCV/drivers/n200_func.c ****     /* extract nlbits */
 1322              		.loc 1 340 49 is_stmt 0
 1323 0000 4111     		addi	sp,sp,-16
 1324              	.LCFI12:
 1325              		.cfi_def_cfa_offset 16
 1326 0002 22C4     		sw	s0,8(sp)
 1327 0004 06C6     		sw	ra,12(sp)
 1328              		.cfi_offset 8, -8
 1329              		.cfi_offset 1, -4
 340:./../../firmware/RISCV/drivers/n200_func.c ****     /* extract nlbits */
 1330              		.loc 1 340 49
 1331 0006 2A84     		mv	s0,a0
 1332              		.loc 1 342 22
 1333 0008 97000000 		call	eclic_get_nlbits
 1333      E7800000 
 1334              	.LVL95:
 343:./../../firmware/RISCV/drivers/n200_func.c ****     if (nlbits > ECLICINTCTLBITS) {
 1335              		.loc 1 343 5 is_stmt 1
 344:./../../firmware/RISCV/drivers/n200_func.c ****           nlbits = ECLICINTCTLBITS;
 345:./../../firmware/RISCV/drivers/n200_func.c ****     }
 346:./../../firmware/RISCV/drivers/n200_func.c **** 
 347:./../../firmware/RISCV/drivers/n200_func.c ****     uint8_t intctrl = eclic_get_intctrl(source);
 1336              		.loc 1 347 5
 1337              	.LBB132:
 1338              	.LBB133:
 190:./../../firmware/RISCV/drivers/n200_func.c **** }
 1339              		.loc 1 190 3
 190:./../../firmware/RISCV/drivers/n200_func.c **** }
 1340              		.loc 1 190 68 is_stmt 0
 1341 0010 B71700D2 		li	a5,-771747840
 1342 0014 8D07     		addi	a5,a5,3
 190:./../../firmware/RISCV/drivers/n200_func.c **** }
 1343              		.loc 1 190 75
 1344 0016 0A04     		slli	s0,s0,2
 1345              	.LVL96:
 190:./../../firmware/RISCV/drivers/n200_func.c **** }
 1346              		.loc 1 190 68
 1347 0018 3E94     		add	s0,s0,a5
 190:./../../firmware/RISCV/drivers/n200_func.c **** }
 1348              		.loc 1 190 10
 1349 001a 83470400 		lbu	a5,0(s0)
 1350              	.LBE133:
 1351              	.LBE132:
 348:./../../firmware/RISCV/drivers/n200_func.c **** 
 349:./../../firmware/RISCV/drivers/n200_func.c ****     /* shift intctrl */
 350:./../../firmware/RISCV/drivers/n200_func.c ****     intctrl = intctrl << nlbits;
 1352              		.loc 1 350 23
 1353 001e 1147     		li	a4,4
 1354 0020 9146     		li	a3,4
GAS LISTING C:\Users\Karzan\AppData\Local\Temp\ccUlsDYc.s 			page 32


 1355              	.LBB135:
 1356              	.LBB134:
 190:./../../firmware/RISCV/drivers/n200_func.c **** }
 1357              		.loc 1 190 10
 1358 0022 93F7F70F 		andi	a5,a5,0xff
 1359              	.LVL97:
 1360              	.LBE134:
 1361              	.LBE135:
 1362              		.loc 1 350 5 is_stmt 1
 1363              		.loc 1 350 23 is_stmt 0
 1364 0026 6363A700 		bgtu	a0,a4,.L60
 1365 002a AA86     		mv	a3,a0
 1366              	.L60:
 1367 002c 3395D700 		sll	a0,a5,a3
 1368              	.LVL98:
 351:./../../firmware/RISCV/drivers/n200_func.c ****     /* shift intctrl */
 352:./../../firmware/RISCV/drivers/n200_func.c ****     uint8_t priority = intctrl >> (nlbits+(8 - ECLICINTCTLBITS));
 353:./../../firmware/RISCV/drivers/n200_func.c **** 
 354:./../../firmware/RISCV/drivers/n200_func.c ****     return priority;
 355:./../../firmware/RISCV/drivers/n200_func.c **** }
 1369              		.loc 1 355 1
 1370 0030 B240     		lw	ra,12(sp)
 1371              		.cfi_restore 1
 1372 0032 2244     		lw	s0,8(sp)
 1373              		.cfi_restore 8
 350:./../../firmware/RISCV/drivers/n200_func.c ****     /* shift intctrl */
 1374              		.loc 1 350 23
 1375 0034 13F7F60F 		andi	a4,a3,0xff
 1376              	.LVL99:
 352:./../../firmware/RISCV/drivers/n200_func.c **** 
 1377              		.loc 1 352 5 is_stmt 1
 354:./../../firmware/RISCV/drivers/n200_func.c **** }
 1378              		.loc 1 354 5
 352:./../../firmware/RISCV/drivers/n200_func.c **** 
 1379              		.loc 1 352 32 is_stmt 0
 1380 0038 1375F50F 		andi	a0,a0,255
 352:./../../firmware/RISCV/drivers/n200_func.c **** 
 1381              		.loc 1 352 42
 1382 003c 93074700 		addi	a5,a4,4
 1383              	.LVL100:
 352:./../../firmware/RISCV/drivers/n200_func.c **** 
 1384              		.loc 1 352 32
 1385 0040 3355F540 		sra	a0,a0,a5
 1386              		.loc 1 355 1
 1387 0044 1375F50F 		andi	a0,a0,0xff
 1388 0048 4101     		addi	sp,sp,16
 1389              	.LCFI13:
 1390              		.cfi_def_cfa_offset 0
 1391 004a 8280     		jr	ra
 1392              		.cfi_endproc
 1393              	.LFE36:
 1395              		.section	.text.eclic_mode_enable,"ax",@progbits
 1396              		.align	1
 1397              		.globl	eclic_mode_enable
 1399              	eclic_mode_enable:
 1400              	.LFB37:
 356:./../../firmware/RISCV/drivers/n200_func.c **** 
GAS LISTING C:\Users\Karzan\AppData\Local\Temp\ccUlsDYc.s 			page 33


 357:./../../firmware/RISCV/drivers/n200_func.c **** void eclic_mode_enable() {
 1401              		.loc 1 357 26 is_stmt 1
 1402              		.cfi_startproc
 358:./../../firmware/RISCV/drivers/n200_func.c **** #if   defined (__ICCRISCV__)
 359:./../../firmware/RISCV/drivers/n200_func.c ****   uint32_t mtvec_value = read_csr(CSR_MTVEC);
 360:./../../firmware/RISCV/drivers/n200_func.c ****   mtvec_value = mtvec_value & 0xFFFFFFC0;
 361:./../../firmware/RISCV/drivers/n200_func.c ****   mtvec_value = mtvec_value | 0x00000003;
 362:./../../firmware/RISCV/drivers/n200_func.c ****   write_csr(CSR_MTVEC,mtvec_value);
 363:./../../firmware/RISCV/drivers/n200_func.c **** #elif defined ( __GNUC__ )
 364:./../../firmware/RISCV/drivers/n200_func.c ****   uint32_t mtvec_value = read_csr(mtvec);
 1403              		.loc 1 364 3
 1404              	.LBB136:
 1405              		.loc 1 364 26
 1406              		.loc 1 364 26
 1407              	 #APP
 1408              	# 364 "./../../firmware/RISCV/drivers/n200_func.c" 1
 365              	  mtvec_value = mtvec_value & 0xFFFFFFC0;
 1409              		csrr a5, mtvec
 1410              	# 0 "" 2
 1411              	.LVL101:
 364:./../../firmware/RISCV/drivers/n200_func.c ****   uint32_t mtvec_value = read_csr(mtvec);
 1412              		.loc 1 364 26
 1413              	 #NO_APP
 1414              	.LBE136:
 1415              		.loc 1 365 3
 1416              		.loc 1 365 15 is_stmt 0
 1417 0004 93F707FC 		andi	a5,a5,-64
 1418              	.LVL102:
 366:./../../firmware/RISCV/drivers/n200_func.c ****   mtvec_value = mtvec_value | 0x00000003;
 1419              		.loc 1 366 3 is_stmt 1
 367:./../../firmware/RISCV/drivers/n200_func.c ****   write_csr(mtvec,mtvec_value);
 1420              		.loc 1 367 3
 1421              		.loc 1 367 3
 366:./../../firmware/RISCV/drivers/n200_func.c ****   mtvec_value = mtvec_value | 0x00000003;
 1422              		.loc 1 366 15 is_stmt 0
 1423 0008 93E73700 		ori	a5,a5,3
 1424              	.LVL103:
 1425              		.loc 1 367 3
 1426              	 #APP
 1427              	# 367 "./../../firmware/RISCV/drivers/n200_func.c" 1
 368              	#endif
 369:./../../firmware/RISCV/drivers/n200_func.c **** 
 370:./../../firmware/RISCV/drivers/n200_func.c **** }
 1428              		csrw mtvec, a5
 1429              	# 0 "" 2
 1430              		.loc 1 370 1
 1431              	 #NO_APP
 1432 0010 8280     		ret
 1433              		.cfi_endproc
 1434              	.LFE37:
 1436              		.section	.text.eclic_set_vmode,"ax",@progbits
 1437              		.align	1
 1438              		.globl	eclic_set_vmode
 1440              	eclic_set_vmode:
 1441              	.LFB38:
 371:./../../firmware/RISCV/drivers/n200_func.c **** 
 372:./../../firmware/RISCV/drivers/n200_func.c **** /* sets vector-mode or non-vector mode */
GAS LISTING C:\Users\Karzan\AppData\Local\Temp\ccUlsDYc.s 			page 34


 373:./../../firmware/RISCV/drivers/n200_func.c **** void eclic_set_vmode(uint32_t source) {
 1442              		.loc 1 373 39 is_stmt 1
 1443              		.cfi_startproc
 1444              	.LVL104:
 374:./../../firmware/RISCV/drivers/n200_func.c ****   /* read the current attr */
 375:./../../firmware/RISCV/drivers/n200_func.c ****   uint8_t old_intattr = eclic_get_intattr(source);
 1445              		.loc 1 375 3
 1446              	.LBB137:
 1447              	.LBB138:
 198:./../../firmware/RISCV/drivers/n200_func.c **** }
 1448              		.loc 1 198 3
 198:./../../firmware/RISCV/drivers/n200_func.c **** }
 1449              		.loc 1 198 68 is_stmt 0
 1450 0000 B71700D2 		li	a5,-771747840
 1451 0004 8907     		addi	a5,a5,2
 198:./../../firmware/RISCV/drivers/n200_func.c **** }
 1452              		.loc 1 198 75
 1453 0006 0A05     		slli	a0,a0,2
 1454              	.LVL105:
 198:./../../firmware/RISCV/drivers/n200_func.c **** }
 1455              		.loc 1 198 68
 1456 0008 3E95     		add	a0,a0,a5
 198:./../../firmware/RISCV/drivers/n200_func.c **** }
 1457              		.loc 1 198 10
 1458 000a 83470500 		lbu	a5,0(a0)
 1459              	.LVL106:
 1460              	.LBE138:
 1461              	.LBE137:
 376:./../../firmware/RISCV/drivers/n200_func.c ****       /*  Keep other bits unchanged and only set the LSB bit */
 377:./../../firmware/RISCV/drivers/n200_func.c ****   uint8_t new_intattr = (old_intattr | 0x1); 
 1462              		.loc 1 377 3 is_stmt 1
 1463              		.loc 1 377 11 is_stmt 0
 1464 000e 93E71700 		ori	a5,a5,1
 1465              	.LVL107:
 378:./../../firmware/RISCV/drivers/n200_func.c **** 
 379:./../../firmware/RISCV/drivers/n200_func.c ****   eclic_set_intattr(source,new_intattr);
 1466              		.loc 1 379 3 is_stmt 1
 1467              	.LBB139:
 1468              	.LBB140:
 194:./../../firmware/RISCV/drivers/n200_func.c **** }
 1469              		.loc 1 194 3
 194:./../../firmware/RISCV/drivers/n200_func.c **** }
 1470              		.loc 1 194 72 is_stmt 0
 1471 0012 2300F500 		sb	a5,0(a0)
 1472              	.LVL108:
 1473              	.LBE140:
 1474              	.LBE139:
 380:./../../firmware/RISCV/drivers/n200_func.c **** }
 1475              		.loc 1 380 1
 1476 0016 8280     		ret
 1477              		.cfi_endproc
 1478              	.LFE38:
 1480              		.section	.text.eclic_set_nonvmode,"ax",@progbits
 1481              		.align	1
 1482              		.globl	eclic_set_nonvmode
 1484              	eclic_set_nonvmode:
 1485              	.LFB39:
GAS LISTING C:\Users\Karzan\AppData\Local\Temp\ccUlsDYc.s 			page 35


 381:./../../firmware/RISCV/drivers/n200_func.c **** 
 382:./../../firmware/RISCV/drivers/n200_func.c **** void eclic_set_nonvmode(uint32_t source) {
 1486              		.loc 1 382 42 is_stmt 1
 1487              		.cfi_startproc
 1488              	.LVL109:
 383:./../../firmware/RISCV/drivers/n200_func.c ****   /* read the current attr */
 384:./../../firmware/RISCV/drivers/n200_func.c ****   uint8_t old_intattr = eclic_get_intattr(source);
 1489              		.loc 1 384 3
 1490              	.LBB141:
 1491              	.LBB142:
 198:./../../firmware/RISCV/drivers/n200_func.c **** }
 1492              		.loc 1 198 3
 198:./../../firmware/RISCV/drivers/n200_func.c **** }
 1493              		.loc 1 198 68 is_stmt 0
 1494 0000 B71700D2 		li	a5,-771747840
 1495 0004 8907     		addi	a5,a5,2
 198:./../../firmware/RISCV/drivers/n200_func.c **** }
 1496              		.loc 1 198 75
 1497 0006 0A05     		slli	a0,a0,2
 1498              	.LVL110:
 198:./../../firmware/RISCV/drivers/n200_func.c **** }
 1499              		.loc 1 198 68
 1500 0008 3E95     		add	a0,a0,a5
 198:./../../firmware/RISCV/drivers/n200_func.c **** }
 1501              		.loc 1 198 10
 1502 000a 83470500 		lbu	a5,0(a0)
 1503              	.LVL111:
 1504              	.LBE142:
 1505              	.LBE141:
 385:./../../firmware/RISCV/drivers/n200_func.c ****       /* Keep other bits unchanged and only clear the LSB bit*/
 386:./../../firmware/RISCV/drivers/n200_func.c ****   uint8_t new_intattr = (old_intattr & (~0x1));
 1506              		.loc 1 386 3 is_stmt 1
 1507              		.loc 1 386 11 is_stmt 0
 1508 000e 93F7E70F 		andi	a5,a5,254
 1509              	.LVL112:
 387:./../../firmware/RISCV/drivers/n200_func.c **** 
 388:./../../firmware/RISCV/drivers/n200_func.c ****   eclic_set_intattr(source,new_intattr);
 1510              		.loc 1 388 3 is_stmt 1
 1511              	.LBB143:
 1512              	.LBB144:
 194:./../../firmware/RISCV/drivers/n200_func.c **** }
 1513              		.loc 1 194 3
 194:./../../firmware/RISCV/drivers/n200_func.c **** }
 1514              		.loc 1 194 72 is_stmt 0
 1515 0012 2300F500 		sb	a5,0(a0)
 1516              	.LVL113:
 1517              	.LBE144:
 1518              	.LBE143:
 389:./../../firmware/RISCV/drivers/n200_func.c **** }
 1519              		.loc 1 389 1
 1520 0016 8280     		ret
 1521              		.cfi_endproc
 1522              	.LFE39:
 1524              		.section	.text.eclic_set_level_trig,"ax",@progbits
 1525              		.align	1
 1526              		.globl	eclic_set_level_trig
 1528              	eclic_set_level_trig:
GAS LISTING C:\Users\Karzan\AppData\Local\Temp\ccUlsDYc.s 			page 36


 1529              	.LFB40:
 390:./../../firmware/RISCV/drivers/n200_func.c **** 
 391:./../../firmware/RISCV/drivers/n200_func.c **** /* sets interrupt as level sensitive
 392:./../../firmware/RISCV/drivers/n200_func.c **** Bit 1, trig[0], is defined as "edge-triggered" (0: level-triggered, 1: edge-triggered); 
 393:./../../firmware/RISCV/drivers/n200_func.c **** Bit 2, trig[1], is defined as "negative-edge" (0: positive-edge, 1: negative-edge).*/
 394:./../../firmware/RISCV/drivers/n200_func.c **** 
 395:./../../firmware/RISCV/drivers/n200_func.c **** void eclic_set_level_trig(uint32_t source) {
 1530              		.loc 1 395 44 is_stmt 1
 1531              		.cfi_startproc
 1532              	.LVL114:
 396:./../../firmware/RISCV/drivers/n200_func.c ****   /* read the current attr */
 397:./../../firmware/RISCV/drivers/n200_func.c ****   uint8_t old_intattr = eclic_get_intattr(source);
 1533              		.loc 1 397 3
 1534              	.LBB145:
 1535              	.LBB146:
 198:./../../firmware/RISCV/drivers/n200_func.c **** }
 1536              		.loc 1 198 3
 198:./../../firmware/RISCV/drivers/n200_func.c **** }
 1537              		.loc 1 198 68 is_stmt 0
 1538 0000 B71700D2 		li	a5,-771747840
 1539 0004 8907     		addi	a5,a5,2
 198:./../../firmware/RISCV/drivers/n200_func.c **** }
 1540              		.loc 1 198 75
 1541 0006 0A05     		slli	a0,a0,2
 1542              	.LVL115:
 198:./../../firmware/RISCV/drivers/n200_func.c **** }
 1543              		.loc 1 198 68
 1544 0008 3E95     		add	a0,a0,a5
 198:./../../firmware/RISCV/drivers/n200_func.c **** }
 1545              		.loc 1 198 10
 1546 000a 83470500 		lbu	a5,0(a0)
 1547              	.LVL116:
 1548              	.LBE146:
 1549              	.LBE145:
 398:./../../firmware/RISCV/drivers/n200_func.c ****       /* Keep other bits unchanged and only clear the bit 1 */
 399:./../../firmware/RISCV/drivers/n200_func.c ****   uint8_t new_intattr = (old_intattr & (~0x2));
 1550              		.loc 1 399 3 is_stmt 1
 1551              		.loc 1 399 11 is_stmt 0
 1552 000e 93F7D70F 		andi	a5,a5,253
 1553              	.LVL117:
 400:./../../firmware/RISCV/drivers/n200_func.c **** 
 401:./../../firmware/RISCV/drivers/n200_func.c ****   eclic_set_intattr(source,new_intattr);
 1554              		.loc 1 401 3 is_stmt 1
 1555              	.LBB147:
 1556              	.LBB148:
 194:./../../firmware/RISCV/drivers/n200_func.c **** }
 1557              		.loc 1 194 3
 194:./../../firmware/RISCV/drivers/n200_func.c **** }
 1558              		.loc 1 194 72 is_stmt 0
 1559 0012 2300F500 		sb	a5,0(a0)
 1560              	.LVL118:
 1561              	.LBE148:
 1562              	.LBE147:
 402:./../../firmware/RISCV/drivers/n200_func.c **** }
 1563              		.loc 1 402 1
 1564 0016 8280     		ret
 1565              		.cfi_endproc
GAS LISTING C:\Users\Karzan\AppData\Local\Temp\ccUlsDYc.s 			page 37


 1566              	.LFE40:
 1568              		.section	.text.eclic_set_posedge_trig,"ax",@progbits
 1569              		.align	1
 1570              		.globl	eclic_set_posedge_trig
 1572              	eclic_set_posedge_trig:
 1573              	.LFB41:
 403:./../../firmware/RISCV/drivers/n200_func.c **** 
 404:./../../firmware/RISCV/drivers/n200_func.c **** void eclic_set_posedge_trig(uint32_t source) {
 1574              		.loc 1 404 46 is_stmt 1
 1575              		.cfi_startproc
 1576              	.LVL119:
 405:./../../firmware/RISCV/drivers/n200_func.c ****   /* read the current attr */
 406:./../../firmware/RISCV/drivers/n200_func.c ****   uint8_t old_intattr = eclic_get_intattr(source);
 1577              		.loc 1 406 3
 1578              	.LBB149:
 1579              	.LBB150:
 198:./../../firmware/RISCV/drivers/n200_func.c **** }
 1580              		.loc 1 198 3
 198:./../../firmware/RISCV/drivers/n200_func.c **** }
 1581              		.loc 1 198 68 is_stmt 0
 1582 0000 B71700D2 		li	a5,-771747840
 1583 0004 8907     		addi	a5,a5,2
 198:./../../firmware/RISCV/drivers/n200_func.c **** }
 1584              		.loc 1 198 75
 1585 0006 0A05     		slli	a0,a0,2
 1586              	.LVL120:
 198:./../../firmware/RISCV/drivers/n200_func.c **** }
 1587              		.loc 1 198 68
 1588 0008 3E95     		add	a0,a0,a5
 198:./../../firmware/RISCV/drivers/n200_func.c **** }
 1589              		.loc 1 198 10
 1590 000a 83470500 		lbu	a5,0(a0)
 1591              	.LVL121:
 1592              	.LBE150:
 1593              	.LBE149:
 407:./../../firmware/RISCV/drivers/n200_func.c ****       /* Keep other bits unchanged and only set the bit 1 */
 408:./../../firmware/RISCV/drivers/n200_func.c ****   uint8_t new_intattr = (old_intattr | 0x2);
 1594              		.loc 1 408 3 is_stmt 1
 409:./../../firmware/RISCV/drivers/n200_func.c ****       /* Keep other bits unchanged and only clear the bit 2 */
 410:./../../firmware/RISCV/drivers/n200_func.c ****   new_intattr = (old_intattr & (~0x4));
 1595              		.loc 1 410 3
 1596              		.loc 1 410 15 is_stmt 0
 1597 000e 93F7B70F 		andi	a5,a5,251
 1598              	.LVL122:
 411:./../../firmware/RISCV/drivers/n200_func.c **** 
 412:./../../firmware/RISCV/drivers/n200_func.c ****   eclic_set_intattr(source,new_intattr);
 1599              		.loc 1 412 3 is_stmt 1
 1600              	.LBB151:
 1601              	.LBB152:
 194:./../../firmware/RISCV/drivers/n200_func.c **** }
 1602              		.loc 1 194 3
 194:./../../firmware/RISCV/drivers/n200_func.c **** }
 1603              		.loc 1 194 72 is_stmt 0
 1604 0012 2300F500 		sb	a5,0(a0)
 1605              	.LVL123:
 1606              	.LBE152:
 1607              	.LBE151:
GAS LISTING C:\Users\Karzan\AppData\Local\Temp\ccUlsDYc.s 			page 38


 413:./../../firmware/RISCV/drivers/n200_func.c **** }
 1608              		.loc 1 413 1
 1609 0016 8280     		ret
 1610              		.cfi_endproc
 1611              	.LFE41:
 1613              		.section	.text.eclic_set_negedge_trig,"ax",@progbits
 1614              		.align	1
 1615              		.globl	eclic_set_negedge_trig
 1617              	eclic_set_negedge_trig:
 1618              	.LFB42:
 414:./../../firmware/RISCV/drivers/n200_func.c **** 
 415:./../../firmware/RISCV/drivers/n200_func.c **** void eclic_set_negedge_trig(uint32_t source) {
 1619              		.loc 1 415 46 is_stmt 1
 1620              		.cfi_startproc
 1621              	.LVL124:
 416:./../../firmware/RISCV/drivers/n200_func.c ****   /*read the current attr */
 417:./../../firmware/RISCV/drivers/n200_func.c ****   uint8_t old_intattr = eclic_get_intattr(source);
 1622              		.loc 1 417 3
 1623              	.LBB153:
 1624              	.LBB154:
 198:./../../firmware/RISCV/drivers/n200_func.c **** }
 1625              		.loc 1 198 3
 198:./../../firmware/RISCV/drivers/n200_func.c **** }
 1626              		.loc 1 198 68 is_stmt 0
 1627 0000 B71700D2 		li	a5,-771747840
 1628 0004 8907     		addi	a5,a5,2
 198:./../../firmware/RISCV/drivers/n200_func.c **** }
 1629              		.loc 1 198 75
 1630 0006 0A05     		slli	a0,a0,2
 1631              	.LVL125:
 198:./../../firmware/RISCV/drivers/n200_func.c **** }
 1632              		.loc 1 198 68
 1633 0008 3E95     		add	a0,a0,a5
 198:./../../firmware/RISCV/drivers/n200_func.c **** }
 1634              		.loc 1 198 10
 1635 000a 83470500 		lbu	a5,0(a0)
 1636              	.LVL126:
 1637              	.LBE154:
 1638              	.LBE153:
 418:./../../firmware/RISCV/drivers/n200_func.c ****       /* Keep other bits unchanged and only set the bit 1*/
 419:./../../firmware/RISCV/drivers/n200_func.c ****   uint8_t new_intattr = (old_intattr | 0x2);
 1639              		.loc 1 419 3 is_stmt 1
 420:./../../firmware/RISCV/drivers/n200_func.c ****       /* Keep other bits unchanged and only set the bit 2*/
 421:./../../firmware/RISCV/drivers/n200_func.c ****   new_intattr = (old_intattr | 0x4);
 1640              		.loc 1 421 3
 1641              		.loc 1 421 15 is_stmt 0
 1642 000e 93E74700 		ori	a5,a5,4
 1643              	.LVL127:
 422:./../../firmware/RISCV/drivers/n200_func.c **** 
 423:./../../firmware/RISCV/drivers/n200_func.c ****   eclic_set_intattr(source,new_intattr);
 1644              		.loc 1 423 3 is_stmt 1
 1645              	.LBB155:
 1646              	.LBB156:
 194:./../../firmware/RISCV/drivers/n200_func.c **** }
 1647              		.loc 1 194 3
 194:./../../firmware/RISCV/drivers/n200_func.c **** }
 1648              		.loc 1 194 72 is_stmt 0
GAS LISTING C:\Users\Karzan\AppData\Local\Temp\ccUlsDYc.s 			page 39


 1649 0012 2300F500 		sb	a5,0(a0)
 1650              	.LVL128:
 1651              	.LBE156:
 1652              	.LBE155:
 424:./../../firmware/RISCV/drivers/n200_func.c **** }
 1653              		.loc 1 424 1
 1654 0016 8280     		ret
 1655              		.cfi_endproc
 1656              	.LFE42:
 1658              		.text
 1659              	.Letext0:
 1660              		.file 2 "c:\\users\\karzan\\downloads\\toolchain-gd32v-v202-win\\toolchain-gd32v-v202-win\\compile
 1661              		.file 3 "c:\\users\\karzan\\downloads\\toolchain-gd32v-v202-win\\toolchain-gd32v-v202-win\\compile
 1662              		.file 4 "c:\\users\\karzan\\downloads\\toolchain-gd32v-v202-win\\toolchain-gd32v-v202-win\\compile
 1663              		.file 5 "c:\\users\\karzan\\downloads\\toolchain-gd32v-v202-win\\toolchain-gd32v-v202-win\\compile
 1664              		.file 6 "c:\\users\\karzan\\downloads\\toolchain-gd32v-v202-win\\toolchain-gd32v-v202-win\\compile
 1665              		.file 7 "c:\\users\\karzan\\downloads\\toolchain-gd32v-v202-win\\toolchain-gd32v-v202-win\\compile
 1666              		.file 8 "./../../firmware/GD32VF103_standard_peripheral/system_gd32vf103.h"
 1667              		.file 9 "c:\\users\\karzan\\downloads\\toolchain-gd32v-v202-win\\toolchain-gd32v-v202-win\\compile
 1668              		.file 10 "c:\\users\\karzan\\downloads\\toolchain-gd32v-v202-win\\toolchain-gd32v-v202-win\\compil
GAS LISTING C:\Users\Karzan\AppData\Local\Temp\ccUlsDYc.s 			page 40


DEFINED SYMBOLS
                            *ABS*:0000000000000000 n200_func.c
C:\Users\Karzan\AppData\Local\Temp\ccUlsDYc.s:13     .text.pmp_open_all_space:0000000000000000 pmp_open_all_space
C:\Users\Karzan\AppData\Local\Temp\ccUlsDYc.s:17     .text.pmp_open_all_space:0000000000000000 .L0 
C:\Users\Karzan\AppData\Local\Temp\ccUlsDYc.s:18     .text.pmp_open_all_space:0000000000000000 .L0 
./../../firmware/RISCV/drivers/n200_func.c:19     .text.pmp_open_all_space:0000000000000000 .L0 
./../../firmware/RISCV/drivers/n200_func.c:20     .text.pmp_open_all_space:0000000000000004 .L0 
./../../firmware/RISCV/drivers/n200_func.c:22     .text.pmp_open_all_space:0000000000000008 .L0 
./../../firmware/RISCV/drivers/n200_func.c:23     .text.pmp_open_all_space:000000000000000c .L0 
C:\Users\Karzan\AppData\Local\Temp\ccUlsDYc.s:37     .text.pmp_open_all_space:0000000000000010 .L0 
C:\Users\Karzan\AppData\Local\Temp\ccUlsDYc.s:38     .text.pmp_open_all_space:0000000000000012 .L0 
C:\Users\Karzan\AppData\Local\Temp\ccUlsDYc.s:45     .text.switch_m2u_mode:0000000000000000 switch_m2u_mode
C:\Users\Karzan\AppData\Local\Temp\ccUlsDYc.s:48     .text.switch_m2u_mode:0000000000000000 .L0 
C:\Users\Karzan\AppData\Local\Temp\ccUlsDYc.s:49     .text.switch_m2u_mode:0000000000000000 .L0 
C:\Users\Karzan\AppData\Local\Temp\ccUlsDYc.s:51     .text.switch_m2u_mode:0000000000000000 .L0 
C:\Users\Karzan\AppData\Local\Temp\ccUlsDYc.s:52     .text.switch_m2u_mode:0000000000000000 .L0 
C:\Users\Karzan\AppData\Local\Temp\ccUlsDYc.s:53     .text.switch_m2u_mode:0000000000000000 .L0 
C:\Users\Karzan\AppData\Local\Temp\ccUlsDYc.s:54     .text.switch_m2u_mode:0000000000000000 .L0 
C:\Users\Karzan\AppData\Local\Temp\ccUlsDYc.s:64     .text.switch_m2u_mode:000000000000000a .L0 
./../../firmware/RISCV/drivers/n200_func.c:35     .text.switch_m2u_mode:000000000000000a .L0 
./../../firmware/RISCV/drivers/n200_func.c:37     .text.switch_m2u_mode:0000000000000012 .L0 
./../../firmware/RISCV/drivers/n200_func.c:38     .text.switch_m2u_mode:0000000000000016 .L0 
C:\Users\Karzan\AppData\Local\Temp\ccUlsDYc.s:81     .text.switch_m2u_mode:000000000000001a .L0 
C:\Users\Karzan\AppData\Local\Temp\ccUlsDYc.s:83     .text.switch_m2u_mode:000000000000001a .L0 
C:\Users\Karzan\AppData\Local\Temp\ccUlsDYc.s:84     .text.switch_m2u_mode:000000000000001c .L0 
C:\Users\Karzan\AppData\Local\Temp\ccUlsDYc.s:91     .text.mtime_lo:0000000000000000 mtime_lo
C:\Users\Karzan\AppData\Local\Temp\ccUlsDYc.s:94     .text.mtime_lo:0000000000000000 .L0 
C:\Users\Karzan\AppData\Local\Temp\ccUlsDYc.s:95     .text.mtime_lo:0000000000000000 .L0 
C:\Users\Karzan\AppData\Local\Temp\ccUlsDYc.s:96     .text.mtime_lo:0000000000000000 .L0 
C:\Users\Karzan\AppData\Local\Temp\ccUlsDYc.s:97     .text.mtime_lo:0000000000000000 .L0 
C:\Users\Karzan\AppData\Local\Temp\ccUlsDYc.s:100    .text.mtime_lo:0000000000000006 .L0 
C:\Users\Karzan\AppData\Local\Temp\ccUlsDYc.s:101    .text.mtime_lo:0000000000000008 .L0 
C:\Users\Karzan\AppData\Local\Temp\ccUlsDYc.s:108    .text.mtime_hi:0000000000000000 mtime_hi
C:\Users\Karzan\AppData\Local\Temp\ccUlsDYc.s:111    .text.mtime_hi:0000000000000000 .L0 
C:\Users\Karzan\AppData\Local\Temp\ccUlsDYc.s:112    .text.mtime_hi:0000000000000000 .L0 
C:\Users\Karzan\AppData\Local\Temp\ccUlsDYc.s:113    .text.mtime_hi:0000000000000000 .L0 
C:\Users\Karzan\AppData\Local\Temp\ccUlsDYc.s:114    .text.mtime_hi:0000000000000000 .L0 
C:\Users\Karzan\AppData\Local\Temp\ccUlsDYc.s:117    .text.mtime_hi:0000000000000006 .L0 
C:\Users\Karzan\AppData\Local\Temp\ccUlsDYc.s:118    .text.mtime_hi:0000000000000008 .L0 
C:\Users\Karzan\AppData\Local\Temp\ccUlsDYc.s:125    .text.get_timer_value:0000000000000000 get_timer_value
C:\Users\Karzan\AppData\Local\Temp\ccUlsDYc.s:128    .text.get_timer_value:0000000000000000 .L0 
C:\Users\Karzan\AppData\Local\Temp\ccUlsDYc.s:132    .text.get_timer_value:0000000000000000 .L0 
C:\Users\Karzan\AppData\Local\Temp\ccUlsDYc.s:133    .text.get_timer_value:0000000000000000 .L0 
C:\Users\Karzan\AppData\Local\Temp\ccUlsDYc.s:140    .text.get_timer_value:0000000000000004 .L0 
C:\Users\Karzan\AppData\Local\Temp\ccUlsDYc.s:143    .text.get_timer_value:0000000000000004 .L0 
C:\Users\Karzan\AppData\Local\Temp\ccUlsDYc.s:144    .text.get_timer_value:0000000000000004 .L0 
C:\Users\Karzan\AppData\Local\Temp\ccUlsDYc.s:145    .text.get_timer_value:0000000000000004 .L0 
C:\Users\Karzan\AppData\Local\Temp\ccUlsDYc.s:152    .text.get_timer_value:0000000000000006 .L0 
C:\Users\Karzan\AppData\Local\Temp\ccUlsDYc.s:153    .text.get_timer_value:0000000000000006 .L0 
C:\Users\Karzan\AppData\Local\Temp\ccUlsDYc.s:154    .text.get_timer_value:0000000000000006 .L0 
C:\Users\Karzan\AppData\Local\Temp\ccUlsDYc.s:161    .text.get_timer_value:0000000000000008 .L0 
C:\Users\Karzan\AppData\Local\Temp\ccUlsDYc.s:162    .text.get_timer_value:0000000000000008 .L0 
C:\Users\Karzan\AppData\Local\Temp\ccUlsDYc.s:163    .text.get_timer_value:0000000000000008 .L0 
C:\Users\Karzan\AppData\Local\Temp\ccUlsDYc.s:167    .text.get_timer_value:000000000000000a .L0 
C:\Users\Karzan\AppData\Local\Temp\ccUlsDYc.s:170    .text.get_timer_value:000000000000000e .L0 
C:\Users\Karzan\AppData\Local\Temp\ccUlsDYc.s:171    .text.get_timer_value:0000000000000010 .L0 
C:\Users\Karzan\AppData\Local\Temp\ccUlsDYc.s:178    .text.get_timer_freq:0000000000000000 get_timer_freq
GAS LISTING C:\Users\Karzan\AppData\Local\Temp\ccUlsDYc.s 			page 41


C:\Users\Karzan\AppData\Local\Temp\ccUlsDYc.s:181    .text.get_timer_freq:0000000000000000 .L0 
C:\Users\Karzan\AppData\Local\Temp\ccUlsDYc.s:182    .text.get_timer_freq:0000000000000000 .L0 
C:\Users\Karzan\AppData\Local\Temp\ccUlsDYc.s:183    .text.get_timer_freq:0000000000000000 .L0 
C:\Users\Karzan\AppData\Local\Temp\ccUlsDYc.s:184    .text.get_timer_freq:0000000000000000 .L0 
C:\Users\Karzan\AppData\Local\Temp\ccUlsDYc.s:187    .text.get_timer_freq:0000000000000008 .L0 
C:\Users\Karzan\AppData\Local\Temp\ccUlsDYc.s:189    .text.get_timer_freq:000000000000000c .L0 
C:\Users\Karzan\AppData\Local\Temp\ccUlsDYc.s:196    .text.get_instret_value:0000000000000000 get_instret_value
C:\Users\Karzan\AppData\Local\Temp\ccUlsDYc.s:199    .text.get_instret_value:0000000000000000 .L0 
C:\Users\Karzan\AppData\Local\Temp\ccUlsDYc.s:201    .text.get_instret_value:0000000000000000 .L0 
C:\Users\Karzan\AppData\Local\Temp\ccUlsDYc.s:203    .text.get_instret_value:0000000000000000 .L0 
C:\Users\Karzan\AppData\Local\Temp\ccUlsDYc.s:205    .text.get_instret_value:0000000000000000 .L0 
C:\Users\Karzan\AppData\Local\Temp\ccUlsDYc.s:206    .text.get_instret_value:0000000000000000 .L0 
./../../firmware/RISCV/drivers/n200_func.c:76     .text.get_instret_value:0000000000000000 .L0 
C:\Users\Karzan\AppData\Local\Temp\ccUlsDYc.s:215    .text.get_instret_value:0000000000000004 .L0 
C:\Users\Karzan\AppData\Local\Temp\ccUlsDYc.s:217    .text.get_instret_value:0000000000000004 .L0 
C:\Users\Karzan\AppData\Local\Temp\ccUlsDYc.s:218    .text.get_instret_value:0000000000000004 .L0 
./../../firmware/RISCV/drivers/n200_func.c:77     .text.get_instret_value:0000000000000004 .L0 
C:\Users\Karzan\AppData\Local\Temp\ccUlsDYc.s:227    .text.get_instret_value:0000000000000008 .L0 
C:\Users\Karzan\AppData\Local\Temp\ccUlsDYc.s:229    .text.get_instret_value:0000000000000008 .L0 
C:\Users\Karzan\AppData\Local\Temp\ccUlsDYc.s:230    .text.get_instret_value:0000000000000008 .L0 
./../../firmware/RISCV/drivers/n200_func.c:78     .text.get_instret_value:0000000000000008 .L0 
C:\Users\Karzan\AppData\Local\Temp\ccUlsDYc.s:239    .text.get_instret_value:000000000000000c .L0 
C:\Users\Karzan\AppData\Local\Temp\ccUlsDYc.s:240    .text.get_instret_value:000000000000000c .L0 
C:\Users\Karzan\AppData\Local\Temp\ccUlsDYc.s:243    .text.get_instret_value:0000000000000010 .L0 
C:\Users\Karzan\AppData\Local\Temp\ccUlsDYc.s:244    .text.get_instret_value:0000000000000012 .L0 
C:\Users\Karzan\AppData\Local\Temp\ccUlsDYc.s:251    .text.get_cycle_value:0000000000000000 get_cycle_value
C:\Users\Karzan\AppData\Local\Temp\ccUlsDYc.s:254    .text.get_cycle_value:0000000000000000 .L0 
C:\Users\Karzan\AppData\Local\Temp\ccUlsDYc.s:256    .text.get_cycle_value:0000000000000000 .L0 
C:\Users\Karzan\AppData\Local\Temp\ccUlsDYc.s:258    .text.get_cycle_value:0000000000000000 .L0 
C:\Users\Karzan\AppData\Local\Temp\ccUlsDYc.s:260    .text.get_cycle_value:0000000000000000 .L0 
C:\Users\Karzan\AppData\Local\Temp\ccUlsDYc.s:261    .text.get_cycle_value:0000000000000000 .L0 
./../../firmware/RISCV/drivers/n200_func.c:93     .text.get_cycle_value:0000000000000000 .L0 
C:\Users\Karzan\AppData\Local\Temp\ccUlsDYc.s:270    .text.get_cycle_value:0000000000000004 .L0 
C:\Users\Karzan\AppData\Local\Temp\ccUlsDYc.s:272    .text.get_cycle_value:0000000000000004 .L0 
C:\Users\Karzan\AppData\Local\Temp\ccUlsDYc.s:273    .text.get_cycle_value:0000000000000004 .L0 
./../../firmware/RISCV/drivers/n200_func.c:94     .text.get_cycle_value:0000000000000004 .L0 
C:\Users\Karzan\AppData\Local\Temp\ccUlsDYc.s:282    .text.get_cycle_value:0000000000000008 .L0 
C:\Users\Karzan\AppData\Local\Temp\ccUlsDYc.s:284    .text.get_cycle_value:0000000000000008 .L0 
C:\Users\Karzan\AppData\Local\Temp\ccUlsDYc.s:285    .text.get_cycle_value:0000000000000008 .L0 
./../../firmware/RISCV/drivers/n200_func.c:95     .text.get_cycle_value:0000000000000008 .L0 
C:\Users\Karzan\AppData\Local\Temp\ccUlsDYc.s:294    .text.get_cycle_value:000000000000000c .L0 
C:\Users\Karzan\AppData\Local\Temp\ccUlsDYc.s:295    .text.get_cycle_value:000000000000000c .L0 
C:\Users\Karzan\AppData\Local\Temp\ccUlsDYc.s:298    .text.get_cycle_value:0000000000000010 .L0 
C:\Users\Karzan\AppData\Local\Temp\ccUlsDYc.s:299    .text.get_cycle_value:0000000000000012 .L0 
C:\Users\Karzan\AppData\Local\Temp\ccUlsDYc.s:306    .text.measure_cpu_freq:0000000000000000 measure_cpu_freq
C:\Users\Karzan\AppData\Local\Temp\ccUlsDYc.s:309    .text.measure_cpu_freq:0000000000000000 .L0 
C:\Users\Karzan\AppData\Local\Temp\ccUlsDYc.s:311    .text.measure_cpu_freq:0000000000000000 .L0 
C:\Users\Karzan\AppData\Local\Temp\ccUlsDYc.s:312    .text.measure_cpu_freq:0000000000000000 .L0 
C:\Users\Karzan\AppData\Local\Temp\ccUlsDYc.s:315    .text.measure_cpu_freq:0000000000000000 .L0 
C:\Users\Karzan\AppData\Local\Temp\ccUlsDYc.s:316    .text.measure_cpu_freq:0000000000000000 .L0 
C:\Users\Karzan\AppData\Local\Temp\ccUlsDYc.s:317    .text.measure_cpu_freq:0000000000000000 .L0 
C:\Users\Karzan\AppData\Local\Temp\ccUlsDYc.s:324    .text.measure_cpu_freq:0000000000000008 .L0 
C:\Users\Karzan\AppData\Local\Temp\ccUlsDYc.s:330    .text.measure_cpu_freq:000000000000000c .L0 
C:\Users\Karzan\AppData\Local\Temp\ccUlsDYc.s:337    .text.measure_cpu_freq:0000000000000010 .L0 
C:\Users\Karzan\AppData\Local\Temp\ccUlsDYc.s:338    .text.measure_cpu_freq:0000000000000010 .L0 
C:\Users\Karzan\AppData\Local\Temp\ccUlsDYc.s:339    .text.measure_cpu_freq:0000000000000010 .L0 
C:\Users\Karzan\AppData\Local\Temp\ccUlsDYc.s:346    .text.measure_cpu_freq:0000000000000016 .L0 
GAS LISTING C:\Users\Karzan\AppData\Local\Temp\ccUlsDYc.s 			page 42


C:\Users\Karzan\AppData\Local\Temp\ccUlsDYc.s:349    .text.measure_cpu_freq:0000000000000016 .L0 
C:\Users\Karzan\AppData\Local\Temp\ccUlsDYc.s:350    .text.measure_cpu_freq:0000000000000016 .L0 
C:\Users\Karzan\AppData\Local\Temp\ccUlsDYc.s:351    .text.measure_cpu_freq:0000000000000016 .L0 
C:\Users\Karzan\AppData\Local\Temp\ccUlsDYc.s:356    .text.measure_cpu_freq:0000000000000018 .L0 
C:\Users\Karzan\AppData\Local\Temp\ccUlsDYc.s:359    .text.measure_cpu_freq:000000000000001c .L0 
C:\Users\Karzan\AppData\Local\Temp\ccUlsDYc.s:360    .text.measure_cpu_freq:000000000000001c .L0 
./../../firmware/RISCV/drivers/n200_func.c:116    .text.measure_cpu_freq:000000000000001c .L0 
C:\Users\Karzan\AppData\Local\Temp\ccUlsDYc.s:371    .text.measure_cpu_freq:0000000000000020 .L0 
C:\Users\Karzan\AppData\Local\Temp\ccUlsDYc.s:372    .text.measure_cpu_freq:0000000000000020 .L0 
C:\Users\Karzan\AppData\Local\Temp\ccUlsDYc.s:378    .text.measure_cpu_freq:0000000000000024 .L0 
C:\Users\Karzan\AppData\Local\Temp\ccUlsDYc.s:381    .text.measure_cpu_freq:0000000000000024 .L0 
C:\Users\Karzan\AppData\Local\Temp\ccUlsDYc.s:382    .text.measure_cpu_freq:0000000000000024 .L0 
C:\Users\Karzan\AppData\Local\Temp\ccUlsDYc.s:383    .text.measure_cpu_freq:0000000000000024 .L0 
C:\Users\Karzan\AppData\Local\Temp\ccUlsDYc.s:387    .text.measure_cpu_freq:0000000000000028 .L0 
C:\Users\Karzan\AppData\Local\Temp\ccUlsDYc.s:390    .text.measure_cpu_freq:000000000000002c .L0 
C:\Users\Karzan\AppData\Local\Temp\ccUlsDYc.s:393    .text.measure_cpu_freq:0000000000000030 .L0 
C:\Users\Karzan\AppData\Local\Temp\ccUlsDYc.s:394    .text.measure_cpu_freq:0000000000000030 .L0 
./../../firmware/RISCV/drivers/n200_func.c:126    .text.measure_cpu_freq:0000000000000030 .L0 
C:\Users\Karzan\AppData\Local\Temp\ccUlsDYc.s:403    .text.measure_cpu_freq:0000000000000034 .L0 
C:\Users\Karzan\AppData\Local\Temp\ccUlsDYc.s:404    .text.measure_cpu_freq:0000000000000034 .L0 
C:\Users\Karzan\AppData\Local\Temp\ccUlsDYc.s:407    .text.measure_cpu_freq:0000000000000038 .L0 
C:\Users\Karzan\AppData\Local\Temp\ccUlsDYc.s:408    .text.measure_cpu_freq:0000000000000038 .L0 
C:\Users\Karzan\AppData\Local\Temp\ccUlsDYc.s:411    .text.measure_cpu_freq:000000000000003c .L0 
C:\Users\Karzan\AppData\Local\Temp\ccUlsDYc.s:414    .text.measure_cpu_freq:0000000000000040 .L0 
C:\Users\Karzan\AppData\Local\Temp\ccUlsDYc.s:416    .text.measure_cpu_freq:0000000000000044 .L0 
C:\Users\Karzan\AppData\Local\Temp\ccUlsDYc.s:418    .text.measure_cpu_freq:0000000000000048 .L0 
C:\Users\Karzan\AppData\Local\Temp\ccUlsDYc.s:420    .text.measure_cpu_freq:000000000000004c .L0 
C:\Users\Karzan\AppData\Local\Temp\ccUlsDYc.s:422    .text.measure_cpu_freq:0000000000000050 .L0 
C:\Users\Karzan\AppData\Local\Temp\ccUlsDYc.s:429    .text.get_cpu_freq:0000000000000000 get_cpu_freq
C:\Users\Karzan\AppData\Local\Temp\ccUlsDYc.s:432    .text.get_cpu_freq:0000000000000000 .L0 
C:\Users\Karzan\AppData\Local\Temp\ccUlsDYc.s:433    .text.get_cpu_freq:0000000000000000 .L0 
C:\Users\Karzan\AppData\Local\Temp\ccUlsDYc.s:434    .text.get_cpu_freq:0000000000000000 .L0 
C:\Users\Karzan\AppData\Local\Temp\ccUlsDYc.s:435    .text.get_cpu_freq:0000000000000000 .L0 
C:\Users\Karzan\AppData\Local\Temp\ccUlsDYc.s:436    .text.get_cpu_freq:0000000000000000 .L0 
C:\Users\Karzan\AppData\Local\Temp\ccUlsDYc.s:438    .text.get_cpu_freq:0000000000000002 .L0 
C:\Users\Karzan\AppData\Local\Temp\ccUlsDYc.s:440    .text.get_cpu_freq:0000000000000002 .L0 
C:\Users\Karzan\AppData\Local\Temp\ccUlsDYc.s:442    .text.get_cpu_freq:0000000000000004 .L0 
C:\Users\Karzan\AppData\Local\Temp\ccUlsDYc.s:443    .text.get_cpu_freq:0000000000000006 .L0 
C:\Users\Karzan\AppData\Local\Temp\ccUlsDYc.s:445    .text.get_cpu_freq:0000000000000006 .L0 
C:\Users\Karzan\AppData\Local\Temp\ccUlsDYc.s:448    .text.get_cpu_freq:000000000000000e .L0 
C:\Users\Karzan\AppData\Local\Temp\ccUlsDYc.s:449    .text.get_cpu_freq:000000000000000e .L0 
C:\Users\Karzan\AppData\Local\Temp\ccUlsDYc.s:450    .text.get_cpu_freq:0000000000000010 .L0 
C:\Users\Karzan\AppData\Local\Temp\ccUlsDYc.s:452    .text.get_cpu_freq:0000000000000010 .L0 
C:\Users\Karzan\AppData\Local\Temp\ccUlsDYc.s:454    .text.get_cpu_freq:0000000000000014 .L0 
C:\Users\Karzan\AppData\Local\Temp\ccUlsDYc.s:456    .text.get_cpu_freq:0000000000000016 .L0 
C:\Users\Karzan\AppData\Local\Temp\ccUlsDYc.s:458    .text.get_cpu_freq:0000000000000016 .L0 
C:\Users\Karzan\AppData\Local\Temp\ccUlsDYc.s:460    .text.get_cpu_freq:000000000000001e .L0 
C:\Users\Karzan\AppData\Local\Temp\ccUlsDYc.s:467    .text.eclic_init:0000000000000000 eclic_init
C:\Users\Karzan\AppData\Local\Temp\ccUlsDYc.s:470    .text.eclic_init:0000000000000000 .L0 
C:\Users\Karzan\AppData\Local\Temp\ccUlsDYc.s:472    .text.eclic_init:0000000000000000 .L0 
C:\Users\Karzan\AppData\Local\Temp\ccUlsDYc.s:473    .text.eclic_init:0000000000000000 .L0 
C:\Users\Karzan\AppData\Local\Temp\ccUlsDYc.s:474    .text.eclic_init:0000000000000000 .L0 
C:\Users\Karzan\AppData\Local\Temp\ccUlsDYc.s:475    .text.eclic_init:0000000000000000 .L0 
C:\Users\Karzan\AppData\Local\Temp\ccUlsDYc.s:478    .text.eclic_init:0000000000000008 .L0 
C:\Users\Karzan\AppData\Local\Temp\ccUlsDYc.s:479    .text.eclic_init:0000000000000008 .L0 
C:\Users\Karzan\AppData\Local\Temp\ccUlsDYc.s:481    .text.eclic_init:000000000000000c .L0 
C:\Users\Karzan\AppData\Local\Temp\ccUlsDYc.s:483    .text.eclic_init:000000000000000c .L0 
GAS LISTING C:\Users\Karzan\AppData\Local\Temp\ccUlsDYc.s 			page 43


C:\Users\Karzan\AppData\Local\Temp\ccUlsDYc.s:484    .text.eclic_init:000000000000000c .L0 
C:\Users\Karzan\AppData\Local\Temp\ccUlsDYc.s:485    .text.eclic_init:000000000000000c .L0 
C:\Users\Karzan\AppData\Local\Temp\ccUlsDYc.s:488    .text.eclic_init:000000000000000e .L0 
C:\Users\Karzan\AppData\Local\Temp\ccUlsDYc.s:493    .text.eclic_init:0000000000000014 .L0 
C:\Users\Karzan\AppData\Local\Temp\ccUlsDYc.s:494    .text.eclic_init:0000000000000014 .L0 
C:\Users\Karzan\AppData\Local\Temp\ccUlsDYc.s:496    .text.eclic_init:0000000000000018 .L0 
C:\Users\Karzan\AppData\Local\Temp\ccUlsDYc.s:499    .text.eclic_init:000000000000001a .L0 
C:\Users\Karzan\AppData\Local\Temp\ccUlsDYc.s:500    .text.eclic_init:000000000000001a .L0 
C:\Users\Karzan\AppData\Local\Temp\ccUlsDYc.s:502    .text.eclic_init:000000000000001e .L0 
C:\Users\Karzan\AppData\Local\Temp\ccUlsDYc.s:505    .text.eclic_init:0000000000000022 .L0 
C:\Users\Karzan\AppData\Local\Temp\ccUlsDYc.s:512    .text.eclic_enable_interrupt:0000000000000000 eclic_enable_interrupt
C:\Users\Karzan\AppData\Local\Temp\ccUlsDYc.s:515    .text.eclic_enable_interrupt:0000000000000000 .L0 
C:\Users\Karzan\AppData\Local\Temp\ccUlsDYc.s:517    .text.eclic_enable_interrupt:0000000000000000 .L0 
C:\Users\Karzan\AppData\Local\Temp\ccUlsDYc.s:518    .text.eclic_enable_interrupt:0000000000000000 .L0 
C:\Users\Karzan\AppData\Local\Temp\ccUlsDYc.s:519    .text.eclic_enable_interrupt:0000000000000000 .L0 
C:\Users\Karzan\AppData\Local\Temp\ccUlsDYc.s:522    .text.eclic_enable_interrupt:0000000000000006 .L0 
C:\Users\Karzan\AppData\Local\Temp\ccUlsDYc.s:525    .text.eclic_enable_interrupt:0000000000000008 .L0 
C:\Users\Karzan\AppData\Local\Temp\ccUlsDYc.s:527    .text.eclic_enable_interrupt:000000000000000a .L0 
C:\Users\Karzan\AppData\Local\Temp\ccUlsDYc.s:530    .text.eclic_enable_interrupt:0000000000000010 .L0 
C:\Users\Karzan\AppData\Local\Temp\ccUlsDYc.s:531    .text.eclic_enable_interrupt:0000000000000012 .L0 
C:\Users\Karzan\AppData\Local\Temp\ccUlsDYc.s:538    .text.eclic_disable_interrupt:0000000000000000 eclic_disable_interrupt
C:\Users\Karzan\AppData\Local\Temp\ccUlsDYc.s:541    .text.eclic_disable_interrupt:0000000000000000 .L0 
C:\Users\Karzan\AppData\Local\Temp\ccUlsDYc.s:543    .text.eclic_disable_interrupt:0000000000000000 .L0 
C:\Users\Karzan\AppData\Local\Temp\ccUlsDYc.s:544    .text.eclic_disable_interrupt:0000000000000000 .L0 
C:\Users\Karzan\AppData\Local\Temp\ccUlsDYc.s:545    .text.eclic_disable_interrupt:0000000000000000 .L0 
C:\Users\Karzan\AppData\Local\Temp\ccUlsDYc.s:547    .text.eclic_disable_interrupt:0000000000000004 .L0 
C:\Users\Karzan\AppData\Local\Temp\ccUlsDYc.s:550    .text.eclic_disable_interrupt:0000000000000006 .L0 
C:\Users\Karzan\AppData\Local\Temp\ccUlsDYc.s:553    .text.eclic_disable_interrupt:000000000000000a .L0 
C:\Users\Karzan\AppData\Local\Temp\ccUlsDYc.s:555    .text.eclic_disable_interrupt:000000000000000e .L0 
C:\Users\Karzan\AppData\Local\Temp\ccUlsDYc.s:556    .text.eclic_disable_interrupt:0000000000000010 .L0 
C:\Users\Karzan\AppData\Local\Temp\ccUlsDYc.s:563    .text.eclic_set_pending:0000000000000000 eclic_set_pending
C:\Users\Karzan\AppData\Local\Temp\ccUlsDYc.s:566    .text.eclic_set_pending:0000000000000000 .L0 
C:\Users\Karzan\AppData\Local\Temp\ccUlsDYc.s:568    .text.eclic_set_pending:0000000000000000 .L0 
C:\Users\Karzan\AppData\Local\Temp\ccUlsDYc.s:569    .text.eclic_set_pending:0000000000000000 .L0 
C:\Users\Karzan\AppData\Local\Temp\ccUlsDYc.s:570    .text.eclic_set_pending:0000000000000000 .L0 
C:\Users\Karzan\AppData\Local\Temp\ccUlsDYc.s:577    .text.eclic_set_pending:000000000000000c .L0 
C:\Users\Karzan\AppData\Local\Temp\ccUlsDYc.s:580    .text.eclic_set_pending:0000000000000012 .L0 
C:\Users\Karzan\AppData\Local\Temp\ccUlsDYc.s:581    .text.eclic_set_pending:0000000000000014 .L0 
C:\Users\Karzan\AppData\Local\Temp\ccUlsDYc.s:588    .text.eclic_clear_pending:0000000000000000 eclic_clear_pending
C:\Users\Karzan\AppData\Local\Temp\ccUlsDYc.s:591    .text.eclic_clear_pending:0000000000000000 .L0 
C:\Users\Karzan\AppData\Local\Temp\ccUlsDYc.s:593    .text.eclic_clear_pending:0000000000000000 .L0 
C:\Users\Karzan\AppData\Local\Temp\ccUlsDYc.s:594    .text.eclic_clear_pending:0000000000000000 .L0 
C:\Users\Karzan\AppData\Local\Temp\ccUlsDYc.s:595    .text.eclic_clear_pending:0000000000000000 .L0 
C:\Users\Karzan\AppData\Local\Temp\ccUlsDYc.s:602    .text.eclic_clear_pending:000000000000000c .L0 
C:\Users\Karzan\AppData\Local\Temp\ccUlsDYc.s:604    .text.eclic_clear_pending:0000000000000010 .L0 
C:\Users\Karzan\AppData\Local\Temp\ccUlsDYc.s:605    .text.eclic_clear_pending:0000000000000012 .L0 
C:\Users\Karzan\AppData\Local\Temp\ccUlsDYc.s:612    .text.eclic_set_intctrl:0000000000000000 eclic_set_intctrl
C:\Users\Karzan\AppData\Local\Temp\ccUlsDYc.s:615    .text.eclic_set_intctrl:0000000000000000 .L0 
C:\Users\Karzan\AppData\Local\Temp\ccUlsDYc.s:617    .text.eclic_set_intctrl:0000000000000000 .L0 
C:\Users\Karzan\AppData\Local\Temp\ccUlsDYc.s:618    .text.eclic_set_intctrl:0000000000000000 .L0 
C:\Users\Karzan\AppData\Local\Temp\ccUlsDYc.s:619    .text.eclic_set_intctrl:0000000000000000 .L0 
C:\Users\Karzan\AppData\Local\Temp\ccUlsDYc.s:621    .text.eclic_set_intctrl:0000000000000004 .L0 
C:\Users\Karzan\AppData\Local\Temp\ccUlsDYc.s:624    .text.eclic_set_intctrl:0000000000000006 .L0 
C:\Users\Karzan\AppData\Local\Temp\ccUlsDYc.s:627    .text.eclic_set_intctrl:000000000000000a .L0 
C:\Users\Karzan\AppData\Local\Temp\ccUlsDYc.s:629    .text.eclic_set_intctrl:000000000000000e .L0 
C:\Users\Karzan\AppData\Local\Temp\ccUlsDYc.s:630    .text.eclic_set_intctrl:0000000000000010 .L0 
C:\Users\Karzan\AppData\Local\Temp\ccUlsDYc.s:637    .text.eclic_get_intctrl:0000000000000000 eclic_get_intctrl
GAS LISTING C:\Users\Karzan\AppData\Local\Temp\ccUlsDYc.s 			page 44


C:\Users\Karzan\AppData\Local\Temp\ccUlsDYc.s:640    .text.eclic_get_intctrl:0000000000000000 .L0 
C:\Users\Karzan\AppData\Local\Temp\ccUlsDYc.s:642    .text.eclic_get_intctrl:0000000000000000 .L0 
C:\Users\Karzan\AppData\Local\Temp\ccUlsDYc.s:643    .text.eclic_get_intctrl:0000000000000000 .L0 
C:\Users\Karzan\AppData\Local\Temp\ccUlsDYc.s:644    .text.eclic_get_intctrl:0000000000000000 .L0 
C:\Users\Karzan\AppData\Local\Temp\ccUlsDYc.s:647    .text.eclic_get_intctrl:0000000000000006 .L0 
C:\Users\Karzan\AppData\Local\Temp\ccUlsDYc.s:650    .text.eclic_get_intctrl:0000000000000008 .L0 
C:\Users\Karzan\AppData\Local\Temp\ccUlsDYc.s:652    .text.eclic_get_intctrl:000000000000000a .L0 
C:\Users\Karzan\AppData\Local\Temp\ccUlsDYc.s:654    .text.eclic_get_intctrl:000000000000000e .L0 
C:\Users\Karzan\AppData\Local\Temp\ccUlsDYc.s:655    .text.eclic_get_intctrl:0000000000000010 .L0 
C:\Users\Karzan\AppData\Local\Temp\ccUlsDYc.s:662    .text.eclic_set_intattr:0000000000000000 eclic_set_intattr
C:\Users\Karzan\AppData\Local\Temp\ccUlsDYc.s:665    .text.eclic_set_intattr:0000000000000000 .L0 
C:\Users\Karzan\AppData\Local\Temp\ccUlsDYc.s:667    .text.eclic_set_intattr:0000000000000000 .L0 
C:\Users\Karzan\AppData\Local\Temp\ccUlsDYc.s:668    .text.eclic_set_intattr:0000000000000000 .L0 
C:\Users\Karzan\AppData\Local\Temp\ccUlsDYc.s:669    .text.eclic_set_intattr:0000000000000000 .L0 
C:\Users\Karzan\AppData\Local\Temp\ccUlsDYc.s:671    .text.eclic_set_intattr:0000000000000004 .L0 
C:\Users\Karzan\AppData\Local\Temp\ccUlsDYc.s:674    .text.eclic_set_intattr:0000000000000006 .L0 
C:\Users\Karzan\AppData\Local\Temp\ccUlsDYc.s:677    .text.eclic_set_intattr:000000000000000a .L0 
C:\Users\Karzan\AppData\Local\Temp\ccUlsDYc.s:679    .text.eclic_set_intattr:000000000000000e .L0 
C:\Users\Karzan\AppData\Local\Temp\ccUlsDYc.s:680    .text.eclic_set_intattr:0000000000000010 .L0 
C:\Users\Karzan\AppData\Local\Temp\ccUlsDYc.s:687    .text.eclic_get_intattr:0000000000000000 eclic_get_intattr
C:\Users\Karzan\AppData\Local\Temp\ccUlsDYc.s:690    .text.eclic_get_intattr:0000000000000000 .L0 
C:\Users\Karzan\AppData\Local\Temp\ccUlsDYc.s:692    .text.eclic_get_intattr:0000000000000000 .L0 
C:\Users\Karzan\AppData\Local\Temp\ccUlsDYc.s:693    .text.eclic_get_intattr:0000000000000000 .L0 
C:\Users\Karzan\AppData\Local\Temp\ccUlsDYc.s:694    .text.eclic_get_intattr:0000000000000000 .L0 
C:\Users\Karzan\AppData\Local\Temp\ccUlsDYc.s:697    .text.eclic_get_intattr:0000000000000006 .L0 
C:\Users\Karzan\AppData\Local\Temp\ccUlsDYc.s:700    .text.eclic_get_intattr:0000000000000008 .L0 
C:\Users\Karzan\AppData\Local\Temp\ccUlsDYc.s:702    .text.eclic_get_intattr:000000000000000a .L0 
C:\Users\Karzan\AppData\Local\Temp\ccUlsDYc.s:704    .text.eclic_get_intattr:000000000000000e .L0 
C:\Users\Karzan\AppData\Local\Temp\ccUlsDYc.s:705    .text.eclic_get_intattr:0000000000000010 .L0 
C:\Users\Karzan\AppData\Local\Temp\ccUlsDYc.s:712    .text.eclic_set_cliccfg:0000000000000000 eclic_set_cliccfg
C:\Users\Karzan\AppData\Local\Temp\ccUlsDYc.s:715    .text.eclic_set_cliccfg:0000000000000000 .L0 
C:\Users\Karzan\AppData\Local\Temp\ccUlsDYc.s:717    .text.eclic_set_cliccfg:0000000000000000 .L0 
C:\Users\Karzan\AppData\Local\Temp\ccUlsDYc.s:718    .text.eclic_set_cliccfg:0000000000000000 .L0 
C:\Users\Karzan\AppData\Local\Temp\ccUlsDYc.s:719    .text.eclic_set_cliccfg:0000000000000000 .L0 
C:\Users\Karzan\AppData\Local\Temp\ccUlsDYc.s:722    .text.eclic_set_cliccfg:0000000000000008 .L0 
C:\Users\Karzan\AppData\Local\Temp\ccUlsDYc.s:723    .text.eclic_set_cliccfg:000000000000000a .L0 
C:\Users\Karzan\AppData\Local\Temp\ccUlsDYc.s:730    .text.eclic_get_cliccfg:0000000000000000 eclic_get_cliccfg
C:\Users\Karzan\AppData\Local\Temp\ccUlsDYc.s:733    .text.eclic_get_cliccfg:0000000000000000 .L0 
C:\Users\Karzan\AppData\Local\Temp\ccUlsDYc.s:734    .text.eclic_get_cliccfg:0000000000000000 .L0 
C:\Users\Karzan\AppData\Local\Temp\ccUlsDYc.s:735    .text.eclic_get_cliccfg:0000000000000000 .L0 
C:\Users\Karzan\AppData\Local\Temp\ccUlsDYc.s:736    .text.eclic_get_cliccfg:0000000000000000 .L0 
C:\Users\Karzan\AppData\Local\Temp\ccUlsDYc.s:739    .text.eclic_get_cliccfg:0000000000000008 .L0 
C:\Users\Karzan\AppData\Local\Temp\ccUlsDYc.s:740    .text.eclic_get_cliccfg:000000000000000a .L0 
C:\Users\Karzan\AppData\Local\Temp\ccUlsDYc.s:747    .text.eclic_set_mth:0000000000000000 eclic_set_mth
C:\Users\Karzan\AppData\Local\Temp\ccUlsDYc.s:750    .text.eclic_set_mth:0000000000000000 .L0 
C:\Users\Karzan\AppData\Local\Temp\ccUlsDYc.s:752    .text.eclic_set_mth:0000000000000000 .L0 
C:\Users\Karzan\AppData\Local\Temp\ccUlsDYc.s:753    .text.eclic_set_mth:0000000000000000 .L0 
C:\Users\Karzan\AppData\Local\Temp\ccUlsDYc.s:754    .text.eclic_set_mth:0000000000000000 .L0 
C:\Users\Karzan\AppData\Local\Temp\ccUlsDYc.s:757    .text.eclic_set_mth:0000000000000008 .L0 
C:\Users\Karzan\AppData\Local\Temp\ccUlsDYc.s:758    .text.eclic_set_mth:000000000000000a .L0 
C:\Users\Karzan\AppData\Local\Temp\ccUlsDYc.s:765    .text.eclic_get_mth:0000000000000000 eclic_get_mth
C:\Users\Karzan\AppData\Local\Temp\ccUlsDYc.s:768    .text.eclic_get_mth:0000000000000000 .L0 
C:\Users\Karzan\AppData\Local\Temp\ccUlsDYc.s:769    .text.eclic_get_mth:0000000000000000 .L0 
C:\Users\Karzan\AppData\Local\Temp\ccUlsDYc.s:770    .text.eclic_get_mth:0000000000000000 .L0 
C:\Users\Karzan\AppData\Local\Temp\ccUlsDYc.s:771    .text.eclic_get_mth:0000000000000000 .L0 
C:\Users\Karzan\AppData\Local\Temp\ccUlsDYc.s:774    .text.eclic_get_mth:0000000000000008 .L0 
C:\Users\Karzan\AppData\Local\Temp\ccUlsDYc.s:775    .text.eclic_get_mth:000000000000000a .L0 
GAS LISTING C:\Users\Karzan\AppData\Local\Temp\ccUlsDYc.s 			page 45


C:\Users\Karzan\AppData\Local\Temp\ccUlsDYc.s:782    .text.eclic_set_nlbits:0000000000000000 eclic_set_nlbits
C:\Users\Karzan\AppData\Local\Temp\ccUlsDYc.s:785    .text.eclic_set_nlbits:0000000000000000 .L0 
C:\Users\Karzan\AppData\Local\Temp\ccUlsDYc.s:787    .text.eclic_set_nlbits:0000000000000000 .L0 
C:\Users\Karzan\AppData\Local\Temp\ccUlsDYc.s:788    .text.eclic_set_nlbits:0000000000000000 .L0 
C:\Users\Karzan\AppData\Local\Temp\ccUlsDYc.s:791    .text.eclic_set_nlbits:0000000000000000 .L0 
C:\Users\Karzan\AppData\Local\Temp\ccUlsDYc.s:792    .text.eclic_set_nlbits:0000000000000000 .L0 
C:\Users\Karzan\AppData\Local\Temp\ccUlsDYc.s:793    .text.eclic_set_nlbits:0000000000000000 .L0 
C:\Users\Karzan\AppData\Local\Temp\ccUlsDYc.s:799    .text.eclic_set_nlbits:0000000000000008 .L0 
C:\Users\Karzan\AppData\Local\Temp\ccUlsDYc.s:800    .text.eclic_set_nlbits:0000000000000008 .L0 
C:\Users\Karzan\AppData\Local\Temp\ccUlsDYc.s:803    .text.eclic_set_nlbits:000000000000000a .L0 
C:\Users\Karzan\AppData\Local\Temp\ccUlsDYc.s:805    .text.eclic_set_nlbits:000000000000000c .L0 
C:\Users\Karzan\AppData\Local\Temp\ccUlsDYc.s:808    .text.eclic_set_nlbits:0000000000000010 .L0 
C:\Users\Karzan\AppData\Local\Temp\ccUlsDYc.s:813    .text.eclic_set_nlbits:0000000000000012 .L0 
C:\Users\Karzan\AppData\Local\Temp\ccUlsDYc.s:814    .text.eclic_set_nlbits:0000000000000012 .L0 
C:\Users\Karzan\AppData\Local\Temp\ccUlsDYc.s:815    .text.eclic_set_nlbits:0000000000000012 .L0 
C:\Users\Karzan\AppData\Local\Temp\ccUlsDYc.s:820    .text.eclic_set_nlbits:0000000000000016 .L0 
C:\Users\Karzan\AppData\Local\Temp\ccUlsDYc.s:821    .text.eclic_set_nlbits:0000000000000018 .L0 
C:\Users\Karzan\AppData\Local\Temp\ccUlsDYc.s:828    .text.eclic_get_nlbits:0000000000000000 eclic_get_nlbits
C:\Users\Karzan\AppData\Local\Temp\ccUlsDYc.s:831    .text.eclic_get_nlbits:0000000000000000 .L0 
C:\Users\Karzan\AppData\Local\Temp\ccUlsDYc.s:832    .text.eclic_get_nlbits:0000000000000000 .L0 
C:\Users\Karzan\AppData\Local\Temp\ccUlsDYc.s:835    .text.eclic_get_nlbits:0000000000000000 .L0 
C:\Users\Karzan\AppData\Local\Temp\ccUlsDYc.s:836    .text.eclic_get_nlbits:0000000000000000 .L0 
C:\Users\Karzan\AppData\Local\Temp\ccUlsDYc.s:837    .text.eclic_get_nlbits:0000000000000000 .L0 
C:\Users\Karzan\AppData\Local\Temp\ccUlsDYc.s:843    .text.eclic_get_nlbits:0000000000000008 .L0 
C:\Users\Karzan\AppData\Local\Temp\ccUlsDYc.s:844    .text.eclic_get_nlbits:0000000000000008 .L0 
C:\Users\Karzan\AppData\Local\Temp\ccUlsDYc.s:845    .text.eclic_get_nlbits:0000000000000008 .L0 
C:\Users\Karzan\AppData\Local\Temp\ccUlsDYc.s:848    .text.eclic_get_nlbits:000000000000000a .L0 
C:\Users\Karzan\AppData\Local\Temp\ccUlsDYc.s:850    .text.eclic_get_nlbits:000000000000000e .L0 
C:\Users\Karzan\AppData\Local\Temp\ccUlsDYc.s:857    .text.eclic_set_irq_lvl:0000000000000000 eclic_set_irq_lvl
C:\Users\Karzan\AppData\Local\Temp\ccUlsDYc.s:860    .text.eclic_set_irq_lvl:0000000000000000 .L0 
C:\Users\Karzan\AppData\Local\Temp\ccUlsDYc.s:862    .text.eclic_set_irq_lvl:0000000000000000 .L0 
C:\Users\Karzan\AppData\Local\Temp\ccUlsDYc.s:863    .text.eclic_set_irq_lvl:0000000000000000 .L0 
C:\Users\Karzan\AppData\Local\Temp\ccUlsDYc.s:864    .text.eclic_set_irq_lvl:0000000000000000 .L0 
C:\Users\Karzan\AppData\Local\Temp\ccUlsDYc.s:866    .text.eclic_set_irq_lvl:0000000000000002 .L0 
C:\Users\Karzan\AppData\Local\Temp\ccUlsDYc.s:870    .text.eclic_set_irq_lvl:0000000000000008 .L0 
C:\Users\Karzan\AppData\Local\Temp\ccUlsDYc.s:871    .text.eclic_set_irq_lvl:0000000000000008 .L0 
C:\Users\Karzan\AppData\Local\Temp\ccUlsDYc.s:873    .text.eclic_set_irq_lvl:0000000000000008 .L0 
C:\Users\Karzan\AppData\Local\Temp\ccUlsDYc.s:875    .text.eclic_set_irq_lvl:000000000000000a .L0 
C:\Users\Karzan\AppData\Local\Temp\ccUlsDYc.s:878    .text.eclic_set_irq_lvl:0000000000000012 .L0 
C:\Users\Karzan\AppData\Local\Temp\ccUlsDYc.s:879    .text.eclic_set_irq_lvl:0000000000000012 .L0 
C:\Users\Karzan\AppData\Local\Temp\ccUlsDYc.s:880    .text.eclic_set_irq_lvl:0000000000000012 .L0 
C:\Users\Karzan\AppData\Local\Temp\ccUlsDYc.s:891    .text.eclic_set_irq_lvl:0000000000000024 .L0 
C:\Users\Karzan\AppData\Local\Temp\ccUlsDYc.s:896    .text.eclic_set_irq_lvl:0000000000000028 .L0 
C:\Users\Karzan\AppData\Local\Temp\ccUlsDYc.s:901    .text.eclic_set_irq_lvl:000000000000002a .L0 
C:\Users\Karzan\AppData\Local\Temp\ccUlsDYc.s:902    .text.eclic_set_irq_lvl:000000000000002a .L0 
C:\Users\Karzan\AppData\Local\Temp\ccUlsDYc.s:905    .text.eclic_set_irq_lvl:000000000000002c .L0 
C:\Users\Karzan\AppData\Local\Temp\ccUlsDYc.s:910    .text.eclic_set_irq_lvl:0000000000000030 .L0 
C:\Users\Karzan\AppData\Local\Temp\ccUlsDYc.s:913    .text.eclic_set_irq_lvl:0000000000000034 .L0 
C:\Users\Karzan\AppData\Local\Temp\ccUlsDYc.s:918    .text.eclic_set_irq_lvl:0000000000000038 .L0 
C:\Users\Karzan\AppData\Local\Temp\ccUlsDYc.s:919    .text.eclic_set_irq_lvl:0000000000000038 .L0 
C:\Users\Karzan\AppData\Local\Temp\ccUlsDYc.s:920    .text.eclic_set_irq_lvl:0000000000000038 .L0 
C:\Users\Karzan\AppData\Local\Temp\ccUlsDYc.s:925    .text.eclic_set_irq_lvl:000000000000003c .L0 
C:\Users\Karzan\AppData\Local\Temp\ccUlsDYc.s:926    .text.eclic_set_irq_lvl:000000000000003c .L0 
C:\Users\Karzan\AppData\Local\Temp\ccUlsDYc.s:927    .text.eclic_set_irq_lvl:000000000000003c .L0 
C:\Users\Karzan\AppData\Local\Temp\ccUlsDYc.s:928    .text.eclic_set_irq_lvl:000000000000003c .L0 
C:\Users\Karzan\AppData\Local\Temp\ccUlsDYc.s:931    .text.eclic_set_irq_lvl:0000000000000040 .L0 
C:\Users\Karzan\AppData\Local\Temp\ccUlsDYc.s:934    .text.eclic_set_irq_lvl:0000000000000048 .L0 
GAS LISTING C:\Users\Karzan\AppData\Local\Temp\ccUlsDYc.s 			page 46


C:\Users\Karzan\AppData\Local\Temp\ccUlsDYc.s:940    .text.eclic_set_irq_lvl:000000000000004e .L0 
C:\Users\Karzan\AppData\Local\Temp\ccUlsDYc.s:941    .text.eclic_set_irq_lvl:000000000000004e .L0 
C:\Users\Karzan\AppData\Local\Temp\ccUlsDYc.s:946    .text.eclic_set_irq_lvl:0000000000000052 .L0 
C:\Users\Karzan\AppData\Local\Temp\ccUlsDYc.s:947    .text.eclic_set_irq_lvl:0000000000000054 .L0 
C:\Users\Karzan\AppData\Local\Temp\ccUlsDYc.s:949    .text.eclic_set_irq_lvl:0000000000000056 .L0 
C:\Users\Karzan\AppData\Local\Temp\ccUlsDYc.s:952    .text.eclic_set_irq_lvl:0000000000000058 .L0 
C:\Users\Karzan\AppData\Local\Temp\ccUlsDYc.s:954    .text.eclic_set_irq_lvl:000000000000005a .L0 
C:\Users\Karzan\AppData\Local\Temp\ccUlsDYc.s:961    .text.eclic_get_irq_lvl:0000000000000000 eclic_get_irq_lvl
C:\Users\Karzan\AppData\Local\Temp\ccUlsDYc.s:964    .text.eclic_get_irq_lvl:0000000000000000 .L0 
C:\Users\Karzan\AppData\Local\Temp\ccUlsDYc.s:966    .text.eclic_get_irq_lvl:0000000000000000 .L0 
C:\Users\Karzan\AppData\Local\Temp\ccUlsDYc.s:967    .text.eclic_get_irq_lvl:0000000000000000 .L0 
C:\Users\Karzan\AppData\Local\Temp\ccUlsDYc.s:968    .text.eclic_get_irq_lvl:0000000000000000 .L0 
C:\Users\Karzan\AppData\Local\Temp\ccUlsDYc.s:970    .text.eclic_get_irq_lvl:0000000000000002 .L0 
C:\Users\Karzan\AppData\Local\Temp\ccUlsDYc.s:973    .text.eclic_get_irq_lvl:0000000000000006 .L0 
C:\Users\Karzan\AppData\Local\Temp\ccUlsDYc.s:974    .text.eclic_get_irq_lvl:0000000000000006 .L0 
C:\Users\Karzan\AppData\Local\Temp\ccUlsDYc.s:976    .text.eclic_get_irq_lvl:0000000000000006 .L0 
C:\Users\Karzan\AppData\Local\Temp\ccUlsDYc.s:978    .text.eclic_get_irq_lvl:0000000000000008 .L0 
C:\Users\Karzan\AppData\Local\Temp\ccUlsDYc.s:981    .text.eclic_get_irq_lvl:0000000000000010 .L0 
C:\Users\Karzan\AppData\Local\Temp\ccUlsDYc.s:984    .text.eclic_get_irq_lvl:0000000000000010 .L0 
C:\Users\Karzan\AppData\Local\Temp\ccUlsDYc.s:985    .text.eclic_get_irq_lvl:0000000000000010 .L0 
C:\Users\Karzan\AppData\Local\Temp\ccUlsDYc.s:986    .text.eclic_get_irq_lvl:0000000000000010 .L0 
C:\Users\Karzan\AppData\Local\Temp\ccUlsDYc.s:989    .text.eclic_get_irq_lvl:0000000000000016 .L0 
C:\Users\Karzan\AppData\Local\Temp\ccUlsDYc.s:992    .text.eclic_get_irq_lvl:0000000000000018 .L0 
C:\Users\Karzan\AppData\Local\Temp\ccUlsDYc.s:994    .text.eclic_get_irq_lvl:000000000000001a .L0 
C:\Users\Karzan\AppData\Local\Temp\ccUlsDYc.s:998    .text.eclic_get_irq_lvl:000000000000001e .L0 
C:\Users\Karzan\AppData\Local\Temp\ccUlsDYc.s:1003   .text.eclic_get_irq_lvl:0000000000000022 .L0 
C:\Users\Karzan\AppData\Local\Temp\ccUlsDYc.s:1008   .text.eclic_get_irq_lvl:0000000000000026 .L0 
C:\Users\Karzan\AppData\Local\Temp\ccUlsDYc.s:1009   .text.eclic_get_irq_lvl:0000000000000026 .L0 
C:\Users\Karzan\AppData\Local\Temp\ccUlsDYc.s:1017   .text.eclic_get_irq_lvl:0000000000000032 .L0 
C:\Users\Karzan\AppData\Local\Temp\ccUlsDYc.s:1018   .text.eclic_get_irq_lvl:0000000000000032 .L0 
C:\Users\Karzan\AppData\Local\Temp\ccUlsDYc.s:1019   .text.eclic_get_irq_lvl:0000000000000032 .L0 
C:\Users\Karzan\AppData\Local\Temp\ccUlsDYc.s:1020   .text.eclic_get_irq_lvl:0000000000000034 .L0 
C:\Users\Karzan\AppData\Local\Temp\ccUlsDYc.s:1022   .text.eclic_get_irq_lvl:0000000000000036 .L0 
C:\Users\Karzan\AppData\Local\Temp\ccUlsDYc.s:1024   .text.eclic_get_irq_lvl:0000000000000036 .L0 
C:\Users\Karzan\AppData\Local\Temp\ccUlsDYc.s:1027   .text.eclic_get_irq_lvl:000000000000003a .L0 
C:\Users\Karzan\AppData\Local\Temp\ccUlsDYc.s:1029   .text.eclic_get_irq_lvl:000000000000003e .L0 
C:\Users\Karzan\AppData\Local\Temp\ccUlsDYc.s:1032   .text.eclic_get_irq_lvl:0000000000000044 .L0 
C:\Users\Karzan\AppData\Local\Temp\ccUlsDYc.s:1034   .text.eclic_get_irq_lvl:0000000000000046 .L0 
C:\Users\Karzan\AppData\Local\Temp\ccUlsDYc.s:1041   .text.eclic_set_irq_lvl_abs:0000000000000000 eclic_set_irq_lvl_abs
C:\Users\Karzan\AppData\Local\Temp\ccUlsDYc.s:1044   .text.eclic_set_irq_lvl_abs:0000000000000000 .L0 
C:\Users\Karzan\AppData\Local\Temp\ccUlsDYc.s:1046   .text.eclic_set_irq_lvl_abs:0000000000000000 .L0 
C:\Users\Karzan\AppData\Local\Temp\ccUlsDYc.s:1047   .text.eclic_set_irq_lvl_abs:0000000000000000 .L0 
C:\Users\Karzan\AppData\Local\Temp\ccUlsDYc.s:1048   .text.eclic_set_irq_lvl_abs:0000000000000000 .L0 
C:\Users\Karzan\AppData\Local\Temp\ccUlsDYc.s:1050   .text.eclic_set_irq_lvl_abs:0000000000000002 .L0 
C:\Users\Karzan\AppData\Local\Temp\ccUlsDYc.s:1054   .text.eclic_set_irq_lvl_abs:0000000000000008 .L0 
C:\Users\Karzan\AppData\Local\Temp\ccUlsDYc.s:1055   .text.eclic_set_irq_lvl_abs:0000000000000008 .L0 
C:\Users\Karzan\AppData\Local\Temp\ccUlsDYc.s:1056   .text.eclic_set_irq_lvl_abs:0000000000000008 .L0 
C:\Users\Karzan\AppData\Local\Temp\ccUlsDYc.s:1058   .text.eclic_set_irq_lvl_abs:0000000000000008 .L0 
C:\Users\Karzan\AppData\Local\Temp\ccUlsDYc.s:1061   .text.eclic_set_irq_lvl_abs:000000000000000c .L0 
C:\Users\Karzan\AppData\Local\Temp\ccUlsDYc.s:1064   .text.eclic_set_irq_lvl_abs:0000000000000014 .L0 
C:\Users\Karzan\AppData\Local\Temp\ccUlsDYc.s:1065   .text.eclic_set_irq_lvl_abs:0000000000000014 .L0 
C:\Users\Karzan\AppData\Local\Temp\ccUlsDYc.s:1066   .text.eclic_set_irq_lvl_abs:0000000000000014 .L0 
C:\Users\Karzan\AppData\Local\Temp\ccUlsDYc.s:1074   .text.eclic_set_irq_lvl_abs:000000000000001e .L0 
C:\Users\Karzan\AppData\Local\Temp\ccUlsDYc.s:1077   .text.eclic_set_irq_lvl_abs:0000000000000022 .L0 
C:\Users\Karzan\AppData\Local\Temp\ccUlsDYc.s:1080   .text.eclic_set_irq_lvl_abs:0000000000000024 .L0 
C:\Users\Karzan\AppData\Local\Temp\ccUlsDYc.s:1083   .text.eclic_set_irq_lvl_abs:0000000000000028 .L0 
C:\Users\Karzan\AppData\Local\Temp\ccUlsDYc.s:1087   .text.eclic_set_irq_lvl_abs:000000000000002c .L0 
GAS LISTING C:\Users\Karzan\AppData\Local\Temp\ccUlsDYc.s 			page 47


C:\Users\Karzan\AppData\Local\Temp\ccUlsDYc.s:1092   .text.eclic_set_irq_lvl_abs:0000000000000030 .L0 
C:\Users\Karzan\AppData\Local\Temp\ccUlsDYc.s:1095   .text.eclic_set_irq_lvl_abs:0000000000000030 .L0 
C:\Users\Karzan\AppData\Local\Temp\ccUlsDYc.s:1096   .text.eclic_set_irq_lvl_abs:0000000000000030 .L0 
C:\Users\Karzan\AppData\Local\Temp\ccUlsDYc.s:1097   .text.eclic_set_irq_lvl_abs:0000000000000030 .L0 
C:\Users\Karzan\AppData\Local\Temp\ccUlsDYc.s:1098   .text.eclic_set_irq_lvl_abs:0000000000000030 .L0 
C:\Users\Karzan\AppData\Local\Temp\ccUlsDYc.s:1099   .text.eclic_set_irq_lvl_abs:0000000000000030 .L0 
C:\Users\Karzan\AppData\Local\Temp\ccUlsDYc.s:1101   .text.eclic_set_irq_lvl_abs:0000000000000032 .L0 
C:\Users\Karzan\AppData\Local\Temp\ccUlsDYc.s:1104   .text.eclic_set_irq_lvl_abs:0000000000000036 .L0 
C:\Users\Karzan\AppData\Local\Temp\ccUlsDYc.s:1106   .text.eclic_set_irq_lvl_abs:000000000000003a .L0 
C:\Users\Karzan\AppData\Local\Temp\ccUlsDYc.s:1108   .text.eclic_set_irq_lvl_abs:000000000000003c .L0 
C:\Users\Karzan\AppData\Local\Temp\ccUlsDYc.s:1111   .text.eclic_set_irq_lvl_abs:0000000000000040 .L0 
C:\Users\Karzan\AppData\Local\Temp\ccUlsDYc.s:1113   .text.eclic_set_irq_lvl_abs:0000000000000044 .L0 
C:\Users\Karzan\AppData\Local\Temp\ccUlsDYc.s:1119   .text.eclic_set_irq_lvl_abs:000000000000004a .L0 
C:\Users\Karzan\AppData\Local\Temp\ccUlsDYc.s:1120   .text.eclic_set_irq_lvl_abs:000000000000004a .L0 
C:\Users\Karzan\AppData\Local\Temp\ccUlsDYc.s:1125   .text.eclic_set_irq_lvl_abs:000000000000004e .L0 
C:\Users\Karzan\AppData\Local\Temp\ccUlsDYc.s:1126   .text.eclic_set_irq_lvl_abs:0000000000000050 .L0 
C:\Users\Karzan\AppData\Local\Temp\ccUlsDYc.s:1128   .text.eclic_set_irq_lvl_abs:0000000000000052 .L0 
C:\Users\Karzan\AppData\Local\Temp\ccUlsDYc.s:1130   .text.eclic_set_irq_lvl_abs:0000000000000054 .L0 
C:\Users\Karzan\AppData\Local\Temp\ccUlsDYc.s:1133   .text.eclic_set_irq_lvl_abs:0000000000000056 .L0 
C:\Users\Karzan\AppData\Local\Temp\ccUlsDYc.s:1135   .text.eclic_set_irq_lvl_abs:0000000000000058 .L0 
C:\Users\Karzan\AppData\Local\Temp\ccUlsDYc.s:1142   .text.eclic_get_irq_lvl_abs:0000000000000000 eclic_get_irq_lvl_abs
C:\Users\Karzan\AppData\Local\Temp\ccUlsDYc.s:1145   .text.eclic_get_irq_lvl_abs:0000000000000000 .L0 
C:\Users\Karzan\AppData\Local\Temp\ccUlsDYc.s:1147   .text.eclic_get_irq_lvl_abs:0000000000000000 .L0 
C:\Users\Karzan\AppData\Local\Temp\ccUlsDYc.s:1148   .text.eclic_get_irq_lvl_abs:0000000000000000 .L0 
C:\Users\Karzan\AppData\Local\Temp\ccUlsDYc.s:1149   .text.eclic_get_irq_lvl_abs:0000000000000000 .L0 
C:\Users\Karzan\AppData\Local\Temp\ccUlsDYc.s:1151   .text.eclic_get_irq_lvl_abs:0000000000000002 .L0 
C:\Users\Karzan\AppData\Local\Temp\ccUlsDYc.s:1154   .text.eclic_get_irq_lvl_abs:0000000000000006 .L0 
C:\Users\Karzan\AppData\Local\Temp\ccUlsDYc.s:1155   .text.eclic_get_irq_lvl_abs:0000000000000006 .L0 
C:\Users\Karzan\AppData\Local\Temp\ccUlsDYc.s:1157   .text.eclic_get_irq_lvl_abs:0000000000000006 .L0 
C:\Users\Karzan\AppData\Local\Temp\ccUlsDYc.s:1159   .text.eclic_get_irq_lvl_abs:0000000000000008 .L0 
C:\Users\Karzan\AppData\Local\Temp\ccUlsDYc.s:1162   .text.eclic_get_irq_lvl_abs:0000000000000010 .L0 
C:\Users\Karzan\AppData\Local\Temp\ccUlsDYc.s:1165   .text.eclic_get_irq_lvl_abs:0000000000000010 .L0 
C:\Users\Karzan\AppData\Local\Temp\ccUlsDYc.s:1166   .text.eclic_get_irq_lvl_abs:0000000000000010 .L0 
C:\Users\Karzan\AppData\Local\Temp\ccUlsDYc.s:1167   .text.eclic_get_irq_lvl_abs:0000000000000010 .L0 
C:\Users\Karzan\AppData\Local\Temp\ccUlsDYc.s:1170   .text.eclic_get_irq_lvl_abs:0000000000000016 .L0 
C:\Users\Karzan\AppData\Local\Temp\ccUlsDYc.s:1173   .text.eclic_get_irq_lvl_abs:0000000000000018 .L0 
C:\Users\Karzan\AppData\Local\Temp\ccUlsDYc.s:1175   .text.eclic_get_irq_lvl_abs:000000000000001a .L0 
C:\Users\Karzan\AppData\Local\Temp\ccUlsDYc.s:1179   .text.eclic_get_irq_lvl_abs:000000000000001e .L0 
C:\Users\Karzan\AppData\Local\Temp\ccUlsDYc.s:1184   .text.eclic_get_irq_lvl_abs:0000000000000022 .L0 
C:\Users\Karzan\AppData\Local\Temp\ccUlsDYc.s:1189   .text.eclic_get_irq_lvl_abs:0000000000000026 .L0 
C:\Users\Karzan\AppData\Local\Temp\ccUlsDYc.s:1190   .text.eclic_get_irq_lvl_abs:0000000000000026 .L0 
C:\Users\Karzan\AppData\Local\Temp\ccUlsDYc.s:1191   .text.eclic_get_irq_lvl_abs:0000000000000026 .L0 
C:\Users\Karzan\AppData\Local\Temp\ccUlsDYc.s:1192   .text.eclic_get_irq_lvl_abs:0000000000000026 .L0 
C:\Users\Karzan\AppData\Local\Temp\ccUlsDYc.s:1198   .text.eclic_get_irq_lvl_abs:0000000000000030 .L0 
C:\Users\Karzan\AppData\Local\Temp\ccUlsDYc.s:1199   .text.eclic_get_irq_lvl_abs:0000000000000032 .L0 
C:\Users\Karzan\AppData\Local\Temp\ccUlsDYc.s:1201   .text.eclic_get_irq_lvl_abs:0000000000000034 .L0 
C:\Users\Karzan\AppData\Local\Temp\ccUlsDYc.s:1203   .text.eclic_get_irq_lvl_abs:0000000000000034 .L0 
C:\Users\Karzan\AppData\Local\Temp\ccUlsDYc.s:1205   .text.eclic_get_irq_lvl_abs:0000000000000038 .L0 
C:\Users\Karzan\AppData\Local\Temp\ccUlsDYc.s:1207   .text.eclic_get_irq_lvl_abs:000000000000003c .L0 
C:\Users\Karzan\AppData\Local\Temp\ccUlsDYc.s:1210   .text.eclic_get_irq_lvl_abs:0000000000000042 .L0 
C:\Users\Karzan\AppData\Local\Temp\ccUlsDYc.s:1212   .text.eclic_get_irq_lvl_abs:0000000000000044 .L0 
C:\Users\Karzan\AppData\Local\Temp\ccUlsDYc.s:1219   .text.eclic_set_irq_priority:0000000000000000 eclic_set_irq_priority
C:\Users\Karzan\AppData\Local\Temp\ccUlsDYc.s:1222   .text.eclic_set_irq_priority:0000000000000000 .L0 
C:\Users\Karzan\AppData\Local\Temp\ccUlsDYc.s:1224   .text.eclic_set_irq_priority:0000000000000000 .L0 
C:\Users\Karzan\AppData\Local\Temp\ccUlsDYc.s:1225   .text.eclic_set_irq_priority:0000000000000000 .L0 
C:\Users\Karzan\AppData\Local\Temp\ccUlsDYc.s:1226   .text.eclic_set_irq_priority:0000000000000000 .L0 
C:\Users\Karzan\AppData\Local\Temp\ccUlsDYc.s:1228   .text.eclic_set_irq_priority:0000000000000002 .L0 
GAS LISTING C:\Users\Karzan\AppData\Local\Temp\ccUlsDYc.s 			page 48


C:\Users\Karzan\AppData\Local\Temp\ccUlsDYc.s:1232   .text.eclic_set_irq_priority:0000000000000008 .L0 
C:\Users\Karzan\AppData\Local\Temp\ccUlsDYc.s:1233   .text.eclic_set_irq_priority:0000000000000008 .L0 
C:\Users\Karzan\AppData\Local\Temp\ccUlsDYc.s:1235   .text.eclic_set_irq_priority:0000000000000008 .L0 
C:\Users\Karzan\AppData\Local\Temp\ccUlsDYc.s:1237   .text.eclic_set_irq_priority:000000000000000a .L0 
C:\Users\Karzan\AppData\Local\Temp\ccUlsDYc.s:1240   .text.eclic_set_irq_priority:0000000000000012 .L0 
C:\Users\Karzan\AppData\Local\Temp\ccUlsDYc.s:1241   .text.eclic_set_irq_priority:0000000000000012 .L0 
C:\Users\Karzan\AppData\Local\Temp\ccUlsDYc.s:1243   .text.eclic_set_irq_priority:0000000000000014 .L0 
C:\Users\Karzan\AppData\Local\Temp\ccUlsDYc.s:1245   .text.eclic_set_irq_priority:0000000000000016 .L0 
C:\Users\Karzan\AppData\Local\Temp\ccUlsDYc.s:1249   .text.eclic_set_irq_priority:000000000000001a .L0 
C:\Users\Karzan\AppData\Local\Temp\ccUlsDYc.s:1250   .text.eclic_set_irq_priority:000000000000001a .L0 
C:\Users\Karzan\AppData\Local\Temp\ccUlsDYc.s:1252   .text.eclic_set_irq_priority:000000000000001e .L0 
C:\Users\Karzan\AppData\Local\Temp\ccUlsDYc.s:1255   .text.eclic_set_irq_priority:0000000000000020 .L0 
C:\Users\Karzan\AppData\Local\Temp\ccUlsDYc.s:1258   .text.eclic_set_irq_priority:0000000000000024 .L0 
C:\Users\Karzan\AppData\Local\Temp\ccUlsDYc.s:1262   .text.eclic_set_irq_priority:0000000000000028 .L0 
C:\Users\Karzan\AppData\Local\Temp\ccUlsDYc.s:1264   .text.eclic_set_irq_priority:000000000000002a .L0 
C:\Users\Karzan\AppData\Local\Temp\ccUlsDYc.s:1268   .text.eclic_set_irq_priority:0000000000000030 .L0 
C:\Users\Karzan\AppData\Local\Temp\ccUlsDYc.s:1270   .text.eclic_set_irq_priority:0000000000000032 .L0 
C:\Users\Karzan\AppData\Local\Temp\ccUlsDYc.s:1272   .text.eclic_set_irq_priority:0000000000000036 .L0 
C:\Users\Karzan\AppData\Local\Temp\ccUlsDYc.s:1277   .text.eclic_set_irq_priority:000000000000003a .L0 
C:\Users\Karzan\AppData\Local\Temp\ccUlsDYc.s:1280   .text.eclic_set_irq_priority:000000000000003a .L0 
C:\Users\Karzan\AppData\Local\Temp\ccUlsDYc.s:1281   .text.eclic_set_irq_priority:000000000000003a .L0 
C:\Users\Karzan\AppData\Local\Temp\ccUlsDYc.s:1282   .text.eclic_set_irq_priority:000000000000003a .L0 
C:\Users\Karzan\AppData\Local\Temp\ccUlsDYc.s:1283   .text.eclic_set_irq_priority:000000000000003a .L0 
C:\Users\Karzan\AppData\Local\Temp\ccUlsDYc.s:1284   .text.eclic_set_irq_priority:000000000000003a .L0 
C:\Users\Karzan\AppData\Local\Temp\ccUlsDYc.s:1286   .text.eclic_set_irq_priority:000000000000003e .L0 
C:\Users\Karzan\AppData\Local\Temp\ccUlsDYc.s:1292   .text.eclic_set_irq_priority:0000000000000044 .L0 
C:\Users\Karzan\AppData\Local\Temp\ccUlsDYc.s:1293   .text.eclic_set_irq_priority:0000000000000044 .L0 
C:\Users\Karzan\AppData\Local\Temp\ccUlsDYc.s:1299   .text.eclic_set_irq_priority:0000000000000048 .L0 
C:\Users\Karzan\AppData\Local\Temp\ccUlsDYc.s:1300   .text.eclic_set_irq_priority:0000000000000048 .L0 
C:\Users\Karzan\AppData\Local\Temp\ccUlsDYc.s:1301   .text.eclic_set_irq_priority:000000000000004a .L0 
C:\Users\Karzan\AppData\Local\Temp\ccUlsDYc.s:1303   .text.eclic_set_irq_priority:000000000000004c .L0 
C:\Users\Karzan\AppData\Local\Temp\ccUlsDYc.s:1307   .text.eclic_set_irq_priority:0000000000000050 .L0 
C:\Users\Karzan\AppData\Local\Temp\ccUlsDYc.s:1309   .text.eclic_set_irq_priority:0000000000000052 .L0 
C:\Users\Karzan\AppData\Local\Temp\ccUlsDYc.s:1316   .text.eclic_get_irq_priority:0000000000000000 eclic_get_irq_priority
C:\Users\Karzan\AppData\Local\Temp\ccUlsDYc.s:1319   .text.eclic_get_irq_priority:0000000000000000 .L0 
C:\Users\Karzan\AppData\Local\Temp\ccUlsDYc.s:1321   .text.eclic_get_irq_priority:0000000000000000 .L0 
C:\Users\Karzan\AppData\Local\Temp\ccUlsDYc.s:1322   .text.eclic_get_irq_priority:0000000000000000 .L0 
C:\Users\Karzan\AppData\Local\Temp\ccUlsDYc.s:1323   .text.eclic_get_irq_priority:0000000000000000 .L0 
C:\Users\Karzan\AppData\Local\Temp\ccUlsDYc.s:1325   .text.eclic_get_irq_priority:0000000000000002 .L0 
C:\Users\Karzan\AppData\Local\Temp\ccUlsDYc.s:1328   .text.eclic_get_irq_priority:0000000000000006 .L0 
C:\Users\Karzan\AppData\Local\Temp\ccUlsDYc.s:1329   .text.eclic_get_irq_priority:0000000000000006 .L0 
C:\Users\Karzan\AppData\Local\Temp\ccUlsDYc.s:1331   .text.eclic_get_irq_priority:0000000000000006 .L0 
C:\Users\Karzan\AppData\Local\Temp\ccUlsDYc.s:1333   .text.eclic_get_irq_priority:0000000000000008 .L0 
C:\Users\Karzan\AppData\Local\Temp\ccUlsDYc.s:1336   .text.eclic_get_irq_priority:0000000000000010 .L0 
C:\Users\Karzan\AppData\Local\Temp\ccUlsDYc.s:1339   .text.eclic_get_irq_priority:0000000000000010 .L0 
C:\Users\Karzan\AppData\Local\Temp\ccUlsDYc.s:1340   .text.eclic_get_irq_priority:0000000000000010 .L0 
C:\Users\Karzan\AppData\Local\Temp\ccUlsDYc.s:1341   .text.eclic_get_irq_priority:0000000000000010 .L0 
C:\Users\Karzan\AppData\Local\Temp\ccUlsDYc.s:1344   .text.eclic_get_irq_priority:0000000000000016 .L0 
C:\Users\Karzan\AppData\Local\Temp\ccUlsDYc.s:1347   .text.eclic_get_irq_priority:0000000000000018 .L0 
C:\Users\Karzan\AppData\Local\Temp\ccUlsDYc.s:1349   .text.eclic_get_irq_priority:000000000000001a .L0 
C:\Users\Karzan\AppData\Local\Temp\ccUlsDYc.s:1353   .text.eclic_get_irq_priority:000000000000001e .L0 
C:\Users\Karzan\AppData\Local\Temp\ccUlsDYc.s:1358   .text.eclic_get_irq_priority:0000000000000022 .L0 
C:\Users\Karzan\AppData\Local\Temp\ccUlsDYc.s:1363   .text.eclic_get_irq_priority:0000000000000026 .L0 
C:\Users\Karzan\AppData\Local\Temp\ccUlsDYc.s:1364   .text.eclic_get_irq_priority:0000000000000026 .L0 
C:\Users\Karzan\AppData\Local\Temp\ccUlsDYc.s:1370   .text.eclic_get_irq_priority:0000000000000030 .L0 
C:\Users\Karzan\AppData\Local\Temp\ccUlsDYc.s:1371   .text.eclic_get_irq_priority:0000000000000032 .L0 
C:\Users\Karzan\AppData\Local\Temp\ccUlsDYc.s:1373   .text.eclic_get_irq_priority:0000000000000034 .L0 
GAS LISTING C:\Users\Karzan\AppData\Local\Temp\ccUlsDYc.s 			page 49


C:\Users\Karzan\AppData\Local\Temp\ccUlsDYc.s:1375   .text.eclic_get_irq_priority:0000000000000034 .L0 
C:\Users\Karzan\AppData\Local\Temp\ccUlsDYc.s:1378   .text.eclic_get_irq_priority:0000000000000038 .L0 
C:\Users\Karzan\AppData\Local\Temp\ccUlsDYc.s:1379   .text.eclic_get_irq_priority:0000000000000038 .L0 
C:\Users\Karzan\AppData\Local\Temp\ccUlsDYc.s:1380   .text.eclic_get_irq_priority:0000000000000038 .L0 
C:\Users\Karzan\AppData\Local\Temp\ccUlsDYc.s:1382   .text.eclic_get_irq_priority:000000000000003c .L0 
C:\Users\Karzan\AppData\Local\Temp\ccUlsDYc.s:1385   .text.eclic_get_irq_priority:0000000000000040 .L0 
C:\Users\Karzan\AppData\Local\Temp\ccUlsDYc.s:1387   .text.eclic_get_irq_priority:0000000000000044 .L0 
C:\Users\Karzan\AppData\Local\Temp\ccUlsDYc.s:1390   .text.eclic_get_irq_priority:000000000000004a .L0 
C:\Users\Karzan\AppData\Local\Temp\ccUlsDYc.s:1392   .text.eclic_get_irq_priority:000000000000004c .L0 
C:\Users\Karzan\AppData\Local\Temp\ccUlsDYc.s:1399   .text.eclic_mode_enable:0000000000000000 eclic_mode_enable
C:\Users\Karzan\AppData\Local\Temp\ccUlsDYc.s:1402   .text.eclic_mode_enable:0000000000000000 .L0 
C:\Users\Karzan\AppData\Local\Temp\ccUlsDYc.s:1403   .text.eclic_mode_enable:0000000000000000 .L0 
C:\Users\Karzan\AppData\Local\Temp\ccUlsDYc.s:1405   .text.eclic_mode_enable:0000000000000000 .L0 
C:\Users\Karzan\AppData\Local\Temp\ccUlsDYc.s:1406   .text.eclic_mode_enable:0000000000000000 .L0 
./../../firmware/RISCV/drivers/n200_func.c:364    .text.eclic_mode_enable:0000000000000000 .L0 
C:\Users\Karzan\AppData\Local\Temp\ccUlsDYc.s:1415   .text.eclic_mode_enable:0000000000000004 .L0 
C:\Users\Karzan\AppData\Local\Temp\ccUlsDYc.s:1416   .text.eclic_mode_enable:0000000000000004 .L0 
C:\Users\Karzan\AppData\Local\Temp\ccUlsDYc.s:1417   .text.eclic_mode_enable:0000000000000004 .L0 
C:\Users\Karzan\AppData\Local\Temp\ccUlsDYc.s:1420   .text.eclic_mode_enable:0000000000000008 .L0 
C:\Users\Karzan\AppData\Local\Temp\ccUlsDYc.s:1421   .text.eclic_mode_enable:0000000000000008 .L0 
C:\Users\Karzan\AppData\Local\Temp\ccUlsDYc.s:1422   .text.eclic_mode_enable:0000000000000008 .L0 
C:\Users\Karzan\AppData\Local\Temp\ccUlsDYc.s:1423   .text.eclic_mode_enable:0000000000000008 .L0 
./../../firmware/RISCV/drivers/n200_func.c:367    .text.eclic_mode_enable:000000000000000c .L0 
C:\Users\Karzan\AppData\Local\Temp\ccUlsDYc.s:1432   .text.eclic_mode_enable:0000000000000010 .L0 
C:\Users\Karzan\AppData\Local\Temp\ccUlsDYc.s:1433   .text.eclic_mode_enable:0000000000000012 .L0 
C:\Users\Karzan\AppData\Local\Temp\ccUlsDYc.s:1440   .text.eclic_set_vmode:0000000000000000 eclic_set_vmode
C:\Users\Karzan\AppData\Local\Temp\ccUlsDYc.s:1443   .text.eclic_set_vmode:0000000000000000 .L0 
C:\Users\Karzan\AppData\Local\Temp\ccUlsDYc.s:1445   .text.eclic_set_vmode:0000000000000000 .L0 
C:\Users\Karzan\AppData\Local\Temp\ccUlsDYc.s:1448   .text.eclic_set_vmode:0000000000000000 .L0 
C:\Users\Karzan\AppData\Local\Temp\ccUlsDYc.s:1449   .text.eclic_set_vmode:0000000000000000 .L0 
C:\Users\Karzan\AppData\Local\Temp\ccUlsDYc.s:1450   .text.eclic_set_vmode:0000000000000000 .L0 
C:\Users\Karzan\AppData\Local\Temp\ccUlsDYc.s:1453   .text.eclic_set_vmode:0000000000000006 .L0 
C:\Users\Karzan\AppData\Local\Temp\ccUlsDYc.s:1456   .text.eclic_set_vmode:0000000000000008 .L0 
C:\Users\Karzan\AppData\Local\Temp\ccUlsDYc.s:1458   .text.eclic_set_vmode:000000000000000a .L0 
C:\Users\Karzan\AppData\Local\Temp\ccUlsDYc.s:1463   .text.eclic_set_vmode:000000000000000e .L0 
C:\Users\Karzan\AppData\Local\Temp\ccUlsDYc.s:1464   .text.eclic_set_vmode:000000000000000e .L0 
C:\Users\Karzan\AppData\Local\Temp\ccUlsDYc.s:1469   .text.eclic_set_vmode:0000000000000012 .L0 
C:\Users\Karzan\AppData\Local\Temp\ccUlsDYc.s:1470   .text.eclic_set_vmode:0000000000000012 .L0 
C:\Users\Karzan\AppData\Local\Temp\ccUlsDYc.s:1471   .text.eclic_set_vmode:0000000000000012 .L0 
C:\Users\Karzan\AppData\Local\Temp\ccUlsDYc.s:1476   .text.eclic_set_vmode:0000000000000016 .L0 
C:\Users\Karzan\AppData\Local\Temp\ccUlsDYc.s:1477   .text.eclic_set_vmode:0000000000000018 .L0 
C:\Users\Karzan\AppData\Local\Temp\ccUlsDYc.s:1484   .text.eclic_set_nonvmode:0000000000000000 eclic_set_nonvmode
C:\Users\Karzan\AppData\Local\Temp\ccUlsDYc.s:1487   .text.eclic_set_nonvmode:0000000000000000 .L0 
C:\Users\Karzan\AppData\Local\Temp\ccUlsDYc.s:1489   .text.eclic_set_nonvmode:0000000000000000 .L0 
C:\Users\Karzan\AppData\Local\Temp\ccUlsDYc.s:1492   .text.eclic_set_nonvmode:0000000000000000 .L0 
C:\Users\Karzan\AppData\Local\Temp\ccUlsDYc.s:1493   .text.eclic_set_nonvmode:0000000000000000 .L0 
C:\Users\Karzan\AppData\Local\Temp\ccUlsDYc.s:1494   .text.eclic_set_nonvmode:0000000000000000 .L0 
C:\Users\Karzan\AppData\Local\Temp\ccUlsDYc.s:1497   .text.eclic_set_nonvmode:0000000000000006 .L0 
C:\Users\Karzan\AppData\Local\Temp\ccUlsDYc.s:1500   .text.eclic_set_nonvmode:0000000000000008 .L0 
C:\Users\Karzan\AppData\Local\Temp\ccUlsDYc.s:1502   .text.eclic_set_nonvmode:000000000000000a .L0 
C:\Users\Karzan\AppData\Local\Temp\ccUlsDYc.s:1507   .text.eclic_set_nonvmode:000000000000000e .L0 
C:\Users\Karzan\AppData\Local\Temp\ccUlsDYc.s:1508   .text.eclic_set_nonvmode:000000000000000e .L0 
C:\Users\Karzan\AppData\Local\Temp\ccUlsDYc.s:1513   .text.eclic_set_nonvmode:0000000000000012 .L0 
C:\Users\Karzan\AppData\Local\Temp\ccUlsDYc.s:1514   .text.eclic_set_nonvmode:0000000000000012 .L0 
C:\Users\Karzan\AppData\Local\Temp\ccUlsDYc.s:1515   .text.eclic_set_nonvmode:0000000000000012 .L0 
C:\Users\Karzan\AppData\Local\Temp\ccUlsDYc.s:1520   .text.eclic_set_nonvmode:0000000000000016 .L0 
C:\Users\Karzan\AppData\Local\Temp\ccUlsDYc.s:1521   .text.eclic_set_nonvmode:0000000000000018 .L0 
GAS LISTING C:\Users\Karzan\AppData\Local\Temp\ccUlsDYc.s 			page 50


C:\Users\Karzan\AppData\Local\Temp\ccUlsDYc.s:1528   .text.eclic_set_level_trig:0000000000000000 eclic_set_level_trig
C:\Users\Karzan\AppData\Local\Temp\ccUlsDYc.s:1531   .text.eclic_set_level_trig:0000000000000000 .L0 
C:\Users\Karzan\AppData\Local\Temp\ccUlsDYc.s:1533   .text.eclic_set_level_trig:0000000000000000 .L0 
C:\Users\Karzan\AppData\Local\Temp\ccUlsDYc.s:1536   .text.eclic_set_level_trig:0000000000000000 .L0 
C:\Users\Karzan\AppData\Local\Temp\ccUlsDYc.s:1537   .text.eclic_set_level_trig:0000000000000000 .L0 
C:\Users\Karzan\AppData\Local\Temp\ccUlsDYc.s:1538   .text.eclic_set_level_trig:0000000000000000 .L0 
C:\Users\Karzan\AppData\Local\Temp\ccUlsDYc.s:1541   .text.eclic_set_level_trig:0000000000000006 .L0 
C:\Users\Karzan\AppData\Local\Temp\ccUlsDYc.s:1544   .text.eclic_set_level_trig:0000000000000008 .L0 
C:\Users\Karzan\AppData\Local\Temp\ccUlsDYc.s:1546   .text.eclic_set_level_trig:000000000000000a .L0 
C:\Users\Karzan\AppData\Local\Temp\ccUlsDYc.s:1551   .text.eclic_set_level_trig:000000000000000e .L0 
C:\Users\Karzan\AppData\Local\Temp\ccUlsDYc.s:1552   .text.eclic_set_level_trig:000000000000000e .L0 
C:\Users\Karzan\AppData\Local\Temp\ccUlsDYc.s:1557   .text.eclic_set_level_trig:0000000000000012 .L0 
C:\Users\Karzan\AppData\Local\Temp\ccUlsDYc.s:1558   .text.eclic_set_level_trig:0000000000000012 .L0 
C:\Users\Karzan\AppData\Local\Temp\ccUlsDYc.s:1559   .text.eclic_set_level_trig:0000000000000012 .L0 
C:\Users\Karzan\AppData\Local\Temp\ccUlsDYc.s:1564   .text.eclic_set_level_trig:0000000000000016 .L0 
C:\Users\Karzan\AppData\Local\Temp\ccUlsDYc.s:1565   .text.eclic_set_level_trig:0000000000000018 .L0 
C:\Users\Karzan\AppData\Local\Temp\ccUlsDYc.s:1572   .text.eclic_set_posedge_trig:0000000000000000 eclic_set_posedge_trig
C:\Users\Karzan\AppData\Local\Temp\ccUlsDYc.s:1575   .text.eclic_set_posedge_trig:0000000000000000 .L0 
C:\Users\Karzan\AppData\Local\Temp\ccUlsDYc.s:1577   .text.eclic_set_posedge_trig:0000000000000000 .L0 
C:\Users\Karzan\AppData\Local\Temp\ccUlsDYc.s:1580   .text.eclic_set_posedge_trig:0000000000000000 .L0 
C:\Users\Karzan\AppData\Local\Temp\ccUlsDYc.s:1581   .text.eclic_set_posedge_trig:0000000000000000 .L0 
C:\Users\Karzan\AppData\Local\Temp\ccUlsDYc.s:1582   .text.eclic_set_posedge_trig:0000000000000000 .L0 
C:\Users\Karzan\AppData\Local\Temp\ccUlsDYc.s:1585   .text.eclic_set_posedge_trig:0000000000000006 .L0 
C:\Users\Karzan\AppData\Local\Temp\ccUlsDYc.s:1588   .text.eclic_set_posedge_trig:0000000000000008 .L0 
C:\Users\Karzan\AppData\Local\Temp\ccUlsDYc.s:1590   .text.eclic_set_posedge_trig:000000000000000a .L0 
C:\Users\Karzan\AppData\Local\Temp\ccUlsDYc.s:1595   .text.eclic_set_posedge_trig:000000000000000e .L0 
C:\Users\Karzan\AppData\Local\Temp\ccUlsDYc.s:1596   .text.eclic_set_posedge_trig:000000000000000e .L0 
C:\Users\Karzan\AppData\Local\Temp\ccUlsDYc.s:1597   .text.eclic_set_posedge_trig:000000000000000e .L0 
C:\Users\Karzan\AppData\Local\Temp\ccUlsDYc.s:1602   .text.eclic_set_posedge_trig:0000000000000012 .L0 
C:\Users\Karzan\AppData\Local\Temp\ccUlsDYc.s:1603   .text.eclic_set_posedge_trig:0000000000000012 .L0 
C:\Users\Karzan\AppData\Local\Temp\ccUlsDYc.s:1604   .text.eclic_set_posedge_trig:0000000000000012 .L0 
C:\Users\Karzan\AppData\Local\Temp\ccUlsDYc.s:1609   .text.eclic_set_posedge_trig:0000000000000016 .L0 
C:\Users\Karzan\AppData\Local\Temp\ccUlsDYc.s:1610   .text.eclic_set_posedge_trig:0000000000000018 .L0 
C:\Users\Karzan\AppData\Local\Temp\ccUlsDYc.s:1617   .text.eclic_set_negedge_trig:0000000000000000 eclic_set_negedge_trig
C:\Users\Karzan\AppData\Local\Temp\ccUlsDYc.s:1620   .text.eclic_set_negedge_trig:0000000000000000 .L0 
C:\Users\Karzan\AppData\Local\Temp\ccUlsDYc.s:1622   .text.eclic_set_negedge_trig:0000000000000000 .L0 
C:\Users\Karzan\AppData\Local\Temp\ccUlsDYc.s:1625   .text.eclic_set_negedge_trig:0000000000000000 .L0 
C:\Users\Karzan\AppData\Local\Temp\ccUlsDYc.s:1626   .text.eclic_set_negedge_trig:0000000000000000 .L0 
C:\Users\Karzan\AppData\Local\Temp\ccUlsDYc.s:1627   .text.eclic_set_negedge_trig:0000000000000000 .L0 
C:\Users\Karzan\AppData\Local\Temp\ccUlsDYc.s:1630   .text.eclic_set_negedge_trig:0000000000000006 .L0 
C:\Users\Karzan\AppData\Local\Temp\ccUlsDYc.s:1633   .text.eclic_set_negedge_trig:0000000000000008 .L0 
C:\Users\Karzan\AppData\Local\Temp\ccUlsDYc.s:1635   .text.eclic_set_negedge_trig:000000000000000a .L0 
C:\Users\Karzan\AppData\Local\Temp\ccUlsDYc.s:1640   .text.eclic_set_negedge_trig:000000000000000e .L0 
C:\Users\Karzan\AppData\Local\Temp\ccUlsDYc.s:1641   .text.eclic_set_negedge_trig:000000000000000e .L0 
C:\Users\Karzan\AppData\Local\Temp\ccUlsDYc.s:1642   .text.eclic_set_negedge_trig:000000000000000e .L0 
C:\Users\Karzan\AppData\Local\Temp\ccUlsDYc.s:1647   .text.eclic_set_negedge_trig:0000000000000012 .L0 
C:\Users\Karzan\AppData\Local\Temp\ccUlsDYc.s:1648   .text.eclic_set_negedge_trig:0000000000000012 .L0 
C:\Users\Karzan\AppData\Local\Temp\ccUlsDYc.s:1649   .text.eclic_set_negedge_trig:0000000000000012 .L0 
C:\Users\Karzan\AppData\Local\Temp\ccUlsDYc.s:1654   .text.eclic_set_negedge_trig:0000000000000016 .L0 
C:\Users\Karzan\AppData\Local\Temp\ccUlsDYc.s:1655   .text.eclic_set_negedge_trig:0000000000000018 .L0 
C:\Users\Karzan\AppData\Local\Temp\ccUlsDYc.s:41     .text.pmp_open_all_space:0000000000000012 .L0 
C:\Users\Karzan\AppData\Local\Temp\ccUlsDYc.s:87     .text.switch_m2u_mode:000000000000001c .L0 
C:\Users\Karzan\AppData\Local\Temp\ccUlsDYc.s:104    .text.mtime_lo:0000000000000008 .L0 
C:\Users\Karzan\AppData\Local\Temp\ccUlsDYc.s:121    .text.mtime_hi:0000000000000008 .L0 
C:\Users\Karzan\AppData\Local\Temp\ccUlsDYc.s:174    .text.get_timer_value:0000000000000010 .L0 
C:\Users\Karzan\AppData\Local\Temp\ccUlsDYc.s:192    .text.get_timer_freq:000000000000000c .L0 
C:\Users\Karzan\AppData\Local\Temp\ccUlsDYc.s:247    .text.get_instret_value:0000000000000012 .L0 
GAS LISTING C:\Users\Karzan\AppData\Local\Temp\ccUlsDYc.s 			page 51


C:\Users\Karzan\AppData\Local\Temp\ccUlsDYc.s:302    .text.get_cycle_value:0000000000000012 .L0 
C:\Users\Karzan\AppData\Local\Temp\ccUlsDYc.s:425    .text.measure_cpu_freq:0000000000000050 .L0 
C:\Users\Karzan\AppData\Local\Temp\ccUlsDYc.s:463    .text.get_cpu_freq:000000000000001e .L0 
C:\Users\Karzan\AppData\Local\Temp\ccUlsDYc.s:508    .text.eclic_init:0000000000000022 .L0 
C:\Users\Karzan\AppData\Local\Temp\ccUlsDYc.s:534    .text.eclic_enable_interrupt:0000000000000012 .L0 
C:\Users\Karzan\AppData\Local\Temp\ccUlsDYc.s:559    .text.eclic_disable_interrupt:0000000000000010 .L0 
C:\Users\Karzan\AppData\Local\Temp\ccUlsDYc.s:584    .text.eclic_set_pending:0000000000000014 .L0 
C:\Users\Karzan\AppData\Local\Temp\ccUlsDYc.s:608    .text.eclic_clear_pending:0000000000000012 .L0 
C:\Users\Karzan\AppData\Local\Temp\ccUlsDYc.s:633    .text.eclic_set_intctrl:0000000000000010 .L0 
C:\Users\Karzan\AppData\Local\Temp\ccUlsDYc.s:658    .text.eclic_get_intctrl:0000000000000010 .L0 
C:\Users\Karzan\AppData\Local\Temp\ccUlsDYc.s:683    .text.eclic_set_intattr:0000000000000010 .L0 
C:\Users\Karzan\AppData\Local\Temp\ccUlsDYc.s:708    .text.eclic_get_intattr:0000000000000010 .L0 
C:\Users\Karzan\AppData\Local\Temp\ccUlsDYc.s:726    .text.eclic_set_cliccfg:000000000000000a .L0 
C:\Users\Karzan\AppData\Local\Temp\ccUlsDYc.s:743    .text.eclic_get_cliccfg:000000000000000a .L0 
C:\Users\Karzan\AppData\Local\Temp\ccUlsDYc.s:761    .text.eclic_set_mth:000000000000000a .L0 
C:\Users\Karzan\AppData\Local\Temp\ccUlsDYc.s:778    .text.eclic_get_mth:000000000000000a .L0 
C:\Users\Karzan\AppData\Local\Temp\ccUlsDYc.s:824    .text.eclic_set_nlbits:0000000000000018 .L0 
C:\Users\Karzan\AppData\Local\Temp\ccUlsDYc.s:853    .text.eclic_get_nlbits:000000000000000e .L0 
C:\Users\Karzan\AppData\Local\Temp\ccUlsDYc.s:957    .text.eclic_set_irq_lvl:000000000000005a .L0 
C:\Users\Karzan\AppData\Local\Temp\ccUlsDYc.s:1037   .text.eclic_get_irq_lvl:0000000000000046 .L0 
C:\Users\Karzan\AppData\Local\Temp\ccUlsDYc.s:1138   .text.eclic_set_irq_lvl_abs:0000000000000058 .L0 
C:\Users\Karzan\AppData\Local\Temp\ccUlsDYc.s:1215   .text.eclic_get_irq_lvl_abs:0000000000000044 .L0 
C:\Users\Karzan\AppData\Local\Temp\ccUlsDYc.s:1312   .text.eclic_set_irq_priority:0000000000000052 .L0 
C:\Users\Karzan\AppData\Local\Temp\ccUlsDYc.s:1395   .text.eclic_get_irq_priority:000000000000004c .L0 
C:\Users\Karzan\AppData\Local\Temp\ccUlsDYc.s:1436   .text.eclic_mode_enable:0000000000000012 .L0 
C:\Users\Karzan\AppData\Local\Temp\ccUlsDYc.s:1480   .text.eclic_set_vmode:0000000000000018 .L0 
C:\Users\Karzan\AppData\Local\Temp\ccUlsDYc.s:1524   .text.eclic_set_nonvmode:0000000000000018 .L0 
C:\Users\Karzan\AppData\Local\Temp\ccUlsDYc.s:1568   .text.eclic_set_level_trig:0000000000000018 .L0 
C:\Users\Karzan\AppData\Local\Temp\ccUlsDYc.s:1613   .text.eclic_set_posedge_trig:0000000000000018 .L0 
C:\Users\Karzan\AppData\Local\Temp\ccUlsDYc.s:1658   .text.eclic_set_negedge_trig:0000000000000018 .L0 
                     .debug_frame:0000000000000000 .L0 
./../../firmware/RISCV/drivers/n200_func.c:39     .text.switch_m2u_mode:000000000000001a .L11
./../../firmware/RISCV/drivers/n200_func.c:35     .text.switch_m2u_mode:000000000000000a .L0 
C:\Users\Karzan\AppData\Local\Temp\ccUlsDYc.s:134    .text.get_timer_value:0000000000000004 .L6
C:\Users\Karzan\AppData\Local\Temp\ccUlsDYc.s:200    .text.get_instret_value:0000000000000000 .L10
C:\Users\Karzan\AppData\Local\Temp\ccUlsDYc.s:255    .text.get_cycle_value:0000000000000000 .L13
C:\Users\Karzan\AppData\Local\Temp\ccUlsDYc.s:342    .text.measure_cpu_freq:0000000000000016 .L16
C:\Users\Karzan\AppData\Local\Temp\ccUlsDYc.s:374    .text.measure_cpu_freq:0000000000000024 .L17
C:\Users\Karzan\AppData\Local\Temp\ccUlsDYc.s:497    .text.eclic_init:000000000000001a .L24
C:\Users\Karzan\AppData\Local\Temp\ccUlsDYc.s:492    .text.eclic_init:0000000000000014 .L23
C:\Users\Karzan\AppData\Local\Temp\ccUlsDYc.s:885    .text.eclic_set_irq_lvl:000000000000001e .L40
C:\Users\Karzan\AppData\Local\Temp\ccUlsDYc.s:1011   .text.eclic_get_irq_lvl:000000000000002e .L44
C:\Users\Karzan\AppData\Local\Temp\ccUlsDYc.s:1070   .text.eclic_set_irq_lvl_abs:000000000000001e .L48
C:\Users\Karzan\AppData\Local\Temp\ccUlsDYc.s:1194   .text.eclic_get_irq_lvl_abs:000000000000002e .L52
C:\Users\Karzan\AppData\Local\Temp\ccUlsDYc.s:1298   .text.eclic_set_irq_priority:0000000000000048 .L56
C:\Users\Karzan\AppData\Local\Temp\ccUlsDYc.s:1366   .text.eclic_get_irq_priority:000000000000002c .L60
C:\Users\Karzan\AppData\Local\Temp\ccUlsDYc.s:4810   .debug_abbrev:0000000000000000 .Ldebug_abbrev0
C:\Users\Karzan\AppData\Local\Temp\ccUlsDYc.s:7778   .debug_str:000000000000079a .LASF195
C:\Users\Karzan\AppData\Local\Temp\ccUlsDYc.s:7682   .debug_str:0000000000000537 .LASF196
C:\Users\Karzan\AppData\Local\Temp\ccUlsDYc.s:7684   .debug_str:0000000000000562 .LASF197
C:\Users\Karzan\AppData\Local\Temp\ccUlsDYc.s:7296   .debug_ranges:0000000000000000 .Ldebug_ranges0
C:\Users\Karzan\AppData\Local\Temp\ccUlsDYc.s:7442   .debug_line:0000000000000000 .Ldebug_line0
C:\Users\Karzan\AppData\Local\Temp\ccUlsDYc.s:7758   .debug_str:000000000000071d .LASF0
C:\Users\Karzan\AppData\Local\Temp\ccUlsDYc.s:7496   .debug_str:0000000000000131 .LASF1
C:\Users\Karzan\AppData\Local\Temp\ccUlsDYc.s:7462   .debug_str:0000000000000063 .LASF6
C:\Users\Karzan\AppData\Local\Temp\ccUlsDYc.s:7686   .debug_str:00000000000005c8 .LASF2
C:\Users\Karzan\AppData\Local\Temp\ccUlsDYc.s:7446   .debug_str:000000000000000c .LASF3
GAS LISTING C:\Users\Karzan\AppData\Local\Temp\ccUlsDYc.s 			page 52


C:\Users\Karzan\AppData\Local\Temp\ccUlsDYc.s:7782   .debug_str:000000000000082b .LASF4
C:\Users\Karzan\AppData\Local\Temp\ccUlsDYc.s:7514   .debug_str:0000000000000188 .LASF5
C:\Users\Karzan\AppData\Local\Temp\ccUlsDYc.s:7554   .debug_str:0000000000000288 .LASF7
C:\Users\Karzan\AppData\Local\Temp\ccUlsDYc.s:7586   .debug_str:0000000000000326 .LASF8
C:\Users\Karzan\AppData\Local\Temp\ccUlsDYc.s:7532   .debug_str:00000000000001f7 .LASF9
C:\Users\Karzan\AppData\Local\Temp\ccUlsDYc.s:7672   .debug_str:00000000000004f6 .LASF10
C:\Users\Karzan\AppData\Local\Temp\ccUlsDYc.s:7474   .debug_str:00000000000000b1 .LASF11
C:\Users\Karzan\AppData\Local\Temp\ccUlsDYc.s:7766   .debug_str:000000000000075a .LASF12
C:\Users\Karzan\AppData\Local\Temp\ccUlsDYc.s:7800   .debug_str:000000000000089e .LASF13
C:\Users\Karzan\AppData\Local\Temp\ccUlsDYc.s:7458   .debug_str:000000000000004d .LASF14
C:\Users\Karzan\AppData\Local\Temp\ccUlsDYc.s:7578   .debug_str:00000000000002f4 .LASF125
C:\Users\Karzan\AppData\Local\Temp\ccUlsDYc.s:7450   .debug_str:000000000000001e .LASF15
C:\Users\Karzan\AppData\Local\Temp\ccUlsDYc.s:7748   .debug_str:00000000000006f6 .LASF16
C:\Users\Karzan\AppData\Local\Temp\ccUlsDYc.s:7670   .debug_str:00000000000004ef .LASF17
C:\Users\Karzan\AppData\Local\Temp\ccUlsDYc.s:7492   .debug_str:0000000000000123 .LASF18
C:\Users\Karzan\AppData\Local\Temp\ccUlsDYc.s:7746   .debug_str:00000000000006ee .LASF19
C:\Users\Karzan\AppData\Local\Temp\ccUlsDYc.s:7810   .debug_str:00000000000008e1 .LASF20
C:\Users\Karzan\AppData\Local\Temp\ccUlsDYc.s:7616   .debug_str:00000000000003df .LASF21
C:\Users\Karzan\AppData\Local\Temp\ccUlsDYc.s:7576   .debug_str:00000000000002ed .LASF22
C:\Users\Karzan\AppData\Local\Temp\ccUlsDYc.s:7640   .debug_str:0000000000000456 .LASF23
C:\Users\Karzan\AppData\Local\Temp\ccUlsDYc.s:7738   .debug_str:00000000000006c0 .LASF24
C:\Users\Karzan\AppData\Local\Temp\ccUlsDYc.s:7704   .debug_str:0000000000000614 .LASF25
C:\Users\Karzan\AppData\Local\Temp\ccUlsDYc.s:7790   .debug_str:000000000000086d .LASF26
C:\Users\Karzan\AppData\Local\Temp\ccUlsDYc.s:7676   .debug_str:000000000000050b .LASF27
C:\Users\Karzan\AppData\Local\Temp\ccUlsDYc.s:7692   .debug_str:00000000000005e5 .LASF28
C:\Users\Karzan\AppData\Local\Temp\ccUlsDYc.s:7568   .debug_str:00000000000002c8 .LASF33
C:\Users\Karzan\AppData\Local\Temp\ccUlsDYc.s:7770   .debug_str:000000000000076d .LASF29
C:\Users\Karzan\AppData\Local\Temp\ccUlsDYc.s:7728   .debug_str:0000000000000695 .LASF30
C:\Users\Karzan\AppData\Local\Temp\ccUlsDYc.s:7556   .debug_str:0000000000000293 .LASF31
C:\Users\Karzan\AppData\Local\Temp\ccUlsDYc.s:7806   .debug_str:00000000000008cc .LASF32
C:\Users\Karzan\AppData\Local\Temp\ccUlsDYc.s:7574   .debug_str:00000000000002e8 .LASF34
C:\Users\Karzan\AppData\Local\Temp\ccUlsDYc.s:7490   .debug_str:000000000000011a .LASF35
C:\Users\Karzan\AppData\Local\Temp\ccUlsDYc.s:7832   .debug_str:000000000000096e .LASF36
C:\Users\Karzan\AppData\Local\Temp\ccUlsDYc.s:7502   .debug_str:0000000000000149 .LASF37
C:\Users\Karzan\AppData\Local\Temp\ccUlsDYc.s:7844   .debug_str:00000000000009a3 .LASF38
C:\Users\Karzan\AppData\Local\Temp\ccUlsDYc.s:7658   .debug_str:00000000000004ac .LASF39
C:\Users\Karzan\AppData\Local\Temp\ccUlsDYc.s:7638   .debug_str:000000000000044c .LASF40
C:\Users\Karzan\AppData\Local\Temp\ccUlsDYc.s:7742   .debug_str:00000000000006ce .LASF41
C:\Users\Karzan\AppData\Local\Temp\ccUlsDYc.s:7694   .debug_str:00000000000005ee .LASF42
C:\Users\Karzan\AppData\Local\Temp\ccUlsDYc.s:7828   .debug_str:0000000000000954 .LASF43
C:\Users\Karzan\AppData\Local\Temp\ccUlsDYc.s:7506   .debug_str:0000000000000158 .LASF44
C:\Users\Karzan\AppData\Local\Temp\ccUlsDYc.s:7448   .debug_str:0000000000000016 .LASF45
C:\Users\Karzan\AppData\Local\Temp\ccUlsDYc.s:7444   .debug_str:0000000000000000 .LASF46
C:\Users\Karzan\AppData\Local\Temp\ccUlsDYc.s:7780   .debug_str:0000000000000822 .LASF47
C:\Users\Karzan\AppData\Local\Temp\ccUlsDYc.s:7520   .debug_str:00000000000001a4 .LASF48
C:\Users\Karzan\AppData\Local\Temp\ccUlsDYc.s:7660   .debug_str:00000000000004b5 .LASF49
C:\Users\Karzan\AppData\Local\Temp\ccUlsDYc.s:7718   .debug_str:0000000000000654 .LASF50
C:\Users\Karzan\AppData\Local\Temp\ccUlsDYc.s:7552   .debug_str:0000000000000283 .LASF51
C:\Users\Karzan\AppData\Local\Temp\ccUlsDYc.s:7696   .debug_str:00000000000005f8 .LASF52
C:\Users\Karzan\AppData\Local\Temp\ccUlsDYc.s:7500   .debug_str:0000000000000143 .LASF53
C:\Users\Karzan\AppData\Local\Temp\ccUlsDYc.s:7756   .debug_str:0000000000000717 .LASF54
C:\Users\Karzan\AppData\Local\Temp\ccUlsDYc.s:7708   .debug_str:0000000000000626 .LASF55
C:\Users\Karzan\AppData\Local\Temp\ccUlsDYc.s:7518   .debug_str:000000000000019d .LASF56
C:\Users\Karzan\AppData\Local\Temp\ccUlsDYc.s:7588   .debug_str:0000000000000338 .LASF57
C:\Users\Karzan\AppData\Local\Temp\ccUlsDYc.s:7842   .debug_str:000000000000099a .LASF58
C:\Users\Karzan\AppData\Local\Temp\ccUlsDYc.s:7508   .debug_str:0000000000000166 .LASF59
C:\Users\Karzan\AppData\Local\Temp\ccUlsDYc.s:7570   .debug_str:00000000000002d0 .LASF60
GAS LISTING C:\Users\Karzan\AppData\Local\Temp\ccUlsDYc.s 			page 53


C:\Users\Karzan\AppData\Local\Temp\ccUlsDYc.s:7636   .debug_str:0000000000000445 .LASF61
C:\Users\Karzan\AppData\Local\Temp\ccUlsDYc.s:7740   .debug_str:00000000000006c8 .LASF62
C:\Users\Karzan\AppData\Local\Temp\ccUlsDYc.s:7494   .debug_str:000000000000012a .LASF63
C:\Users\Karzan\AppData\Local\Temp\ccUlsDYc.s:7498   .debug_str:000000000000013d .LASF64
C:\Users\Karzan\AppData\Local\Temp\ccUlsDYc.s:7820   .debug_str:000000000000091d .LASF65
C:\Users\Karzan\AppData\Local\Temp\ccUlsDYc.s:7754   .debug_str:000000000000070e .LASF66
C:\Users\Karzan\AppData\Local\Temp\ccUlsDYc.s:7542   .debug_str:0000000000000234 .LASF67
C:\Users\Karzan\AppData\Local\Temp\ccUlsDYc.s:7700   .debug_str:0000000000000607 .LASF68
C:\Users\Karzan\AppData\Local\Temp\ccUlsDYc.s:7628   .debug_str:000000000000041e .LASF69
C:\Users\Karzan\AppData\Local\Temp\ccUlsDYc.s:7710   .debug_str:000000000000062e .LASF70
C:\Users\Karzan\AppData\Local\Temp\ccUlsDYc.s:7698   .debug_str:00000000000005ff .LASF71
C:\Users\Karzan\AppData\Local\Temp\ccUlsDYc.s:7730   .debug_str:000000000000069d .LASF72
C:\Users\Karzan\AppData\Local\Temp\ccUlsDYc.s:7750   .debug_str:0000000000000702 .LASF73
C:\Users\Karzan\AppData\Local\Temp\ccUlsDYc.s:7522   .debug_str:00000000000001ac .LASF74
C:\Users\Karzan\AppData\Local\Temp\ccUlsDYc.s:7580   .debug_str:0000000000000304 .LASF75
C:\Users\Karzan\AppData\Local\Temp\ccUlsDYc.s:7566   .debug_str:00000000000002c0 .LASF76
C:\Users\Karzan\AppData\Local\Temp\ccUlsDYc.s:7716   .debug_str:000000000000064f .LASF77
C:\Users\Karzan\AppData\Local\Temp\ccUlsDYc.s:7768   .debug_str:0000000000000762 .LASF78
C:\Users\Karzan\AppData\Local\Temp\ccUlsDYc.s:7726   .debug_str:000000000000067c .LASF79
C:\Users\Karzan\AppData\Local\Temp\ccUlsDYc.s:7722   .debug_str:000000000000066a .LASF80
C:\Users\Karzan\AppData\Local\Temp\ccUlsDYc.s:7664   .debug_str:00000000000004c4 .LASF81
C:\Users\Karzan\AppData\Local\Temp\ccUlsDYc.s:7724   .debug_str:0000000000000672 .LASF82
C:\Users\Karzan\AppData\Local\Temp\ccUlsDYc.s:7614   .debug_str:00000000000003d7 .LASF83
C:\Users\Karzan\AppData\Local\Temp\ccUlsDYc.s:7526   .debug_str:00000000000001c5 .LASF84
C:\Users\Karzan\AppData\Local\Temp\ccUlsDYc.s:7840   .debug_str:0000000000000995 .LASF85
C:\Users\Karzan\AppData\Local\Temp\ccUlsDYc.s:7674   .debug_str:0000000000000501 .LASF86
C:\Users\Karzan\AppData\Local\Temp\ccUlsDYc.s:7584   .debug_str:000000000000031e .LASF87
C:\Users\Karzan\AppData\Local\Temp\ccUlsDYc.s:7540   .debug_str:000000000000022c .LASF88
C:\Users\Karzan\AppData\Local\Temp\ccUlsDYc.s:7624   .debug_str:0000000000000409 .LASF89
C:\Users\Karzan\AppData\Local\Temp\ccUlsDYc.s:7466   .debug_str:000000000000007c .LASF90
C:\Users\Karzan\AppData\Local\Temp\ccUlsDYc.s:7814   .debug_str:00000000000008f4 .LASF91
C:\Users\Karzan\AppData\Local\Temp\ccUlsDYc.s:7512   .debug_str:0000000000000180 .LASF92
C:\Users\Karzan\AppData\Local\Temp\ccUlsDYc.s:7504   .debug_str:0000000000000153 .LASF93
C:\Users\Karzan\AppData\Local\Temp\ccUlsDYc.s:7752   .debug_str:0000000000000709 .LASF94
C:\Users\Karzan\AppData\Local\Temp\ccUlsDYc.s:7702   .debug_str:000000000000060d .LASF95
C:\Users\Karzan\AppData\Local\Temp\ccUlsDYc.s:7598   .debug_str:0000000000000374 .LASF96
C:\Users\Karzan\AppData\Local\Temp\ccUlsDYc.s:7594   .debug_str:000000000000035d .LASF97
C:\Users\Karzan\AppData\Local\Temp\ccUlsDYc.s:7688   .debug_str:00000000000005d6 .LASF98
C:\Users\Karzan\AppData\Local\Temp\ccUlsDYc.s:7452   .debug_str:0000000000000025 .LASF99
C:\Users\Karzan\AppData\Local\Temp\ccUlsDYc.s:7732   .debug_str:00000000000006a4 .LASF100
C:\Users\Karzan\AppData\Local\Temp\ccUlsDYc.s:7630   .debug_str:0000000000000424 .LASF101
C:\Users\Karzan\AppData\Local\Temp\ccUlsDYc.s:7792   .debug_str:0000000000000875 .LASF102
C:\Users\Karzan\AppData\Local\Temp\ccUlsDYc.s:7802   .debug_str:00000000000008a7 .LASF103
C:\Users\Karzan\AppData\Local\Temp\ccUlsDYc.s:7774   .debug_str:0000000000000781 .LASF104
C:\Users\Karzan\AppData\Local\Temp\ccUlsDYc.s:7610   .debug_str:00000000000003c2 .LASF105
C:\Users\Karzan\AppData\Local\Temp\ccUlsDYc.s:7830   .debug_str:000000000000095f .LASF106
C:\Users\Karzan\AppData\Local\Temp\ccUlsDYc.s:7666   .debug_str:00000000000004cf .LASF107
C:\Users\Karzan\AppData\Local\Temp\ccUlsDYc.s:7712   .debug_str:0000000000000637 .LASF108
C:\Users\Karzan\AppData\Local\Temp\ccUlsDYc.s:7834   .debug_str:0000000000000977 .LASF109
C:\Users\Karzan\AppData\Local\Temp\ccUlsDYc.s:7714   .debug_str:0000000000000642 .LASF110
C:\Users\Karzan\AppData\Local\Temp\ccUlsDYc.s:7838   .debug_str:0000000000000987 .LASF111
C:\Users\Karzan\AppData\Local\Temp\ccUlsDYc.s:7488   .debug_str:000000000000010c .LASF112
C:\Users\Karzan\AppData\Local\Temp\ccUlsDYc.s:7812   .debug_str:00000000000008ea .LASF113
C:\Users\Karzan\AppData\Local\Temp\ccUlsDYc.s:7608   .debug_str:00000000000003b6 .LASF114
C:\Users\Karzan\AppData\Local\Temp\ccUlsDYc.s:7558   .debug_str:0000000000000299 .LASF115
C:\Users\Karzan\AppData\Local\Temp\ccUlsDYc.s:7548   .debug_str:000000000000025f .LASF116
C:\Users\Karzan\AppData\Local\Temp\ccUlsDYc.s:7484   .debug_str:00000000000000f6 .LASF117
GAS LISTING C:\Users\Karzan\AppData\Local\Temp\ccUlsDYc.s 			page 54


C:\Users\Karzan\AppData\Local\Temp\ccUlsDYc.s:7546   .debug_str:000000000000024e .LASF118
C:\Users\Karzan\AppData\Local\Temp\ccUlsDYc.s:7470   .debug_str:0000000000000091 .LASF119
C:\Users\Karzan\AppData\Local\Temp\ccUlsDYc.s:7472   .debug_str:00000000000000a0 .LASF120
C:\Users\Karzan\AppData\Local\Temp\ccUlsDYc.s:7690   .debug_str:00000000000005dc .LASF121
C:\Users\Karzan\AppData\Local\Temp\ccUlsDYc.s:7654   .debug_str:0000000000000495 .LASF122
C:\Users\Karzan\AppData\Local\Temp\ccUlsDYc.s:7646   .debug_str:0000000000000474 .LASF123
C:\Users\Karzan\AppData\Local\Temp\ccUlsDYc.s:7822   .debug_str:0000000000000923 .LASF124
C:\Users\Karzan\AppData\Local\Temp\ccUlsDYc.s:7482   .debug_str:00000000000000eb .LASF198
C:\Users\Karzan\AppData\Local\Temp\ccUlsDYc.s:7564   .debug_str:00000000000002b4 .LASF126
C:\Users\Karzan\AppData\Local\Temp\ccUlsDYc.s:7798   .debug_str:000000000000088b .LASF127
C:\Users\Karzan\AppData\Local\Temp\ccUlsDYc.s:7650   .debug_str:0000000000000484 .LASF128
C:\Users\Karzan\AppData\Local\Temp\ccUlsDYc.s:7622   .debug_str:0000000000000401 .LASF129
C:\Users\Karzan\AppData\Local\Temp\ccUlsDYc.s:7600   .debug_str:000000000000037a .LASF130
C:\Users\Karzan\AppData\Local\Temp\ccUlsDYc.s:7652   .debug_str:000000000000048e .LASF131
C:\Users\Karzan\AppData\Local\Temp\ccUlsDYc.s:7486   .debug_str:0000000000000105 .LASF132
C:\Users\Karzan\AppData\Local\Temp\ccUlsDYc.s:7662   .debug_str:00000000000004bd .LASF133
C:\Users\Karzan\AppData\Local\Temp\ccUlsDYc.s:7634   .debug_str:000000000000043c .LASF134
C:\Users\Karzan\AppData\Local\Temp\ccUlsDYc.s:7824   .debug_str:000000000000092b .LASF137
C:\Users\Karzan\AppData\Local\Temp\ccUlsDYc.s:1618   .text.eclic_set_negedge_trig:0000000000000000 .LFB42
C:\Users\Karzan\AppData\Local\Temp\ccUlsDYc.s:1656   .text.eclic_set_negedge_trig:0000000000000018 .LFE42
C:\Users\Karzan\AppData\Local\Temp\ccUlsDYc.s:7648   .debug_str:000000000000047d .LASF139
C:\Users\Karzan\AppData\Local\Temp\ccUlsDYc.s:6035   .debug_loc:0000000000000000 .LLST77
C:\Users\Karzan\AppData\Local\Temp\ccUlsDYc.s:7604   .debug_str:0000000000000393 .LASF135
C:\Users\Karzan\AppData\Local\Temp\ccUlsDYc.s:6049   .debug_loc:0000000000000021 .LLST78
C:\Users\Karzan\AppData\Local\Temp\ccUlsDYc.s:7678   .debug_str:000000000000051d .LASF136
C:\Users\Karzan\AppData\Local\Temp\ccUlsDYc.s:6056   .debug_loc:0000000000000034 .LLST79
C:\Users\Karzan\AppData\Local\Temp\ccUlsDYc.s:1623   .text.eclic_set_negedge_trig:0000000000000000 .LBB153
C:\Users\Karzan\AppData\Local\Temp\ccUlsDYc.s:1638   .text.eclic_set_negedge_trig:000000000000000e .LBE153
C:\Users\Karzan\AppData\Local\Temp\ccUlsDYc.s:1645   .text.eclic_set_negedge_trig:0000000000000012 .LBB155
C:\Users\Karzan\AppData\Local\Temp\ccUlsDYc.s:1652   .text.eclic_set_negedge_trig:0000000000000016 .LBE155
C:\Users\Karzan\AppData\Local\Temp\ccUlsDYc.s:6071   .debug_loc:0000000000000056 .LLST80
C:\Users\Karzan\AppData\Local\Temp\ccUlsDYc.s:6078   .debug_loc:0000000000000069 .LLST81
C:\Users\Karzan\AppData\Local\Temp\ccUlsDYc.s:7764   .debug_str:0000000000000743 .LASF138
C:\Users\Karzan\AppData\Local\Temp\ccUlsDYc.s:1573   .text.eclic_set_posedge_trig:0000000000000000 .LFB41
C:\Users\Karzan\AppData\Local\Temp\ccUlsDYc.s:1611   .text.eclic_set_posedge_trig:0000000000000018 .LFE41
C:\Users\Karzan\AppData\Local\Temp\ccUlsDYc.s:6088   .debug_loc:000000000000007f .LLST72
C:\Users\Karzan\AppData\Local\Temp\ccUlsDYc.s:6102   .debug_loc:00000000000000a0 .LLST73
C:\Users\Karzan\AppData\Local\Temp\ccUlsDYc.s:6109   .debug_loc:00000000000000b3 .LLST74
C:\Users\Karzan\AppData\Local\Temp\ccUlsDYc.s:1578   .text.eclic_set_posedge_trig:0000000000000000 .LBB149
C:\Users\Karzan\AppData\Local\Temp\ccUlsDYc.s:1593   .text.eclic_set_posedge_trig:000000000000000e .LBE149
C:\Users\Karzan\AppData\Local\Temp\ccUlsDYc.s:1600   .text.eclic_set_posedge_trig:0000000000000012 .LBB151
C:\Users\Karzan\AppData\Local\Temp\ccUlsDYc.s:1607   .text.eclic_set_posedge_trig:0000000000000016 .LBE151
C:\Users\Karzan\AppData\Local\Temp\ccUlsDYc.s:6124   .debug_loc:00000000000000d5 .LLST75
C:\Users\Karzan\AppData\Local\Temp\ccUlsDYc.s:6131   .debug_loc:00000000000000e8 .LLST76
C:\Users\Karzan\AppData\Local\Temp\ccUlsDYc.s:7528   .debug_str:00000000000001cf .LASF140
C:\Users\Karzan\AppData\Local\Temp\ccUlsDYc.s:1529   .text.eclic_set_level_trig:0000000000000000 .LFB40
C:\Users\Karzan\AppData\Local\Temp\ccUlsDYc.s:1566   .text.eclic_set_level_trig:0000000000000018 .LFE40
C:\Users\Karzan\AppData\Local\Temp\ccUlsDYc.s:6141   .debug_loc:00000000000000fe .LLST68
C:\Users\Karzan\AppData\Local\Temp\ccUlsDYc.s:6155   .debug_loc:000000000000011f .LLST69
C:\Users\Karzan\AppData\Local\Temp\ccUlsDYc.s:1534   .text.eclic_set_level_trig:0000000000000000 .LBB145
C:\Users\Karzan\AppData\Local\Temp\ccUlsDYc.s:1549   .text.eclic_set_level_trig:000000000000000e .LBE145
C:\Users\Karzan\AppData\Local\Temp\ccUlsDYc.s:1555   .text.eclic_set_level_trig:0000000000000012 .LBB147
C:\Users\Karzan\AppData\Local\Temp\ccUlsDYc.s:1562   .text.eclic_set_level_trig:0000000000000016 .LBE147
C:\Users\Karzan\AppData\Local\Temp\ccUlsDYc.s:6162   .debug_loc:0000000000000132 .LLST70
C:\Users\Karzan\AppData\Local\Temp\ccUlsDYc.s:6169   .debug_loc:0000000000000145 .LLST71
C:\Users\Karzan\AppData\Local\Temp\ccUlsDYc.s:7618   .debug_str:00000000000003e5 .LASF141
C:\Users\Karzan\AppData\Local\Temp\ccUlsDYc.s:1485   .text.eclic_set_nonvmode:0000000000000000 .LFB39
GAS LISTING C:\Users\Karzan\AppData\Local\Temp\ccUlsDYc.s 			page 55


C:\Users\Karzan\AppData\Local\Temp\ccUlsDYc.s:1522   .text.eclic_set_nonvmode:0000000000000018 .LFE39
C:\Users\Karzan\AppData\Local\Temp\ccUlsDYc.s:6179   .debug_loc:000000000000015b .LLST64
C:\Users\Karzan\AppData\Local\Temp\ccUlsDYc.s:6193   .debug_loc:000000000000017c .LLST65
C:\Users\Karzan\AppData\Local\Temp\ccUlsDYc.s:1490   .text.eclic_set_nonvmode:0000000000000000 .LBB141
C:\Users\Karzan\AppData\Local\Temp\ccUlsDYc.s:1505   .text.eclic_set_nonvmode:000000000000000e .LBE141
C:\Users\Karzan\AppData\Local\Temp\ccUlsDYc.s:1511   .text.eclic_set_nonvmode:0000000000000012 .LBB143
C:\Users\Karzan\AppData\Local\Temp\ccUlsDYc.s:1518   .text.eclic_set_nonvmode:0000000000000016 .LBE143
C:\Users\Karzan\AppData\Local\Temp\ccUlsDYc.s:6200   .debug_loc:000000000000018f .LLST66
C:\Users\Karzan\AppData\Local\Temp\ccUlsDYc.s:6207   .debug_loc:00000000000001a2 .LLST67
C:\Users\Karzan\AppData\Local\Temp\ccUlsDYc.s:7656   .debug_str:000000000000049c .LASF142
C:\Users\Karzan\AppData\Local\Temp\ccUlsDYc.s:1441   .text.eclic_set_vmode:0000000000000000 .LFB38
C:\Users\Karzan\AppData\Local\Temp\ccUlsDYc.s:1478   .text.eclic_set_vmode:0000000000000018 .LFE38
C:\Users\Karzan\AppData\Local\Temp\ccUlsDYc.s:6217   .debug_loc:00000000000001b8 .LLST60
C:\Users\Karzan\AppData\Local\Temp\ccUlsDYc.s:6231   .debug_loc:00000000000001d9 .LLST61
C:\Users\Karzan\AppData\Local\Temp\ccUlsDYc.s:1446   .text.eclic_set_vmode:0000000000000000 .LBB137
C:\Users\Karzan\AppData\Local\Temp\ccUlsDYc.s:1461   .text.eclic_set_vmode:000000000000000e .LBE137
C:\Users\Karzan\AppData\Local\Temp\ccUlsDYc.s:1467   .text.eclic_set_vmode:0000000000000012 .LBB139
C:\Users\Karzan\AppData\Local\Temp\ccUlsDYc.s:1474   .text.eclic_set_vmode:0000000000000016 .LBE139
C:\Users\Karzan\AppData\Local\Temp\ccUlsDYc.s:6238   .debug_loc:00000000000001ec .LLST62
C:\Users\Karzan\AppData\Local\Temp\ccUlsDYc.s:6245   .debug_loc:00000000000001ff .LLST63
C:\Users\Karzan\AppData\Local\Temp\ccUlsDYc.s:7510   .debug_str:000000000000016e .LASF143
C:\Users\Karzan\AppData\Local\Temp\ccUlsDYc.s:1400   .text.eclic_mode_enable:0000000000000000 .LFB37
C:\Users\Karzan\AppData\Local\Temp\ccUlsDYc.s:1434   .text.eclic_mode_enable:0000000000000012 .LFE37
C:\Users\Karzan\AppData\Local\Temp\ccUlsDYc.s:7644   .debug_str:0000000000000468 .LASF144
C:\Users\Karzan\AppData\Local\Temp\ccUlsDYc.s:6255   .debug_loc:0000000000000215 .LLST58
C:\Users\Karzan\AppData\Local\Temp\ccUlsDYc.s:1404   .text.eclic_mode_enable:0000000000000000 .LBB136
C:\Users\Karzan\AppData\Local\Temp\ccUlsDYc.s:1414   .text.eclic_mode_enable:0000000000000004 .LBE136
C:\Users\Karzan\AppData\Local\Temp\ccUlsDYc.s:7562   .debug_str:00000000000002ae .LASF145
C:\Users\Karzan\AppData\Local\Temp\ccUlsDYc.s:6274   .debug_loc:0000000000000242 .LLST59
C:\Users\Karzan\AppData\Local\Temp\ccUlsDYc.s:7818   .debug_str:0000000000000906 .LASF149
C:\Users\Karzan\AppData\Local\Temp\ccUlsDYc.s:1317   .text.eclic_get_irq_priority:0000000000000000 .LFB36
C:\Users\Karzan\AppData\Local\Temp\ccUlsDYc.s:1393   .text.eclic_get_irq_priority:000000000000004c .LFE36
C:\Users\Karzan\AppData\Local\Temp\ccUlsDYc.s:6281   .debug_loc:0000000000000255 .LLST52
C:\Users\Karzan\AppData\Local\Temp\ccUlsDYc.s:6299   .debug_loc:0000000000000281 .LLST53
C:\Users\Karzan\AppData\Local\Temp\ccUlsDYc.s:7706   .debug_str:000000000000061f .LASF146
C:\Users\Karzan\AppData\Local\Temp\ccUlsDYc.s:6317   .debug_loc:00000000000002ad .LLST54
C:\Users\Karzan\AppData\Local\Temp\ccUlsDYc.s:7816   .debug_str:00000000000008fe .LASF147
C:\Users\Karzan\AppData\Local\Temp\ccUlsDYc.s:6341   .debug_loc:00000000000002d2 .LLST55
C:\Users\Karzan\AppData\Local\Temp\ccUlsDYc.s:7620   .debug_str:00000000000003f8 .LASF148
C:\Users\Karzan\AppData\Local\Temp\ccUlsDYc.s:6360   .debug_loc:00000000000002f8 .LLST56
C:\Users\Karzan\AppData\Local\Temp\ccUlsDYc.s:1337   .text.eclic_get_irq_priority:0000000000000010 .LBB132
C:\Users\Karzan\AppData\Local\Temp\ccUlsDYc.s:6381   .debug_loc:0000000000000319 .LLST57
C:\Users\Karzan\AppData\Local\Temp\ccUlsDYc.s:1334   .text.eclic_get_irq_priority:0000000000000010 .LVL95
C:\Users\Karzan\AppData\Local\Temp\ccUlsDYc.s:7606   .debug_str:000000000000039f .LASF150
C:\Users\Karzan\AppData\Local\Temp\ccUlsDYc.s:1220   .text.eclic_set_irq_priority:0000000000000000 .LFB35
C:\Users\Karzan\AppData\Local\Temp\ccUlsDYc.s:1310   .text.eclic_set_irq_priority:0000000000000052 .LFE35
C:\Users\Karzan\AppData\Local\Temp\ccUlsDYc.s:6395   .debug_loc:000000000000033a .LLST46
C:\Users\Karzan\AppData\Local\Temp\ccUlsDYc.s:6413   .debug_loc:0000000000000366 .LLST47
C:\Users\Karzan\AppData\Local\Temp\ccUlsDYc.s:6431   .debug_loc:0000000000000392 .LLST48
C:\Users\Karzan\AppData\Local\Temp\ccUlsDYc.s:6449   .debug_loc:00000000000003be .LLST49
C:\Users\Karzan\AppData\Local\Temp\ccUlsDYc.s:7596   .debug_str:0000000000000364 .LASF154
C:\Users\Karzan\AppData\Local\Temp\ccUlsDYc.s:1247   .text.eclic_set_irq_priority:000000000000001a .LBB126
C:\Users\Karzan\AppData\Local\Temp\ccUlsDYc.s:1289   .text.eclic_set_irq_priority:0000000000000044 .LBB130
C:\Users\Karzan\AppData\Local\Temp\ccUlsDYc.s:1296   .text.eclic_set_irq_priority:0000000000000048 .LBE130
C:\Users\Karzan\AppData\Local\Temp\ccUlsDYc.s:6456   .debug_loc:00000000000003d1 .LLST50
C:\Users\Karzan\AppData\Local\Temp\ccUlsDYc.s:6463   .debug_loc:00000000000003e4 .LLST51
C:\Users\Karzan\AppData\Local\Temp\ccUlsDYc.s:1238   .text.eclic_set_irq_priority:0000000000000012 .LVL88
GAS LISTING C:\Users\Karzan\AppData\Local\Temp\ccUlsDYc.s 			page 56


C:\Users\Karzan\AppData\Local\Temp\ccUlsDYc.s:7550   .debug_str:000000000000026d .LASF151
C:\Users\Karzan\AppData\Local\Temp\ccUlsDYc.s:1143   .text.eclic_get_irq_lvl_abs:0000000000000000 .LFB34
C:\Users\Karzan\AppData\Local\Temp\ccUlsDYc.s:1213   .text.eclic_get_irq_lvl_abs:0000000000000044 .LFE34
C:\Users\Karzan\AppData\Local\Temp\ccUlsDYc.s:6473   .debug_loc:00000000000003fa .LLST40
C:\Users\Karzan\AppData\Local\Temp\ccUlsDYc.s:6491   .debug_loc:0000000000000426 .LLST41
C:\Users\Karzan\AppData\Local\Temp\ccUlsDYc.s:6509   .debug_loc:0000000000000452 .LLST42
C:\Users\Karzan\AppData\Local\Temp\ccUlsDYc.s:6533   .debug_loc:0000000000000477 .LLST43
C:\Users\Karzan\AppData\Local\Temp\ccUlsDYc.s:7476   .debug_str:00000000000000c8 .LASF152
C:\Users\Karzan\AppData\Local\Temp\ccUlsDYc.s:1163   .text.eclic_get_irq_lvl_abs:0000000000000010 .LBB122
C:\Users\Karzan\AppData\Local\Temp\ccUlsDYc.s:6568   .debug_loc:00000000000004a7 .LLST45
C:\Users\Karzan\AppData\Local\Temp\ccUlsDYc.s:1160   .text.eclic_get_irq_lvl_abs:0000000000000010 .LVL83
C:\Users\Karzan\AppData\Local\Temp\ccUlsDYc.s:7744   .debug_str:00000000000006d8 .LASF153
C:\Users\Karzan\AppData\Local\Temp\ccUlsDYc.s:1042   .text.eclic_set_irq_lvl_abs:0000000000000000 .LFB33
C:\Users\Karzan\AppData\Local\Temp\ccUlsDYc.s:1136   .text.eclic_set_irq_lvl_abs:0000000000000058 .LFE33
C:\Users\Karzan\AppData\Local\Temp\ccUlsDYc.s:6582   .debug_loc:00000000000004c8 .LLST32
C:\Users\Karzan\AppData\Local\Temp\ccUlsDYc.s:6600   .debug_loc:00000000000004f4 .LLST33
C:\Users\Karzan\AppData\Local\Temp\ccUlsDYc.s:6618   .debug_loc:0000000000000520 .LLST34
C:\Users\Karzan\AppData\Local\Temp\ccUlsDYc.s:6632   .debug_loc:0000000000000541 .LLST35
C:\Users\Karzan\AppData\Local\Temp\ccUlsDYc.s:6656   .debug_loc:0000000000000566 .LLST36
C:\Users\Karzan\AppData\Local\Temp\ccUlsDYc.s:6673   .debug_loc:0000000000000583 .LLST37
C:\Users\Karzan\AppData\Local\Temp\ccUlsDYc.s:1071   .text.eclic_set_irq_lvl_abs:000000000000001e .LBB116
C:\Users\Karzan\AppData\Local\Temp\ccUlsDYc.s:1116   .text.eclic_set_irq_lvl_abs:000000000000004a .LBB120
C:\Users\Karzan\AppData\Local\Temp\ccUlsDYc.s:1123   .text.eclic_set_irq_lvl_abs:000000000000004e .LBE120
C:\Users\Karzan\AppData\Local\Temp\ccUlsDYc.s:6694   .debug_loc:00000000000005a4 .LLST38
C:\Users\Karzan\AppData\Local\Temp\ccUlsDYc.s:6701   .debug_loc:00000000000005b7 .LLST39
C:\Users\Karzan\AppData\Local\Temp\ccUlsDYc.s:1062   .text.eclic_set_irq_lvl_abs:0000000000000014 .LVL74
C:\Users\Karzan\AppData\Local\Temp\ccUlsDYc.s:7826   .debug_str:0000000000000942 .LASF155
C:\Users\Karzan\AppData\Local\Temp\ccUlsDYc.s:962    .text.eclic_get_irq_lvl:0000000000000000 .LFB32
C:\Users\Karzan\AppData\Local\Temp\ccUlsDYc.s:1035   .text.eclic_get_irq_lvl:0000000000000046 .LFE32
C:\Users\Karzan\AppData\Local\Temp\ccUlsDYc.s:6711   .debug_loc:00000000000005cd .LLST26
C:\Users\Karzan\AppData\Local\Temp\ccUlsDYc.s:6729   .debug_loc:00000000000005f9 .LLST27
C:\Users\Karzan\AppData\Local\Temp\ccUlsDYc.s:6747   .debug_loc:0000000000000625 .LLST28
C:\Users\Karzan\AppData\Local\Temp\ccUlsDYc.s:6771   .debug_loc:000000000000064a .LLST29
C:\Users\Karzan\AppData\Local\Temp\ccUlsDYc.s:6790   .debug_loc:0000000000000670 .LLST30
C:\Users\Karzan\AppData\Local\Temp\ccUlsDYc.s:982    .text.eclic_get_irq_lvl:0000000000000010 .LBB112
C:\Users\Karzan\AppData\Local\Temp\ccUlsDYc.s:6808   .debug_loc:000000000000068e .LLST31
C:\Users\Karzan\AppData\Local\Temp\ccUlsDYc.s:979    .text.eclic_get_irq_lvl:0000000000000010 .LVL67
C:\Users\Karzan\AppData\Local\Temp\ccUlsDYc.s:7524   .debug_str:00000000000001b3 .LASF156
C:\Users\Karzan\AppData\Local\Temp\ccUlsDYc.s:858    .text.eclic_set_irq_lvl:0000000000000000 .LFB31
C:\Users\Karzan\AppData\Local\Temp\ccUlsDYc.s:955    .text.eclic_set_irq_lvl:000000000000005a .LFE31
C:\Users\Karzan\AppData\Local\Temp\ccUlsDYc.s:6822   .debug_loc:00000000000006af .LLST19
C:\Users\Karzan\AppData\Local\Temp\ccUlsDYc.s:6840   .debug_loc:00000000000006db .LLST20
C:\Users\Karzan\AppData\Local\Temp\ccUlsDYc.s:6858   .debug_loc:0000000000000707 .LLST21
C:\Users\Karzan\AppData\Local\Temp\ccUlsDYc.s:6888   .debug_loc:0000000000000746 .LLST22
C:\Users\Karzan\AppData\Local\Temp\ccUlsDYc.s:6912   .debug_loc:000000000000076b .LLST23
C:\Users\Karzan\AppData\Local\Temp\ccUlsDYc.s:888    .text.eclic_set_irq_lvl:0000000000000024 .LBB104
C:\Users\Karzan\AppData\Local\Temp\ccUlsDYc.s:937    .text.eclic_set_irq_lvl:000000000000004e .LBB110
C:\Users\Karzan\AppData\Local\Temp\ccUlsDYc.s:944    .text.eclic_set_irq_lvl:0000000000000052 .LBE110
C:\Users\Karzan\AppData\Local\Temp\ccUlsDYc.s:6933   .debug_loc:000000000000078c .LLST24
C:\Users\Karzan\AppData\Local\Temp\ccUlsDYc.s:6940   .debug_loc:000000000000079f .LLST25
C:\Users\Karzan\AppData\Local\Temp\ccUlsDYc.s:876    .text.eclic_set_irq_lvl:0000000000000012 .LVL56
C:\Users\Karzan\AppData\Local\Temp\ccUlsDYc.s:7784   .debug_str:000000000000083e .LASF157
C:\Users\Karzan\AppData\Local\Temp\ccUlsDYc.s:829    .text.eclic_get_nlbits:0000000000000000 .LFB30
C:\Users\Karzan\AppData\Local\Temp\ccUlsDYc.s:851    .text.eclic_get_nlbits:000000000000000e .LFE30
C:\Users\Karzan\AppData\Local\Temp\ccUlsDYc.s:6950   .debug_loc:00000000000007b5 .LLST18
C:\Users\Karzan\AppData\Local\Temp\ccUlsDYc.s:833    .text.eclic_get_nlbits:0000000000000000 .LBB102
C:\Users\Karzan\AppData\Local\Temp\ccUlsDYc.s:841    .text.eclic_get_nlbits:0000000000000008 .LBE102
GAS LISTING C:\Users\Karzan\AppData\Local\Temp\ccUlsDYc.s 			page 57


C:\Users\Karzan\AppData\Local\Temp\ccUlsDYc.s:7668   .debug_str:00000000000004de .LASF158
C:\Users\Karzan\AppData\Local\Temp\ccUlsDYc.s:783    .text.eclic_set_nlbits:0000000000000000 .LFB29
C:\Users\Karzan\AppData\Local\Temp\ccUlsDYc.s:822    .text.eclic_set_nlbits:0000000000000018 .LFE29
C:\Users\Karzan\AppData\Local\Temp\ccUlsDYc.s:6963   .debug_loc:00000000000007ce .LLST14
C:\Users\Karzan\AppData\Local\Temp\ccUlsDYc.s:7464   .debug_str:000000000000006d .LASF159
C:\Users\Karzan\AppData\Local\Temp\ccUlsDYc.s:6977   .debug_loc:00000000000007ef .LLST15
C:\Users\Karzan\AppData\Local\Temp\ccUlsDYc.s:7788   .debug_str:0000000000000861 .LASF160
C:\Users\Karzan\AppData\Local\Temp\ccUlsDYc.s:6997   .debug_loc:0000000000000816 .LLST16
C:\Users\Karzan\AppData\Local\Temp\ccUlsDYc.s:7516   .debug_str:0000000000000191 .LASF161
C:\Users\Karzan\AppData\Local\Temp\ccUlsDYc.s:789    .text.eclic_set_nlbits:0000000000000000 .LBB98
C:\Users\Karzan\AppData\Local\Temp\ccUlsDYc.s:797    .text.eclic_set_nlbits:0000000000000008 .LBE98
C:\Users\Karzan\AppData\Local\Temp\ccUlsDYc.s:811    .text.eclic_set_nlbits:0000000000000012 .LBB100
C:\Users\Karzan\AppData\Local\Temp\ccUlsDYc.s:818    .text.eclic_set_nlbits:0000000000000016 .LBE100
C:\Users\Karzan\AppData\Local\Temp\ccUlsDYc.s:7004   .debug_loc:0000000000000829 .LLST17
C:\Users\Karzan\AppData\Local\Temp\ccUlsDYc.s:7680   .debug_str:0000000000000529 .LASF199
C:\Users\Karzan\AppData\Local\Temp\ccUlsDYc.s:766    .text.eclic_get_mth:0000000000000000 .LFB28
C:\Users\Karzan\AppData\Local\Temp\ccUlsDYc.s:776    .text.eclic_get_mth:000000000000000a .LFE28
C:\Users\Karzan\AppData\Local\Temp\ccUlsDYc.s:7772   .debug_str:0000000000000773 .LASF162
C:\Users\Karzan\AppData\Local\Temp\ccUlsDYc.s:748    .text.eclic_set_mth:0000000000000000 .LFB27
C:\Users\Karzan\AppData\Local\Temp\ccUlsDYc.s:759    .text.eclic_set_mth:000000000000000a .LFE27
C:\Users\Karzan\AppData\Local\Temp\ccUlsDYc.s:7544   .debug_str:000000000000023c .LASF189
C:\Users\Karzan\AppData\Local\Temp\ccUlsDYc.s:7786   .debug_str:000000000000084f .LASF164
C:\Users\Karzan\AppData\Local\Temp\ccUlsDYc.s:7794   .debug_str:000000000000087a .LASF163
C:\Users\Karzan\AppData\Local\Temp\ccUlsDYc.s:7632   .debug_str:000000000000042a .LASF167
C:\Users\Karzan\AppData\Local\Temp\ccUlsDYc.s:7602   .debug_str:0000000000000381 .LASF165
C:\Users\Karzan\AppData\Local\Temp\ccUlsDYc.s:7612   .debug_str:00000000000003cf .LASF166
C:\Users\Karzan\AppData\Local\Temp\ccUlsDYc.s:7572   .debug_str:00000000000002d6 .LASF168
C:\Users\Karzan\AppData\Local\Temp\ccUlsDYc.s:7538   .debug_str:000000000000021a .LASF169
C:\Users\Karzan\AppData\Local\Temp\ccUlsDYc.s:7760   .debug_str:000000000000072a .LASF170
C:\Users\Karzan\AppData\Local\Temp\ccUlsDYc.s:589    .text.eclic_clear_pending:0000000000000000 .LFB20
C:\Users\Karzan\AppData\Local\Temp\ccUlsDYc.s:606    .text.eclic_clear_pending:0000000000000012 .LFE20
C:\Users\Karzan\AppData\Local\Temp\ccUlsDYc.s:7011   .debug_loc:000000000000083c .LLST9
C:\Users\Karzan\AppData\Local\Temp\ccUlsDYc.s:7592   .debug_str:000000000000034b .LASF171
C:\Users\Karzan\AppData\Local\Temp\ccUlsDYc.s:564    .text.eclic_set_pending:0000000000000000 .LFB19
C:\Users\Karzan\AppData\Local\Temp\ccUlsDYc.s:582    .text.eclic_set_pending:0000000000000014 .LFE19
C:\Users\Karzan\AppData\Local\Temp\ccUlsDYc.s:7031   .debug_loc:000000000000086e .LLST8
C:\Users\Karzan\AppData\Local\Temp\ccUlsDYc.s:7804   .debug_str:00000000000008b4 .LASF172
C:\Users\Karzan\AppData\Local\Temp\ccUlsDYc.s:539    .text.eclic_disable_interrupt:0000000000000000 .LFB18
C:\Users\Karzan\AppData\Local\Temp\ccUlsDYc.s:557    .text.eclic_disable_interrupt:0000000000000010 .LFE18
C:\Users\Karzan\AppData\Local\Temp\ccUlsDYc.s:7051   .debug_loc:00000000000008a0 .LLST7
C:\Users\Karzan\AppData\Local\Temp\ccUlsDYc.s:7456   .debug_str:0000000000000036 .LASF173
C:\Users\Karzan\AppData\Local\Temp\ccUlsDYc.s:513    .text.eclic_enable_interrupt:0000000000000000 .LFB17
C:\Users\Karzan\AppData\Local\Temp\ccUlsDYc.s:532    .text.eclic_enable_interrupt:0000000000000012 .LFE17
C:\Users\Karzan\AppData\Local\Temp\ccUlsDYc.s:7065   .debug_loc:00000000000008c1 .LLST6
C:\Users\Karzan\AppData\Local\Temp\ccUlsDYc.s:7478   .debug_str:00000000000000d0 .LASF174
C:\Users\Karzan\AppData\Local\Temp\ccUlsDYc.s:468    .text.eclic_init:0000000000000000 .LFB16
C:\Users\Karzan\AppData\Local\Temp\ccUlsDYc.s:506    .text.eclic_init:0000000000000022 .LFE16
C:\Users\Karzan\AppData\Local\Temp\ccUlsDYc.s:7560   .debug_str:00000000000002a6 .LASF175
C:\Users\Karzan\AppData\Local\Temp\ccUlsDYc.s:7079   .debug_loc:00000000000008e2 .LLST5
C:\Users\Karzan\AppData\Local\Temp\ccUlsDYc.s:7642   .debug_str:000000000000045e .LASF176
C:\Users\Karzan\AppData\Local\Temp\ccUlsDYc.s:7762   .debug_str:000000000000073e .LASF177
C:\Users\Karzan\AppData\Local\Temp\ccUlsDYc.s:7534   .debug_str:0000000000000205 .LASF178
C:\Users\Karzan\AppData\Local\Temp\ccUlsDYc.s:7734   .debug_str:00000000000006aa .LASF179
C:\Users\Karzan\AppData\Local\Temp\ccUlsDYc.s:430    .text.get_cpu_freq:0000000000000000 .LFB15
C:\Users\Karzan\AppData\Local\Temp\ccUlsDYc.s:461    .text.get_cpu_freq:000000000000001e .LFE15
C:\Users\Karzan\AppData\Local\Temp\ccUlsDYc.s:7093   .debug_loc:0000000000000903 .LLST4
C:\Users\Karzan\AppData\Local\Temp\ccUlsDYc.s:7454   .debug_str:000000000000002d .LASF180
GAS LISTING C:\Users\Karzan\AppData\Local\Temp\ccUlsDYc.s 			page 58


C:\Users\Karzan\AppData\Local\Temp\ccUlsDYc.s:446    .text.get_cpu_freq:000000000000000e .LVL20
C:\Users\Karzan\AppData\Local\Temp\ccUlsDYc.s:459    .text.get_cpu_freq:000000000000001e .LVL21
C:\Users\Karzan\AppData\Local\Temp\ccUlsDYc.s:7720   .debug_str:0000000000000659 .LASF181
C:\Users\Karzan\AppData\Local\Temp\ccUlsDYc.s:307    .text.measure_cpu_freq:0000000000000000 .LFB14
C:\Users\Karzan\AppData\Local\Temp\ccUlsDYc.s:423    .text.measure_cpu_freq:0000000000000050 .LFE14
C:\Users\Karzan\AppData\Local\Temp\ccUlsDYc.s:7111   .debug_loc:000000000000092f .LLST0
C:\Users\Karzan\AppData\Local\Temp\ccUlsDYc.s:7776   .debug_str:000000000000078e .LASF182
C:\Users\Karzan\AppData\Local\Temp\ccUlsDYc.s:7125   .debug_loc:0000000000000950 .LLST1
C:\Users\Karzan\AppData\Local\Temp\ccUlsDYc.s:7468   .debug_str:0000000000000085 .LASF183
C:\Users\Karzan\AppData\Local\Temp\ccUlsDYc.s:7836   .debug_str:000000000000097c .LASF184
C:\Users\Karzan\AppData\Local\Temp\ccUlsDYc.s:7132   .debug_loc:0000000000000963 .LLST2
C:\Users\Karzan\AppData\Local\Temp\ccUlsDYc.s:7590   .debug_str:000000000000033e .LASF185
C:\Users\Karzan\AppData\Local\Temp\ccUlsDYc.s:7460   .debug_str:0000000000000056 .LASF186
C:\Users\Karzan\AppData\Local\Temp\ccUlsDYc.s:7139   .debug_loc:0000000000000976 .LLST3
C:\Users\Karzan\AppData\Local\Temp\ccUlsDYc.s:358    .text.measure_cpu_freq:000000000000001c .LBB92
C:\Users\Karzan\AppData\Local\Temp\ccUlsDYc.s:368    .text.measure_cpu_freq:0000000000000020 .LBE92
C:\Users\Karzan\AppData\Local\Temp\ccUlsDYc.s:392    .text.measure_cpu_freq:0000000000000030 .LBB97
C:\Users\Karzan\AppData\Local\Temp\ccUlsDYc.s:402    .text.measure_cpu_freq:0000000000000034 .LBE97
C:\Users\Karzan\AppData\Local\Temp\ccUlsDYc.s:313    .text.measure_cpu_freq:0000000000000000 .LBB82
C:\Users\Karzan\AppData\Local\Temp\ccUlsDYc.s:321    .text.measure_cpu_freq:0000000000000008 .LBB85
C:\Users\Karzan\AppData\Local\Temp\ccUlsDYc.s:335    .text.measure_cpu_freq:0000000000000010 .LBB89
C:\Users\Karzan\AppData\Local\Temp\ccUlsDYc.s:344    .text.measure_cpu_freq:0000000000000016 .LBE89
C:\Users\Karzan\AppData\Local\Temp\ccUlsDYc.s:369    .text.measure_cpu_freq:0000000000000020 .LBB93
C:\Users\Karzan\AppData\Local\Temp\ccUlsDYc.s:7626   .debug_str:000000000000040e .LASF187
C:\Users\Karzan\AppData\Local\Temp\ccUlsDYc.s:252    .text.get_cycle_value:0000000000000000 .LFB13
C:\Users\Karzan\AppData\Local\Temp\ccUlsDYc.s:300    .text.get_cycle_value:0000000000000012 .LFE13
C:\Users\Karzan\AppData\Local\Temp\ccUlsDYc.s:257    .text.get_cycle_value:0000000000000000 .LBB78
C:\Users\Karzan\AppData\Local\Temp\ccUlsDYc.s:296    .text.get_cycle_value:0000000000000010 .LBE78
C:\Users\Karzan\AppData\Local\Temp\ccUlsDYc.s:259    .text.get_cycle_value:0000000000000000 .LBB79
C:\Users\Karzan\AppData\Local\Temp\ccUlsDYc.s:269    .text.get_cycle_value:0000000000000004 .LBE79
C:\Users\Karzan\AppData\Local\Temp\ccUlsDYc.s:271    .text.get_cycle_value:0000000000000004 .LBB80
C:\Users\Karzan\AppData\Local\Temp\ccUlsDYc.s:281    .text.get_cycle_value:0000000000000008 .LBE80
C:\Users\Karzan\AppData\Local\Temp\ccUlsDYc.s:283    .text.get_cycle_value:0000000000000008 .LBB81
C:\Users\Karzan\AppData\Local\Temp\ccUlsDYc.s:293    .text.get_cycle_value:000000000000000c .LBE81
C:\Users\Karzan\AppData\Local\Temp\ccUlsDYc.s:7582   .debug_str:000000000000030c .LASF188
C:\Users\Karzan\AppData\Local\Temp\ccUlsDYc.s:197    .text.get_instret_value:0000000000000000 .LFB12
C:\Users\Karzan\AppData\Local\Temp\ccUlsDYc.s:245    .text.get_instret_value:0000000000000012 .LFE12
C:\Users\Karzan\AppData\Local\Temp\ccUlsDYc.s:202    .text.get_instret_value:0000000000000000 .LBB74
C:\Users\Karzan\AppData\Local\Temp\ccUlsDYc.s:241    .text.get_instret_value:0000000000000010 .LBE74
C:\Users\Karzan\AppData\Local\Temp\ccUlsDYc.s:204    .text.get_instret_value:0000000000000000 .LBB75
C:\Users\Karzan\AppData\Local\Temp\ccUlsDYc.s:214    .text.get_instret_value:0000000000000004 .LBE75
C:\Users\Karzan\AppData\Local\Temp\ccUlsDYc.s:216    .text.get_instret_value:0000000000000004 .LBB76
C:\Users\Karzan\AppData\Local\Temp\ccUlsDYc.s:226    .text.get_instret_value:0000000000000008 .LBE76
C:\Users\Karzan\AppData\Local\Temp\ccUlsDYc.s:228    .text.get_instret_value:0000000000000008 .LBB77
C:\Users\Karzan\AppData\Local\Temp\ccUlsDYc.s:238    .text.get_instret_value:000000000000000c .LBE77
C:\Users\Karzan\AppData\Local\Temp\ccUlsDYc.s:7536   .debug_str:000000000000020b .LASF190
C:\Users\Karzan\AppData\Local\Temp\ccUlsDYc.s:7480   .debug_str:00000000000000db .LASF191
C:\Users\Karzan\AppData\Local\Temp\ccUlsDYc.s:126    .text.get_timer_value:0000000000000000 .LFB10
C:\Users\Karzan\AppData\Local\Temp\ccUlsDYc.s:172    .text.get_timer_value:0000000000000010 .LFE10
C:\Users\Karzan\AppData\Local\Temp\ccUlsDYc.s:130    .text.get_timer_value:0000000000000000 .LBB65
C:\Users\Karzan\AppData\Local\Temp\ccUlsDYc.s:150    .text.get_timer_value:0000000000000006 .LBB69
C:\Users\Karzan\AppData\Local\Temp\ccUlsDYc.s:157    .text.get_timer_value:0000000000000008 .LBE69
C:\Users\Karzan\AppData\Local\Temp\ccUlsDYc.s:159    .text.get_timer_value:0000000000000008 .LBB71
C:\Users\Karzan\AppData\Local\Temp\ccUlsDYc.s:165    .text.get_timer_value:000000000000000a .LBE71
C:\Users\Karzan\AppData\Local\Temp\ccUlsDYc.s:7736   .debug_str:00000000000006b7 .LASF192
C:\Users\Karzan\AppData\Local\Temp\ccUlsDYc.s:7796   .debug_str:0000000000000882 .LASF193
C:\Users\Karzan\AppData\Local\Temp\ccUlsDYc.s:7808   .debug_str:00000000000008d1 .LASF194
GAS LISTING C:\Users\Karzan\AppData\Local\Temp\ccUlsDYc.s 			page 59


C:\Users\Karzan\AppData\Local\Temp\ccUlsDYc.s:46     .text.switch_m2u_mode:0000000000000000 .LFB7
C:\Users\Karzan\AppData\Local\Temp\ccUlsDYc.s:85     .text.switch_m2u_mode:000000000000001c .LFE7
C:\Users\Karzan\AppData\Local\Temp\ccUlsDYc.s:50     .text.switch_m2u_mode:0000000000000000 .LBB63
C:\Users\Karzan\AppData\Local\Temp\ccUlsDYc.s:63     .text.switch_m2u_mode:000000000000000a .LBE63
C:\Users\Karzan\AppData\Local\Temp\ccUlsDYc.s:7530   .debug_str:00000000000001e4 .LASF200
C:\Users\Karzan\AppData\Local\Temp\ccUlsDYc.s:14     .text.pmp_open_all_space:0000000000000000 .LFB6
C:\Users\Karzan\AppData\Local\Temp\ccUlsDYc.s:39     .text.pmp_open_all_space:0000000000000012 .LFE6
C:\Users\Karzan\AppData\Local\Temp\ccUlsDYc.s:92     .text.mtime_lo:0000000000000000 .LFB8
C:\Users\Karzan\AppData\Local\Temp\ccUlsDYc.s:102    .text.mtime_lo:0000000000000008 .LFE8
C:\Users\Karzan\AppData\Local\Temp\ccUlsDYc.s:109    .text.mtime_hi:0000000000000000 .LFB9
C:\Users\Karzan\AppData\Local\Temp\ccUlsDYc.s:119    .text.mtime_hi:0000000000000008 .LFE9
C:\Users\Karzan\AppData\Local\Temp\ccUlsDYc.s:179    .text.get_timer_freq:0000000000000000 .LFB11
C:\Users\Karzan\AppData\Local\Temp\ccUlsDYc.s:190    .text.get_timer_freq:000000000000000c .LFE11
C:\Users\Karzan\AppData\Local\Temp\ccUlsDYc.s:613    .text.eclic_set_intctrl:0000000000000000 .LFB21
C:\Users\Karzan\AppData\Local\Temp\ccUlsDYc.s:631    .text.eclic_set_intctrl:0000000000000010 .LFE21
C:\Users\Karzan\AppData\Local\Temp\ccUlsDYc.s:7155   .debug_loc:0000000000000999 .LLST10
C:\Users\Karzan\AppData\Local\Temp\ccUlsDYc.s:638    .text.eclic_get_intctrl:0000000000000000 .LFB22
C:\Users\Karzan\AppData\Local\Temp\ccUlsDYc.s:656    .text.eclic_get_intctrl:0000000000000010 .LFE22
C:\Users\Karzan\AppData\Local\Temp\ccUlsDYc.s:7169   .debug_loc:00000000000009ba .LLST11
C:\Users\Karzan\AppData\Local\Temp\ccUlsDYc.s:663    .text.eclic_set_intattr:0000000000000000 .LFB23
C:\Users\Karzan\AppData\Local\Temp\ccUlsDYc.s:681    .text.eclic_set_intattr:0000000000000010 .LFE23
C:\Users\Karzan\AppData\Local\Temp\ccUlsDYc.s:7183   .debug_loc:00000000000009db .LLST12
C:\Users\Karzan\AppData\Local\Temp\ccUlsDYc.s:688    .text.eclic_get_intattr:0000000000000000 .LFB24
C:\Users\Karzan\AppData\Local\Temp\ccUlsDYc.s:706    .text.eclic_get_intattr:0000000000000010 .LFE24
C:\Users\Karzan\AppData\Local\Temp\ccUlsDYc.s:7197   .debug_loc:00000000000009fc .LLST13
C:\Users\Karzan\AppData\Local\Temp\ccUlsDYc.s:713    .text.eclic_set_cliccfg:0000000000000000 .LFB25
C:\Users\Karzan\AppData\Local\Temp\ccUlsDYc.s:724    .text.eclic_set_cliccfg:000000000000000a .LFE25
C:\Users\Karzan\AppData\Local\Temp\ccUlsDYc.s:731    .text.eclic_get_cliccfg:0000000000000000 .LFB26
C:\Users\Karzan\AppData\Local\Temp\ccUlsDYc.s:741    .text.eclic_get_cliccfg:000000000000000a .LFE26
C:\Users\Karzan\AppData\Local\Temp\ccUlsDYc.s:1621   .text.eclic_set_negedge_trig:0000000000000000 .LVL124
C:\Users\Karzan\AppData\Local\Temp\ccUlsDYc.s:1631   .text.eclic_set_negedge_trig:0000000000000008 .LVL125
C:\Users\Karzan\AppData\Local\Temp\ccUlsDYc.s:1636   .text.eclic_set_negedge_trig:000000000000000e .LVL126
C:\Users\Karzan\AppData\Local\Temp\ccUlsDYc.s:1643   .text.eclic_set_negedge_trig:0000000000000012 .LVL127
C:\Users\Karzan\AppData\Local\Temp\ccUlsDYc.s:1650   .text.eclic_set_negedge_trig:0000000000000016 .LVL128
C:\Users\Karzan\AppData\Local\Temp\ccUlsDYc.s:1576   .text.eclic_set_posedge_trig:0000000000000000 .LVL119
C:\Users\Karzan\AppData\Local\Temp\ccUlsDYc.s:1586   .text.eclic_set_posedge_trig:0000000000000008 .LVL120
C:\Users\Karzan\AppData\Local\Temp\ccUlsDYc.s:1591   .text.eclic_set_posedge_trig:000000000000000e .LVL121
C:\Users\Karzan\AppData\Local\Temp\ccUlsDYc.s:1598   .text.eclic_set_posedge_trig:0000000000000012 .LVL122
C:\Users\Karzan\AppData\Local\Temp\ccUlsDYc.s:1605   .text.eclic_set_posedge_trig:0000000000000016 .LVL123
C:\Users\Karzan\AppData\Local\Temp\ccUlsDYc.s:1532   .text.eclic_set_level_trig:0000000000000000 .LVL114
C:\Users\Karzan\AppData\Local\Temp\ccUlsDYc.s:1542   .text.eclic_set_level_trig:0000000000000008 .LVL115
C:\Users\Karzan\AppData\Local\Temp\ccUlsDYc.s:1547   .text.eclic_set_level_trig:000000000000000e .LVL116
C:\Users\Karzan\AppData\Local\Temp\ccUlsDYc.s:1553   .text.eclic_set_level_trig:0000000000000012 .LVL117
C:\Users\Karzan\AppData\Local\Temp\ccUlsDYc.s:1560   .text.eclic_set_level_trig:0000000000000016 .LVL118
C:\Users\Karzan\AppData\Local\Temp\ccUlsDYc.s:1488   .text.eclic_set_nonvmode:0000000000000000 .LVL109
C:\Users\Karzan\AppData\Local\Temp\ccUlsDYc.s:1498   .text.eclic_set_nonvmode:0000000000000008 .LVL110
C:\Users\Karzan\AppData\Local\Temp\ccUlsDYc.s:1503   .text.eclic_set_nonvmode:000000000000000e .LVL111
C:\Users\Karzan\AppData\Local\Temp\ccUlsDYc.s:1509   .text.eclic_set_nonvmode:0000000000000012 .LVL112
C:\Users\Karzan\AppData\Local\Temp\ccUlsDYc.s:1516   .text.eclic_set_nonvmode:0000000000000016 .LVL113
C:\Users\Karzan\AppData\Local\Temp\ccUlsDYc.s:1444   .text.eclic_set_vmode:0000000000000000 .LVL104
C:\Users\Karzan\AppData\Local\Temp\ccUlsDYc.s:1454   .text.eclic_set_vmode:0000000000000008 .LVL105
C:\Users\Karzan\AppData\Local\Temp\ccUlsDYc.s:1459   .text.eclic_set_vmode:000000000000000e .LVL106
C:\Users\Karzan\AppData\Local\Temp\ccUlsDYc.s:1465   .text.eclic_set_vmode:0000000000000012 .LVL107
C:\Users\Karzan\AppData\Local\Temp\ccUlsDYc.s:1472   .text.eclic_set_vmode:0000000000000016 .LVL108
C:\Users\Karzan\AppData\Local\Temp\ccUlsDYc.s:1411   .text.eclic_mode_enable:0000000000000004 .LVL101
C:\Users\Karzan\AppData\Local\Temp\ccUlsDYc.s:1418   .text.eclic_mode_enable:0000000000000008 .LVL102
C:\Users\Karzan\AppData\Local\Temp\ccUlsDYc.s:1424   .text.eclic_mode_enable:000000000000000c .LVL103
GAS LISTING C:\Users\Karzan\AppData\Local\Temp\ccUlsDYc.s 			page 60


C:\Users\Karzan\AppData\Local\Temp\ccUlsDYc.s:1324   .text.eclic_get_irq_priority:0000000000000002 .LCFI12
C:\Users\Karzan\AppData\Local\Temp\ccUlsDYc.s:1389   .text.eclic_get_irq_priority:000000000000004a .LCFI13
C:\Users\Karzan\AppData\Local\Temp\ccUlsDYc.s:1320   .text.eclic_get_irq_priority:0000000000000000 .LVL94
C:\Users\Karzan\AppData\Local\Temp\ccUlsDYc.s:1345   .text.eclic_get_irq_priority:0000000000000018 .LVL96
C:\Users\Karzan\AppData\Local\Temp\ccUlsDYc.s:1368   .text.eclic_get_irq_priority:0000000000000030 .LVL98
C:\Users\Karzan\AppData\Local\Temp\ccUlsDYc.s:1359   .text.eclic_get_irq_priority:0000000000000026 .LVL97
C:\Users\Karzan\AppData\Local\Temp\ccUlsDYc.s:1376   .text.eclic_get_irq_priority:0000000000000038 .LVL99
C:\Users\Karzan\AppData\Local\Temp\ccUlsDYc.s:1383   .text.eclic_get_irq_priority:0000000000000040 .LVL100
C:\Users\Karzan\AppData\Local\Temp\ccUlsDYc.s:1227   .text.eclic_set_irq_priority:0000000000000002 .LCFI10
C:\Users\Karzan\AppData\Local\Temp\ccUlsDYc.s:1306   .text.eclic_set_irq_priority:0000000000000050 .LCFI11
C:\Users\Karzan\AppData\Local\Temp\ccUlsDYc.s:1223   .text.eclic_set_irq_priority:0000000000000000 .LVL87
C:\Users\Karzan\AppData\Local\Temp\ccUlsDYc.s:1253   .text.eclic_set_irq_priority:0000000000000020 .LVL89
C:\Users\Karzan\AppData\Local\Temp\ccUlsDYc.s:1273   .text.eclic_set_irq_priority:000000000000003a .LVL91
C:\Users\Karzan\AppData\Local\Temp\ccUlsDYc.s:1294   .text.eclic_set_irq_priority:0000000000000048 .LVL93
C:\Users\Karzan\AppData\Local\Temp\ccUlsDYc.s:1266   .text.eclic_set_irq_priority:0000000000000030 .LVL90
C:\Users\Karzan\AppData\Local\Temp\ccUlsDYc.s:1288   .text.eclic_set_irq_priority:0000000000000044 .LVL92
C:\Users\Karzan\AppData\Local\Temp\ccUlsDYc.s:1150   .text.eclic_get_irq_lvl_abs:0000000000000002 .LCFI8
C:\Users\Karzan\AppData\Local\Temp\ccUlsDYc.s:1209   .text.eclic_get_irq_lvl_abs:0000000000000042 .LCFI9
C:\Users\Karzan\AppData\Local\Temp\ccUlsDYc.s:1146   .text.eclic_get_irq_lvl_abs:0000000000000000 .LVL82
C:\Users\Karzan\AppData\Local\Temp\ccUlsDYc.s:1171   .text.eclic_get_irq_lvl_abs:0000000000000018 .LVL84
C:\Users\Karzan\AppData\Local\Temp\ccUlsDYc.s:1196   .text.eclic_get_irq_lvl_abs:0000000000000030 .LVL86
C:\Users\Karzan\AppData\Local\Temp\ccUlsDYc.s:1185   .text.eclic_get_irq_lvl_abs:0000000000000026 .LVL85
C:\Users\Karzan\AppData\Local\Temp\ccUlsDYc.s:1049   .text.eclic_set_irq_lvl_abs:0000000000000002 .LCFI6
C:\Users\Karzan\AppData\Local\Temp\ccUlsDYc.s:1132   .text.eclic_set_irq_lvl_abs:0000000000000056 .LCFI7
C:\Users\Karzan\AppData\Local\Temp\ccUlsDYc.s:1045   .text.eclic_set_irq_lvl_abs:0000000000000000 .LVL73
C:\Users\Karzan\AppData\Local\Temp\ccUlsDYc.s:1078   .text.eclic_set_irq_lvl_abs:0000000000000024 .LVL76
C:\Users\Karzan\AppData\Local\Temp\ccUlsDYc.s:1075   .text.eclic_set_irq_lvl_abs:0000000000000022 .LVL75
C:\Users\Karzan\AppData\Local\Temp\ccUlsDYc.s:1088   .text.eclic_set_irq_lvl_abs:0000000000000030 .LVL77
C:\Users\Karzan\AppData\Local\Temp\ccUlsDYc.s:1109   .text.eclic_set_irq_lvl_abs:0000000000000040 .LVL79
C:\Users\Karzan\AppData\Local\Temp\ccUlsDYc.s:1102   .text.eclic_set_irq_lvl_abs:0000000000000036 .LVL78
C:\Users\Karzan\AppData\Local\Temp\ccUlsDYc.s:1115   .text.eclic_set_irq_lvl_abs:000000000000004a .LVL80
C:\Users\Karzan\AppData\Local\Temp\ccUlsDYc.s:1121   .text.eclic_set_irq_lvl_abs:000000000000004e .LVL81
C:\Users\Karzan\AppData\Local\Temp\ccUlsDYc.s:969    .text.eclic_get_irq_lvl:0000000000000002 .LCFI4
C:\Users\Karzan\AppData\Local\Temp\ccUlsDYc.s:1031   .text.eclic_get_irq_lvl:0000000000000044 .LCFI5
C:\Users\Karzan\AppData\Local\Temp\ccUlsDYc.s:965    .text.eclic_get_irq_lvl:0000000000000000 .LVL66
C:\Users\Karzan\AppData\Local\Temp\ccUlsDYc.s:990    .text.eclic_get_irq_lvl:0000000000000018 .LVL68
C:\Users\Karzan\AppData\Local\Temp\ccUlsDYc.s:1013   .text.eclic_get_irq_lvl:0000000000000030 .LVL70
C:\Users\Karzan\AppData\Local\Temp\ccUlsDYc.s:1004   .text.eclic_get_irq_lvl:0000000000000026 .LVL69
C:\Users\Karzan\AppData\Local\Temp\ccUlsDYc.s:1015   .text.eclic_get_irq_lvl:0000000000000032 .LVL71
C:\Users\Karzan\AppData\Local\Temp\ccUlsDYc.s:1025   .text.eclic_get_irq_lvl:000000000000003a .LVL72
C:\Users\Karzan\AppData\Local\Temp\ccUlsDYc.s:865    .text.eclic_set_irq_lvl:0000000000000002 .LCFI2
C:\Users\Karzan\AppData\Local\Temp\ccUlsDYc.s:951    .text.eclic_set_irq_lvl:0000000000000058 .LCFI3
C:\Users\Karzan\AppData\Local\Temp\ccUlsDYc.s:861    .text.eclic_set_irq_lvl:0000000000000000 .LVL55
C:\Users\Karzan\AppData\Local\Temp\ccUlsDYc.s:903    .text.eclic_set_irq_lvl:000000000000002c .LVL59
C:\Users\Karzan\AppData\Local\Temp\ccUlsDYc.s:897    .text.eclic_set_irq_lvl:000000000000002a .LVL58
C:\Users\Karzan\AppData\Local\Temp\ccUlsDYc.s:911    .text.eclic_set_irq_lvl:0000000000000034 .LVL60
C:\Users\Karzan\AppData\Local\Temp\ccUlsDYc.s:914    .text.eclic_set_irq_lvl:0000000000000038 .LVL61
C:\Users\Karzan\AppData\Local\Temp\ccUlsDYc.s:892    .text.eclic_set_irq_lvl:0000000000000028 .LVL57
C:\Users\Karzan\AppData\Local\Temp\ccUlsDYc.s:921    .text.eclic_set_irq_lvl:000000000000003c .LVL62
C:\Users\Karzan\AppData\Local\Temp\ccUlsDYc.s:929    .text.eclic_set_irq_lvl:0000000000000040 .LVL63
C:\Users\Karzan\AppData\Local\Temp\ccUlsDYc.s:936    .text.eclic_set_irq_lvl:000000000000004e .LVL64
C:\Users\Karzan\AppData\Local\Temp\ccUlsDYc.s:942    .text.eclic_set_irq_lvl:0000000000000052 .LVL65
C:\Users\Karzan\AppData\Local\Temp\ccUlsDYc.s:839    .text.eclic_get_nlbits:0000000000000008 .LVL53
C:\Users\Karzan\AppData\Local\Temp\ccUlsDYc.s:846    .text.eclic_get_nlbits:000000000000000a .LVL54
C:\Users\Karzan\AppData\Local\Temp\ccUlsDYc.s:786    .text.eclic_set_nlbits:0000000000000000 .LVL47
C:\Users\Karzan\AppData\Local\Temp\ccUlsDYc.s:801    .text.eclic_set_nlbits:000000000000000a .LVL49
C:\Users\Karzan\AppData\Local\Temp\ccUlsDYc.s:795    .text.eclic_set_nlbits:0000000000000008 .LVL48
GAS LISTING C:\Users\Karzan\AppData\Local\Temp\ccUlsDYc.s 			page 61


C:\Users\Karzan\AppData\Local\Temp\ccUlsDYc.s:806    .text.eclic_set_nlbits:0000000000000010 .LVL50
C:\Users\Karzan\AppData\Local\Temp\ccUlsDYc.s:809    .text.eclic_set_nlbits:0000000000000012 .LVL51
C:\Users\Karzan\AppData\Local\Temp\ccUlsDYc.s:816    .text.eclic_set_nlbits:0000000000000016 .LVL52
C:\Users\Karzan\AppData\Local\Temp\ccUlsDYc.s:592    .text.eclic_clear_pending:0000000000000000 .LVL34
C:\Users\Karzan\AppData\Local\Temp\ccUlsDYc.s:598    .text.eclic_clear_pending:000000000000000a .LVL35
C:\Users\Karzan\AppData\Local\Temp\ccUlsDYc.s:600    .text.eclic_clear_pending:000000000000000c .LVL36
C:\Users\Karzan\AppData\Local\Temp\ccUlsDYc.s:567    .text.eclic_set_pending:0000000000000000 .LVL31
C:\Users\Karzan\AppData\Local\Temp\ccUlsDYc.s:573    .text.eclic_set_pending:000000000000000a .LVL32
C:\Users\Karzan\AppData\Local\Temp\ccUlsDYc.s:575    .text.eclic_set_pending:000000000000000c .LVL33
C:\Users\Karzan\AppData\Local\Temp\ccUlsDYc.s:542    .text.eclic_disable_interrupt:0000000000000000 .LVL29
C:\Users\Karzan\AppData\Local\Temp\ccUlsDYc.s:548    .text.eclic_disable_interrupt:0000000000000006 .LVL30
C:\Users\Karzan\AppData\Local\Temp\ccUlsDYc.s:516    .text.eclic_enable_interrupt:0000000000000000 .LVL27
C:\Users\Karzan\AppData\Local\Temp\ccUlsDYc.s:523    .text.eclic_enable_interrupt:0000000000000008 .LVL28
C:\Users\Karzan\AppData\Local\Temp\ccUlsDYc.s:471    .text.eclic_init:0000000000000000 .LVL22
C:\Users\Karzan\AppData\Local\Temp\ccUlsDYc.s:486    .text.eclic_init:000000000000000e .LVL24
C:\Users\Karzan\AppData\Local\Temp\ccUlsDYc.s:437    .text.get_cpu_freq:0000000000000002 .LCFI0
C:\Users\Karzan\AppData\Local\Temp\ccUlsDYc.s:455    .text.get_cpu_freq:0000000000000016 .LCFI1
C:\Users\Karzan\AppData\Local\Temp\ccUlsDYc.s:310    .text.measure_cpu_freq:0000000000000000 .LVL9
C:\Users\Karzan\AppData\Local\Temp\ccUlsDYc.s:409    .text.measure_cpu_freq:000000000000003c .LVL18
C:\Users\Karzan\AppData\Local\Temp\ccUlsDYc.s:352    .text.measure_cpu_freq:0000000000000018 .LVL12
C:\Users\Karzan\AppData\Local\Temp\ccUlsDYc.s:399    .text.measure_cpu_freq:0000000000000034 .LVL16
C:\Users\Karzan\AppData\Local\Temp\ccUlsDYc.s:341    .text.measure_cpu_freq:0000000000000016 .LVL11
C:\Users\Karzan\AppData\Local\Temp\ccUlsDYc.s:373    .text.measure_cpu_freq:0000000000000024 .LVL14
C:\Users\Karzan\AppData\Local\Temp\ccUlsDYc.s:405    .text.measure_cpu_freq:0000000000000038 .LVL17
C:\Users\Karzan\AppData\Local\Temp\ccUlsDYc.s:412    .text.measure_cpu_freq:0000000000000040 .LVL19
C:\Users\Karzan\AppData\Local\Temp\ccUlsDYc.s:616    .text.eclic_set_intctrl:0000000000000000 .LVL37
C:\Users\Karzan\AppData\Local\Temp\ccUlsDYc.s:622    .text.eclic_set_intctrl:0000000000000006 .LVL38
C:\Users\Karzan\AppData\Local\Temp\ccUlsDYc.s:641    .text.eclic_get_intctrl:0000000000000000 .LVL39
C:\Users\Karzan\AppData\Local\Temp\ccUlsDYc.s:648    .text.eclic_get_intctrl:0000000000000008 .LVL40
C:\Users\Karzan\AppData\Local\Temp\ccUlsDYc.s:666    .text.eclic_set_intattr:0000000000000000 .LVL41
C:\Users\Karzan\AppData\Local\Temp\ccUlsDYc.s:672    .text.eclic_set_intattr:0000000000000006 .LVL42
C:\Users\Karzan\AppData\Local\Temp\ccUlsDYc.s:691    .text.eclic_get_intattr:0000000000000000 .LVL43
C:\Users\Karzan\AppData\Local\Temp\ccUlsDYc.s:698    .text.eclic_get_intattr:0000000000000008 .LVL44
C:\Users\Karzan\AppData\Local\Temp\ccUlsDYc.s:1670   .debug_info:0000000000000000 .Ldebug_info0
C:\Users\Karzan\AppData\Local\Temp\ccUlsDYc.s:129    .text.get_timer_value:0000000000000000 .LBB64
C:\Users\Karzan\AppData\Local\Temp\ccUlsDYc.s:137    .text.get_timer_value:0000000000000004 .LBE64
C:\Users\Karzan\AppData\Local\Temp\ccUlsDYc.s:139    .text.get_timer_value:0000000000000004 .LBB73
C:\Users\Karzan\AppData\Local\Temp\ccUlsDYc.s:168    .text.get_timer_value:000000000000000e .LBE73
C:\Users\Karzan\AppData\Local\Temp\ccUlsDYc.s:136    .text.get_timer_value:0000000000000004 .LBE65
C:\Users\Karzan\AppData\Local\Temp\ccUlsDYc.s:141    .text.get_timer_value:0000000000000004 .LBB68
C:\Users\Karzan\AppData\Local\Temp\ccUlsDYc.s:148    .text.get_timer_value:0000000000000006 .LBE68
C:\Users\Karzan\AppData\Local\Temp\ccUlsDYc.s:320    .text.measure_cpu_freq:0000000000000008 .LBE82
C:\Users\Karzan\AppData\Local\Temp\ccUlsDYc.s:327    .text.measure_cpu_freq:000000000000000c .LBB88
C:\Users\Karzan\AppData\Local\Temp\ccUlsDYc.s:333    .text.measure_cpu_freq:0000000000000010 .LBE88
C:\Users\Karzan\AppData\Local\Temp\ccUlsDYc.s:326    .text.measure_cpu_freq:000000000000000c .LBE85
C:\Users\Karzan\AppData\Local\Temp\ccUlsDYc.s:347    .text.measure_cpu_freq:0000000000000016 .LBB91
C:\Users\Karzan\AppData\Local\Temp\ccUlsDYc.s:354    .text.measure_cpu_freq:0000000000000018 .LBE91
C:\Users\Karzan\AppData\Local\Temp\ccUlsDYc.s:376    .text.measure_cpu_freq:0000000000000024 .LBE93
C:\Users\Karzan\AppData\Local\Temp\ccUlsDYc.s:379    .text.measure_cpu_freq:0000000000000024 .LBB96
C:\Users\Karzan\AppData\Local\Temp\ccUlsDYc.s:385    .text.measure_cpu_freq:0000000000000028 .LBE96
C:\Users\Karzan\AppData\Local\Temp\ccUlsDYc.s:894    .text.eclic_set_irq_lvl:0000000000000028 .LBE104
C:\Users\Karzan\AppData\Local\Temp\ccUlsDYc.s:899    .text.eclic_set_irq_lvl:000000000000002a .LBB108
C:\Users\Karzan\AppData\Local\Temp\ccUlsDYc.s:908    .text.eclic_set_irq_lvl:0000000000000030 .LBE108
C:\Users\Karzan\AppData\Local\Temp\ccUlsDYc.s:916    .text.eclic_set_irq_lvl:0000000000000038 .LBB109
C:\Users\Karzan\AppData\Local\Temp\ccUlsDYc.s:923    .text.eclic_set_irq_lvl:000000000000003c .LBE109
C:\Users\Karzan\AppData\Local\Temp\ccUlsDYc.s:996    .text.eclic_get_irq_lvl:000000000000001e .LBE112
C:\Users\Karzan\AppData\Local\Temp\ccUlsDYc.s:1000   .text.eclic_get_irq_lvl:0000000000000022 .LBB115
GAS LISTING C:\Users\Karzan\AppData\Local\Temp\ccUlsDYc.s 			page 62


C:\Users\Karzan\AppData\Local\Temp\ccUlsDYc.s:1006   .text.eclic_get_irq_lvl:0000000000000026 .LBE115
C:\Users\Karzan\AppData\Local\Temp\ccUlsDYc.s:1085   .text.eclic_set_irq_lvl_abs:000000000000002c .LBE116
C:\Users\Karzan\AppData\Local\Temp\ccUlsDYc.s:1090   .text.eclic_set_irq_lvl_abs:0000000000000030 .LBB119
C:\Users\Karzan\AppData\Local\Temp\ccUlsDYc.s:1094   .text.eclic_set_irq_lvl_abs:0000000000000030 .LBE119
C:\Users\Karzan\AppData\Local\Temp\ccUlsDYc.s:1177   .text.eclic_get_irq_lvl_abs:000000000000001e .LBE122
C:\Users\Karzan\AppData\Local\Temp\ccUlsDYc.s:1181   .text.eclic_get_irq_lvl_abs:0000000000000022 .LBB125
C:\Users\Karzan\AppData\Local\Temp\ccUlsDYc.s:1187   .text.eclic_get_irq_lvl_abs:0000000000000026 .LBE125
C:\Users\Karzan\AppData\Local\Temp\ccUlsDYc.s:1260   .text.eclic_set_irq_priority:0000000000000028 .LBE126
C:\Users\Karzan\AppData\Local\Temp\ccUlsDYc.s:1275   .text.eclic_set_irq_priority:000000000000003a .LBB129
C:\Users\Karzan\AppData\Local\Temp\ccUlsDYc.s:1279   .text.eclic_set_irq_priority:000000000000003a .LBE129
C:\Users\Karzan\AppData\Local\Temp\ccUlsDYc.s:1351   .text.eclic_get_irq_priority:000000000000001e .LBE132
C:\Users\Karzan\AppData\Local\Temp\ccUlsDYc.s:1355   .text.eclic_get_irq_priority:0000000000000022 .LBB135
C:\Users\Karzan\AppData\Local\Temp\ccUlsDYc.s:1361   .text.eclic_get_irq_priority:0000000000000026 .LBE135

UNDEFINED SYMBOLS
SystemCoreClock
