GAS LISTING C:\Users\Karzan\AppData\Local\Temp\ccUlsDYc.s 			page 1


   1              		.file	"n200_func.c"
   2              		.option nopic
   3              		.attribute arch, "rv32i2p0_m2p0_a2p0_c2p0"
   4              		.attribute unaligned_access, 0
   5              		.attribute stack_align, 16
   6              		.text
   7              	.Ltext0:
   8              		.cfi_sections	.debug_frame
   9              		.section	.text.pmp_open_all_space,"ax",@progbits
  10              		.align	1
  11              		.globl	pmp_open_all_space
  13              	pmp_open_all_space:
  14              	.LFB6:
  15              		.file 1 "./../../firmware/RISCV/drivers/n200_func.c"
   1:./../../firmware/RISCV/drivers/n200_func.c **** /* See LICENSE for license details. */
   2:./../../firmware/RISCV/drivers/n200_func.c **** #include <gd32vf103.h>
   3:./../../firmware/RISCV/drivers/n200_func.c **** #include <stdio.h>
   4:./../../firmware/RISCV/drivers/n200_func.c **** #include <stdlib.h>
   5:./../../firmware/RISCV/drivers/n200_func.c **** #include <string.h>
   6:./../../firmware/RISCV/drivers/n200_func.c **** 
   7:./../../firmware/RISCV/drivers/n200_func.c **** #if   defined (__ICCRISCV__)
   8:./../../firmware/RISCV/drivers/n200_func.c ****     #include "compiler.h"
   9:./../../firmware/RISCV/drivers/n200_func.c **** #elif defined ( __GNUC__ )
  10:./../../firmware/RISCV/drivers/n200_func.c ****     #include <unistd.h>
  11:./../../firmware/RISCV/drivers/n200_func.c **** #endif
  12:./../../firmware/RISCV/drivers/n200_func.c **** 
  13:./../../firmware/RISCV/drivers/n200_func.c **** #include "riscv_encoding.h"
  14:./../../firmware/RISCV/drivers/n200_func.c **** #include "n200_func.h"
  15:./../../firmware/RISCV/drivers/n200_func.c **** 
  16:./../../firmware/RISCV/drivers/n200_func.c **** /* Configure PMP to make all the address space accesable and executable */
  17:./../../firmware/RISCV/drivers/n200_func.c **** void pmp_open_all_space(void){
  16              		.loc 1 17 30
  17              		.cfi_startproc
  18:./../../firmware/RISCV/drivers/n200_func.c ****     /* Config entry0 addr to all 1s to make the range cover all space */
  19:./../../firmware/RISCV/drivers/n200_func.c ****     asm volatile ("li x6, 0xffffffff":::"x6");
  18              		.loc 1 19 5
  19              	 #APP
  20              	# 19 "./../../firmware/RISCV/drivers/n200_func.c" 1
  20              	    asm volatile ("csrw pmpaddr0, x6":::);
  21              		li x6, 0xffffffff
  22              	# 0 "" 2
  23              		.loc 1 20 5
  24              	# 20 "./../../firmware/RISCV/drivers/n200_func.c" 1
  21              	    /* Config entry0 cfg to make it NAPOT address mode, and R/W/X okay */
  22:./../../firmware/RISCV/drivers/n200_func.c ****     asm volatile ("li x6, 0x7f":::"x6");
  25              		csrw pmpaddr0, x6
  26              	# 0 "" 2
  27              		.loc 1 22 5
  28              	# 22 "./../../firmware/RISCV/drivers/n200_func.c" 1
  23              	    asm volatile ("csrw pmpcfg0, x6":::);
  29              		li x6, 0x7f
  30              	# 0 "" 2
  31              		.loc 1 23 5
  32              	# 23 "./../../firmware/RISCV/drivers/n200_func.c" 1
  24              	}
  33              		csrw pmpcfg0, x6
  34              	# 0 "" 2
GAS LISTING C:\Users\Karzan\AppData\Local\Temp\ccUlsDYc.s 			page 2


  35              		.loc 1 24 1 is_stmt 0
  36              	 #NO_APP
  37 0010 8280     		ret
  38              		.cfi_endproc
  39              	.LFE6:
  41              		.section	.text.switch_m2u_mode,"ax",@progbits
  42              		.align	1
  43              		.globl	switch_m2u_mode
  45              	switch_m2u_mode:
  46              	.LFB7:
  25:./../../firmware/RISCV/drivers/n200_func.c **** 
  26:./../../firmware/RISCV/drivers/n200_func.c **** void switch_m2u_mode(void){
  47              		.loc 1 26 27 is_stmt 1
  48              		.cfi_startproc
  27:./../../firmware/RISCV/drivers/n200_func.c **** #if   defined (__ICCRISCV__)
  28:./../../firmware/RISCV/drivers/n200_func.c ****     clear_csr (CSR_MSTATUS,MSTATUS_MPP);
  29:./../../firmware/RISCV/drivers/n200_func.c **** #elif defined ( __GNUC__ )
  30:./../../firmware/RISCV/drivers/n200_func.c ****     clear_csr (mstatus,MSTATUS_MPP);
  49              		.loc 1 30 5
  50              	.LBB63:
  51              		.loc 1 30 5
  52              		.loc 1 30 5
  53              		.loc 1 30 5
  54 0000 8967     		li	a5,8192
  55 0002 93870780 		addi	a5,a5,-2048
  56              	 #APP
  57              	# 30 "./../../firmware/RISCV/drivers/n200_func.c" 1
  31              	#endif
  58              		csrrc a5, mstatus, a5
  59              	# 0 "" 2
  60              	.LVL0:
  30:./../../firmware/RISCV/drivers/n200_func.c ****     clear_csr (mstatus,MSTATUS_MPP);
  61              		.loc 1 30 5
  62              	 #NO_APP
  63              	.LBE63:
  32:./../../firmware/RISCV/drivers/n200_func.c ****     /* printf("\nIn the m2u function, the mstatus is 0x%x\n", read_csr(mstatus)); */
  33:./../../firmware/RISCV/drivers/n200_func.c ****     /* printf("\nIn the m2u function, the mepc is 0x%x\n", read_csr(mepc)); */
  34:./../../firmware/RISCV/drivers/n200_func.c **** #if defined ( __GNUC__ )
  35:./../../firmware/RISCV/drivers/n200_func.c ****     asm volatile ("la x6, 1f    ":::"x6");
  64              		.loc 1 35 5
  65              	 #APP
  66              	# 35 "./../../firmware/RISCV/drivers/n200_func.c" 1
  36              	#endif
  37:./../../firmware/RISCV/drivers/n200_func.c ****     asm volatile ("csrw mepc, x6":::);
  67              		la x6, 1f    
  68              	# 0 "" 2
  69              		.loc 1 37 5
  70              	# 37 "./../../firmware/RISCV/drivers/n200_func.c" 1
  38              	    asm volatile ("mret":::);
  71              		csrw mepc, x6
  72              	# 0 "" 2
  73              		.loc 1 38 5
  74              	# 38 "./../../firmware/RISCV/drivers/n200_func.c" 1
  39              	    asm volatile ("1:":::);
  75              		mret
  76              	# 0 "" 2
  77              		.loc 1 39 5
GAS LISTING C:\Users\Karzan\AppData\Local\Temp\ccUlsDYc.s 			page 3


  78              	# 39 "./../../firmware/RISCV/drivers/n200_func.c" 1
  40              	} 
  79              		1:
  80              	# 0 "" 2
  81              		.loc 1 40 1 is_stmt 0
  82              	 #NO_APP
  83 001a 8280     		ret
  84              		.cfi_endproc
  85              	.LFE7:
  87              		.section	.text.mtime_lo,"ax",@progbits
  88              		.align	1
  89              		.globl	mtime_lo
  91              	mtime_lo:
  92              	.LFB8:
  41:./../../firmware/RISCV/drivers/n200_func.c **** 
  42:./../../firmware/RISCV/drivers/n200_func.c **** uint32_t mtime_lo(void)
  43:./../../firmware/RISCV/drivers/n200_func.c **** {
  93              		.loc 1 43 1 is_stmt 1
  94              		.cfi_startproc
  44:./../../firmware/RISCV/drivers/n200_func.c ****   return *(volatile uint32_t *)(TIMER_CTRL_ADDR + TIMER_MTIME);
  95              		.loc 1 44 3
  96              		.loc 1 44 10 is_stmt 0
  97 0000 B70700D1 		li	a5,-788529152
  98 0004 8843     		lw	a0,0(a5)
  45:./../../firmware/RISCV/drivers/n200_func.c **** }
  99              		.loc 1 45 1
 100 0006 8280     		ret
 101              		.cfi_endproc
 102              	.LFE8:
 104              		.section	.text.mtime_hi,"ax",@progbits
 105              		.align	1
 106              		.globl	mtime_hi
 108              	mtime_hi:
 109              	.LFB9:
  46:./../../firmware/RISCV/drivers/n200_func.c **** 
  47:./../../firmware/RISCV/drivers/n200_func.c **** 
  48:./../../firmware/RISCV/drivers/n200_func.c **** uint32_t mtime_hi(void)
  49:./../../firmware/RISCV/drivers/n200_func.c **** {
 110              		.loc 1 49 1 is_stmt 1
 111              		.cfi_startproc
  50:./../../firmware/RISCV/drivers/n200_func.c ****   return *(volatile uint32_t *)(TIMER_CTRL_ADDR + TIMER_MTIME + 4);
 112              		.loc 1 50 3
 113              		.loc 1 50 10 is_stmt 0
 114 0000 B70700D1 		li	a5,-788529152
 115 0004 C843     		lw	a0,4(a5)
  51:./../../firmware/RISCV/drivers/n200_func.c **** }
 116              		.loc 1 51 1
 117 0006 8280     		ret
 118              		.cfi_endproc
 119              	.LFE9:
 121              		.section	.text.get_timer_value,"ax",@progbits
 122              		.align	1
 123              		.globl	get_timer_value
 125              	get_timer_value:
 126              	.LFB10:
  52:./../../firmware/RISCV/drivers/n200_func.c **** 
  53:./../../firmware/RISCV/drivers/n200_func.c **** uint64_t get_timer_value(void)
GAS LISTING C:\Users\Karzan\AppData\Local\Temp\ccUlsDYc.s 			page 4


  54:./../../firmware/RISCV/drivers/n200_func.c **** {
 127              		.loc 1 54 1 is_stmt 1
 128              		.cfi_startproc
 129              	.LBB64:
 130              	.LBB65:
 131              	.LBB66:
  50:./../../firmware/RISCV/drivers/n200_func.c **** }
 132              		.loc 1 50 10 is_stmt 0
 133 0000 B70700D1 		li	a5,-788529152
 134              	.L6:
 135              	.LBE66:
 136              	.LBE65:
 137              	.LBE64:
  55:./../../firmware/RISCV/drivers/n200_func.c ****   while (1) {
 138              		.loc 1 55 3 is_stmt 1
 139              	.LBB73:
  56:./../../firmware/RISCV/drivers/n200_func.c ****     uint32_t hi = mtime_hi();
 140              		.loc 1 56 5
 141              	.LBB68:
 142              	.LBB67:
  50:./../../firmware/RISCV/drivers/n200_func.c **** }
 143              		.loc 1 50 3
  50:./../../firmware/RISCV/drivers/n200_func.c **** }
 144              		.loc 1 50 10 is_stmt 0
 145 0004 D843     		lw	a4,4(a5)
 146              	.LVL1:
 147              	.LBE67:
 148              	.LBE68:
  57:./../../firmware/RISCV/drivers/n200_func.c ****     uint32_t lo = mtime_lo();
 149              		.loc 1 57 5 is_stmt 1
 150              	.LBB69:
 151              	.LBB70:
  44:./../../firmware/RISCV/drivers/n200_func.c **** }
 152              		.loc 1 44 3
  44:./../../firmware/RISCV/drivers/n200_func.c **** }
 153              		.loc 1 44 10 is_stmt 0
 154 0006 8843     		lw	a0,0(a5)
 155              	.LVL2:
 156              	.LBE70:
 157              	.LBE69:
  58:./../../firmware/RISCV/drivers/n200_func.c ****     if (hi == mtime_hi())
 158              		.loc 1 58 5 is_stmt 1
 159              	.LBB71:
 160              	.LBB72:
  50:./../../firmware/RISCV/drivers/n200_func.c **** }
 161              		.loc 1 50 3
  50:./../../firmware/RISCV/drivers/n200_func.c **** }
 162              		.loc 1 50 10 is_stmt 0
 163 0008 CC43     		lw	a1,4(a5)
 164              	.LBE72:
 165              	.LBE71:
 166              		.loc 1 58 8
 167 000a E39DE5FE 		bne	a1,a4,.L6
 168              	.LBE73:
  59:./../../firmware/RISCV/drivers/n200_func.c ****       return ((uint64_t)hi << 32) | lo;
  60:./../../firmware/RISCV/drivers/n200_func.c ****   }
  61:./../../firmware/RISCV/drivers/n200_func.c **** }
GAS LISTING C:\Users\Karzan\AppData\Local\Temp\ccUlsDYc.s 			page 5


 169              		.loc 1 61 1
 170 000e 8280     		ret
 171              		.cfi_endproc
 172              	.LFE10:
 174              		.section	.text.get_timer_freq,"ax",@progbits
 175              		.align	1
 176              		.globl	get_timer_freq
 178              	get_timer_freq:
 179              	.LFB11:
  62:./../../firmware/RISCV/drivers/n200_func.c **** 
  63:./../../firmware/RISCV/drivers/n200_func.c **** uint32_t get_timer_freq(void)
  64:./../../firmware/RISCV/drivers/n200_func.c **** {
 180              		.loc 1 64 1 is_stmt 1
 181              		.cfi_startproc
  65:./../../firmware/RISCV/drivers/n200_func.c ****   return TIMER_FREQ;
 182              		.loc 1 65 3
 183              		.loc 1 65 10 is_stmt 0
 184 0000 B7070000 		lui	a5,%hi(SystemCoreClock)
 185 0004 03A50700 		lw	a0,%lo(SystemCoreClock)(a5)
  66:./../../firmware/RISCV/drivers/n200_func.c **** }
 186              		.loc 1 66 1
 187 0008 0981     		srli	a0,a0,2
 188 000a 8280     		ret
 189              		.cfi_endproc
 190              	.LFE11:
 192              		.section	.text.get_instret_value,"ax",@progbits
 193              		.align	1
 194              		.globl	get_instret_value
 196              	get_instret_value:
 197              	.LFB12:
  67:./../../firmware/RISCV/drivers/n200_func.c **** 
  68:./../../firmware/RISCV/drivers/n200_func.c **** uint64_t get_instret_value(void)
  69:./../../firmware/RISCV/drivers/n200_func.c **** {
 198              		.loc 1 69 1 is_stmt 1
 199              		.cfi_startproc
 200              	.L10:
  70:./../../firmware/RISCV/drivers/n200_func.c ****   while (1) {
 201              		.loc 1 70 3
 202              	.LBB74:
  71:./../../firmware/RISCV/drivers/n200_func.c **** #if   defined (__ICCRISCV__)
  72:./../../firmware/RISCV/drivers/n200_func.c ****     uint32_t hi = read_csr(CSR_MINSTRETH);
  73:./../../firmware/RISCV/drivers/n200_func.c ****     uint32_t lo = read_csr(CSR_MINSTRETH);
  74:./../../firmware/RISCV/drivers/n200_func.c ****     if (hi == read_csr(CSR_MINSTRETH))
  75:./../../firmware/RISCV/drivers/n200_func.c **** #elif defined ( __GNUC__ )
  76:./../../firmware/RISCV/drivers/n200_func.c ****     uint32_t hi = read_csr(minstreth);
 203              		.loc 1 76 5
 204              	.LBB75:
 205              		.loc 1 76 19
 206              		.loc 1 76 19
 207              	 #APP
 208              	# 76 "./../../firmware/RISCV/drivers/n200_func.c" 1
  77              	    uint32_t lo = read_csr(minstret);
 209              		csrr a1, minstreth
 210              	# 0 "" 2
 211              	.LVL3:
  76:./../../firmware/RISCV/drivers/n200_func.c ****     uint32_t hi = read_csr(minstreth);
 212              		.loc 1 76 19
GAS LISTING C:\Users\Karzan\AppData\Local\Temp\ccUlsDYc.s 			page 6


 213              	 #NO_APP
 214              	.LBE75:
 215              		.loc 1 77 5
 216              	.LBB76:
 217              		.loc 1 77 19
 218              		.loc 1 77 19
 219              	 #APP
 220              	# 77 "./../../firmware/RISCV/drivers/n200_func.c" 1
  78              	    if (hi == read_csr(minstreth))
 221              		csrr a0, minstret
 222              	# 0 "" 2
 223              	.LVL4:
  77:./../../firmware/RISCV/drivers/n200_func.c ****     if (hi == read_csr(minstreth))
 224              		.loc 1 77 19
 225              	 #NO_APP
 226              	.LBE76:
 227              		.loc 1 78 5
 228              	.LBB77:
 229              		.loc 1 78 15
 230              		.loc 1 78 15
 231              	 #APP
 232              	# 78 "./../../firmware/RISCV/drivers/n200_func.c" 1
  79              	#endif  
 233              		csrr a5, minstreth
 234              	# 0 "" 2
 235              	.LVL5:
  78:./../../firmware/RISCV/drivers/n200_func.c **** #endif  
 236              		.loc 1 78 15
 237              	 #NO_APP
 238              	.LBE77:
  78:./../../firmware/RISCV/drivers/n200_func.c **** #endif  
 239              		.loc 1 78 8 is_stmt 0
 240 000c E39AF5FE 		bne	a1,a5,.L10
 241              	.LBE74:
  80:./../../firmware/RISCV/drivers/n200_func.c **** 
  81:./../../firmware/RISCV/drivers/n200_func.c ****       return ((uint64_t)hi << 32) | lo;
  82:./../../firmware/RISCV/drivers/n200_func.c ****   }
  83:./../../firmware/RISCV/drivers/n200_func.c **** }
 242              		.loc 1 83 1
 243 0010 8280     		ret
 244              		.cfi_endproc
 245              	.LFE12:
 247              		.section	.text.get_cycle_value,"ax",@progbits
 248              		.align	1
 249              		.globl	get_cycle_value
 251              	get_cycle_value:
 252              	.LFB13:
  84:./../../firmware/RISCV/drivers/n200_func.c **** 
  85:./../../firmware/RISCV/drivers/n200_func.c **** uint64_t get_cycle_value(void)
  86:./../../firmware/RISCV/drivers/n200_func.c **** {
 253              		.loc 1 86 1 is_stmt 1
 254              		.cfi_startproc
 255              	.L13:
  87:./../../firmware/RISCV/drivers/n200_func.c ****   while (1) {
 256              		.loc 1 87 3
 257              	.LBB78:
  88:./../../firmware/RISCV/drivers/n200_func.c **** #if   defined (__ICCRISCV__)
GAS LISTING C:\Users\Karzan\AppData\Local\Temp\ccUlsDYc.s 			page 7


  89:./../../firmware/RISCV/drivers/n200_func.c ****     uint32_t hi = read_csr(CSR_MCYCLEH);
  90:./../../firmware/RISCV/drivers/n200_func.c ****     uint32_t lo = read_csr(CSR_MCYCLE);
  91:./../../firmware/RISCV/drivers/n200_func.c ****     if (hi == read_csr(CSR_MCYCLEH))
  92:./../../firmware/RISCV/drivers/n200_func.c **** #elif defined ( __GNUC__ )
  93:./../../firmware/RISCV/drivers/n200_func.c ****     uint32_t hi = read_csr(mcycleh);
 258              		.loc 1 93 5
 259              	.LBB79:
 260              		.loc 1 93 19
 261              		.loc 1 93 19
 262              	 #APP
 263              	# 93 "./../../firmware/RISCV/drivers/n200_func.c" 1
  94              	    uint32_t lo = read_csr(mcycle);
 264              		csrr a1, mcycleh
 265              	# 0 "" 2
 266              	.LVL6:
  93:./../../firmware/RISCV/drivers/n200_func.c ****     uint32_t hi = read_csr(mcycleh);
 267              		.loc 1 93 19
 268              	 #NO_APP
 269              	.LBE79:
 270              		.loc 1 94 5
 271              	.LBB80:
 272              		.loc 1 94 19
 273              		.loc 1 94 19
 274              	 #APP
 275              	# 94 "./../../firmware/RISCV/drivers/n200_func.c" 1
  95              	    if (hi == read_csr(mcycleh))
 276              		csrr a0, mcycle
 277              	# 0 "" 2
 278              	.LVL7:
  94:./../../firmware/RISCV/drivers/n200_func.c ****     if (hi == read_csr(mcycleh))
 279              		.loc 1 94 19
 280              	 #NO_APP
 281              	.LBE80:
 282              		.loc 1 95 5
 283              	.LBB81:
 284              		.loc 1 95 15
 285              		.loc 1 95 15
 286              	 #APP
 287              	# 95 "./../../firmware/RISCV/drivers/n200_func.c" 1
  96              	#endif    
 288              		csrr a5, mcycleh
 289              	# 0 "" 2
 290              	.LVL8:
  95:./../../firmware/RISCV/drivers/n200_func.c **** #endif    
 291              		.loc 1 95 15
 292              	 #NO_APP
 293              	.LBE81:
  95:./../../firmware/RISCV/drivers/n200_func.c **** #endif    
 294              		.loc 1 95 8 is_stmt 0
 295 000c E39AF5FE 		bne	a1,a5,.L13
 296              	.LBE78:
  97:./../../firmware/RISCV/drivers/n200_func.c **** 
  98:./../../firmware/RISCV/drivers/n200_func.c ****       return ((uint64_t)hi << 32) | lo;
  99:./../../firmware/RISCV/drivers/n200_func.c ****   }
 100:./../../firmware/RISCV/drivers/n200_func.c **** }
 297              		.loc 1 100 1
 298 0010 8280     		ret
GAS LISTING C:\Users\Karzan\AppData\Local\Temp\ccUlsDYc.s 			page 8


 299              		.cfi_endproc
 300              	.LFE13:
 302              		.section	.text.measure_cpu_freq,"ax",@progbits
 303              		.align	1
 304              		.globl	measure_cpu_freq
 306              	measure_cpu_freq:
 307              	.LFB14:
 101:./../../firmware/RISCV/drivers/n200_func.c **** 
 102:./../../firmware/RISCV/drivers/n200_func.c **** uint32_t __attribute__((noinline)) measure_cpu_freq(size_t n)
 103:./../../firmware/RISCV/drivers/n200_func.c **** {
 308              		.loc 1 103 1 is_stmt 1
 309              		.cfi_startproc
 310              	.LVL9:
 104:./../../firmware/RISCV/drivers/n200_func.c ****   uint32_t start_mtime, delta_mtime;
 311              		.loc 1 104 3
 105:./../../firmware/RISCV/drivers/n200_func.c ****   uint32_t mtime_freq = get_timer_freq();
 312              		.loc 1 105 3
 313              	.LBB82:
 314              	.LBB83:
  65:./../../firmware/RISCV/drivers/n200_func.c **** }
 315              		.loc 1 65 3
  65:./../../firmware/RISCV/drivers/n200_func.c **** }
 316              		.loc 1 65 10 is_stmt 0
 317 0000 B7070000 		lui	a5,%hi(SystemCoreClock)
 318 0004 83A70700 		lw	a5,%lo(SystemCoreClock)(a5)
 319              	.LBE83:
 320              	.LBE82:
 321              	.LBB85:
 322              	.LBB86:
  44:./../../firmware/RISCV/drivers/n200_func.c **** }
 323              		.loc 1 44 10
 324 0008 B70600D1 		li	a3,-788529152
 325              	.LBE86:
 326              	.LBE85:
 327              	.LBB88:
 328              	.LBB84:
  65:./../../firmware/RISCV/drivers/n200_func.c **** }
 329              		.loc 1 65 10
 330 000c 13D62700 		srli	a2,a5,2
 331              	.LVL10:
 332              	.LBE84:
 333              	.LBE88:
 106:./../../firmware/RISCV/drivers/n200_func.c **** 
 107:./../../firmware/RISCV/drivers/n200_func.c ****   /* Don't start measuruing until we see an mtime tick */
 108:./../../firmware/RISCV/drivers/n200_func.c ****   uint32_t tmp = mtime_lo();
 334              		.loc 1 108 3 is_stmt 1
 335              	.LBB89:
 336              	.LBB90:
  44:./../../firmware/RISCV/drivers/n200_func.c **** }
 337              		.loc 1 44 3
  44:./../../firmware/RISCV/drivers/n200_func.c **** }
 338              		.loc 1 44 10 is_stmt 0
 339 0010 B70700D1 		li	a5,-788529152
 340 0014 9C43     		lw	a5,0(a5)
 341              	.LVL11:
 342              	.L16:
 343              	.LBE90:
GAS LISTING C:\Users\Karzan\AppData\Local\Temp\ccUlsDYc.s 			page 9


 344              	.LBE89:
 109:./../../firmware/RISCV/drivers/n200_func.c ****   do {
 345              		.loc 1 109 3 is_stmt 1 discriminator 1
 110:./../../firmware/RISCV/drivers/n200_func.c ****     start_mtime = mtime_lo();
 346              		.loc 1 110 5 discriminator 1
 347              	.LBB91:
 348              	.LBB87:
  44:./../../firmware/RISCV/drivers/n200_func.c **** }
 349              		.loc 1 44 3 discriminator 1
  44:./../../firmware/RISCV/drivers/n200_func.c **** }
 350              		.loc 1 44 10 is_stmt 0 discriminator 1
 351 0016 9842     		lw	a4,0(a3)
 352              	.LVL12:
 353              	.LBE87:
 354              	.LBE91:
 111:./../../firmware/RISCV/drivers/n200_func.c ****   } while (start_mtime == tmp);
 355              		.loc 1 111 3 discriminator 1
 356 0018 E38FE7FE 		beq	a5,a4,.L16
 112:./../../firmware/RISCV/drivers/n200_func.c **** 
 113:./../../firmware/RISCV/drivers/n200_func.c **** #if   defined (__ICCRISCV__)
 114:./../../firmware/RISCV/drivers/n200_func.c ****   uint32_t start_mcycle = read_csr(CSR_MCYCLE);
 115:./../../firmware/RISCV/drivers/n200_func.c **** #elif defined ( __GNUC__ )
 116:./../../firmware/RISCV/drivers/n200_func.c ****   uint32_t start_mcycle = read_csr(mcycle);
 357              		.loc 1 116 3 is_stmt 1
 358              	.LBB92:
 359              		.loc 1 116 27
 360              		.loc 1 116 27
 361              	 #APP
 362              	# 116 "./../../firmware/RISCV/drivers/n200_func.c" 1
 117              	#endif
 363              		csrr a1, mcycle
 364              	# 0 "" 2
 365              	.LVL13:
 116:./../../firmware/RISCV/drivers/n200_func.c ****   uint32_t start_mcycle = read_csr(mcycle);
 366              		.loc 1 116 27
 367              	 #NO_APP
 368              	.LBE92:
 369              	.LBB93:
 370              	.LBB94:
  44:./../../firmware/RISCV/drivers/n200_func.c **** }
 371              		.loc 1 44 10 is_stmt 0
 372 0020 370800D1 		li	a6,-788529152
 373              	.LVL14:
 374              	.L17:
 375              	.LBE94:
 376              	.LBE93:
 118:./../../firmware/RISCV/drivers/n200_func.c **** 
 119:./../../firmware/RISCV/drivers/n200_func.c ****   do {
 377              		.loc 1 119 3 is_stmt 1 discriminator 1
 120:./../../firmware/RISCV/drivers/n200_func.c ****     delta_mtime = mtime_lo() - start_mtime;
 378              		.loc 1 120 5 discriminator 1
 379              	.LBB96:
 380              	.LBB95:
  44:./../../firmware/RISCV/drivers/n200_func.c **** }
 381              		.loc 1 44 3 discriminator 1
  44:./../../firmware/RISCV/drivers/n200_func.c **** }
 382              		.loc 1 44 10 is_stmt 0 discriminator 1
GAS LISTING C:\Users\Karzan\AppData\Local\Temp\ccUlsDYc.s 			page 10


 383 0024 83270800 		lw	a5,0(a6)
 384              	.LBE95:
 385              	.LBE96:
 386              		.loc 1 120 17 discriminator 1
 387 0028 B386E740 		sub	a3,a5,a4
 388              	.LVL15:
 121:./../../firmware/RISCV/drivers/n200_func.c ****   } while (delta_mtime < n);
 389              		.loc 1 121 3 discriminator 1
 390 002c E3ECA6FE 		bltu	a3,a0,.L17
 122:./../../firmware/RISCV/drivers/n200_func.c ****   
 123:./../../firmware/RISCV/drivers/n200_func.c **** #if   defined (__ICCRISCV__)
 124:./../../firmware/RISCV/drivers/n200_func.c ****   uint32_t delta_mcycle = read_csr(CSR_MCYCLE) - start_mcycle;
 125:./../../firmware/RISCV/drivers/n200_func.c **** #elif defined ( __GNUC__ )
 126:./../../firmware/RISCV/drivers/n200_func.c ****   uint32_t delta_mcycle = read_csr(mcycle) - start_mcycle;
 391              		.loc 1 126 3 is_stmt 1
 392              	.LBB97:
 393              		.loc 1 126 27
 394              		.loc 1 126 27
 395              	 #APP
 396              	# 126 "./../../firmware/RISCV/drivers/n200_func.c" 1
 127              	#endif
 397              		csrr a4, mcycle
 398              	# 0 "" 2
 399              	.LVL16:
 126:./../../firmware/RISCV/drivers/n200_func.c ****   uint32_t delta_mcycle = read_csr(mcycle) - start_mcycle;
 400              		.loc 1 126 27
 401              	 #NO_APP
 402              	.LBE97:
 126:./../../firmware/RISCV/drivers/n200_func.c ****   uint32_t delta_mcycle = read_csr(mcycle) - start_mcycle;
 403              		.loc 1 126 12 is_stmt 0
 404 0034 B307B740 		sub	a5,a4,a1
 405              	.LVL17:
 128:./../../firmware/RISCV/drivers/n200_func.c **** 
 129:./../../firmware/RISCV/drivers/n200_func.c ****   return (delta_mcycle / delta_mtime) * mtime_freq
 406              		.loc 1 129 3 is_stmt 1
 130:./../../firmware/RISCV/drivers/n200_func.c ****          + ((delta_mcycle % delta_mtime) * mtime_freq) / delta_mtime;
 407              		.loc 1 130 27 is_stmt 0
 408 0038 33F5D702 		remu	a0,a5,a3
 409              	.LVL18:
 129:./../../firmware/RISCV/drivers/n200_func.c ****          + ((delta_mcycle % delta_mtime) * mtime_freq) / delta_mtime;
 410              		.loc 1 129 24
 411 003c B3D7D702 		divu	a5,a5,a3
 412              	.LVL19:
 413              		.loc 1 130 42
 414 0040 3305C502 		mul	a0,a0,a2
 415              		.loc 1 130 56
 416 0044 3355D502 		divu	a0,a0,a3
 129:./../../firmware/RISCV/drivers/n200_func.c ****          + ((delta_mcycle % delta_mtime) * mtime_freq) / delta_mtime;
 417              		.loc 1 129 39
 418 0048 B387C702 		mul	a5,a5,a2
 131:./../../firmware/RISCV/drivers/n200_func.c **** }
 419              		.loc 1 131 1
 420 004c 3E95     		add	a0,a0,a5
 421 004e 8280     		ret
 422              		.cfi_endproc
 423              	.LFE14:
 425              		.section	.text.get_cpu_freq,"ax",@progbits
GAS LISTING C:\Users\Karzan\AppData\Local\Temp\ccUlsDYc.s 			page 11


 426              		.align	1
 427              		.globl	get_cpu_freq
 429              	get_cpu_freq:
 430              	.LFB15:
 132:./../../firmware/RISCV/drivers/n200_func.c **** 
 133:./../../firmware/RISCV/drivers/n200_func.c **** uint32_t get_cpu_freq(void)
 134:./../../firmware/RISCV/drivers/n200_func.c **** {
 431              		.loc 1 134 1 is_stmt 1
 432              		.cfi_startproc
 135:./../../firmware/RISCV/drivers/n200_func.c ****   uint32_t cpu_freq;
 433              		.loc 1 135 3
 136:./../../firmware/RISCV/drivers/n200_func.c **** 
 137:./../../firmware/RISCV/drivers/n200_func.c ****   /* warm up */
 138:./../../firmware/RISCV/drivers/n200_func.c ****   measure_cpu_freq(1);
 434              		.loc 1 138 3
 134:./../../firmware/RISCV/drivers/n200_func.c ****   uint32_t cpu_freq;
 435              		.loc 1 134 1 is_stmt 0
 436 0000 4111     		addi	sp,sp,-16
 437              	.LCFI0:
 438              		.cfi_def_cfa_offset 16
 439              		.loc 1 138 3
 440 0002 0545     		li	a0,1
 134:./../../firmware/RISCV/drivers/n200_func.c ****   uint32_t cpu_freq;
 441              		.loc 1 134 1
 442 0004 06C6     		sw	ra,12(sp)
 443              		.cfi_offset 1, -4
 444              		.loc 1 138 3
 445 0006 97000000 		call	measure_cpu_freq
 445      E7800000 
 446              	.LVL20:
 139:./../../firmware/RISCV/drivers/n200_func.c ****   /* measure for real */
 140:./../../firmware/RISCV/drivers/n200_func.c ****   cpu_freq = measure_cpu_freq(100);
 447              		.loc 1 140 3 is_stmt 1
 141:./../../firmware/RISCV/drivers/n200_func.c **** 
 142:./../../firmware/RISCV/drivers/n200_func.c ****   return cpu_freq;
 143:./../../firmware/RISCV/drivers/n200_func.c **** }
 448              		.loc 1 143 1 is_stmt 0
 449 000e B240     		lw	ra,12(sp)
 450              		.cfi_restore 1
 140:./../../firmware/RISCV/drivers/n200_func.c **** 
 451              		.loc 1 140 14
 452 0010 13054006 		li	a0,100
 453              		.loc 1 143 1
 454 0014 4101     		addi	sp,sp,16
 455              	.LCFI1:
 456              		.cfi_def_cfa_offset 0
 140:./../../firmware/RISCV/drivers/n200_func.c **** 
 457              		.loc 1 140 14
 458 0016 17030000 		tail	measure_cpu_freq
 458      67000300 
 459              	.LVL21:
 460              		.cfi_endproc
 461              	.LFE15:
 463              		.section	.text.eclic_init,"ax",@progbits
 464              		.align	1
 465              		.globl	eclic_init
 467              	eclic_init:
GAS LISTING C:\Users\Karzan\AppData\Local\Temp\ccUlsDYc.s 			page 12


 468              	.LFB16:
 144:./../../firmware/RISCV/drivers/n200_func.c **** 
 145:./../../firmware/RISCV/drivers/n200_func.c **** /* Note that there are no assertions or bounds checking on these */
 146:./../../firmware/RISCV/drivers/n200_func.c **** /* parameter values. */
 147:./../../firmware/RISCV/drivers/n200_func.c **** void eclic_init ( uint32_t num_irq )
 148:./../../firmware/RISCV/drivers/n200_func.c **** {
 469              		.loc 1 148 1 is_stmt 1
 470              		.cfi_startproc
 471              	.LVL22:
 149:./../../firmware/RISCV/drivers/n200_func.c **** 
 150:./../../firmware/RISCV/drivers/n200_func.c ****   typedef volatile uint32_t vuint32_t;
 472              		.loc 1 150 3
 151:./../../firmware/RISCV/drivers/n200_func.c **** 
 152:./../../firmware/RISCV/drivers/n200_func.c ****   /* clear cfg register */
 153:./../../firmware/RISCV/drivers/n200_func.c ****   *(volatile uint8_t*)(ECLIC_ADDR_BASE+ECLIC_CFG_OFFSET)=0;
 473              		.loc 1 153 3
 474              		.loc 1 153 57 is_stmt 0
 475 0000 B70700D2 		li	a5,-771751936
 476 0004 23800700 		sb	zero,0(a5)
 154:./../../firmware/RISCV/drivers/n200_func.c **** 
 155:./../../firmware/RISCV/drivers/n200_func.c ****   /* clear minthresh register */
 156:./../../firmware/RISCV/drivers/n200_func.c ****   *(volatile uint8_t*)(ECLIC_ADDR_BASE+ECLIC_MTH_OFFSET)=0;
 477              		.loc 1 156 3 is_stmt 1
 478              		.loc 1 156 57 is_stmt 0
 479 0008 A3850700 		sb	zero,11(a5)
 157:./../../firmware/RISCV/drivers/n200_func.c **** 
 158:./../../firmware/RISCV/drivers/n200_func.c ****   /* clear all IP/IE/ATTR/CTRL bits for all interrupt sources */
 159:./../../firmware/RISCV/drivers/n200_func.c ****   vuint32_t * ptr;
 480              		.loc 1 159 3 is_stmt 1
 160:./../../firmware/RISCV/drivers/n200_func.c **** 
 161:./../../firmware/RISCV/drivers/n200_func.c ****   vuint32_t * base = (vuint32_t*)(ECLIC_ADDR_BASE + ECLIC_INT_IP_OFFSET);
 481              		.loc 1 161 3
 482              	.LVL23:
 162:./../../firmware/RISCV/drivers/n200_func.c ****   vuint32_t * upper = (vuint32_t*)(base + num_irq*4);
 483              		.loc 1 162 3
 484              		.loc 1 162 41 is_stmt 0
 485 000c 1205     		slli	a0,a0,4
 486              	.LVL24:
 487              		.loc 1 162 15
 488 000e B71700D2 		li	a5,-771747840
 489 0012 3E95     		add	a0,a5,a0
 490              	.LVL25:
 163:./../../firmware/RISCV/drivers/n200_func.c **** 
 164:./../../firmware/RISCV/drivers/n200_func.c ****   for (ptr = base; ptr < upper; ptr=ptr+4){
 491              		.loc 1 164 3 is_stmt 1
 492              	.L23:
 493              		.loc 1 164 3 is_stmt 0 discriminator 1
 494 0014 63E3A700 		bltu	a5,a0,.L24
 165:./../../firmware/RISCV/drivers/n200_func.c ****     *ptr = 0;
 166:./../../firmware/RISCV/drivers/n200_func.c ****   }
 167:./../../firmware/RISCV/drivers/n200_func.c **** }
 495              		.loc 1 167 1
 496 0018 8280     		ret
 497              	.L24:
 165:./../../firmware/RISCV/drivers/n200_func.c ****     *ptr = 0;
 498              		.loc 1 165 5 is_stmt 1 discriminator 3
 165:./../../firmware/RISCV/drivers/n200_func.c ****     *ptr = 0;
GAS LISTING C:\Users\Karzan\AppData\Local\Temp\ccUlsDYc.s 			page 13


 499              		.loc 1 165 10 is_stmt 0 discriminator 3
 500 001a 23A00700 		sw	zero,0(a5)
 164:./../../firmware/RISCV/drivers/n200_func.c ****     *ptr = 0;
 501              		.loc 1 164 36 discriminator 3
 502 001e C107     		addi	a5,a5,16
 503              	.LVL26:
 504 0020 D5BF     		j	.L23
 505              		.cfi_endproc
 506              	.LFE16:
 508              		.section	.text.eclic_enable_interrupt,"ax",@progbits
 509              		.align	1
 510              		.globl	eclic_enable_interrupt
 512              	eclic_enable_interrupt:
 513              	.LFB17:
 168:./../../firmware/RISCV/drivers/n200_func.c **** 
 169:./../../firmware/RISCV/drivers/n200_func.c **** void eclic_enable_interrupt (uint32_t source) {
 514              		.loc 1 169 47 is_stmt 1
 515              		.cfi_startproc
 516              	.LVL27:
 170:./../../firmware/RISCV/drivers/n200_func.c ****     *(volatile uint8_t*)(ECLIC_ADDR_BASE+ECLIC_INT_IE_OFFSET+source*4) = 1;
 517              		.loc 1 170 5
 518              		.loc 1 170 61 is_stmt 0
 519 0000 B71700D2 		li	a5,-771747840
 520 0004 8507     		addi	a5,a5,1
 521              		.loc 1 170 68
 522 0006 0A05     		slli	a0,a0,2
 523              	.LVL28:
 524              		.loc 1 170 61
 525 0008 3E95     		add	a0,a0,a5
 526              		.loc 1 170 72
 527 000a 8547     		li	a5,1
 528 000c 2300F500 		sb	a5,0(a0)
 171:./../../firmware/RISCV/drivers/n200_func.c **** }
 529              		.loc 1 171 1
 530 0010 8280     		ret
 531              		.cfi_endproc
 532              	.LFE17:
 534              		.section	.text.eclic_disable_interrupt,"ax",@progbits
 535              		.align	1
 536              		.globl	eclic_disable_interrupt
 538              	eclic_disable_interrupt:
 539              	.LFB18:
 172:./../../firmware/RISCV/drivers/n200_func.c **** 
 173:./../../firmware/RISCV/drivers/n200_func.c **** void eclic_disable_interrupt (uint32_t source){
 540              		.loc 1 173 47 is_stmt 1
 541              		.cfi_startproc
 542              	.LVL29:
 174:./../../firmware/RISCV/drivers/n200_func.c ****     *(volatile uint8_t*)(ECLIC_ADDR_BASE+ECLIC_INT_IE_OFFSET+source*4) = 0;
 543              		.loc 1 174 5
 544              		.loc 1 174 61 is_stmt 0
 545 0000 B71700D2 		li	a5,-771747840
 546              		.loc 1 174 68
 547 0004 0A05     		slli	a0,a0,2
 548              	.LVL30:
 549              		.loc 1 174 61
 550 0006 8507     		addi	a5,a5,1
 551 0008 3E95     		add	a0,a0,a5
GAS LISTING C:\Users\Karzan\AppData\Local\Temp\ccUlsDYc.s 			page 14


 552              		.loc 1 174 72
 553 000a 23000500 		sb	zero,0(a0)
 175:./../../firmware/RISCV/drivers/n200_func.c **** }
 554              		.loc 1 175 1
 555 000e 8280     		ret
 556              		.cfi_endproc
 557              	.LFE18:
 559              		.section	.text.eclic_set_pending,"ax",@progbits
 560              		.align	1
 561              		.globl	eclic_set_pending
 563              	eclic_set_pending:
 564              	.LFB19:
 176:./../../firmware/RISCV/drivers/n200_func.c **** 
 177:./../../firmware/RISCV/drivers/n200_func.c **** void eclic_set_pending(uint32_t source){
 565              		.loc 1 177 40 is_stmt 1
 566              		.cfi_startproc
 567              	.LVL31:
 178:./../../firmware/RISCV/drivers/n200_func.c ****     *(volatile uint8_t*)(ECLIC_ADDR_BASE+ECLIC_INT_IP_OFFSET+source*4) = 1;
 568              		.loc 1 178 5
 569              		.loc 1 178 61 is_stmt 0
 570 0000 B7078034 		li	a5,880803840
 571 0004 93870740 		addi	a5,a5,1024
 572 0008 3E95     		add	a0,a0,a5
 573              	.LVL32:
 574 000a 0A05     		slli	a0,a0,2
 575              	.LVL33:
 576              		.loc 1 178 72
 577 000c 8547     		li	a5,1
 578 000e 2300F500 		sb	a5,0(a0)
 179:./../../firmware/RISCV/drivers/n200_func.c **** }
 579              		.loc 1 179 1
 580 0012 8280     		ret
 581              		.cfi_endproc
 582              	.LFE19:
 584              		.section	.text.eclic_clear_pending,"ax",@progbits
 585              		.align	1
 586              		.globl	eclic_clear_pending
 588              	eclic_clear_pending:
 589              	.LFB20:
 180:./../../firmware/RISCV/drivers/n200_func.c **** 
 181:./../../firmware/RISCV/drivers/n200_func.c **** void eclic_clear_pending(uint32_t source){
 590              		.loc 1 181 42 is_stmt 1
 591              		.cfi_startproc
 592              	.LVL34:
 182:./../../firmware/RISCV/drivers/n200_func.c ****     *(volatile uint8_t*)(ECLIC_ADDR_BASE+ECLIC_INT_IP_OFFSET+source*4) = 0;
 593              		.loc 1 182 5
 594              		.loc 1 182 61 is_stmt 0
 595 0000 B7078034 		li	a5,880803840
 596 0004 93870740 		addi	a5,a5,1024
 597 0008 3E95     		add	a0,a0,a5
 598              	.LVL35:
 599 000a 0A05     		slli	a0,a0,2
 600              	.LVL36:
 601              		.loc 1 182 72
 602 000c 23000500 		sb	zero,0(a0)
 183:./../../firmware/RISCV/drivers/n200_func.c **** }
 603              		.loc 1 183 1
GAS LISTING C:\Users\Karzan\AppData\Local\Temp\ccUlsDYc.s 			page 15


 604 0010 8280     		ret
 605              		.cfi_endproc
 606              	.LFE20:
 608              		.section	.text.eclic_set_intctrl,"ax",@progbits
 609              		.align	1
 610              		.globl	eclic_set_intctrl
 612              	eclic_set_intctrl:
 613              	.LFB21:
 184:./../../firmware/RISCV/drivers/n200_func.c **** 
 185:./../../firmware/RISCV/drivers/n200_func.c **** void eclic_set_intctrl (uint32_t source, uint8_t intctrl){
 614              		.loc 1 185 58 is_stmt 1
 615              		.cfi_startproc
 616              	.LVL37:
 186:./../../firmware/RISCV/drivers/n200_func.c ****   *(volatile uint8_t*)(ECLIC_ADDR_BASE+ECLIC_INT_CTRL_OFFSET+source*4) = intctrl;
 617              		.loc 1 186 3
 618              		.loc 1 186 61 is_stmt 0
 619 0000 B71700D2 		li	a5,-771747840
 620              		.loc 1 186 68
 621 0004 0A05     		slli	a0,a0,2
 622              	.LVL38:
 623              		.loc 1 186 61
 624 0006 8D07     		addi	a5,a5,3
 625 0008 3E95     		add	a0,a0,a5
 626              		.loc 1 186 72
 627 000a 2300B500 		sb	a1,0(a0)
 187:./../../firmware/RISCV/drivers/n200_func.c **** }
 628              		.loc 1 187 1
 629 000e 8280     		ret
 630              		.cfi_endproc
 631              	.LFE21:
 633              		.section	.text.eclic_get_intctrl,"ax",@progbits
 634              		.align	1
 635              		.globl	eclic_get_intctrl
 637              	eclic_get_intctrl:
 638              	.LFB22:
 188:./../../firmware/RISCV/drivers/n200_func.c **** 
 189:./../../firmware/RISCV/drivers/n200_func.c **** uint8_t eclic_get_intctrl  (uint32_t source){
 639              		.loc 1 189 45 is_stmt 1
 640              		.cfi_startproc
 641              	.LVL39:
 190:./../../firmware/RISCV/drivers/n200_func.c ****   return *(volatile uint8_t*)(ECLIC_ADDR_BASE+ECLIC_INT_CTRL_OFFSET+source*4);
 642              		.loc 1 190 3
 643              		.loc 1 190 68 is_stmt 0
 644 0000 B71700D2 		li	a5,-771747840
 645 0004 8D07     		addi	a5,a5,3
 646              		.loc 1 190 75
 647 0006 0A05     		slli	a0,a0,2
 648              	.LVL40:
 649              		.loc 1 190 68
 650 0008 3E95     		add	a0,a0,a5
 651              		.loc 1 190 10
 652 000a 03450500 		lbu	a0,0(a0)
 191:./../../firmware/RISCV/drivers/n200_func.c **** }
 653              		.loc 1 191 1
 654 000e 8280     		ret
 655              		.cfi_endproc
 656              	.LFE22:
GAS LISTING C:\Users\Karzan\AppData\Local\Temp\ccUlsDYc.s 			page 16


 658              		.section	.text.eclic_set_intattr,"ax",@progbits
 659              		.align	1
 660              		.globl	eclic_set_intattr
 662              	eclic_set_intattr:
 663              	.LFB23:
 192:./../../firmware/RISCV/drivers/n200_func.c **** 
 193:./../../firmware/RISCV/drivers/n200_func.c **** void eclic_set_intattr (uint32_t source, uint8_t intattr){
 664              		.loc 1 193 58 is_stmt 1
 665              		.cfi_startproc
 666              	.LVL41:
 194:./../../firmware/RISCV/drivers/n200_func.c ****   *(volatile uint8_t*)(ECLIC_ADDR_BASE+ECLIC_INT_ATTR_OFFSET+source*4) = intattr;
 667              		.loc 1 194 3
 668              		.loc 1 194 61 is_stmt 0
 669 0000 B71700D2 		li	a5,-771747840
 670              		.loc 1 194 68
 671 0004 0A05     		slli	a0,a0,2
 672              	.LVL42:
 673              		.loc 1 194 61
 674 0006 8907     		addi	a5,a5,2
 675 0008 3E95     		add	a0,a0,a5
 676              		.loc 1 194 72
 677 000a 2300B500 		sb	a1,0(a0)
 195:./../../firmware/RISCV/drivers/n200_func.c **** }
 678              		.loc 1 195 1
 679 000e 8280     		ret
 680              		.cfi_endproc
 681              	.LFE23:
 683              		.section	.text.eclic_get_intattr,"ax",@progbits
 684              		.align	1
 685              		.globl	eclic_get_intattr
 687              	eclic_get_intattr:
 688              	.LFB24:
 196:./../../firmware/RISCV/drivers/n200_func.c **** 
 197:./../../firmware/RISCV/drivers/n200_func.c **** uint8_t eclic_get_intattr  (uint32_t source){
 689              		.loc 1 197 45 is_stmt 1
 690              		.cfi_startproc
 691              	.LVL43:
 198:./../../firmware/RISCV/drivers/n200_func.c ****   return *(volatile uint8_t*)(ECLIC_ADDR_BASE+ECLIC_INT_ATTR_OFFSET+source*4);
 692              		.loc 1 198 3
 693              		.loc 1 198 68 is_stmt 0
 694 0000 B71700D2 		li	a5,-771747840
 695 0004 8907     		addi	a5,a5,2
 696              		.loc 1 198 75
 697 0006 0A05     		slli	a0,a0,2
 698              	.LVL44:
 699              		.loc 1 198 68
 700 0008 3E95     		add	a0,a0,a5
 701              		.loc 1 198 10
 702 000a 03450500 		lbu	a0,0(a0)
 199:./../../firmware/RISCV/drivers/n200_func.c **** }
 703              		.loc 1 199 1
 704 000e 8280     		ret
 705              		.cfi_endproc
 706              	.LFE24:
 708              		.section	.text.eclic_set_cliccfg,"ax",@progbits
 709              		.align	1
 710              		.globl	eclic_set_cliccfg
GAS LISTING C:\Users\Karzan\AppData\Local\Temp\ccUlsDYc.s 			page 17


 712              	eclic_set_cliccfg:
 713              	.LFB25:
 200:./../../firmware/RISCV/drivers/n200_func.c **** 
 201:./../../firmware/RISCV/drivers/n200_func.c **** void eclic_set_cliccfg (uint8_t cliccfg){
 714              		.loc 1 201 41 is_stmt 1
 715              		.cfi_startproc
 716              	.LVL45:
 202:./../../firmware/RISCV/drivers/n200_func.c ****   *(volatile uint8_t*)(ECLIC_ADDR_BASE+ECLIC_CFG_OFFSET) = cliccfg;
 717              		.loc 1 202 3
 718              		.loc 1 202 58 is_stmt 0
 719 0000 B70700D2 		li	a5,-771751936
 720 0004 2380A700 		sb	a0,0(a5)
 203:./../../firmware/RISCV/drivers/n200_func.c **** }
 721              		.loc 1 203 1
 722 0008 8280     		ret
 723              		.cfi_endproc
 724              	.LFE25:
 726              		.section	.text.eclic_get_cliccfg,"ax",@progbits
 727              		.align	1
 728              		.globl	eclic_get_cliccfg
 730              	eclic_get_cliccfg:
 731              	.LFB26:
 204:./../../firmware/RISCV/drivers/n200_func.c **** 
 205:./../../firmware/RISCV/drivers/n200_func.c **** uint8_t eclic_get_cliccfg (void){
 732              		.loc 1 205 33 is_stmt 1
 733              		.cfi_startproc
 206:./../../firmware/RISCV/drivers/n200_func.c ****   return *(volatile uint8_t*)(ECLIC_ADDR_BASE+ECLIC_CFG_OFFSET);
 734              		.loc 1 206 3
 735              		.loc 1 206 10 is_stmt 0
 736 0000 B70700D2 		li	a5,-771751936
 737 0004 03C50700 		lbu	a0,0(a5)
 207:./../../firmware/RISCV/drivers/n200_func.c **** }
 738              		.loc 1 207 1
 739 0008 8280     		ret
 740              		.cfi_endproc
 741              	.LFE26:
 743              		.section	.text.eclic_set_mth,"ax",@progbits
 744              		.align	1
 745              		.globl	eclic_set_mth
 747              	eclic_set_mth:
 748              	.LFB27:
 208:./../../firmware/RISCV/drivers/n200_func.c **** 
 209:./../../firmware/RISCV/drivers/n200_func.c **** void eclic_set_mth (uint8_t mth){
 749              		.loc 1 209 33 is_stmt 1
 750              		.cfi_startproc
 751              	.LVL46:
 210:./../../firmware/RISCV/drivers/n200_func.c ****   *(volatile uint8_t*)(ECLIC_ADDR_BASE+ECLIC_MTH_OFFSET) = mth;
 752              		.loc 1 210 3
 753              		.loc 1 210 58 is_stmt 0
 754 0000 B70700D2 		li	a5,-771751936
 755 0004 A385A700 		sb	a0,11(a5)
 211:./../../firmware/RISCV/drivers/n200_func.c **** }
 756              		.loc 1 211 1
 757 0008 8280     		ret
 758              		.cfi_endproc
 759              	.LFE27:
 761              		.section	.text.eclic_get_mth,"ax",@progbits
GAS LISTING C:\Users\Karzan\AppData\Local\Temp\ccUlsDYc.s 			page 18


 762              		.align	1
 763              		.globl	eclic_get_mth
 765              	eclic_get_mth:
 766              	.LFB28:
 212:./../../firmware/RISCV/drivers/n200_func.c **** 
 213:./../../firmware/RISCV/drivers/n200_func.c **** uint8_t eclic_get_mth (void){
 767              		.loc 1 213 29 is_stmt 1
 768              		.cfi_startproc
 214:./../../firmware/RISCV/drivers/n200_func.c ****   return *(volatile uint8_t*)(ECLIC_ADDR_BASE+ECLIC_MTH_OFFSET);
 769              		.loc 1 214 3
 770              		.loc 1 214 10 is_stmt 0
 771 0000 B70700D2 		li	a5,-771751936
 772 0004 03C5B700 		lbu	a0,11(a5)
 215:./../../firmware/RISCV/drivers/n200_func.c **** }
 773              		.loc 1 215 1
 774 0008 8280     		ret
 775              		.cfi_endproc
 776              	.LFE28:
 778              		.section	.text.eclic_set_nlbits,"ax",@progbits
 779              		.align	1
 780              		.globl	eclic_set_nlbits
 782              	eclic_set_nlbits:
 783              	.LFB29:
 216:./../../firmware/RISCV/drivers/n200_func.c **** 
 217:./../../firmware/RISCV/drivers/n200_func.c **** /* sets nlbits */
 218:./../../firmware/RISCV/drivers/n200_func.c **** void eclic_set_nlbits(uint8_t nlbits) {
 784              		.loc 1 218 39 is_stmt 1
 785              		.cfi_startproc
 786              	.LVL47:
 219:./../../firmware/RISCV/drivers/n200_func.c ****   /* shift nlbits to correct position */
 220:./../../firmware/RISCV/drivers/n200_func.c ****   uint8_t nlbits_shifted = nlbits << ECLIC_CFG_NLBITS_LSB;
 787              		.loc 1 220 3
 221:./../../firmware/RISCV/drivers/n200_func.c **** 
 222:./../../firmware/RISCV/drivers/n200_func.c ****   /* read the current cliccfg */ 
 223:./../../firmware/RISCV/drivers/n200_func.c ****   uint8_t old_cliccfg = eclic_get_cliccfg();
 788              		.loc 1 223 3
 789              	.LBB98:
 790              	.LBB99:
 206:./../../firmware/RISCV/drivers/n200_func.c **** }
 791              		.loc 1 206 3
 206:./../../firmware/RISCV/drivers/n200_func.c **** }
 792              		.loc 1 206 10 is_stmt 0
 793 0000 370700D2 		li	a4,-771751936
 794 0004 83470700 		lbu	a5,0(a4)
 795              	.LVL48:
 796              	.LBE99:
 797              	.LBE98:
 224:./../../firmware/RISCV/drivers/n200_func.c ****   uint8_t new_cliccfg = (old_cliccfg & (~ECLIC_CFG_NLBITS_MASK)) | (ECLIC_CFG_NLBITS_MASK & nlbits_
 798              		.loc 1 224 3 is_stmt 1
 220:./../../firmware/RISCV/drivers/n200_func.c **** 
 799              		.loc 1 220 11 is_stmt 0
 800 0008 0605     		slli	a0,a0,1
 801              	.LVL49:
 802              		.loc 1 224 91
 803 000a 7989     		andi	a0,a0,30
 804              		.loc 1 224 38
 805 000c 93F7170E 		andi	a5,a5,225
GAS LISTING C:\Users\Karzan\AppData\Local\Temp\ccUlsDYc.s 			page 19


 806              	.LVL50:
 807              		.loc 1 224 11
 808 0010 5D8D     		or	a0,a0,a5
 809              	.LVL51:
 225:./../../firmware/RISCV/drivers/n200_func.c **** 
 226:./../../firmware/RISCV/drivers/n200_func.c ****   eclic_set_cliccfg(new_cliccfg);
 810              		.loc 1 226 3 is_stmt 1
 811              	.LBB100:
 812              	.LBB101:
 202:./../../firmware/RISCV/drivers/n200_func.c **** }
 813              		.loc 1 202 3
 202:./../../firmware/RISCV/drivers/n200_func.c **** }
 814              		.loc 1 202 58 is_stmt 0
 815 0012 2300A700 		sb	a0,0(a4)
 816              	.LVL52:
 817              	.LBE101:
 818              	.LBE100:
 227:./../../firmware/RISCV/drivers/n200_func.c **** }
 819              		.loc 1 227 1
 820 0016 8280     		ret
 821              		.cfi_endproc
 822              	.LFE29:
 824              		.section	.text.eclic_get_nlbits,"ax",@progbits
 825              		.align	1
 826              		.globl	eclic_get_nlbits
 828              	eclic_get_nlbits:
 829              	.LFB30:
 228:./../../firmware/RISCV/drivers/n200_func.c **** 
 229:./../../firmware/RISCV/drivers/n200_func.c **** /* get nlbits */
 230:./../../firmware/RISCV/drivers/n200_func.c **** uint8_t eclic_get_nlbits(void) {
 830              		.loc 1 230 32 is_stmt 1
 831              		.cfi_startproc
 231:./../../firmware/RISCV/drivers/n200_func.c ****   /* extract nlbits */
 232:./../../firmware/RISCV/drivers/n200_func.c ****   uint8_t nlbits = eclic_get_cliccfg();
 832              		.loc 1 232 3
 833              	.LBB102:
 834              	.LBB103:
 206:./../../firmware/RISCV/drivers/n200_func.c **** }
 835              		.loc 1 206 3
 206:./../../firmware/RISCV/drivers/n200_func.c **** }
 836              		.loc 1 206 10 is_stmt 0
 837 0000 B70700D2 		li	a5,-771751936
 838 0004 03C50700 		lbu	a0,0(a5)
 839              	.LVL53:
 840              	.LBE103:
 841              	.LBE102:
 233:./../../firmware/RISCV/drivers/n200_func.c ****   nlbits = (nlbits & ECLIC_CFG_NLBITS_MASK) >> ECLIC_CFG_NLBITS_LSB;
 842              		.loc 1 233 3 is_stmt 1
 234:./../../firmware/RISCV/drivers/n200_func.c ****   return nlbits;
 843              		.loc 1 234 3
 233:./../../firmware/RISCV/drivers/n200_func.c ****   nlbits = (nlbits & ECLIC_CFG_NLBITS_MASK) >> ECLIC_CFG_NLBITS_LSB;
 844              		.loc 1 233 45 is_stmt 0
 845 0008 0581     		srli	a0,a0,1
 846              	.LVL54:
 235:./../../firmware/RISCV/drivers/n200_func.c **** }
 847              		.loc 1 235 1
 848 000a 3D89     		andi	a0,a0,15
GAS LISTING C:\Users\Karzan\AppData\Local\Temp\ccUlsDYc.s 			page 20


 849 000c 8280     		ret
 850              		.cfi_endproc
 851              	.LFE30:
 853              		.section	.text.eclic_set_irq_lvl,"ax",@progbits
 854              		.align	1
 855              		.globl	eclic_set_irq_lvl
 857              	eclic_set_irq_lvl:
 858              	.LFB31:
 236:./../../firmware/RISCV/drivers/n200_func.c **** 
 237:./../../firmware/RISCV/drivers/n200_func.c **** /* sets an interrupt level based encoding of nlbits and ECLICINTCTLBITS */
 238:./../../firmware/RISCV/drivers/n200_func.c **** void eclic_set_irq_lvl(uint32_t source, uint8_t lvl) {
 859              		.loc 1 238 54 is_stmt 1
 860              		.cfi_startproc
 861              	.LVL55:
 239:./../../firmware/RISCV/drivers/n200_func.c ****   /* extract nlbits */
 240:./../../firmware/RISCV/drivers/n200_func.c ****   uint8_t nlbits = eclic_get_nlbits();
 862              		.loc 1 240 3
 238:./../../firmware/RISCV/drivers/n200_func.c ****   /* extract nlbits */
 863              		.loc 1 238 54 is_stmt 0
 864 0000 0111     		addi	sp,sp,-32
 865              	.LCFI2:
 866              		.cfi_def_cfa_offset 32
 867 0002 22CC     		sw	s0,24(sp)
 868 0004 2EC6     		sw	a1,12(sp)
 869 0006 06CE     		sw	ra,28(sp)
 870              		.cfi_offset 8, -8
 871              		.cfi_offset 1, -4
 238:./../../firmware/RISCV/drivers/n200_func.c ****   /* extract nlbits */
 872              		.loc 1 238 54
 873 0008 2A84     		mv	s0,a0
 874              		.loc 1 240 20
 875 000a 97000000 		call	eclic_get_nlbits
 875      E7800000 
 876              	.LVL56:
 241:./../../firmware/RISCV/drivers/n200_func.c ****   if (nlbits > ECLICINTCTLBITS) {
 877              		.loc 1 241 3 is_stmt 1
 242:./../../firmware/RISCV/drivers/n200_func.c ****     nlbits = ECLICINTCTLBITS;
 243:./../../firmware/RISCV/drivers/n200_func.c ****   }
 244:./../../firmware/RISCV/drivers/n200_func.c **** 
 245:./../../firmware/RISCV/drivers/n200_func.c ****   /* shift lvl right to mask off unused bits */
 246:./../../firmware/RISCV/drivers/n200_func.c ****   lvl = lvl >> (8-nlbits);
 878              		.loc 1 246 3
 879              		.loc 1 246 18 is_stmt 0
 880 0012 9147     		li	a5,4
 881 0014 B245     		lw	a1,12(sp)
 882 0016 1147     		li	a4,4
 883 0018 63E3A700 		bgtu	a0,a5,.L40
 884 001c 2A87     		mv	a4,a0
 885              	.L40:
 886 001e 9376F70F 		andi	a3,a4,0xff
 887 0022 A147     		li	a5,8
 888              	.LBB104:
 889              	.LBB105:
 190:./../../firmware/RISCV/drivers/n200_func.c **** }
 890              		.loc 1 190 68
 891 0024 371500D2 		li	a0,-771747840
 892              	.LVL57:
GAS LISTING C:\Users\Karzan\AppData\Local\Temp\ccUlsDYc.s 			page 21


 893              	.LBE105:
 894              	.LBE104:
 895              		.loc 1 246 18
 896 0028 958F     		sub	a5,a5,a3
 897              	.LVL58:
 247:./../../firmware/RISCV/drivers/n200_func.c ****   /* shift lvl into correct bit position */
 248:./../../firmware/RISCV/drivers/n200_func.c ****   lvl = lvl << (8-nlbits);
 898              		.loc 1 248 3 is_stmt 1
 899              	.LBB108:
 900              	.LBB106:
 190:./../../firmware/RISCV/drivers/n200_func.c **** }
 901              		.loc 1 190 75 is_stmt 0
 902 002a 0A04     		slli	s0,s0,2
 903              	.LVL59:
 190:./../../firmware/RISCV/drivers/n200_func.c **** }
 904              		.loc 1 190 68
 905 002c 0D05     		addi	a0,a0,3
 906 002e 2295     		add	a0,s0,a0
 907              	.LBE106:
 908              	.LBE108:
 246:./../../firmware/RISCV/drivers/n200_func.c ****   /* shift lvl into correct bit position */
 909              		.loc 1 246 13
 910 0030 B3D5F540 		sra	a1,a1,a5
 911              	.LVL60:
 912              		.loc 1 248 13
 913 0034 B395F500 		sll	a1,a1,a5
 914              	.LVL61:
 249:./../../firmware/RISCV/drivers/n200_func.c ****  
 250:./../../firmware/RISCV/drivers/n200_func.c ****   /* write to clicintctrl */
 251:./../../firmware/RISCV/drivers/n200_func.c ****   uint8_t current_intctrl = eclic_get_intctrl(source);
 915              		.loc 1 251 3 is_stmt 1
 916              	.LBB109:
 917              	.LBB107:
 190:./../../firmware/RISCV/drivers/n200_func.c **** }
 918              		.loc 1 190 3
 190:./../../firmware/RISCV/drivers/n200_func.c **** }
 919              		.loc 1 190 10 is_stmt 0
 920 0038 83470500 		lbu	a5,0(a0)
 921              	.LVL62:
 922              	.LBE107:
 923              	.LBE109:
 252:./../../firmware/RISCV/drivers/n200_func.c ****   /* shift intctrl left to mask off unused bits */
 253:./../../firmware/RISCV/drivers/n200_func.c ****   current_intctrl = current_intctrl << nlbits;
 924              		.loc 1 253 3 is_stmt 1
 254:./../../firmware/RISCV/drivers/n200_func.c ****   /* shift intctrl into correct bit position */
 255:./../../firmware/RISCV/drivers/n200_func.c ****   current_intctrl = current_intctrl >> nlbits;
 925              		.loc 1 255 3
 256:./../../firmware/RISCV/drivers/n200_func.c **** 
 257:./../../firmware/RISCV/drivers/n200_func.c ****   eclic_set_intctrl(source, (current_intctrl | lvl));
 926              		.loc 1 257 3
 253:./../../firmware/RISCV/drivers/n200_func.c ****   /* shift intctrl into correct bit position */
 927              		.loc 1 253 37 is_stmt 0
 928 003c B397E700 		sll	a5,a5,a4
 929              	.LVL63:
 255:./../../firmware/RISCV/drivers/n200_func.c **** 
 930              		.loc 1 255 37
 931 0040 93F7F70F 		andi	a5,a5,255
GAS LISTING C:\Users\Karzan\AppData\Local\Temp\ccUlsDYc.s 			page 22


 932 0044 B3D7E740 		sra	a5,a5,a4
 933              		.loc 1 257 3
 934 0048 CD8F     		or	a5,a5,a1
 935 004a 93F7F70F 		andi	a5,a5,0xff
 936              	.LVL64:
 937              	.LBB110:
 938              	.LBB111:
 186:./../../firmware/RISCV/drivers/n200_func.c **** }
 939              		.loc 1 186 3 is_stmt 1
 186:./../../firmware/RISCV/drivers/n200_func.c **** }
 940              		.loc 1 186 72 is_stmt 0
 941 004e 2300F500 		sb	a5,0(a0)
 942              	.LVL65:
 943              	.LBE111:
 944              	.LBE110:
 258:./../../firmware/RISCV/drivers/n200_func.c **** }
 945              		.loc 1 258 1
 946 0052 F240     		lw	ra,28(sp)
 947              		.cfi_restore 1
 948 0054 6244     		lw	s0,24(sp)
 949              		.cfi_restore 8
 950 0056 0561     		addi	sp,sp,32
 951              	.LCFI3:
 952              		.cfi_def_cfa_offset 0
 953 0058 8280     		jr	ra
 954              		.cfi_endproc
 955              	.LFE31:
 957              		.section	.text.eclic_get_irq_lvl,"ax",@progbits
 958              		.align	1
 959              		.globl	eclic_get_irq_lvl
 961              	eclic_get_irq_lvl:
 962              	.LFB32:
 259:./../../firmware/RISCV/drivers/n200_func.c **** 
 260:./../../firmware/RISCV/drivers/n200_func.c **** /* gets an interrupt level based encoding of nlbits */
 261:./../../firmware/RISCV/drivers/n200_func.c **** uint8_t eclic_get_irq_lvl(uint32_t source) {
 963              		.loc 1 261 44 is_stmt 1
 964              		.cfi_startproc
 965              	.LVL66:
 262:./../../firmware/RISCV/drivers/n200_func.c ****   /* extract nlbits */
 263:./../../firmware/RISCV/drivers/n200_func.c ****   uint8_t nlbits = eclic_get_nlbits();
 966              		.loc 1 263 3
 261:./../../firmware/RISCV/drivers/n200_func.c ****   /* extract nlbits */
 967              		.loc 1 261 44 is_stmt 0
 968 0000 4111     		addi	sp,sp,-16
 969              	.LCFI4:
 970              		.cfi_def_cfa_offset 16
 971 0002 22C4     		sw	s0,8(sp)
 972 0004 06C6     		sw	ra,12(sp)
 973              		.cfi_offset 8, -8
 974              		.cfi_offset 1, -4
 261:./../../firmware/RISCV/drivers/n200_func.c ****   /* extract nlbits */
 975              		.loc 1 261 44
 976 0006 2A84     		mv	s0,a0
 977              		.loc 1 263 20
 978 0008 97000000 		call	eclic_get_nlbits
 978      E7800000 
 979              	.LVL67:
GAS LISTING C:\Users\Karzan\AppData\Local\Temp\ccUlsDYc.s 			page 23


 264:./../../firmware/RISCV/drivers/n200_func.c ****   if (nlbits > ECLICINTCTLBITS) {
 980              		.loc 1 264 3 is_stmt 1
 265:./../../firmware/RISCV/drivers/n200_func.c ****     nlbits = ECLICINTCTLBITS;
 266:./../../firmware/RISCV/drivers/n200_func.c ****   }
 267:./../../firmware/RISCV/drivers/n200_func.c **** 
 268:./../../firmware/RISCV/drivers/n200_func.c ****   uint8_t intctrl = eclic_get_intctrl(source);
 981              		.loc 1 268 3
 982              	.LBB112:
 983              	.LBB113:
 190:./../../firmware/RISCV/drivers/n200_func.c **** }
 984              		.loc 1 190 3
 190:./../../firmware/RISCV/drivers/n200_func.c **** }
 985              		.loc 1 190 68 is_stmt 0
 986 0010 B71700D2 		li	a5,-771747840
 987 0014 8D07     		addi	a5,a5,3
 190:./../../firmware/RISCV/drivers/n200_func.c **** }
 988              		.loc 1 190 75
 989 0016 0A04     		slli	s0,s0,2
 990              	.LVL68:
 190:./../../firmware/RISCV/drivers/n200_func.c **** }
 991              		.loc 1 190 68
 992 0018 3E94     		add	s0,s0,a5
 190:./../../firmware/RISCV/drivers/n200_func.c **** }
 993              		.loc 1 190 10
 994 001a 83470400 		lbu	a5,0(s0)
 995              	.LBE113:
 996              	.LBE112:
 269:./../../firmware/RISCV/drivers/n200_func.c **** 
 270:./../../firmware/RISCV/drivers/n200_func.c ****   /* shift intctrl */
 271:./../../firmware/RISCV/drivers/n200_func.c ****   intctrl = intctrl >> (8-nlbits);
 997              		.loc 1 271 26
 998 001e 9146     		li	a3,4
 999 0020 1147     		li	a4,4
 1000              	.LBB115:
 1001              	.LBB114:
 190:./../../firmware/RISCV/drivers/n200_func.c **** }
 1002              		.loc 1 190 10
 1003 0022 93F7F70F 		andi	a5,a5,0xff
 1004              	.LVL69:
 1005              	.LBE114:
 1006              	.LBE115:
 1007              		.loc 1 271 3 is_stmt 1
 1008              		.loc 1 271 26 is_stmt 0
 1009 0026 63E4A600 		bgtu	a0,a3,.L44
 1010 002a 1377F50F 		andi	a4,a0,0xff
 1011              	.L44:
 1012 002e 2145     		li	a0,8
 1013              	.LVL70:
 1014 0030 198D     		sub	a0,a0,a4
 1015              	.LVL71:
 272:./../../firmware/RISCV/drivers/n200_func.c ****   /* shift intctrl */
 273:./../../firmware/RISCV/drivers/n200_func.c ****   uint8_t lvl = intctrl << (8-nlbits);
 1016              		.loc 1 273 3 is_stmt 1
 274:./../../firmware/RISCV/drivers/n200_func.c **** 
 275:./../../firmware/RISCV/drivers/n200_func.c ****   return lvl;
 1017              		.loc 1 275 3
 276:./../../firmware/RISCV/drivers/n200_func.c **** }
GAS LISTING C:\Users\Karzan\AppData\Local\Temp\ccUlsDYc.s 			page 24


 1018              		.loc 1 276 1 is_stmt 0
 1019 0032 B240     		lw	ra,12(sp)
 1020              		.cfi_restore 1
 1021 0034 2244     		lw	s0,8(sp)
 1022              		.cfi_restore 8
 271:./../../firmware/RISCV/drivers/n200_func.c ****   /* shift intctrl */
 1023              		.loc 1 271 21
 1024 0036 B3D7A740 		sra	a5,a5,a0
 1025              	.LVL72:
 273:./../../firmware/RISCV/drivers/n200_func.c **** 
 1026              		.loc 1 273 25
 1027 003a 3395A700 		sll	a0,a5,a0
 1028              		.loc 1 276 1
 1029 003e 1375F50F 		andi	a0,a0,0xff
 1030 0042 4101     		addi	sp,sp,16
 1031              	.LCFI5:
 1032              		.cfi_def_cfa_offset 0
 1033 0044 8280     		jr	ra
 1034              		.cfi_endproc
 1035              	.LFE32:
 1037              		.section	.text.eclic_set_irq_lvl_abs,"ax",@progbits
 1038              		.align	1
 1039              		.globl	eclic_set_irq_lvl_abs
 1041              	eclic_set_irq_lvl_abs:
 1042              	.LFB33:
 277:./../../firmware/RISCV/drivers/n200_func.c **** 
 278:./../../firmware/RISCV/drivers/n200_func.c **** void eclic_set_irq_lvl_abs(uint32_t source, uint8_t lvl_abs) {
 1043              		.loc 1 278 62 is_stmt 1
 1044              		.cfi_startproc
 1045              	.LVL73:
 279:./../../firmware/RISCV/drivers/n200_func.c ****   /* extract nlbits */
 280:./../../firmware/RISCV/drivers/n200_func.c ****   uint8_t nlbits = eclic_get_nlbits();
 1046              		.loc 1 280 3
 278:./../../firmware/RISCV/drivers/n200_func.c ****   /* extract nlbits */
 1047              		.loc 1 278 62 is_stmt 0
 1048 0000 4111     		addi	sp,sp,-16
 1049              	.LCFI6:
 1050              		.cfi_def_cfa_offset 16
 1051 0002 22C4     		sw	s0,8(sp)
 1052 0004 26C2     		sw	s1,4(sp)
 1053 0006 06C6     		sw	ra,12(sp)
 1054              		.cfi_offset 8, -8
 1055              		.cfi_offset 9, -12
 1056              		.cfi_offset 1, -4
 278:./../../firmware/RISCV/drivers/n200_func.c ****   /* extract nlbits */
 1057              		.loc 1 278 62
 1058 0008 2A84     		mv	s0,a0
 1059 000a AE84     		mv	s1,a1
 1060              		.loc 1 280 20
 1061 000c 97000000 		call	eclic_get_nlbits
 1061      E7800000 
 1062              	.LVL74:
 281:./../../firmware/RISCV/drivers/n200_func.c ****   if (nlbits > ECLICINTCTLBITS) {
 1063              		.loc 1 281 3 is_stmt 1
 282:./../../firmware/RISCV/drivers/n200_func.c ****     nlbits = ECLICINTCTLBITS;
 283:./../../firmware/RISCV/drivers/n200_func.c ****   }
 284:./../../firmware/RISCV/drivers/n200_func.c **** 
GAS LISTING C:\Users\Karzan\AppData\Local\Temp\ccUlsDYc.s 			page 25


 285:./../../firmware/RISCV/drivers/n200_func.c ****   /* shift lvl_abs into correct bit position */
 286:./../../firmware/RISCV/drivers/n200_func.c ****   uint8_t lvl = lvl_abs << (8-nlbits);
 1064              		.loc 1 286 3
 1065              		.loc 1 286 30 is_stmt 0
 1066 0014 9147     		li	a5,4
 1067 0016 1147     		li	a4,4
 1068 0018 63E3A700 		bgtu	a0,a5,.L48
 1069 001c 2A87     		mv	a4,a0
 1070              	.L48:
 1071              	.LBB116:
 1072              	.LBB117:
 190:./../../firmware/RISCV/drivers/n200_func.c **** }
 1073              		.loc 1 190 68
 1074 001e 371500D2 		li	a0,-771747840
 1075              	.LVL75:
 190:./../../firmware/RISCV/drivers/n200_func.c **** }
 1076              		.loc 1 190 75
 1077 0022 0A04     		slli	s0,s0,2
 1078              	.LVL76:
 190:./../../firmware/RISCV/drivers/n200_func.c **** }
 1079              		.loc 1 190 68
 1080 0024 0D05     		addi	a0,a0,3
 1081 0026 2295     		add	a0,s0,a0
 190:./../../firmware/RISCV/drivers/n200_func.c **** }
 1082              		.loc 1 190 10
 1083 0028 83470500 		lbu	a5,0(a0)
 1084              	.LBE117:
 1085              	.LBE116:
 1086              		.loc 1 286 30
 1087 002c 9376F70F 		andi	a3,a4,0xff
 1088              	.LVL77:
 287:./../../firmware/RISCV/drivers/n200_func.c ****  
 288:./../../firmware/RISCV/drivers/n200_func.c ****   /* write to clicintctrl */
 289:./../../firmware/RISCV/drivers/n200_func.c ****   uint8_t current_intctrl = eclic_get_intctrl(source);
 1089              		.loc 1 289 3 is_stmt 1
 1090              	.LBB119:
 1091              	.LBB118:
 190:./../../firmware/RISCV/drivers/n200_func.c **** }
 1092              		.loc 1 190 3
 1093              	.LBE118:
 1094              	.LBE119:
 290:./../../firmware/RISCV/drivers/n200_func.c ****   /* shift intctrl left to mask off unused bits */
 291:./../../firmware/RISCV/drivers/n200_func.c ****   current_intctrl = current_intctrl << nlbits;
 1095              		.loc 1 291 3
 292:./../../firmware/RISCV/drivers/n200_func.c ****   /* shift intctrl into correct bit position */
 293:./../../firmware/RISCV/drivers/n200_func.c ****   current_intctrl = current_intctrl >> nlbits;
 1096              		.loc 1 293 3
 294:./../../firmware/RISCV/drivers/n200_func.c **** 
 295:./../../firmware/RISCV/drivers/n200_func.c ****   eclic_set_intctrl(source, (current_intctrl | lvl));
 1097              		.loc 1 295 3
 286:./../../firmware/RISCV/drivers/n200_func.c ****  
 1098              		.loc 1 286 30 is_stmt 0
 1099 0030 A145     		li	a1,8
 291:./../../firmware/RISCV/drivers/n200_func.c ****   /* shift intctrl into correct bit position */
 1100              		.loc 1 291 37
 1101 0032 B397E700 		sll	a5,a5,a4
 1102              	.LVL78:
GAS LISTING C:\Users\Karzan\AppData\Local\Temp\ccUlsDYc.s 			page 26


 293:./../../firmware/RISCV/drivers/n200_func.c **** 
 1103              		.loc 1 293 37
 1104 0036 93F7F70F 		andi	a5,a5,255
 286:./../../firmware/RISCV/drivers/n200_func.c ****  
 1105              		.loc 1 286 30
 1106 003a 958D     		sub	a1,a1,a3
 286:./../../firmware/RISCV/drivers/n200_func.c ****  
 1107              		.loc 1 286 25
 1108 003c B394B400 		sll	s1,s1,a1
 1109              	.LVL79:
 293:./../../firmware/RISCV/drivers/n200_func.c **** 
 1110              		.loc 1 293 37
 1111 0040 B3D7E740 		sra	a5,a5,a4
 1112              		.loc 1 295 3
 1113 0044 C58F     		or	a5,a5,s1
 1114 0046 93F7F70F 		andi	a5,a5,0xff
 1115              	.LVL80:
 1116              	.LBB120:
 1117              	.LBB121:
 186:./../../firmware/RISCV/drivers/n200_func.c **** }
 1118              		.loc 1 186 3 is_stmt 1
 186:./../../firmware/RISCV/drivers/n200_func.c **** }
 1119              		.loc 1 186 72 is_stmt 0
 1120 004a 2300F500 		sb	a5,0(a0)
 1121              	.LVL81:
 1122              	.LBE121:
 1123              	.LBE120:
 296:./../../firmware/RISCV/drivers/n200_func.c **** }
 1124              		.loc 1 296 1
 1125 004e B240     		lw	ra,12(sp)
 1126              		.cfi_restore 1
 1127 0050 2244     		lw	s0,8(sp)
 1128              		.cfi_restore 8
 1129 0052 9244     		lw	s1,4(sp)
 1130              		.cfi_restore 9
 1131 0054 4101     		addi	sp,sp,16
 1132              	.LCFI7:
 1133              		.cfi_def_cfa_offset 0
 1134 0056 8280     		jr	ra
 1135              		.cfi_endproc
 1136              	.LFE33:
 1138              		.section	.text.eclic_get_irq_lvl_abs,"ax",@progbits
 1139              		.align	1
 1140              		.globl	eclic_get_irq_lvl_abs
 1142              	eclic_get_irq_lvl_abs:
 1143              	.LFB34:
 297:./../../firmware/RISCV/drivers/n200_func.c **** 
 298:./../../firmware/RISCV/drivers/n200_func.c **** uint8_t eclic_get_irq_lvl_abs(uint32_t source) {
 1144              		.loc 1 298 48 is_stmt 1
 1145              		.cfi_startproc
 1146              	.LVL82:
 299:./../../firmware/RISCV/drivers/n200_func.c ****   /* extract nlbits */
 300:./../../firmware/RISCV/drivers/n200_func.c ****   uint8_t nlbits = eclic_get_nlbits();
 1147              		.loc 1 300 3
 298:./../../firmware/RISCV/drivers/n200_func.c ****   /* extract nlbits */
 1148              		.loc 1 298 48 is_stmt 0
 1149 0000 4111     		addi	sp,sp,-16
GAS LISTING C:\Users\Karzan\AppData\Local\Temp\ccUlsDYc.s 			page 27


 1150              	.LCFI8:
 1151              		.cfi_def_cfa_offset 16
 1152 0002 22C4     		sw	s0,8(sp)
 1153 0004 06C6     		sw	ra,12(sp)
 1154              		.cfi_offset 8, -8
 1155              		.cfi_offset 1, -4
 298:./../../firmware/RISCV/drivers/n200_func.c ****   /* extract nlbits */
 1156              		.loc 1 298 48
 1157 0006 2A84     		mv	s0,a0
 1158              		.loc 1 300 20
 1159 0008 97000000 		call	eclic_get_nlbits
 1159      E7800000 
 1160              	.LVL83:
 301:./../../firmware/RISCV/drivers/n200_func.c ****   if (nlbits > ECLICINTCTLBITS) {
 1161              		.loc 1 301 3 is_stmt 1
 302:./../../firmware/RISCV/drivers/n200_func.c ****     nlbits = ECLICINTCTLBITS;
 303:./../../firmware/RISCV/drivers/n200_func.c ****   }
 304:./../../firmware/RISCV/drivers/n200_func.c **** 
 305:./../../firmware/RISCV/drivers/n200_func.c ****   uint8_t intctrl = eclic_get_intctrl(source);
 1162              		.loc 1 305 3
 1163              	.LBB122:
 1164              	.LBB123:
 190:./../../firmware/RISCV/drivers/n200_func.c **** }
 1165              		.loc 1 190 3
 190:./../../firmware/RISCV/drivers/n200_func.c **** }
 1166              		.loc 1 190 68 is_stmt 0
 1167 0010 B71700D2 		li	a5,-771747840
 1168 0014 8D07     		addi	a5,a5,3
 190:./../../firmware/RISCV/drivers/n200_func.c **** }
 1169              		.loc 1 190 75
 1170 0016 0A04     		slli	s0,s0,2
 1171              	.LVL84:
 190:./../../firmware/RISCV/drivers/n200_func.c **** }
 1172              		.loc 1 190 68
 1173 0018 3E94     		add	s0,s0,a5
 190:./../../firmware/RISCV/drivers/n200_func.c **** }
 1174              		.loc 1 190 10
 1175 001a 83470400 		lbu	a5,0(s0)
 1176              	.LBE123:
 1177              	.LBE122:
 306:./../../firmware/RISCV/drivers/n200_func.c **** 
 307:./../../firmware/RISCV/drivers/n200_func.c ****   /* shift intctrl */
 308:./../../firmware/RISCV/drivers/n200_func.c ****   intctrl = intctrl >> (8-nlbits);
 1178              		.loc 1 308 26
 1179 001e 9146     		li	a3,4
 1180 0020 1147     		li	a4,4
 1181              	.LBB125:
 1182              	.LBB124:
 190:./../../firmware/RISCV/drivers/n200_func.c **** }
 1183              		.loc 1 190 10
 1184 0022 93F7F70F 		andi	a5,a5,0xff
 1185              	.LVL85:
 1186              	.LBE124:
 1187              	.LBE125:
 1188              		.loc 1 308 3 is_stmt 1
 309:./../../firmware/RISCV/drivers/n200_func.c ****   /* shift intctrl */
 310:./../../firmware/RISCV/drivers/n200_func.c ****   uint8_t lvl_abs = intctrl;
GAS LISTING C:\Users\Karzan\AppData\Local\Temp\ccUlsDYc.s 			page 28


 1189              		.loc 1 310 3
 311:./../../firmware/RISCV/drivers/n200_func.c **** 
 312:./../../firmware/RISCV/drivers/n200_func.c ****   return lvl_abs;
 1190              		.loc 1 312 3
 308:./../../firmware/RISCV/drivers/n200_func.c ****   /* shift intctrl */
 1191              		.loc 1 308 26 is_stmt 0
 1192 0026 63E4A600 		bgtu	a0,a3,.L52
 1193 002a 1377F50F 		andi	a4,a0,0xff
 1194              	.L52:
 1195 002e 2145     		li	a0,8
 1196              	.LVL86:
 313:./../../firmware/RISCV/drivers/n200_func.c **** }
 1197              		.loc 1 313 1
 1198 0030 B240     		lw	ra,12(sp)
 1199              		.cfi_restore 1
 1200 0032 2244     		lw	s0,8(sp)
 1201              		.cfi_restore 8
 308:./../../firmware/RISCV/drivers/n200_func.c ****   /* shift intctrl */
 1202              		.loc 1 308 26
 1203 0034 3307E540 		sub	a4,a0,a4
 308:./../../firmware/RISCV/drivers/n200_func.c ****   /* shift intctrl */
 1204              		.loc 1 308 21
 1205 0038 33D5E740 		sra	a0,a5,a4
 1206              		.loc 1 313 1
 1207 003c 1375F50F 		andi	a0,a0,0xff
 1208 0040 4101     		addi	sp,sp,16
 1209              	.LCFI9:
 1210              		.cfi_def_cfa_offset 0
 1211 0042 8280     		jr	ra
 1212              		.cfi_endproc
 1213              	.LFE34:
 1215              		.section	.text.eclic_set_irq_priority,"ax",@progbits
 1216              		.align	1
 1217              		.globl	eclic_set_irq_priority
 1219              	eclic_set_irq_priority:
 1220              	.LFB35:
 314:./../../firmware/RISCV/drivers/n200_func.c **** 
 315:./../../firmware/RISCV/drivers/n200_func.c **** /* sets an interrupt priority based encoding of nlbits and ECLICINTCTLBITS */
 316:./../../firmware/RISCV/drivers/n200_func.c **** uint8_t eclic_set_irq_priority(uint32_t source, uint8_t priority) {
 1221              		.loc 1 316 67 is_stmt 1
 1222              		.cfi_startproc
 1223              	.LVL87:
 317:./../../firmware/RISCV/drivers/n200_func.c ****     /* extract nlbits */
 318:./../../firmware/RISCV/drivers/n200_func.c ****     uint8_t nlbits = eclic_get_nlbits();
 1224              		.loc 1 318 5
 316:./../../firmware/RISCV/drivers/n200_func.c ****     /* extract nlbits */
 1225              		.loc 1 316 67 is_stmt 0
 1226 0000 0111     		addi	sp,sp,-32
 1227              	.LCFI10:
 1228              		.cfi_def_cfa_offset 32
 1229 0002 22CC     		sw	s0,24(sp)
 1230 0004 2EC6     		sw	a1,12(sp)
 1231 0006 06CE     		sw	ra,28(sp)
 1232              		.cfi_offset 8, -8
 1233              		.cfi_offset 1, -4
 316:./../../firmware/RISCV/drivers/n200_func.c ****     /* extract nlbits */
 1234              		.loc 1 316 67
GAS LISTING C:\Users\Karzan\AppData\Local\Temp\ccUlsDYc.s 			page 29


 1235 0008 2A84     		mv	s0,a0
 1236              		.loc 1 318 22
 1237 000a 97000000 		call	eclic_get_nlbits
 1237      E7800000 
 1238              	.LVL88:
 319:./../../firmware/RISCV/drivers/n200_func.c ****     if (nlbits >= ECLICINTCTLBITS) {
 1239              		.loc 1 319 5 is_stmt 1
 1240              		.loc 1 319 8 is_stmt 0
 1241 0012 8D47     		li	a5,3
 320:./../../firmware/RISCV/drivers/n200_func.c ****         nlbits = ECLICINTCTLBITS;
 321:./../../firmware/RISCV/drivers/n200_func.c ****         return 0;
 1242              		.loc 1 321 16
 1243 0014 8145     		li	a1,0
 319:./../../firmware/RISCV/drivers/n200_func.c ****     if (nlbits >= ECLICINTCTLBITS) {
 1244              		.loc 1 319 8
 1245 0016 63E9A702 		bgtu	a0,a5,.L56
 322:./../../firmware/RISCV/drivers/n200_func.c ****     }
 323:./../../firmware/RISCV/drivers/n200_func.c **** 
 324:./../../firmware/RISCV/drivers/n200_func.c ****     /* shift priority into correct bit position */
 325:./../../firmware/RISCV/drivers/n200_func.c ****     priority = priority << (8 - ECLICINTCTLBITS);
 1246              		.loc 1 325 5 is_stmt 1
 1247              	.LBB126:
 1248              	.LBB127:
 190:./../../firmware/RISCV/drivers/n200_func.c **** }
 1249              		.loc 1 190 68 is_stmt 0
 1250 001a 371700D2 		li	a4,-771747840
 190:./../../firmware/RISCV/drivers/n200_func.c **** }
 1251              		.loc 1 190 75
 1252 001e 0A04     		slli	s0,s0,2
 1253              	.LVL89:
 190:./../../firmware/RISCV/drivers/n200_func.c **** }
 1254              		.loc 1 190 68
 1255 0020 0D07     		addi	a4,a4,3
 1256 0022 2297     		add	a4,s0,a4
 190:./../../firmware/RISCV/drivers/n200_func.c **** }
 1257              		.loc 1 190 10
 1258 0024 83470700 		lbu	a5,0(a4)
 1259              	.LBE127:
 1260              	.LBE126:
 1261              		.loc 1 325 14
 1262 0028 B245     		lw	a1,12(sp)
 326:./../../firmware/RISCV/drivers/n200_func.c **** 
 327:./../../firmware/RISCV/drivers/n200_func.c ****     /* write to eclicintctrl */
 328:./../../firmware/RISCV/drivers/n200_func.c ****     uint8_t current_intctrl = eclic_get_intctrl(source);
 329:./../../firmware/RISCV/drivers/n200_func.c ****     /* shift intctrl right to mask off unused bits */
 330:./../../firmware/RISCV/drivers/n200_func.c ****     current_intctrl = current_intctrl >> (8-nlbits);
 1263              		.loc 1 330 44
 1264 002a A146     		li	a3,8
 1265 002c 3385A640 		sub	a0,a3,a0
 1266              	.LVL90:
 325:./../../firmware/RISCV/drivers/n200_func.c **** 
 1267              		.loc 1 325 14
 1268 0030 9205     		slli	a1,a1,4
 1269              		.loc 1 330 39
 1270 0032 B3D7A740 		sra	a5,a5,a0
 325:./../../firmware/RISCV/drivers/n200_func.c **** 
 1271              		.loc 1 325 14
GAS LISTING C:\Users\Karzan\AppData\Local\Temp\ccUlsDYc.s 			page 30


 1272 0036 93F5F50F 		andi	a1,a1,0xff
 1273              	.LVL91:
 328:./../../firmware/RISCV/drivers/n200_func.c ****     /* shift intctrl right to mask off unused bits */
 1274              		.loc 1 328 5 is_stmt 1
 1275              	.LBB129:
 1276              	.LBB128:
 190:./../../firmware/RISCV/drivers/n200_func.c **** }
 1277              		.loc 1 190 3
 1278              	.LBE128:
 1279              	.LBE129:
 1280              		.loc 1 330 5
 331:./../../firmware/RISCV/drivers/n200_func.c ****     /* shift intctrl into correct bit position */
 332:./../../firmware/RISCV/drivers/n200_func.c ****     current_intctrl = current_intctrl << (8-nlbits);
 1281              		.loc 1 332 5
 333:./../../firmware/RISCV/drivers/n200_func.c **** 
 334:./../../firmware/RISCV/drivers/n200_func.c ****     eclic_set_intctrl(source, (current_intctrl | priority));
 1282              		.loc 1 334 5
 332:./../../firmware/RISCV/drivers/n200_func.c **** 
 1283              		.loc 1 332 39 is_stmt 0
 1284 003a B397A700 		sll	a5,a5,a0
 1285              		.loc 1 334 5
 1286 003e CD8F     		or	a5,a1,a5
 1287 0040 93F7F70F 		andi	a5,a5,0xff
 1288              	.LVL92:
 1289              	.LBB130:
 1290              	.LBB131:
 186:./../../firmware/RISCV/drivers/n200_func.c **** }
 1291              		.loc 1 186 3 is_stmt 1
 186:./../../firmware/RISCV/drivers/n200_func.c **** }
 1292              		.loc 1 186 72 is_stmt 0
 1293 0044 2300F700 		sb	a5,0(a4)
 1294              	.LVL93:
 1295              	.LBE131:
 1296              	.LBE130:
 335:./../../firmware/RISCV/drivers/n200_func.c **** 
 336:./../../firmware/RISCV/drivers/n200_func.c ****     return priority;
 1297              		.loc 1 336 5 is_stmt 1
 1298              	.L56:
 337:./../../firmware/RISCV/drivers/n200_func.c **** }
 1299              		.loc 1 337 1 is_stmt 0
 1300 0048 F240     		lw	ra,28(sp)
 1301              		.cfi_restore 1
 1302 004a 6244     		lw	s0,24(sp)
 1303              		.cfi_restore 8
 1304 004c 2E85     		mv	a0,a1
 1305 004e 0561     		addi	sp,sp,32
 1306              	.LCFI11:
 1307              		.cfi_def_cfa_offset 0
 1308 0050 8280     		jr	ra
 1309              		.cfi_endproc
 1310              	.LFE35:
 1312              		.section	.text.eclic_get_irq_priority,"ax",@progbits
 1313              		.align	1
 1314              		.globl	eclic_get_irq_priority
 1316              	eclic_get_irq_priority:
 1317              	.LFB36:
 338:./../../firmware/RISCV/drivers/n200_func.c **** 
GAS LISTING C:\Users\Karzan\AppData\Local\Temp\ccUlsDYc.s 			page 31


 339:./../../firmware/RISCV/drivers/n200_func.c **** /* gets an interrupt priority based encoding of nlbits */
 340:./../../firmware/RISCV/drivers/n200_func.c **** uint8_t eclic_get_irq_priority(uint32_t source) {
 1318              		.loc 1 340 49 is_stmt 1
 1319              		.cfi_startproc
 1320              	.LVL94:
 341:./../../firmware/RISCV/drivers/n200_func.c ****     /* extract nlbits */
 342:./../../firmware/RISCV/drivers/n200_func.c ****     uint8_t nlbits = eclic_get_nlbits();
 1321              		.loc 1 342 5
 340:./../../firmware/RISCV/drivers/n200_func.c ****     /* extract nlbits */
 1322              		.loc 1 340 49 is_stmt 0
 1323 0000 4111     		addi	sp,sp,-16
 1324              	.LCFI12:
 1325              		.cfi_def_cfa_offset 16
 1326 0002 22C4     		sw	s0,8(sp)
 1327 0004 06C6     		sw	ra,12(sp)
 1328              		.cfi_offset 8, -8
 1329              		.cfi_offset 1, -4
 340:./../../firmware/RISCV/drivers/n200_func.c ****     /* extract nlbits */
 1330              		.loc 1 340 49
 1331 0006 2A84     		mv	s0,a0
 1332              		.loc 1 342 22
 1333 0008 97000000 		call	eclic_get_nlbits
 1333      E7800000 
 1334              	.LVL95:
 343:./../../firmware/RISCV/drivers/n200_func.c ****     if (nlbits > ECLICINTCTLBITS) {
 1335              		.loc 1 343 5 is_stmt 1
 344:./../../firmware/RISCV/drivers/n200_func.c ****           nlbits = ECLICINTCTLBITS;
 345:./../../firmware/RISCV/drivers/n200_func.c ****     }
 346:./../../firmware/RISCV/drivers/n200_func.c **** 
 347:./../../firmware/RISCV/drivers/n200_func.c ****     uint8_t intctrl = eclic_get_intctrl(source);
 1336              		.loc 1 347 5
 1337              	.LBB132:
 1338              	.LBB133:
 190:./../../firmware/RISCV/drivers/n200_func.c **** }
 1339              		.loc 1 190 3
 190:./../../firmware/RISCV/drivers/n200_func.c **** }
 1340              		.loc 1 190 68 is_stmt 0
 1341 0010 B71700D2 		li	a5,-771747840
 1342 0014 8D07     		addi	a5,a5,3
 190:./../../firmware/RISCV/drivers/n200_func.c **** }
 1343              		.loc 1 190 75
 1344 0016 0A04     		slli	s0,s0,2
 1345              	.LVL96:
 190:./../../firmware/RISCV/drivers/n200_func.c **** }
 1346              		.loc 1 190 68
 1347 0018 3E94     		add	s0,s0,a5
 190:./../../firmware/RISCV/drivers/n200_func.c **** }
 1348              		.loc 1 190 10
 1349 001a 83470400 		lbu	a5,0(s0)
 1350              	.LBE133:
 1351              	.LBE132:
 348:./../../firmware/RISCV/drivers/n200_func.c **** 
 349:./../../firmware/RISCV/drivers/n200_func.c ****     /* shift intctrl */
 350:./../../firmware/RISCV/drivers/n200_func.c ****     intctrl = intctrl << nlbits;
 1352              		.loc 1 350 23
 1353 001e 1147     		li	a4,4
 1354 0020 9146     		li	a3,4
GAS LISTING C:\Users\Karzan\AppData\Local\Temp\ccUlsDYc.s 			page 32


 1355              	.LBB135:
 1356              	.LBB134:
 190:./../../firmware/RISCV/drivers/n200_func.c **** }
 1357              		.loc 1 190 10
 1358 0022 93F7F70F 		andi	a5,a5,0xff
 1359              	.LVL97:
 1360              	.LBE134:
 1361              	.LBE135:
 1362              		.loc 1 350 5 is_stmt 1
 1363              		.loc 1 350 23 is_stmt 0
 1364 0026 6363A700 		bgtu	a0,a4,.L60
 1365 002a AA86     		mv	a3,a0
 1366              	.L60:
 1367 002c 3395D700 		sll	a0,a5,a3
 1368              	.LVL98:
 351:./../../firmware/RISCV/drivers/n200_func.c ****     /* shift intctrl */
 352:./../../firmware/RISCV/drivers/n200_func.c ****     uint8_t priority = intctrl >> (nlbits+(8 - ECLICINTCTLBITS));
 353:./../../firmware/RISCV/drivers/n200_func.c **** 
 354:./../../firmware/RISCV/drivers/n200_func.c ****     return priority;
 355:./../../firmware/RISCV/drivers/n200_func.c **** }
 1369              		.loc 1 355 1
 1370 0030 B240     		lw	ra,12(sp)
 1371              		.cfi_restore 1
 1372 0032 2244     		lw	s0,8(sp)
 1373              		.cfi_restore 8
 350:./../../firmware/RISCV/drivers/n200_func.c ****     /* shift intctrl */
 1374              		.loc 1 350 23
 1375 0034 13F7F60F 		andi	a4,a3,0xff
 1376              	.LVL99:
 352:./../../firmware/RISCV/drivers/n200_func.c **** 
 1377              		.loc 1 352 5 is_stmt 1
 354:./../../firmware/RISCV/drivers/n200_func.c **** }
 1378              		.loc 1 354 5
 352:./../../firmware/RISCV/drivers/n200_func.c **** 
 1379              		.loc 1 352 32 is_stmt 0
 1380 0038 1375F50F 		andi	a0,a0,255
 352:./../../firmware/RISCV/drivers/n200_func.c **** 
 1381              		.loc 1 352 42
 1382 003c 93074700 		addi	a5,a4,4
 1383              	.LVL100:
 352:./../../firmware/RISCV/drivers/n200_func.c **** 
 1384              		.loc 1 352 32
 1385 0040 3355F540 		sra	a0,a0,a5
 1386              		.loc 1 355 1
 1387 0044 1375F50F 		andi	a0,a0,0xff
 1388 0048 4101     		addi	sp,sp,16
 1389              	.LCFI13:
 1390              		.cfi_def_cfa_offset 0
 1391 004a 8280     		jr	ra
 1392              		.cfi_endproc
 1393              	.LFE36:
 1395              		.section	.text.eclic_mode_enable,"ax",@progbits
 1396              		.align	1
 1397              		.globl	eclic_mode_enable
 1399              	eclic_mode_enable:
 1400              	.LFB37:
 356:./../../firmware/RISCV/drivers/n200_func.c **** 
GAS LISTING C:\Users\Karzan\AppData\Local\Temp\ccUlsDYc.s 			page 33


 357:./../../firmware/RISCV/drivers/n200_func.c **** void eclic_mode_enable() {
 1401              		.loc 1 357 26 is_stmt 1
 1402              		.cfi_startproc
 358:./../../firmware/RISCV/drivers/n200_func.c **** #if   defined (__ICCRISCV__)
 359:./../../firmware/RISCV/drivers/n200_func.c ****   uint32_t mtvec_value = read_csr(CSR_MTVEC);
 360:./../../firmware/RISCV/drivers/n200_func.c ****   mtvec_value = mtvec_value & 0xFFFFFFC0;
 361:./../../firmware/RISCV/drivers/n200_func.c ****   mtvec_value = mtvec_value | 0x00000003;
 362:./../../firmware/RISCV/drivers/n200_func.c ****   write_csr(CSR_MTVEC,mtvec_value);
 363:./../../firmware/RISCV/drivers/n200_func.c **** #elif defined ( __GNUC__ )
 364:./../../firmware/RISCV/drivers/n200_func.c ****   uint32_t mtvec_value = read_csr(mtvec);
 1403              		.loc 1 364 3
 1404              	.LBB136:
 1405              		.loc 1 364 26
 1406              		.loc 1 364 26
 1407              	 #APP
 1408              	# 364 "./../../firmware/RISCV/drivers/n200_func.c" 1
 365              	  mtvec_value = mtvec_value & 0xFFFFFFC0;
 1409              		csrr a5, mtvec
 1410              	# 0 "" 2
 1411              	.LVL101:
 364:./../../firmware/RISCV/drivers/n200_func.c ****   uint32_t mtvec_value = read_csr(mtvec);
 1412              		.loc 1 364 26
 1413              	 #NO_APP
 1414              	.LBE136:
 1415              		.loc 1 365 3
 1416              		.loc 1 365 15 is_stmt 0
 1417 0004 93F707FC 		andi	a5,a5,-64
 1418              	.LVL102:
 366:./../../firmware/RISCV/drivers/n200_func.c ****   mtvec_value = mtvec_value | 0x00000003;
 1419              		.loc 1 366 3 is_stmt 1
 367:./../../firmware/RISCV/drivers/n200_func.c ****   write_csr(mtvec,mtvec_value);
 1420              		.loc 1 367 3
 1421              		.loc 1 367 3
 366:./../../firmware/RISCV/drivers/n200_func.c ****   mtvec_value = mtvec_value | 0x00000003;
 1422              		.loc 1 366 15 is_stmt 0
 1423 0008 93E73700 		ori	a5,a5,3
 1424              	.LVL103:
 1425              		.loc 1 367 3
 1426              	 #APP
 1427              	# 367 "./../../firmware/RISCV/drivers/n200_func.c" 1
 368              	#endif
 369:./../../firmware/RISCV/drivers/n200_func.c **** 
 370:./../../firmware/RISCV/drivers/n200_func.c **** }
 1428              		csrw mtvec, a5
 1429              	# 0 "" 2
 1430              		.loc 1 370 1
 1431              	 #NO_APP
 1432 0010 8280     		ret
 1433              		.cfi_endproc
 1434              	.LFE37:
 1436              		.section	.text.eclic_set_vmode,"ax",@progbits
 1437              		.align	1
 1438              		.globl	eclic_set_vmode
 1440              	eclic_set_vmode:
 1441              	.LFB38:
 371:./../../firmware/RISCV/drivers/n200_func.c **** 
 372:./../../firmware/RISCV/drivers/n200_func.c **** /* sets vector-mode or non-vector mode */
GAS LISTING C:\Users\Karzan\AppData\Local\Temp\ccUlsDYc.s 			page 34


 373:./../../firmware/RISCV/drivers/n200_func.c **** void eclic_set_vmode(uint32_t source) {
 1442              		.loc 1 373 39 is_stmt 1
 1443              		.cfi_startproc
 1444              	.LVL104:
 374:./../../firmware/RISCV/drivers/n200_func.c ****   /* read the current attr */
 375:./../../firmware/RISCV/drivers/n200_func.c ****   uint8_t old_intattr = eclic_get_intattr(source);
 1445              		.loc 1 375 3
 1446              	.LBB137:
 1447              	.LBB138:
 198:./../../firmware/RISCV/drivers/n200_func.c **** }
 1448              		.loc 1 198 3
 198:./../../firmware/RISCV/drivers/n200_func.c **** }
 1449              		.loc 1 198 68 is_stmt 0
 1450 0000 B71700D2 		li	a5,-771747840
 1451 0004 8907     		addi	a5,a5,2
 198:./../../firmware/RISCV/drivers/n200_func.c **** }
 1452              		.loc 1 198 75
 1453 0006 0A05     		slli	a0,a0,2
 1454              	.LVL105:
 198:./../../firmware/RISCV/drivers/n200_func.c **** }
 1455              		.loc 1 198 68
 1456 0008 3E95     		add	a0,a0,a5
 198:./../../firmware/RISCV/drivers/n200_func.c **** }
 1457              		.loc 1 198 10
 1458 000a 83470500 		lbu	a5,0(a0)
 1459              	.LVL106:
 1460              	.LBE138:
 1461              	.LBE137:
 376:./../../firmware/RISCV/drivers/n200_func.c ****       /*  Keep other bits unchanged and only set the LSB bit */
 377:./../../firmware/RISCV/drivers/n200_func.c ****   uint8_t new_intattr = (old_intattr | 0x1); 
 1462              		.loc 1 377 3 is_stmt 1
 1463              		.loc 1 377 11 is_stmt 0
 1464 000e 93E71700 		ori	a5,a5,1
 1465              	.LVL107:
 378:./../../firmware/RISCV/drivers/n200_func.c **** 
 379:./../../firmware/RISCV/drivers/n200_func.c ****   eclic_set_intattr(source,new_intattr);
 1466              		.loc 1 379 3 is_stmt 1
 1467              	.LBB139:
 1468              	.LBB140:
 194:./../../firmware/RISCV/drivers/n200_func.c **** }
 1469              		.loc 1 194 3
 194:./../../firmware/RISCV/drivers/n200_func.c **** }
 1470              		.loc 1 194 72 is_stmt 0
 1471 0012 2300F500 		sb	a5,0(a0)
 1472              	.LVL108:
 1473              	.LBE140:
 1474              	.LBE139:
 380:./../../firmware/RISCV/drivers/n200_func.c **** }
 1475              		.loc 1 380 1
 1476 0016 8280     		ret
 1477              		.cfi_endproc
 1478              	.LFE38:
 1480              		.section	.text.eclic_set_nonvmode,"ax",@progbits
 1481              		.align	1
 1482              		.globl	eclic_set_nonvmode
 1484              	eclic_set_nonvmode:
 1485              	.LFB39:
GAS LISTING C:\Users\Karzan\AppData\Local\Temp\ccUlsDYc.s 			page 35


 381:./../../firmware/RISCV/drivers/n200_func.c **** 
 382:./../../firmware/RISCV/drivers/n200_func.c **** void eclic_set_nonvmode(uint32_t source) {
 1486              		.loc 1 382 42 is_stmt 1
 1487              		.cfi_startproc
 1488              	.LVL109:
 383:./../../firmware/RISCV/drivers/n200_func.c ****   /* read the current attr */
 384:./../../firmware/RISCV/drivers/n200_func.c ****   uint8_t old_intattr = eclic_get_intattr(source);
 1489              		.loc 1 384 3
 1490              	.LBB141:
 1491              	.LBB142:
 198:./../../firmware/RISCV/drivers/n200_func.c **** }
 1492              		.loc 1 198 3
 198:./../../firmware/RISCV/drivers/n200_func.c **** }
 1493              		.loc 1 198 68 is_stmt 0
 1494 0000 B71700D2 		li	a5,-771747840
 1495 0004 8907     		addi	a5,a5,2
 198:./../../firmware/RISCV/drivers/n200_func.c **** }
 1496              		.loc 1 198 75
 1497 0006 0A05     		slli	a0,a0,2
 1498              	.LVL110:
 198:./../../firmware/RISCV/drivers/n200_func.c **** }
 1499              		.loc 1 198 68
 1500 0008 3E95     		add	a0,a0,a5
 198:./../../firmware/RISCV/drivers/n200_func.c **** }
 1501              		.loc 1 198 10
 1502 000a 83470500 		lbu	a5,0(a0)
 1503              	.LVL111:
 1504              	.LBE142:
 1505              	.LBE141:
 385:./../../firmware/RISCV/drivers/n200_func.c ****       /* Keep other bits unchanged and only clear the LSB bit*/
 386:./../../firmware/RISCV/drivers/n200_func.c ****   uint8_t new_intattr = (old_intattr & (~0x1));
 1506              		.loc 1 386 3 is_stmt 1
 1507              		.loc 1 386 11 is_stmt 0
 1508 000e 93F7E70F 		andi	a5,a5,254
 1509              	.LVL112:
 387:./../../firmware/RISCV/drivers/n200_func.c **** 
 388:./../../firmware/RISCV/drivers/n200_func.c ****   eclic_set_intattr(source,new_intattr);
 1510              		.loc 1 388 3 is_stmt 1
 1511              	.LBB143:
 1512              	.LBB144:
 194:./../../firmware/RISCV/drivers/n200_func.c **** }
 1513              		.loc 1 194 3
 194:./../../firmware/RISCV/drivers/n200_func.c **** }
 1514              		.loc 1 194 72 is_stmt 0
 1515 0012 2300F500 		sb	a5,0(a0)
 1516              	.LVL113:
 1517              	.LBE144:
 1518              	.LBE143:
 389:./../../firmware/RISCV/drivers/n200_func.c **** }
 1519              		.loc 1 389 1
 1520 0016 8280     		ret
 1521              		.cfi_endproc
 1522              	.LFE39:
 1524              		.section	.text.eclic_set_level_trig,"ax",@progbits
 1525              		.align	1
 1526              		.globl	eclic_set_level_trig
 1528              	eclic_set_level_trig:
GAS LISTING C:\Users\Karzan\AppData\Local\Temp\ccUlsDYc.s 			page 36


 1529              	.LFB40:
 390:./../../firmware/RISCV/drivers/n200_func.c **** 
 391:./../../firmware/RISCV/drivers/n200_func.c **** /* sets interrupt as level sensitive
 392:./../../firmware/RISCV/drivers/n200_func.c **** Bit 1, trig[0], is defined as "edge-triggered" (0: level-triggered, 1: edge-triggered); 
 393:./../../firmware/RISCV/drivers/n200_func.c **** Bit 2, trig[1], is defined as "negative-edge" (0: positive-edge, 1: negative-edge).*/
 394:./../../firmware/RISCV/drivers/n200_func.c **** 
 395:./../../firmware/RISCV/drivers/n200_func.c **** void eclic_set_level_trig(uint32_t source) {
 1530              		.loc 1 395 44 is_stmt 1
 1531              		.cfi_startproc
 1532              	.LVL114:
 396:./../../firmware/RISCV/drivers/n200_func.c ****   /* read the current attr */
 397:./../../firmware/RISCV/drivers/n200_func.c ****   uint8_t old_intattr = eclic_get_intattr(source);
 1533              		.loc 1 397 3
 1534              	.LBB145:
 1535              	.LBB146:
 198:./../../firmware/RISCV/drivers/n200_func.c **** }
 1536              		.loc 1 198 3
 198:./../../firmware/RISCV/drivers/n200_func.c **** }
 1537              		.loc 1 198 68 is_stmt 0
 1538 0000 B71700D2 		li	a5,-771747840
 1539 0004 8907     		addi	a5,a5,2
 198:./../../firmware/RISCV/drivers/n200_func.c **** }
 1540              		.loc 1 198 75
 1541 0006 0A05     		slli	a0,a0,2
 1542              	.LVL115:
 198:./../../firmware/RISCV/drivers/n200_func.c **** }
 1543              		.loc 1 198 68
 1544 0008 3E95     		add	a0,a0,a5
 198:./../../firmware/RISCV/drivers/n200_func.c **** }
 1545              		.loc 1 198 10
 1546 000a 83470500 		lbu	a5,0(a0)
 1547              	.LVL116:
 1548              	.LBE146:
 1549              	.LBE145:
 398:./../../firmware/RISCV/drivers/n200_func.c ****       /* Keep other bits unchanged and only clear the bit 1 */
 399:./../../firmware/RISCV/drivers/n200_func.c ****   uint8_t new_intattr = (old_intattr & (~0x2));
 1550              		.loc 1 399 3 is_stmt 1
 1551              		.loc 1 399 11 is_stmt 0
 1552 000e 93F7D70F 		andi	a5,a5,253
 1553              	.LVL117:
 400:./../../firmware/RISCV/drivers/n200_func.c **** 
 401:./../../firmware/RISCV/drivers/n200_func.c ****   eclic_set_intattr(source,new_intattr);
 1554              		.loc 1 401 3 is_stmt 1
 1555              	.LBB147:
 1556              	.LBB148:
 194:./../../firmware/RISCV/drivers/n200_func.c **** }
 1557              		.loc 1 194 3
 194:./../../firmware/RISCV/drivers/n200_func.c **** }
 1558              		.loc 1 194 72 is_stmt 0
 1559 0012 2300F500 		sb	a5,0(a0)
 1560              	.LVL118:
 1561              	.LBE148:
 1562              	.LBE147:
 402:./../../firmware/RISCV/drivers/n200_func.c **** }
 1563              		.loc 1 402 1
 1564 0016 8280     		ret
 1565              		.cfi_endproc
GAS LISTING C:\Users\Karzan\AppData\Local\Temp\ccUlsDYc.s 			page 37


 1566              	.LFE40:
 1568              		.section	.text.eclic_set_posedge_trig,"ax",@progbits
 1569              		.align	1
 1570              		.globl	eclic_set_posedge_trig
 1572              	eclic_set_posedge_trig:
 1573              	.LFB41:
 403:./../../firmware/RISCV/drivers/n200_func.c **** 
 404:./../../firmware/RISCV/drivers/n200_func.c **** void eclic_set_posedge_trig(uint32_t source) {
 1574              		.loc 1 404 46 is_stmt 1
 1575              		.cfi_startproc
 1576              	.LVL119:
 405:./../../firmware/RISCV/drivers/n200_func.c ****   /* read the current attr */
 406:./../../firmware/RISCV/drivers/n200_func.c ****   uint8_t old_intattr = eclic_get_intattr(source);
 1577              		.loc 1 406 3
 1578              	.LBB149:
 1579              	.LBB150:
 198:./../../firmware/RISCV/drivers/n200_func.c **** }
 1580              		.loc 1 198 3
 198:./../../firmware/RISCV/drivers/n200_func.c **** }
 1581              		.loc 1 198 68 is_stmt 0
 1582 0000 B71700D2 		li	a5,-771747840
 1583 0004 8907     		addi	a5,a5,2
 198:./../../firmware/RISCV/drivers/n200_func.c **** }
 1584              		.loc 1 198 75
 1585 0006 0A05     		slli	a0,a0,2
 1586              	.LVL120:
 198:./../../firmware/RISCV/drivers/n200_func.c **** }
 1587              		.loc 1 198 68
 1588 0008 3E95     		add	a0,a0,a5
 198:./../../firmware/RISCV/drivers/n200_func.c **** }
 1589              		.loc 1 198 10
 1590 000a 83470500 		lbu	a5,0(a0)
 1591              	.LVL121:
 1592              	.LBE150:
 1593              	.LBE149:
 407:./../../firmware/RISCV/drivers/n200_func.c ****       /* Keep other bits unchanged and only set the bit 1 */
 408:./../../firmware/RISCV/drivers/n200_func.c ****   uint8_t new_intattr = (old_intattr | 0x2);
 1594              		.loc 1 408 3 is_stmt 1
 409:./../../firmware/RISCV/drivers/n200_func.c ****       /* Keep other bits unchanged and only clear the bit 2 */
 410:./../../firmware/RISCV/drivers/n200_func.c ****   new_intattr = (old_intattr & (~0x4));
 1595              		.loc 1 410 3
 1596              		.loc 1 410 15 is_stmt 0
 1597 000e 93F7B70F 		andi	a5,a5,251
 1598              	.LVL122:
 411:./../../firmware/RISCV/drivers/n200_func.c **** 
 412:./../../firmware/RISCV/drivers/n200_func.c ****   eclic_set_intattr(source,new_intattr);
 1599              		.loc 1 412 3 is_stmt 1
 1600              	.LBB151:
 1601              	.LBB152:
 194:./../../firmware/RISCV/drivers/n200_func.c **** }
 1602              		.loc 1 194 3
 194:./../../firmware/RISCV/drivers/n200_func.c **** }
 1603              		.loc 1 194 72 is_stmt 0
 1604 0012 2300F500 		sb	a5,0(a0)
 1605              	.LVL123:
 1606              	.LBE152:
 1607              	.LBE151:
GAS LISTING C:\Users\Karzan\AppData\Local\Temp\ccUlsDYc.s 			page 38


 413:./../../firmware/RISCV/drivers/n200_func.c **** }
 1608              		.loc 1 413 1
 1609 0016 8280     		ret
 1610              		.cfi_endproc
 1611              	.LFE41:
 1613              		.section	.text.eclic_set_negedge_trig,"ax",@progbits
 1614              		.align	1
 1615              		.globl	eclic_set_negedge_trig
 1617              	eclic_set_negedge_trig:
 1618              	.LFB42:
 414:./../../firmware/RISCV/drivers/n200_func.c **** 
 415:./../../firmware/RISCV/drivers/n200_func.c **** void eclic_set_negedge_trig(uint32_t source) {
 1619              		.loc 1 415 46 is_stmt 1
 1620              		.cfi_startproc
 1621              	.LVL124:
 416:./../../firmware/RISCV/drivers/n200_func.c ****   /*read the current attr */
 417:./../../firmware/RISCV/drivers/n200_func.c ****   uint8_t old_intattr = eclic_get_intattr(source);
 1622              		.loc 1 417 3
 1623              	.LBB153:
 1624              	.LBB154:
 198:./../../firmware/RISCV/drivers/n200_func.c **** }
 1625              		.loc 1 198 3
 198:./../../firmware/RISCV/drivers/n200_func.c **** }
 1626              		.loc 1 198 68 is_stmt 0
 1627 0000 B71700D2 		li	a5,-771747840
 1628 0004 8907     		addi	a5,a5,2
 198:./../../firmware/RISCV/drivers/n200_func.c **** }
 1629              		.loc 1 198 75
 1630 0006 0A05     		slli	a0,a0,2
 1631              	.LVL125:
 198:./../../firmware/RISCV/drivers/n200_func.c **** }
 1632              		.loc 1 198 68
 1633 0008 3E95     		add	a0,a0,a5
 198:./../../firmware/RISCV/drivers/n200_func.c **** }
 1634              		.loc 1 198 10
 1635 000a 83470500 		lbu	a5,0(a0)
 1636              	.LVL126:
 1637              	.LBE154:
 1638              	.LBE153:
 418:./../../firmware/RISCV/drivers/n200_func.c ****       /* Keep other bits unchanged and only set the bit 1*/
 419:./../../firmware/RISCV/drivers/n200_func.c ****   uint8_t new_intattr = (old_intattr | 0x2);
 1639              		.loc 1 419 3 is_stmt 1
 420:./../../firmware/RISCV/drivers/n200_func.c ****       /* Keep other bits unchanged and only set the bit 2*/
 421:./../../firmware/RISCV/drivers/n200_func.c ****   new_intattr = (old_intattr | 0x4);
 1640              		.loc 1 421 3
 1641              		.loc 1 421 15 is_stmt 0
 1642 000e 93E74700 		ori	a5,a5,4
 1643              	.LVL127:
 422:./../../firmware/RISCV/drivers/n200_func.c **** 
 423:./../../firmware/RISCV/drivers/n200_func.c ****   eclic_set_intattr(source,new_intattr);
 1644              		.loc 1 423 3 is_stmt 1
 1645              	.LBB155:
 1646              	.LBB156:
 194:./../../firmware/RISCV/drivers/n200_func.c **** }
 1647              		.loc 1 194 3
 194:./../../firmware/RISCV/drivers/n200_func.c **** }
 1648              		.loc 1 194 72 is_stmt 0
GAS LISTING C:\Users\Karzan\AppData\Local\Temp\ccUlsDYc.s 			page 39


 1649 0012 2300F500 		sb	a5,0(a0)
 1650              	.LVL128:
 1651              	.LBE156:
 1652              	.LBE155:
 424:./../../firmware/RISCV/drivers/n200_func.c **** }
 1653              		.loc 1 424 1
 1654 0016 8280     		ret
 1655              		.cfi_endproc
 1656              	.LFE42:
 1658              		.text
 1659              	.Letext0:
 1660              		.file 2 "c:\\users\\karzan\\downloads\\toolchain-gd32v-v202-win\\toolchain-gd32v-v202-win\\compile
 1661              		.file 3 "c:\\users\\karzan\\downloads\\toolchain-gd32v-v202-win\\toolchain-gd32v-v202-win\\compile
 1662              		.file 4 "c:\\users\\karzan\\downloads\\toolchain-gd32v-v202-win\\toolchain-gd32v-v202-win\\compile
 1663              		.file 5 "c:\\users\\karzan\\downloads\\toolchain-gd32v-v202-win\\toolchain-gd32v-v202-win\\compile
 1664              		.file 6 "c:\\users\\karzan\\downloads\\toolchain-gd32v-v202-win\\toolchain-gd32v-v202-win\\compile
 1665              		.file 7 "c:\\users\\karzan\\downloads\\toolchain-gd32v-v202-win\\toolchain-gd32v-v202-win\\compile
 1666              		.file 8 "./../../firmware/GD32VF103_standard_peripheral/system_gd32vf103.h"
 1667              		.file 9 "c:\\users\\karzan\\downloads\\toolchain-gd32v-v202-win\\toolchain-gd32v-v202-win\\compile
 1668              		.file 10 "c:\\users\\karzan\\downloads\\toolchain-gd32v-v202-win\\toolchain-gd32v-v202-win\\compil
GAS LISTING C:\Users\Karzan\AppData\Local\Temp\ccUlsDYc.s 			page 40

