GAS LISTING C:\Users\Karzan\AppData\Local\Temp\ccDINpEv.s 			page 1


   1              		.file	"rtc.c"
   2              		.option nopic
   3              		.attribute arch, "rv32i2p0_m2p0_a2p0_c2p0"
   4              		.attribute unaligned_access, 0
   5              		.attribute stack_align, 16
   6              		.text
   7              	.Ltext0:
   8              		.cfi_sections	.debug_frame
   9              		.section	.text.rtc_configuration,"ax",@progbits
  10              		.align	1
  11              		.globl	rtc_configuration
  13              	rtc_configuration:
  14              	.LFB5:
  15              		.file 1 "rtc.c"
   1:rtc.c         **** /*!
   2:rtc.c         ****     \file  rtc.c
   3:rtc.c         ****     \brief RTC check and config,time_show and time_adjust function
   4:rtc.c         **** 
   5:rtc.c         ****     \version 2019-6-5, V1.0.0, demo for GD32VF103   
   6:rtc.c         **** */
   7:rtc.c         **** 
   8:rtc.c         **** /*
   9:rtc.c         ****     Copyright (c) 2019, GigaDevice Semiconductor Inc.
  10:rtc.c         **** 
  11:rtc.c         ****     Redistribution and use in source and binary forms, with or without modification, 
  12:rtc.c         **** are permitted provided that the following conditions are met:
  13:rtc.c         **** 
  14:rtc.c         ****     1. Redistributions of source code must retain the above copyright notice, this 
  15:rtc.c         ****        list of conditions and the following disclaimer.
  16:rtc.c         ****     2. Redistributions in binary form must reproduce the above copyright notice, 
  17:rtc.c         ****        this list of conditions and the following disclaimer in the documentation 
  18:rtc.c         ****        and/or other materials provided with the distribution.
  19:rtc.c         ****     3. Neither the name of the copyright holder nor the names of its contributors 
  20:rtc.c         ****        may be used to endorse or promote products derived from this software without 
  21:rtc.c         ****        specific prior written permission.
  22:rtc.c         **** 
  23:rtc.c         ****     THIS SOFTWARE IS PROVIDED BY THE COPYRIGHT HOLDERS AND CONTRIBUTORS "AS IS" 
  24:rtc.c         **** AND ANY EXPRESS OR IMPLIED WARRANTIES, INCLUDING, BUT NOT LIMITED TO, THE IMPLIED 
  25:rtc.c         **** WARRANTIES OF MERCHANTABILITY AND FITNESS FOR A PARTICULAR PURPOSE ARE DISCLAIMED. 
  26:rtc.c         **** IN NO EVENT SHALL THE COPYRIGHT HOLDER OR CONTRIBUTORS BE LIABLE FOR ANY DIRECT, 
  27:rtc.c         **** INDIRECT, INCIDENTAL, SPECIAL, EXEMPLARY, OR CONSEQUENTIAL DAMAGES (INCLUDING, BUT 
  28:rtc.c         **** NOT LIMITED TO, PROCUREMENT OF SUBSTITUTE GOODS OR SERVICES; LOSS OF USE, DATA, OR 
  29:rtc.c         **** PROFITS; OR BUSINESS INTERRUPTION) HOWEVER CAUSED AND ON ANY THEORY OF LIABILITY, 
  30:rtc.c         **** WHETHER IN CONTRACT, STRICT LIABILITY, OR TORT (INCLUDING NEGLIGENCE OR OTHERWISE) 
  31:rtc.c         **** ARISING IN ANY WAY OUT OF THE USE OF THIS SOFTWARE, EVEN IF ADVISED OF THE POSSIBILITY 
  32:rtc.c         **** OF SUCH DAMAGE.
  33:rtc.c         **** */
  34:rtc.c         **** 
  35:rtc.c         **** #include "rtc.h"
  36:rtc.c         **** #include "lcd.h"
  37:rtc.c         **** #include <stdio.h>
  38:rtc.c         **** 
  39:rtc.c         **** /* enter the second interruption,set the second interrupt flag to 1 */
  40:rtc.c         **** __IO uint32_t timedisplay;
  41:rtc.c         **** 
  42:rtc.c         **** /*!
  43:rtc.c         ****     \brief      configure the RTC
GAS LISTING C:\Users\Karzan\AppData\Local\Temp\ccDINpEv.s 			page 2


  44:rtc.c         ****     \param[in]  none
  45:rtc.c         ****     \param[out] none
  46:rtc.c         ****     \retval     none
  47:rtc.c         **** */
  48:rtc.c         **** void rtc_configuration(void)
  49:rtc.c         **** {
  16              		.loc 1 49 1
  17              		.cfi_startproc
  50:rtc.c         ****     /* enable PMU and BKPI clocks */
  51:rtc.c         ****     rcu_periph_clock_enable(RCU_BKPI);
  18              		.loc 1 51 5
  49:rtc.c         ****     /* enable PMU and BKPI clocks */
  19              		.loc 1 49 1 is_stmt 0
  20 0000 4111     		addi	sp,sp,-16
  21              	.LCFI0:
  22              		.cfi_def_cfa_offset 16
  23              		.loc 1 51 5
  24 0002 1305B071 		li	a0,1819
  49:rtc.c         ****     /* enable PMU and BKPI clocks */
  25              		.loc 1 49 1
  26 0006 06C6     		sw	ra,12(sp)
  27 0008 22C4     		sw	s0,8(sp)
  28              		.cfi_offset 1, -4
  29              		.cfi_offset 8, -8
  30              		.loc 1 51 5
  31 000a 97000000 		call	rcu_periph_clock_enable
  31      E7800000 
  32              	.LVL0:
  52:rtc.c         ****     rcu_periph_clock_enable(RCU_PMU);
  33              		.loc 1 52 5 is_stmt 1
  34 0012 1305C071 		li	a0,1820
  35 0016 97000000 		call	rcu_periph_clock_enable
  35      E7800000 
  36              	.LVL1:
  53:rtc.c         ****     /* allow access to BKP domain */
  54:rtc.c         ****     pmu_backup_write_enable();
  37              		.loc 1 54 5
  55:rtc.c         **** 
  56:rtc.c         ****     /* reset backup domain */
  57:rtc.c         ****     bkp_deinit();
  58:rtc.c         **** 
  59:rtc.c         ****     /* enable LXTAL */
  60:rtc.c         ****     rcu_osci_on(RCU_LXTAL);
  38              		.loc 1 60 5 is_stmt 0
  39 001e 0564     		li	s0,4096
  54:rtc.c         **** 
  40              		.loc 1 54 5
  41 0020 97000000 		call	pmu_backup_write_enable
  41      E7800000 
  42              	.LVL2:
  57:rtc.c         **** 
  43              		.loc 1 57 5 is_stmt 1
  44 0028 97000000 		call	bkp_deinit
  44      E7800000 
  45              	.LVL3:
  46              		.loc 1 60 5
  47 0030 13050480 		addi	a0,s0,-2048
GAS LISTING C:\Users\Karzan\AppData\Local\Temp\ccDINpEv.s 			page 3


  48 0034 97000000 		call	rcu_osci_on
  48      E7800000 
  49              	.LVL4:
  61:rtc.c         ****     /* wait till LXTAL is ready */
  62:rtc.c         ****     rcu_osci_stab_wait(RCU_LXTAL);
  50              		.loc 1 62 5
  51 003c 13050480 		addi	a0,s0,-2048
  52 0040 97000000 		call	rcu_osci_stab_wait
  52      E7800000 
  53              	.LVL5:
  63:rtc.c         ****     
  64:rtc.c         ****     /* select RCU_LXTAL as RTC clock source */
  65:rtc.c         ****     rcu_rtc_clock_config(RCU_RTCSRC_LXTAL);
  54              		.loc 1 65 5
  55 0048 13050010 		li	a0,256
  56 004c 97000000 		call	rcu_rtc_clock_config
  56      E7800000 
  57              	.LVL6:
  66:rtc.c         **** 
  67:rtc.c         ****     /* enable RTC Clock */
  68:rtc.c         ****     rcu_periph_clock_enable(RCU_RTC);
  58              		.loc 1 68 5
  59 0054 1305F480 		addi	a0,s0,-2033
  60 0058 97000000 		call	rcu_periph_clock_enable
  60      E7800000 
  61              	.LVL7:
  69:rtc.c         **** 
  70:rtc.c         ****     /* wait for RTC registers synchronization */
  71:rtc.c         ****     rtc_register_sync_wait();
  62              		.loc 1 71 5
  63 0060 97000000 		call	rtc_register_sync_wait
  63      E7800000 
  64              	.LVL8:
  72:rtc.c         **** 
  73:rtc.c         ****     /* wait until last write operation on RTC registers has finished */
  74:rtc.c         ****     rtc_lwoff_wait();
  65              		.loc 1 74 5
  66 0068 97000000 		call	rtc_lwoff_wait
  66      E7800000 
  67              	.LVL9:
  75:rtc.c         **** 
  76:rtc.c         ****     /* enable the RTC second interrupt*/
  77:rtc.c         ****     rtc_interrupt_enable(RTC_INT_SECOND);
  68              		.loc 1 77 5
  69 0070 0545     		li	a0,1
  70 0072 97000000 		call	rtc_interrupt_enable
  70      E7800000 
  71              	.LVL10:
  78:rtc.c         **** 
  79:rtc.c         ****     /* wait until last write operation on RTC registers has finished */
  80:rtc.c         ****     rtc_lwoff_wait();
  72              		.loc 1 80 5
  73 007a 97000000 		call	rtc_lwoff_wait
  73      E7800000 
  74              	.LVL11:
  81:rtc.c         **** 
  82:rtc.c         ****     /* set RTC prescaler: set RTC period to 1s */
GAS LISTING C:\Users\Karzan\AppData\Local\Temp\ccDINpEv.s 			page 4


  83:rtc.c         ****     rtc_prescaler_set(32767);
  75              		.loc 1 83 5
  76 0082 2165     		li	a0,32768
  77 0084 7D15     		addi	a0,a0,-1
  78 0086 97000000 		call	rtc_prescaler_set
  78      E7800000 
  79              	.LVL12:
  84:rtc.c         **** 
  85:rtc.c         ****     /* wait until last write operation on RTC registers has finished */
  86:rtc.c         ****     rtc_lwoff_wait();
  80              		.loc 1 86 5
  87:rtc.c         **** }
  81              		.loc 1 87 1 is_stmt 0
  82 008e 2244     		lw	s0,8(sp)
  83              		.cfi_restore 8
  84 0090 B240     		lw	ra,12(sp)
  85              		.cfi_restore 1
  86 0092 4101     		addi	sp,sp,16
  87              	.LCFI1:
  88              		.cfi_def_cfa_offset 0
  86:rtc.c         **** }
  89              		.loc 1 86 5
  90 0094 17030000 		tail	rtc_lwoff_wait
  90      67000300 
  91              	.LVL13:
  92              		.cfi_endproc
  93              	.LFE5:
  95              		.section	.text.time_regulate,"ax",@progbits
  96              		.align	1
  97              		.globl	time_regulate
  99              	time_regulate:
 100              	.LFB6:
  88:rtc.c         **** 
  89:rtc.c         **** /*!
  90:rtc.c         ****     \brief      return the time entered by user, using Hyperterminal
  91:rtc.c         ****     \param[in]  none
  92:rtc.c         ****     \param[out] none
  93:rtc.c         ****     \retval     current time of RTC counter value
  94:rtc.c         **** */
  95:rtc.c         **** uint32_t time_regulate(void)
  96:rtc.c         **** {
 101              		.loc 1 96 1 is_stmt 1
 102              		.cfi_startproc
  97:rtc.c         ****     uint32_t tmp_hh = 0xFF, tmp_mm = 0xFF, tmp_ss = 0xFF;
 103              		.loc 1 97 5
 104              	.LVL14:
  98:rtc.c         **** 
  99:rtc.c         ****     tmp_hh=12;
 105              		.loc 1 99 5
 100:rtc.c         ****     tmp_mm=00;
 106              		.loc 1 100 5
 101:rtc.c         ****     tmp_ss=00;
 107              		.loc 1 101 5
 102:rtc.c         **** 
 103:rtc.c         ****     /* return the value  store in RTC counter register */
 104:rtc.c         ****     return((tmp_hh*3600 + tmp_mm*60 + tmp_ss));
 108              		.loc 1 104 5
GAS LISTING C:\Users\Karzan\AppData\Local\Temp\ccDINpEv.s 			page 5


 105:rtc.c         **** }
 109              		.loc 1 105 1 is_stmt 0
 110 0000 2D65     		li	a0,45056
 111 0002 1305058C 		addi	a0,a0,-1856
 112 0006 8280     		ret
 113              		.cfi_endproc
 114              	.LFE6:
 116              		.section	.text.time_adjust,"ax",@progbits
 117              		.align	1
 118              		.globl	time_adjust
 120              	time_adjust:
 121              	.LFB7:
 106:rtc.c         **** 
 107:rtc.c         **** /*!
 108:rtc.c         ****     \brief      adjust time 
 109:rtc.c         ****     \param[in]  none
 110:rtc.c         ****     \param[out] none
 111:rtc.c         ****     \retval     none
 112:rtc.c         **** */
 113:rtc.c         **** void time_adjust(void)
 114:rtc.c         **** {
 122              		.loc 1 114 1 is_stmt 1
 123              		.cfi_startproc
 115:rtc.c         ****     /* wait until last write operation on RTC registers has finished */
 116:rtc.c         ****     rtc_lwoff_wait();
 124              		.loc 1 116 5
 114:rtc.c         ****     /* wait until last write operation on RTC registers has finished */
 125              		.loc 1 114 1 is_stmt 0
 126 0000 4111     		addi	sp,sp,-16
 127              	.LCFI2:
 128              		.cfi_def_cfa_offset 16
 129 0002 06C6     		sw	ra,12(sp)
 130              		.cfi_offset 1, -4
 131              		.loc 1 116 5
 132 0004 97000000 		call	rtc_lwoff_wait
 132      E7800000 
 133              	.LVL15:
 117:rtc.c         ****     /* change the current time */
 118:rtc.c         ****     rtc_counter_set(time_regulate());
 134              		.loc 1 118 5 is_stmt 1
  97:rtc.c         **** 
 135              		.loc 1 97 5
  99:rtc.c         ****     tmp_mm=00;
 136              		.loc 1 99 5
 100:rtc.c         ****     tmp_ss=00;
 137              		.loc 1 100 5
 101:rtc.c         **** 
 138              		.loc 1 101 5
 104:rtc.c         **** }
 139              		.loc 1 104 5
 140              		.loc 1 118 5 is_stmt 0
 141 000c 2D65     		li	a0,45056
 142 000e 1305058C 		addi	a0,a0,-1856
 143 0012 97000000 		call	rtc_counter_set
 143      E7800000 
 144              	.LVL16:
 119:rtc.c         ****     /* wait until last write operation on RTC registers has finished */
GAS LISTING C:\Users\Karzan\AppData\Local\Temp\ccDINpEv.s 			page 6


 120:rtc.c         ****     rtc_lwoff_wait();
 145              		.loc 1 120 5 is_stmt 1
 121:rtc.c         **** }
 146              		.loc 1 121 1 is_stmt 0
 147 001a B240     		lw	ra,12(sp)
 148              		.cfi_restore 1
 149 001c 4101     		addi	sp,sp,16
 150              	.LCFI3:
 151              		.cfi_def_cfa_offset 0
 120:rtc.c         **** }
 152              		.loc 1 120 5
 153 001e 17030000 		tail	rtc_lwoff_wait
 153      67000300 
 154              	.LVL17:
 155              		.cfi_endproc
 156              	.LFE7:
 158              		.section	.text.time_display,"ax",@progbits
 159              		.align	1
 160              		.globl	time_display
 162              	time_display:
 163              	.LFB8:
 122:rtc.c         **** 
 123:rtc.c         **** /*!
 124:rtc.c         ****     \brief      display the current time 
 125:rtc.c         ****     \param[in]  timeVar: RTC counter value
 126:rtc.c         ****     \param[out] none
 127:rtc.c         ****     \retval     none
 128:rtc.c         **** */
 129:rtc.c         **** void time_display(uint32_t timevar)
 130:rtc.c         **** {
 164              		.loc 1 130 1 is_stmt 1
 165              		.cfi_startproc
 166              	.LVL18:
 131:rtc.c         ****     uint32_t thh = 0, tmm = 0, tss = 0;
 167              		.loc 1 131 5
 132:rtc.c         ****     char clk[15];
 168              		.loc 1 132 5
 133:rtc.c         **** 
 134:rtc.c         ****     /* compute  hours */
 135:rtc.c         ****     thh = timevar / 3600;
 169              		.loc 1 135 5
 136:rtc.c         ****     /* compute minutes */
 137:rtc.c         ****     tmm = (timevar % 3600) / 60;
 170              		.loc 1 137 5
 171              		.loc 1 137 20 is_stmt 0
 172 0000 8567     		li	a5,4096
 173 0002 938707E1 		addi	a5,a5,-496
 174 0006 3376F502 		remu	a2,a0,a5
 175              	.LVL19:
 138:rtc.c         ****     /* compute seconds */
 139:rtc.c         ****     tss = (timevar % 3600) % 60;
 176              		.loc 1 139 5 is_stmt 1
 140:rtc.c         ****     sprintf(clk, "Time: %0.2d:%0.2d:%0.2d", thh, tmm, tss);
 177              		.loc 1 140 5
 139:rtc.c         ****     sprintf(clk, "Time: %0.2d:%0.2d:%0.2d", thh, tmm, tss);
 178              		.loc 1 139 9 is_stmt 0
 179 000a 9306C003 		li	a3,60
GAS LISTING C:\Users\Karzan\AppData\Local\Temp\ccDINpEv.s 			page 7


 130:rtc.c         ****     uint32_t thh = 0, tmm = 0, tss = 0;
 180              		.loc 1 130 1
 181 000e 0111     		addi	sp,sp,-32
 182              	.LCFI4:
 183              		.cfi_def_cfa_offset 32
 184              		.loc 1 140 5
 185 0010 B7050000 		lui	a1,%hi(.LC0)
 186 0014 93850500 		addi	a1,a1,%lo(.LC0)
 130:rtc.c         ****     uint32_t thh = 0, tmm = 0, tss = 0;
 187              		.loc 1 130 1
 188 0018 06CE     		sw	ra,28(sp)
 189              		.cfi_offset 1, -4
 190              		.loc 1 140 5
 191 001a 3377D602 		remu	a4,a2,a3
 192              	.LVL20:
 193 001e B356D602 		divu	a3,a2,a3
 194              	.LVL21:
 195 0022 3356F502 		divu	a2,a0,a5
 196 0026 0A85     		mv	a0,sp
 197              	.LVL22:
 198 0028 97000000 		call	sprintf
 198      E7800000 
 199              	.LVL23:
 141:rtc.c         ****     LCD_ShowStr(10, 30, clk, WHITE, OPAQUE);
 200              		.loc 1 141 5 is_stmt 1
 201 0030 C166     		li	a3,65536
 202 0032 0A86     		mv	a2,sp
 203 0034 0147     		li	a4,0
 204 0036 FD16     		addi	a3,a3,-1
 205 0038 F945     		li	a1,30
 206 003a 2945     		li	a0,10
 207 003c 97000000 		call	LCD_ShowStr
 207      E7800000 
 208              	.LVL24:
 142:rtc.c         ****     LCD_Wait_On_Queue();
 209              		.loc 1 142 5
 210 0044 97000000 		call	LCD_Wait_On_Queue
 210      E7800000 
 211              	.LVL25:
 143:rtc.c         **** }
 212              		.loc 1 143 1 is_stmt 0
 213 004c F240     		lw	ra,28(sp)
 214              		.cfi_restore 1
 215 004e 0561     		addi	sp,sp,32
 216              	.LCFI5:
 217              		.cfi_def_cfa_offset 0
 218 0050 8280     		jr	ra
 219              		.cfi_endproc
 220              	.LFE8:
 222              		.section	.text.time_show,"ax",@progbits
 223              		.align	1
 224              		.globl	time_show
 226              	time_show:
 227              	.LFB9:
 144:rtc.c         **** 
 145:rtc.c         **** /*!
 146:rtc.c         ****     \brief      show the current time (HH:MM:SS) on the Hyperterminal
GAS LISTING C:\Users\Karzan\AppData\Local\Temp\ccDINpEv.s 			page 8


 147:rtc.c         ****     \param[in]  none
 148:rtc.c         ****     \param[out] none
 149:rtc.c         ****     \retval     none
 150:rtc.c         **** */
 151:rtc.c         **** void time_show(void)
 152:rtc.c         **** {
 228              		.loc 1 152 1 is_stmt 1
 229              		.cfi_startproc
 230 0000 4111     		addi	sp,sp,-16
 231              	.LCFI6:
 232              		.cfi_def_cfa_offset 16
 233 0002 22C4     		sw	s0,8(sp)
 234 0004 26C2     		sw	s1,4(sp)
 235 0006 06C6     		sw	ra,12(sp)
 236              		.cfi_offset 8, -8
 237              		.cfi_offset 9, -12
 238              		.cfi_offset 1, -4
 153:rtc.c         ****     //printf("\n\r");
 154:rtc.c         **** 
 155:rtc.c         ****     /* infinite loop */
 156:rtc.c         ****     while (1){
 157:rtc.c         ****         /* if 1s has paased */
 158:rtc.c         ****         if (timedisplay == 1){
 239              		.loc 1 158 25 is_stmt 0
 240 0008 37040000 		lui	s0,%hi(timedisplay)
 241              		.loc 1 158 12
 242 000c 8544     		li	s1,1
 243              	.L9:
 156:rtc.c         ****         /* if 1s has paased */
 244              		.loc 1 156 5 is_stmt 1
 245              		.loc 1 158 9
 246              		.loc 1 158 25 is_stmt 0
 247 000e 83270400 		lw	a5,%lo(timedisplay)(s0)
 248              		.loc 1 158 12
 249 0012 E39E97FE 		bne	a5,s1,.L9
 159:rtc.c         ****             /* display current time */
 160:rtc.c         ****             time_display(rtc_counter_get());
 250              		.loc 1 160 13 is_stmt 1
 251 0016 97000000 		call	rtc_counter_get
 251      E7800000 
 252              	.LVL26:
 253 001e 97000000 		call	time_display
 253      E7800000 
 254              	.LVL27:
 161:rtc.c         ****             timedisplay = 0;
 255              		.loc 1 161 13
 256              		.loc 1 161 25 is_stmt 0
 257 0026 23200400 		sw	zero,%lo(timedisplay)(s0)
 258 002a D5B7     		j	.L9
 259              		.cfi_endproc
 260              	.LFE9:
 262              		.comm	timedisplay,4,4
 263              		.section	.rodata.time_display.str1.4,"aMS",@progbits,1
 264              		.align	2
 265              	.LC0:
 266 0000 54696D65 		.string	"Time: %0.2d:%0.2d:%0.2d"
 266      3A202530 
GAS LISTING C:\Users\Karzan\AppData\Local\Temp\ccDINpEv.s 			page 9


 266      2E32643A 
 266      25302E32 
 266      643A2530 
 267              		.text
 268              	.Letext0:
 269              		.file 2 "c:\\users\\karzan\\downloads\\toolchain-gd32v-v202-win\\toolchain-gd32v-v202-win\\compile
 270              		.file 3 "c:\\users\\karzan\\downloads\\toolchain-gd32v-v202-win\\toolchain-gd32v-v202-win\\compile
 271              		.file 4 "./../../firmware/GD32VF103_standard_peripheral/Include/gd32vf103_rcu.h"
 272              		.file 5 "c:\\users\\karzan\\downloads\\toolchain-gd32v-v202-win\\toolchain-gd32v-v202-win\\compile
 273              		.file 6 "c:\\users\\karzan\\downloads\\toolchain-gd32v-v202-win\\toolchain-gd32v-v202-win\\compile
 274              		.file 7 "c:\\users\\karzan\\downloads\\toolchain-gd32v-v202-win\\toolchain-gd32v-v202-win\\compile
 275              		.file 8 "c:\\users\\karzan\\downloads\\toolchain-gd32v-v202-win\\toolchain-gd32v-v202-win\\compile
 276              		.file 9 "./../../firmware/GD32VF103_standard_peripheral/system_gd32vf103.h"
 277              		.file 10 "c:\\users\\karzan\\downloads\\toolchain-gd32v-v202-win\\toolchain-gd32v-v202-win\\compil
 278              		.file 11 "lcd.h"
 279              		.file 12 "./../../firmware/GD32VF103_standard_peripheral/Include/gd32vf103_rtc.h"
 280              		.file 13 "c:\\users\\karzan\\downloads\\toolchain-gd32v-v202-win\\toolchain-gd32v-v202-win\\compil
 281              		.file 14 "./../../firmware/GD32VF103_standard_peripheral/Include/gd32vf103_pmu.h"
 282              		.file 15 "./../../firmware/GD32VF103_standard_peripheral/Include/gd32vf103_bkp.h"
GAS LISTING C:\Users\Karzan\AppData\Local\Temp\ccDINpEv.s 			page 10

