GAS LISTING C:\Users\Karzan\AppData\Local\Temp\ccDINpEv.s 			page 1


   1              		.file	"rtc.c"
   2              		.option nopic
   3              		.attribute arch, "rv32i2p0_m2p0_a2p0_c2p0"
   4              		.attribute unaligned_access, 0
   5              		.attribute stack_align, 16
   6              		.text
   7              	.Ltext0:
   8              		.cfi_sections	.debug_frame
   9              		.section	.text.rtc_configuration,"ax",@progbits
  10              		.align	1
  11              		.globl	rtc_configuration
  13              	rtc_configuration:
  14              	.LFB5:
  15              		.file 1 "rtc.c"
   1:rtc.c         **** /*!
   2:rtc.c         ****     \file  rtc.c
   3:rtc.c         ****     \brief RTC check and config,time_show and time_adjust function
   4:rtc.c         **** 
   5:rtc.c         ****     \version 2019-6-5, V1.0.0, demo for GD32VF103   
   6:rtc.c         **** */
   7:rtc.c         **** 
   8:rtc.c         **** /*
   9:rtc.c         ****     Copyright (c) 2019, GigaDevice Semiconductor Inc.
  10:rtc.c         **** 
  11:rtc.c         ****     Redistribution and use in source and binary forms, with or without modification, 
  12:rtc.c         **** are permitted provided that the following conditions are met:
  13:rtc.c         **** 
  14:rtc.c         ****     1. Redistributions of source code must retain the above copyright notice, this 
  15:rtc.c         ****        list of conditions and the following disclaimer.
  16:rtc.c         ****     2. Redistributions in binary form must reproduce the above copyright notice, 
  17:rtc.c         ****        this list of conditions and the following disclaimer in the documentation 
  18:rtc.c         ****        and/or other materials provided with the distribution.
  19:rtc.c         ****     3. Neither the name of the copyright holder nor the names of its contributors 
  20:rtc.c         ****        may be used to endorse or promote products derived from this software without 
  21:rtc.c         ****        specific prior written permission.
  22:rtc.c         **** 
  23:rtc.c         ****     THIS SOFTWARE IS PROVIDED BY THE COPYRIGHT HOLDERS AND CONTRIBUTORS "AS IS" 
  24:rtc.c         **** AND ANY EXPRESS OR IMPLIED WARRANTIES, INCLUDING, BUT NOT LIMITED TO, THE IMPLIED 
  25:rtc.c         **** WARRANTIES OF MERCHANTABILITY AND FITNESS FOR A PARTICULAR PURPOSE ARE DISCLAIMED. 
  26:rtc.c         **** IN NO EVENT SHALL THE COPYRIGHT HOLDER OR CONTRIBUTORS BE LIABLE FOR ANY DIRECT, 
  27:rtc.c         **** INDIRECT, INCIDENTAL, SPECIAL, EXEMPLARY, OR CONSEQUENTIAL DAMAGES (INCLUDING, BUT 
  28:rtc.c         **** NOT LIMITED TO, PROCUREMENT OF SUBSTITUTE GOODS OR SERVICES; LOSS OF USE, DATA, OR 
  29:rtc.c         **** PROFITS; OR BUSINESS INTERRUPTION) HOWEVER CAUSED AND ON ANY THEORY OF LIABILITY, 
  30:rtc.c         **** WHETHER IN CONTRACT, STRICT LIABILITY, OR TORT (INCLUDING NEGLIGENCE OR OTHERWISE) 
  31:rtc.c         **** ARISING IN ANY WAY OUT OF THE USE OF THIS SOFTWARE, EVEN IF ADVISED OF THE POSSIBILITY 
  32:rtc.c         **** OF SUCH DAMAGE.
  33:rtc.c         **** */
  34:rtc.c         **** 
  35:rtc.c         **** #include "rtc.h"
  36:rtc.c         **** #include "lcd.h"
  37:rtc.c         **** #include <stdio.h>
  38:rtc.c         **** 
  39:rtc.c         **** /* enter the second interruption,set the second interrupt flag to 1 */
  40:rtc.c         **** __IO uint32_t timedisplay;
  41:rtc.c         **** 
  42:rtc.c         **** /*!
  43:rtc.c         ****     \brief      configure the RTC
GAS LISTING C:\Users\Karzan\AppData\Local\Temp\ccDINpEv.s 			page 2


  44:rtc.c         ****     \param[in]  none
  45:rtc.c         ****     \param[out] none
  46:rtc.c         ****     \retval     none
  47:rtc.c         **** */
  48:rtc.c         **** void rtc_configuration(void)
  49:rtc.c         **** {
  16              		.loc 1 49 1
  17              		.cfi_startproc
  50:rtc.c         ****     /* enable PMU and BKPI clocks */
  51:rtc.c         ****     rcu_periph_clock_enable(RCU_BKPI);
  18              		.loc 1 51 5
  49:rtc.c         ****     /* enable PMU and BKPI clocks */
  19              		.loc 1 49 1 is_stmt 0
  20 0000 4111     		addi	sp,sp,-16
  21              	.LCFI0:
  22              		.cfi_def_cfa_offset 16
  23              		.loc 1 51 5
  24 0002 1305B071 		li	a0,1819
  49:rtc.c         ****     /* enable PMU and BKPI clocks */
  25              		.loc 1 49 1
  26 0006 06C6     		sw	ra,12(sp)
  27 0008 22C4     		sw	s0,8(sp)
  28              		.cfi_offset 1, -4
  29              		.cfi_offset 8, -8
  30              		.loc 1 51 5
  31 000a 97000000 		call	rcu_periph_clock_enable
  31      E7800000 
  32              	.LVL0:
  52:rtc.c         ****     rcu_periph_clock_enable(RCU_PMU);
  33              		.loc 1 52 5 is_stmt 1
  34 0012 1305C071 		li	a0,1820
  35 0016 97000000 		call	rcu_periph_clock_enable
  35      E7800000 
  36              	.LVL1:
  53:rtc.c         ****     /* allow access to BKP domain */
  54:rtc.c         ****     pmu_backup_write_enable();
  37              		.loc 1 54 5
  55:rtc.c         **** 
  56:rtc.c         ****     /* reset backup domain */
  57:rtc.c         ****     bkp_deinit();
  58:rtc.c         **** 
  59:rtc.c         ****     /* enable LXTAL */
  60:rtc.c         ****     rcu_osci_on(RCU_LXTAL);
  38              		.loc 1 60 5 is_stmt 0
  39 001e 0564     		li	s0,4096
  54:rtc.c         **** 
  40              		.loc 1 54 5
  41 0020 97000000 		call	pmu_backup_write_enable
  41      E7800000 
  42              	.LVL2:
  57:rtc.c         **** 
  43              		.loc 1 57 5 is_stmt 1
  44 0028 97000000 		call	bkp_deinit
  44      E7800000 
  45              	.LVL3:
  46              		.loc 1 60 5
  47 0030 13050480 		addi	a0,s0,-2048
GAS LISTING C:\Users\Karzan\AppData\Local\Temp\ccDINpEv.s 			page 3


  48 0034 97000000 		call	rcu_osci_on
  48      E7800000 
  49              	.LVL4:
  61:rtc.c         ****     /* wait till LXTAL is ready */
  62:rtc.c         ****     rcu_osci_stab_wait(RCU_LXTAL);
  50              		.loc 1 62 5
  51 003c 13050480 		addi	a0,s0,-2048
  52 0040 97000000 		call	rcu_osci_stab_wait
  52      E7800000 
  53              	.LVL5:
  63:rtc.c         ****     
  64:rtc.c         ****     /* select RCU_LXTAL as RTC clock source */
  65:rtc.c         ****     rcu_rtc_clock_config(RCU_RTCSRC_LXTAL);
  54              		.loc 1 65 5
  55 0048 13050010 		li	a0,256
  56 004c 97000000 		call	rcu_rtc_clock_config
  56      E7800000 
  57              	.LVL6:
  66:rtc.c         **** 
  67:rtc.c         ****     /* enable RTC Clock */
  68:rtc.c         ****     rcu_periph_clock_enable(RCU_RTC);
  58              		.loc 1 68 5
  59 0054 1305F480 		addi	a0,s0,-2033
  60 0058 97000000 		call	rcu_periph_clock_enable
  60      E7800000 
  61              	.LVL7:
  69:rtc.c         **** 
  70:rtc.c         ****     /* wait for RTC registers synchronization */
  71:rtc.c         ****     rtc_register_sync_wait();
  62              		.loc 1 71 5
  63 0060 97000000 		call	rtc_register_sync_wait
  63      E7800000 
  64              	.LVL8:
  72:rtc.c         **** 
  73:rtc.c         ****     /* wait until last write operation on RTC registers has finished */
  74:rtc.c         ****     rtc_lwoff_wait();
  65              		.loc 1 74 5
  66 0068 97000000 		call	rtc_lwoff_wait
  66      E7800000 
  67              	.LVL9:
  75:rtc.c         **** 
  76:rtc.c         ****     /* enable the RTC second interrupt*/
  77:rtc.c         ****     rtc_interrupt_enable(RTC_INT_SECOND);
  68              		.loc 1 77 5
  69 0070 0545     		li	a0,1
  70 0072 97000000 		call	rtc_interrupt_enable
  70      E7800000 
  71              	.LVL10:
  78:rtc.c         **** 
  79:rtc.c         ****     /* wait until last write operation on RTC registers has finished */
  80:rtc.c         ****     rtc_lwoff_wait();
  72              		.loc 1 80 5
  73 007a 97000000 		call	rtc_lwoff_wait
  73      E7800000 
  74              	.LVL11:
  81:rtc.c         **** 
  82:rtc.c         ****     /* set RTC prescaler: set RTC period to 1s */
GAS LISTING C:\Users\Karzan\AppData\Local\Temp\ccDINpEv.s 			page 4


  83:rtc.c         ****     rtc_prescaler_set(32767);
  75              		.loc 1 83 5
  76 0082 2165     		li	a0,32768
  77 0084 7D15     		addi	a0,a0,-1
  78 0086 97000000 		call	rtc_prescaler_set
  78      E7800000 
  79              	.LVL12:
  84:rtc.c         **** 
  85:rtc.c         ****     /* wait until last write operation on RTC registers has finished */
  86:rtc.c         ****     rtc_lwoff_wait();
  80              		.loc 1 86 5
  87:rtc.c         **** }
  81              		.loc 1 87 1 is_stmt 0
  82 008e 2244     		lw	s0,8(sp)
  83              		.cfi_restore 8
  84 0090 B240     		lw	ra,12(sp)
  85              		.cfi_restore 1
  86 0092 4101     		addi	sp,sp,16
  87              	.LCFI1:
  88              		.cfi_def_cfa_offset 0
  86:rtc.c         **** }
  89              		.loc 1 86 5
  90 0094 17030000 		tail	rtc_lwoff_wait
  90      67000300 
  91              	.LVL13:
  92              		.cfi_endproc
  93              	.LFE5:
  95              		.section	.text.time_regulate,"ax",@progbits
  96              		.align	1
  97              		.globl	time_regulate
  99              	time_regulate:
 100              	.LFB6:
  88:rtc.c         **** 
  89:rtc.c         **** /*!
  90:rtc.c         ****     \brief      return the time entered by user, using Hyperterminal
  91:rtc.c         ****     \param[in]  none
  92:rtc.c         ****     \param[out] none
  93:rtc.c         ****     \retval     current time of RTC counter value
  94:rtc.c         **** */
  95:rtc.c         **** uint32_t time_regulate(void)
  96:rtc.c         **** {
 101              		.loc 1 96 1 is_stmt 1
 102              		.cfi_startproc
  97:rtc.c         ****     uint32_t tmp_hh = 0xFF, tmp_mm = 0xFF, tmp_ss = 0xFF;
 103              		.loc 1 97 5
 104              	.LVL14:
  98:rtc.c         **** 
  99:rtc.c         ****     tmp_hh=12;
 105              		.loc 1 99 5
 100:rtc.c         ****     tmp_mm=00;
 106              		.loc 1 100 5
 101:rtc.c         ****     tmp_ss=00;
 107              		.loc 1 101 5
 102:rtc.c         **** 
 103:rtc.c         ****     /* return the value  store in RTC counter register */
 104:rtc.c         ****     return((tmp_hh*3600 + tmp_mm*60 + tmp_ss));
 108              		.loc 1 104 5
GAS LISTING C:\Users\Karzan\AppData\Local\Temp\ccDINpEv.s 			page 5


 105:rtc.c         **** }
 109              		.loc 1 105 1 is_stmt 0
 110 0000 2D65     		li	a0,45056
 111 0002 1305058C 		addi	a0,a0,-1856
 112 0006 8280     		ret
 113              		.cfi_endproc
 114              	.LFE6:
 116              		.section	.text.time_adjust,"ax",@progbits
 117              		.align	1
 118              		.globl	time_adjust
 120              	time_adjust:
 121              	.LFB7:
 106:rtc.c         **** 
 107:rtc.c         **** /*!
 108:rtc.c         ****     \brief      adjust time 
 109:rtc.c         ****     \param[in]  none
 110:rtc.c         ****     \param[out] none
 111:rtc.c         ****     \retval     none
 112:rtc.c         **** */
 113:rtc.c         **** void time_adjust(void)
 114:rtc.c         **** {
 122              		.loc 1 114 1 is_stmt 1
 123              		.cfi_startproc
 115:rtc.c         ****     /* wait until last write operation on RTC registers has finished */
 116:rtc.c         ****     rtc_lwoff_wait();
 124              		.loc 1 116 5
 114:rtc.c         ****     /* wait until last write operation on RTC registers has finished */
 125              		.loc 1 114 1 is_stmt 0
 126 0000 4111     		addi	sp,sp,-16
 127              	.LCFI2:
 128              		.cfi_def_cfa_offset 16
 129 0002 06C6     		sw	ra,12(sp)
 130              		.cfi_offset 1, -4
 131              		.loc 1 116 5
 132 0004 97000000 		call	rtc_lwoff_wait
 132      E7800000 
 133              	.LVL15:
 117:rtc.c         ****     /* change the current time */
 118:rtc.c         ****     rtc_counter_set(time_regulate());
 134              		.loc 1 118 5 is_stmt 1
  97:rtc.c         **** 
 135              		.loc 1 97 5
  99:rtc.c         ****     tmp_mm=00;
 136              		.loc 1 99 5
 100:rtc.c         ****     tmp_ss=00;
 137              		.loc 1 100 5
 101:rtc.c         **** 
 138              		.loc 1 101 5
 104:rtc.c         **** }
 139              		.loc 1 104 5
 140              		.loc 1 118 5 is_stmt 0
 141 000c 2D65     		li	a0,45056
 142 000e 1305058C 		addi	a0,a0,-1856
 143 0012 97000000 		call	rtc_counter_set
 143      E7800000 
 144              	.LVL16:
 119:rtc.c         ****     /* wait until last write operation on RTC registers has finished */
GAS LISTING C:\Users\Karzan\AppData\Local\Temp\ccDINpEv.s 			page 6


 120:rtc.c         ****     rtc_lwoff_wait();
 145              		.loc 1 120 5 is_stmt 1
 121:rtc.c         **** }
 146              		.loc 1 121 1 is_stmt 0
 147 001a B240     		lw	ra,12(sp)
 148              		.cfi_restore 1
 149 001c 4101     		addi	sp,sp,16
 150              	.LCFI3:
 151              		.cfi_def_cfa_offset 0
 120:rtc.c         **** }
 152              		.loc 1 120 5
 153 001e 17030000 		tail	rtc_lwoff_wait
 153      67000300 
 154              	.LVL17:
 155              		.cfi_endproc
 156              	.LFE7:
 158              		.section	.text.time_display,"ax",@progbits
 159              		.align	1
 160              		.globl	time_display
 162              	time_display:
 163              	.LFB8:
 122:rtc.c         **** 
 123:rtc.c         **** /*!
 124:rtc.c         ****     \brief      display the current time 
 125:rtc.c         ****     \param[in]  timeVar: RTC counter value
 126:rtc.c         ****     \param[out] none
 127:rtc.c         ****     \retval     none
 128:rtc.c         **** */
 129:rtc.c         **** void time_display(uint32_t timevar)
 130:rtc.c         **** {
 164              		.loc 1 130 1 is_stmt 1
 165              		.cfi_startproc
 166              	.LVL18:
 131:rtc.c         ****     uint32_t thh = 0, tmm = 0, tss = 0;
 167              		.loc 1 131 5
 132:rtc.c         ****     char clk[15];
 168              		.loc 1 132 5
 133:rtc.c         **** 
 134:rtc.c         ****     /* compute  hours */
 135:rtc.c         ****     thh = timevar / 3600;
 169              		.loc 1 135 5
 136:rtc.c         ****     /* compute minutes */
 137:rtc.c         ****     tmm = (timevar % 3600) / 60;
 170              		.loc 1 137 5
 171              		.loc 1 137 20 is_stmt 0
 172 0000 8567     		li	a5,4096
 173 0002 938707E1 		addi	a5,a5,-496
 174 0006 3376F502 		remu	a2,a0,a5
 175              	.LVL19:
 138:rtc.c         ****     /* compute seconds */
 139:rtc.c         ****     tss = (timevar % 3600) % 60;
 176              		.loc 1 139 5 is_stmt 1
 140:rtc.c         ****     sprintf(clk, "Time: %0.2d:%0.2d:%0.2d", thh, tmm, tss);
 177              		.loc 1 140 5
 139:rtc.c         ****     sprintf(clk, "Time: %0.2d:%0.2d:%0.2d", thh, tmm, tss);
 178              		.loc 1 139 9 is_stmt 0
 179 000a 9306C003 		li	a3,60
GAS LISTING C:\Users\Karzan\AppData\Local\Temp\ccDINpEv.s 			page 7


 130:rtc.c         ****     uint32_t thh = 0, tmm = 0, tss = 0;
 180              		.loc 1 130 1
 181 000e 0111     		addi	sp,sp,-32
 182              	.LCFI4:
 183              		.cfi_def_cfa_offset 32
 184              		.loc 1 140 5
 185 0010 B7050000 		lui	a1,%hi(.LC0)
 186 0014 93850500 		addi	a1,a1,%lo(.LC0)
 130:rtc.c         ****     uint32_t thh = 0, tmm = 0, tss = 0;
 187              		.loc 1 130 1
 188 0018 06CE     		sw	ra,28(sp)
 189              		.cfi_offset 1, -4
 190              		.loc 1 140 5
 191 001a 3377D602 		remu	a4,a2,a3
 192              	.LVL20:
 193 001e B356D602 		divu	a3,a2,a3
 194              	.LVL21:
 195 0022 3356F502 		divu	a2,a0,a5
 196 0026 0A85     		mv	a0,sp
 197              	.LVL22:
 198 0028 97000000 		call	sprintf
 198      E7800000 
 199              	.LVL23:
 141:rtc.c         ****     LCD_ShowStr(10, 30, clk, WHITE, OPAQUE);
 200              		.loc 1 141 5 is_stmt 1
 201 0030 C166     		li	a3,65536
 202 0032 0A86     		mv	a2,sp
 203 0034 0147     		li	a4,0
 204 0036 FD16     		addi	a3,a3,-1
 205 0038 F945     		li	a1,30
 206 003a 2945     		li	a0,10
 207 003c 97000000 		call	LCD_ShowStr
 207      E7800000 
 208              	.LVL24:
 142:rtc.c         ****     LCD_Wait_On_Queue();
 209              		.loc 1 142 5
 210 0044 97000000 		call	LCD_Wait_On_Queue
 210      E7800000 
 211              	.LVL25:
 143:rtc.c         **** }
 212              		.loc 1 143 1 is_stmt 0
 213 004c F240     		lw	ra,28(sp)
 214              		.cfi_restore 1
 215 004e 0561     		addi	sp,sp,32
 216              	.LCFI5:
 217              		.cfi_def_cfa_offset 0
 218 0050 8280     		jr	ra
 219              		.cfi_endproc
 220              	.LFE8:
 222              		.section	.text.time_show,"ax",@progbits
 223              		.align	1
 224              		.globl	time_show
 226              	time_show:
 227              	.LFB9:
 144:rtc.c         **** 
 145:rtc.c         **** /*!
 146:rtc.c         ****     \brief      show the current time (HH:MM:SS) on the Hyperterminal
GAS LISTING C:\Users\Karzan\AppData\Local\Temp\ccDINpEv.s 			page 8


 147:rtc.c         ****     \param[in]  none
 148:rtc.c         ****     \param[out] none
 149:rtc.c         ****     \retval     none
 150:rtc.c         **** */
 151:rtc.c         **** void time_show(void)
 152:rtc.c         **** {
 228              		.loc 1 152 1 is_stmt 1
 229              		.cfi_startproc
 230 0000 4111     		addi	sp,sp,-16
 231              	.LCFI6:
 232              		.cfi_def_cfa_offset 16
 233 0002 22C4     		sw	s0,8(sp)
 234 0004 26C2     		sw	s1,4(sp)
 235 0006 06C6     		sw	ra,12(sp)
 236              		.cfi_offset 8, -8
 237              		.cfi_offset 9, -12
 238              		.cfi_offset 1, -4
 153:rtc.c         ****     //printf("\n\r");
 154:rtc.c         **** 
 155:rtc.c         ****     /* infinite loop */
 156:rtc.c         ****     while (1){
 157:rtc.c         ****         /* if 1s has paased */
 158:rtc.c         ****         if (timedisplay == 1){
 239              		.loc 1 158 25 is_stmt 0
 240 0008 37040000 		lui	s0,%hi(timedisplay)
 241              		.loc 1 158 12
 242 000c 8544     		li	s1,1
 243              	.L9:
 156:rtc.c         ****         /* if 1s has paased */
 244              		.loc 1 156 5 is_stmt 1
 245              		.loc 1 158 9
 246              		.loc 1 158 25 is_stmt 0
 247 000e 83270400 		lw	a5,%lo(timedisplay)(s0)
 248              		.loc 1 158 12
 249 0012 E39E97FE 		bne	a5,s1,.L9
 159:rtc.c         ****             /* display current time */
 160:rtc.c         ****             time_display(rtc_counter_get());
 250              		.loc 1 160 13 is_stmt 1
 251 0016 97000000 		call	rtc_counter_get
 251      E7800000 
 252              	.LVL26:
 253 001e 97000000 		call	time_display
 253      E7800000 
 254              	.LVL27:
 161:rtc.c         ****             timedisplay = 0;
 255              		.loc 1 161 13
 256              		.loc 1 161 25 is_stmt 0
 257 0026 23200400 		sw	zero,%lo(timedisplay)(s0)
 258 002a D5B7     		j	.L9
 259              		.cfi_endproc
 260              	.LFE9:
 262              		.comm	timedisplay,4,4
 263              		.section	.rodata.time_display.str1.4,"aMS",@progbits,1
 264              		.align	2
 265              	.LC0:
 266 0000 54696D65 		.string	"Time: %0.2d:%0.2d:%0.2d"
 266      3A202530 
GAS LISTING C:\Users\Karzan\AppData\Local\Temp\ccDINpEv.s 			page 9


 266      2E32643A 
 266      25302E32 
 266      643A2530 
 267              		.text
 268              	.Letext0:
 269              		.file 2 "c:\\users\\karzan\\downloads\\toolchain-gd32v-v202-win\\toolchain-gd32v-v202-win\\compile
 270              		.file 3 "c:\\users\\karzan\\downloads\\toolchain-gd32v-v202-win\\toolchain-gd32v-v202-win\\compile
 271              		.file 4 "./../../firmware/GD32VF103_standard_peripheral/Include/gd32vf103_rcu.h"
 272              		.file 5 "c:\\users\\karzan\\downloads\\toolchain-gd32v-v202-win\\toolchain-gd32v-v202-win\\compile
 273              		.file 6 "c:\\users\\karzan\\downloads\\toolchain-gd32v-v202-win\\toolchain-gd32v-v202-win\\compile
 274              		.file 7 "c:\\users\\karzan\\downloads\\toolchain-gd32v-v202-win\\toolchain-gd32v-v202-win\\compile
 275              		.file 8 "c:\\users\\karzan\\downloads\\toolchain-gd32v-v202-win\\toolchain-gd32v-v202-win\\compile
 276              		.file 9 "./../../firmware/GD32VF103_standard_peripheral/system_gd32vf103.h"
 277              		.file 10 "c:\\users\\karzan\\downloads\\toolchain-gd32v-v202-win\\toolchain-gd32v-v202-win\\compil
 278              		.file 11 "lcd.h"
 279              		.file 12 "./../../firmware/GD32VF103_standard_peripheral/Include/gd32vf103_rtc.h"
 280              		.file 13 "c:\\users\\karzan\\downloads\\toolchain-gd32v-v202-win\\toolchain-gd32v-v202-win\\compil
 281              		.file 14 "./../../firmware/GD32VF103_standard_peripheral/Include/gd32vf103_pmu.h"
 282              		.file 15 "./../../firmware/GD32VF103_standard_peripheral/Include/gd32vf103_bkp.h"
GAS LISTING C:\Users\Karzan\AppData\Local\Temp\ccDINpEv.s 			page 10


DEFINED SYMBOLS
                            *ABS*:0000000000000000 rtc.c
C:\Users\Karzan\AppData\Local\Temp\ccDINpEv.s:13     .text.rtc_configuration:0000000000000000 rtc_configuration
C:\Users\Karzan\AppData\Local\Temp\ccDINpEv.s:17     .text.rtc_configuration:0000000000000000 .L0 
C:\Users\Karzan\AppData\Local\Temp\ccDINpEv.s:18     .text.rtc_configuration:0000000000000000 .L0 
C:\Users\Karzan\AppData\Local\Temp\ccDINpEv.s:19     .text.rtc_configuration:0000000000000000 .L0 
C:\Users\Karzan\AppData\Local\Temp\ccDINpEv.s:20     .text.rtc_configuration:0000000000000000 .L0 
C:\Users\Karzan\AppData\Local\Temp\ccDINpEv.s:22     .text.rtc_configuration:0000000000000002 .L0 
C:\Users\Karzan\AppData\Local\Temp\ccDINpEv.s:24     .text.rtc_configuration:0000000000000002 .L0 
C:\Users\Karzan\AppData\Local\Temp\ccDINpEv.s:26     .text.rtc_configuration:0000000000000006 .L0 
C:\Users\Karzan\AppData\Local\Temp\ccDINpEv.s:28     .text.rtc_configuration:000000000000000a .L0 
C:\Users\Karzan\AppData\Local\Temp\ccDINpEv.s:29     .text.rtc_configuration:000000000000000a .L0 
C:\Users\Karzan\AppData\Local\Temp\ccDINpEv.s:31     .text.rtc_configuration:000000000000000a .L0 
C:\Users\Karzan\AppData\Local\Temp\ccDINpEv.s:34     .text.rtc_configuration:0000000000000012 .L0 
C:\Users\Karzan\AppData\Local\Temp\ccDINpEv.s:38     .text.rtc_configuration:000000000000001e .L0 
C:\Users\Karzan\AppData\Local\Temp\ccDINpEv.s:39     .text.rtc_configuration:000000000000001e .L0 
C:\Users\Karzan\AppData\Local\Temp\ccDINpEv.s:41     .text.rtc_configuration:0000000000000020 .L0 
C:\Users\Karzan\AppData\Local\Temp\ccDINpEv.s:44     .text.rtc_configuration:0000000000000028 .L0 
C:\Users\Karzan\AppData\Local\Temp\ccDINpEv.s:47     .text.rtc_configuration:0000000000000030 .L0 
C:\Users\Karzan\AppData\Local\Temp\ccDINpEv.s:51     .text.rtc_configuration:000000000000003c .L0 
C:\Users\Karzan\AppData\Local\Temp\ccDINpEv.s:55     .text.rtc_configuration:0000000000000048 .L0 
C:\Users\Karzan\AppData\Local\Temp\ccDINpEv.s:59     .text.rtc_configuration:0000000000000054 .L0 
C:\Users\Karzan\AppData\Local\Temp\ccDINpEv.s:63     .text.rtc_configuration:0000000000000060 .L0 
C:\Users\Karzan\AppData\Local\Temp\ccDINpEv.s:66     .text.rtc_configuration:0000000000000068 .L0 
C:\Users\Karzan\AppData\Local\Temp\ccDINpEv.s:69     .text.rtc_configuration:0000000000000070 .L0 
C:\Users\Karzan\AppData\Local\Temp\ccDINpEv.s:73     .text.rtc_configuration:000000000000007a .L0 
C:\Users\Karzan\AppData\Local\Temp\ccDINpEv.s:76     .text.rtc_configuration:0000000000000082 .L0 
C:\Users\Karzan\AppData\Local\Temp\ccDINpEv.s:81     .text.rtc_configuration:000000000000008e .L0 
C:\Users\Karzan\AppData\Local\Temp\ccDINpEv.s:82     .text.rtc_configuration:000000000000008e .L0 
C:\Users\Karzan\AppData\Local\Temp\ccDINpEv.s:83     .text.rtc_configuration:0000000000000090 .L0 
C:\Users\Karzan\AppData\Local\Temp\ccDINpEv.s:85     .text.rtc_configuration:0000000000000092 .L0 
C:\Users\Karzan\AppData\Local\Temp\ccDINpEv.s:88     .text.rtc_configuration:0000000000000094 .L0 
C:\Users\Karzan\AppData\Local\Temp\ccDINpEv.s:90     .text.rtc_configuration:0000000000000094 .L0 
C:\Users\Karzan\AppData\Local\Temp\ccDINpEv.s:92     .text.rtc_configuration:000000000000009c .L0 
C:\Users\Karzan\AppData\Local\Temp\ccDINpEv.s:99     .text.time_regulate:0000000000000000 time_regulate
C:\Users\Karzan\AppData\Local\Temp\ccDINpEv.s:102    .text.time_regulate:0000000000000000 .L0 
C:\Users\Karzan\AppData\Local\Temp\ccDINpEv.s:103    .text.time_regulate:0000000000000000 .L0 
C:\Users\Karzan\AppData\Local\Temp\ccDINpEv.s:105    .text.time_regulate:0000000000000000 .L0 
C:\Users\Karzan\AppData\Local\Temp\ccDINpEv.s:106    .text.time_regulate:0000000000000000 .L0 
C:\Users\Karzan\AppData\Local\Temp\ccDINpEv.s:107    .text.time_regulate:0000000000000000 .L0 
C:\Users\Karzan\AppData\Local\Temp\ccDINpEv.s:108    .text.time_regulate:0000000000000000 .L0 
C:\Users\Karzan\AppData\Local\Temp\ccDINpEv.s:109    .text.time_regulate:0000000000000000 .L0 
C:\Users\Karzan\AppData\Local\Temp\ccDINpEv.s:110    .text.time_regulate:0000000000000000 .L0 
C:\Users\Karzan\AppData\Local\Temp\ccDINpEv.s:113    .text.time_regulate:0000000000000008 .L0 
C:\Users\Karzan\AppData\Local\Temp\ccDINpEv.s:120    .text.time_adjust:0000000000000000 time_adjust
C:\Users\Karzan\AppData\Local\Temp\ccDINpEv.s:123    .text.time_adjust:0000000000000000 .L0 
C:\Users\Karzan\AppData\Local\Temp\ccDINpEv.s:124    .text.time_adjust:0000000000000000 .L0 
C:\Users\Karzan\AppData\Local\Temp\ccDINpEv.s:125    .text.time_adjust:0000000000000000 .L0 
C:\Users\Karzan\AppData\Local\Temp\ccDINpEv.s:126    .text.time_adjust:0000000000000000 .L0 
C:\Users\Karzan\AppData\Local\Temp\ccDINpEv.s:128    .text.time_adjust:0000000000000002 .L0 
C:\Users\Karzan\AppData\Local\Temp\ccDINpEv.s:130    .text.time_adjust:0000000000000004 .L0 
C:\Users\Karzan\AppData\Local\Temp\ccDINpEv.s:132    .text.time_adjust:0000000000000004 .L0 
C:\Users\Karzan\AppData\Local\Temp\ccDINpEv.s:135    .text.time_adjust:000000000000000c .L0 
C:\Users\Karzan\AppData\Local\Temp\ccDINpEv.s:136    .text.time_adjust:000000000000000c .L0 
C:\Users\Karzan\AppData\Local\Temp\ccDINpEv.s:137    .text.time_adjust:000000000000000c .L0 
C:\Users\Karzan\AppData\Local\Temp\ccDINpEv.s:138    .text.time_adjust:000000000000000c .L0 
C:\Users\Karzan\AppData\Local\Temp\ccDINpEv.s:139    .text.time_adjust:000000000000000c .L0 
GAS LISTING C:\Users\Karzan\AppData\Local\Temp\ccDINpEv.s 			page 11


C:\Users\Karzan\AppData\Local\Temp\ccDINpEv.s:140    .text.time_adjust:000000000000000c .L0 
C:\Users\Karzan\AppData\Local\Temp\ccDINpEv.s:141    .text.time_adjust:000000000000000c .L0 
C:\Users\Karzan\AppData\Local\Temp\ccDINpEv.s:146    .text.time_adjust:000000000000001a .L0 
C:\Users\Karzan\AppData\Local\Temp\ccDINpEv.s:147    .text.time_adjust:000000000000001a .L0 
C:\Users\Karzan\AppData\Local\Temp\ccDINpEv.s:148    .text.time_adjust:000000000000001c .L0 
C:\Users\Karzan\AppData\Local\Temp\ccDINpEv.s:151    .text.time_adjust:000000000000001e .L0 
C:\Users\Karzan\AppData\Local\Temp\ccDINpEv.s:153    .text.time_adjust:000000000000001e .L0 
C:\Users\Karzan\AppData\Local\Temp\ccDINpEv.s:155    .text.time_adjust:0000000000000026 .L0 
C:\Users\Karzan\AppData\Local\Temp\ccDINpEv.s:162    .text.time_display:0000000000000000 time_display
C:\Users\Karzan\AppData\Local\Temp\ccDINpEv.s:165    .text.time_display:0000000000000000 .L0 
C:\Users\Karzan\AppData\Local\Temp\ccDINpEv.s:167    .text.time_display:0000000000000000 .L0 
C:\Users\Karzan\AppData\Local\Temp\ccDINpEv.s:168    .text.time_display:0000000000000000 .L0 
C:\Users\Karzan\AppData\Local\Temp\ccDINpEv.s:169    .text.time_display:0000000000000000 .L0 
C:\Users\Karzan\AppData\Local\Temp\ccDINpEv.s:170    .text.time_display:0000000000000000 .L0 
C:\Users\Karzan\AppData\Local\Temp\ccDINpEv.s:171    .text.time_display:0000000000000000 .L0 
C:\Users\Karzan\AppData\Local\Temp\ccDINpEv.s:172    .text.time_display:0000000000000000 .L0 
C:\Users\Karzan\AppData\Local\Temp\ccDINpEv.s:177    .text.time_display:000000000000000a .L0 
C:\Users\Karzan\AppData\Local\Temp\ccDINpEv.s:178    .text.time_display:000000000000000a .L0 
C:\Users\Karzan\AppData\Local\Temp\ccDINpEv.s:179    .text.time_display:000000000000000a .L0 
C:\Users\Karzan\AppData\Local\Temp\ccDINpEv.s:181    .text.time_display:000000000000000e .L0 
C:\Users\Karzan\AppData\Local\Temp\ccDINpEv.s:183    .text.time_display:0000000000000010 .L0 
C:\Users\Karzan\AppData\Local\Temp\ccDINpEv.s:185    .text.time_display:0000000000000010 .L0 
C:\Users\Karzan\AppData\Local\Temp\ccDINpEv.s:188    .text.time_display:0000000000000018 .L0 
C:\Users\Karzan\AppData\Local\Temp\ccDINpEv.s:189    .text.time_display:000000000000001a .L0 
C:\Users\Karzan\AppData\Local\Temp\ccDINpEv.s:191    .text.time_display:000000000000001a .L0 
C:\Users\Karzan\AppData\Local\Temp\ccDINpEv.s:201    .text.time_display:0000000000000030 .L0 
C:\Users\Karzan\AppData\Local\Temp\ccDINpEv.s:210    .text.time_display:0000000000000044 .L0 
C:\Users\Karzan\AppData\Local\Temp\ccDINpEv.s:213    .text.time_display:000000000000004c .L0 
C:\Users\Karzan\AppData\Local\Temp\ccDINpEv.s:214    .text.time_display:000000000000004e .L0 
C:\Users\Karzan\AppData\Local\Temp\ccDINpEv.s:217    .text.time_display:0000000000000050 .L0 
C:\Users\Karzan\AppData\Local\Temp\ccDINpEv.s:219    .text.time_display:0000000000000052 .L0 
C:\Users\Karzan\AppData\Local\Temp\ccDINpEv.s:226    .text.time_show:0000000000000000 time_show
C:\Users\Karzan\AppData\Local\Temp\ccDINpEv.s:229    .text.time_show:0000000000000000 .L0 
C:\Users\Karzan\AppData\Local\Temp\ccDINpEv.s:230    .text.time_show:0000000000000000 .L0 
C:\Users\Karzan\AppData\Local\Temp\ccDINpEv.s:232    .text.time_show:0000000000000002 .L0 
C:\Users\Karzan\AppData\Local\Temp\ccDINpEv.s:236    .text.time_show:0000000000000008 .L0 
C:\Users\Karzan\AppData\Local\Temp\ccDINpEv.s:237    .text.time_show:0000000000000008 .L0 
C:\Users\Karzan\AppData\Local\Temp\ccDINpEv.s:238    .text.time_show:0000000000000008 .L0 
                            *COM*:0000000000000004 timedisplay
C:\Users\Karzan\AppData\Local\Temp\ccDINpEv.s:240    .text.time_show:0000000000000008 .L0 
C:\Users\Karzan\AppData\Local\Temp\ccDINpEv.s:242    .text.time_show:000000000000000c .L0 
C:\Users\Karzan\AppData\Local\Temp\ccDINpEv.s:245    .text.time_show:000000000000000e .L0 
C:\Users\Karzan\AppData\Local\Temp\ccDINpEv.s:246    .text.time_show:000000000000000e .L0 
C:\Users\Karzan\AppData\Local\Temp\ccDINpEv.s:247    .text.time_show:000000000000000e .L0 
C:\Users\Karzan\AppData\Local\Temp\ccDINpEv.s:249    .text.time_show:0000000000000012 .L0 
C:\Users\Karzan\AppData\Local\Temp\ccDINpEv.s:251    .text.time_show:0000000000000016 .L0 
C:\Users\Karzan\AppData\Local\Temp\ccDINpEv.s:256    .text.time_show:0000000000000026 .L0 
C:\Users\Karzan\AppData\Local\Temp\ccDINpEv.s:257    .text.time_show:0000000000000026 .L0 
C:\Users\Karzan\AppData\Local\Temp\ccDINpEv.s:259    .text.time_show:000000000000002c .L0 
C:\Users\Karzan\AppData\Local\Temp\ccDINpEv.s:95     .text.rtc_configuration:000000000000009c .L0 
C:\Users\Karzan\AppData\Local\Temp\ccDINpEv.s:116    .text.time_regulate:0000000000000008 .L0 
C:\Users\Karzan\AppData\Local\Temp\ccDINpEv.s:158    .text.time_adjust:0000000000000026 .L0 
C:\Users\Karzan\AppData\Local\Temp\ccDINpEv.s:222    .text.time_display:0000000000000052 .L0 
C:\Users\Karzan\AppData\Local\Temp\ccDINpEv.s:263    .text.time_show:000000000000002c .L0 
                     .debug_frame:0000000000000000 .L0 
C:\Users\Karzan\AppData\Local\Temp\ccDINpEv.s:265    .rodata.time_display.str1.4:0000000000000000 .LC0
C:\Users\Karzan\AppData\Local\Temp\ccDINpEv.s:243    .text.time_show:000000000000000e .L9
GAS LISTING C:\Users\Karzan\AppData\Local\Temp\ccDINpEv.s 			page 12


C:\Users\Karzan\AppData\Local\Temp\ccDINpEv.s:2382   .debug_abbrev:0000000000000000 .Ldebug_abbrev0
C:\Users\Karzan\AppData\Local\Temp\ccDINpEv.s:3658   .debug_str:0000000000000710 .LASF174
C:\Users\Karzan\AppData\Local\Temp\ccDINpEv.s:3716   .debug_str:00000000000008ca .LASF175
C:\Users\Karzan\AppData\Local\Temp\ccDINpEv.s:3562   .debug_str:00000000000004dc .LASF176
C:\Users\Karzan\AppData\Local\Temp\ccDINpEv.s:3304   .debug_ranges:0000000000000000 .Ldebug_ranges0
C:\Users\Karzan\AppData\Local\Temp\ccDINpEv.s:3318   .debug_line:0000000000000000 .Ldebug_line0
C:\Users\Karzan\AppData\Local\Temp\ccDINpEv.s:3634   .debug_str:000000000000068d .LASF0
C:\Users\Karzan\AppData\Local\Temp\ccDINpEv.s:3386   .debug_str:000000000000015c .LASF1
C:\Users\Karzan\AppData\Local\Temp\ccDINpEv.s:3346   .debug_str:0000000000000074 .LASF6
C:\Users\Karzan\AppData\Local\Temp\ccDINpEv.s:3564   .debug_str:0000000000000542 .LASF2
C:\Users\Karzan\AppData\Local\Temp\ccDINpEv.s:3642   .debug_str:00000000000006b4 .LASF3
C:\Users\Karzan\AppData\Local\Temp\ccDINpEv.s:3660   .debug_str:0000000000000798 .LASF4
C:\Users\Karzan\AppData\Local\Temp\ccDINpEv.s:3406   .debug_str:00000000000001b6 .LASF5
C:\Users\Karzan\AppData\Local\Temp\ccDINpEv.s:3436   .debug_str:0000000000000246 .LASF7
C:\Users\Karzan\AppData\Local\Temp\ccDINpEv.s:3468   .debug_str:00000000000002f0 .LASF8
C:\Users\Karzan\AppData\Local\Temp\ccDINpEv.s:3420   .debug_str:00000000000001f4 .LASF9
C:\Users\Karzan\AppData\Local\Temp\ccDINpEv.s:3358   .debug_str:00000000000000bb .LASF10
C:\Users\Karzan\AppData\Local\Temp\ccDINpEv.s:3648   .debug_str:00000000000006d0 .LASF11
C:\Users\Karzan\AppData\Local\Temp\ccDINpEv.s:3674   .debug_str:00000000000007f2 .LASF12
C:\Users\Karzan\AppData\Local\Temp\ccDINpEv.s:3458   .debug_str:00000000000002ad .LASF166
C:\Users\Karzan\AppData\Local\Temp\ccDINpEv.s:3330   .debug_str:000000000000002e .LASF13
C:\Users\Karzan\AppData\Local\Temp\ccDINpEv.s:3388   .debug_str:0000000000000168 .LASF14
C:\Users\Karzan\AppData\Local\Temp\ccDINpEv.s:3382   .debug_str:000000000000014d .LASF15
C:\Users\Karzan\AppData\Local\Temp\ccDINpEv.s:3638   .debug_str:00000000000006a5 .LASF16
C:\Users\Karzan\AppData\Local\Temp\ccDINpEv.s:3418   .debug_str:00000000000001ea .LASF17
C:\Users\Karzan\AppData\Local\Temp\ccDINpEv.s:3550   .debug_str:000000000000049a .LASF18
C:\Users\Karzan\AppData\Local\Temp\ccDINpEv.s:3552   .debug_str:00000000000004a5 .LASF19
C:\Users\Karzan\AppData\Local\Temp\ccDINpEv.s:3554   .debug_str:00000000000004b0 .LASF20
C:\Users\Karzan\AppData\Local\Temp\ccDINpEv.s:3556   .debug_str:00000000000004bb .LASF21
C:\Users\Karzan\AppData\Local\Temp\ccDINpEv.s:3558   .debug_str:00000000000004c6 .LASF22
C:\Users\Karzan\AppData\Local\Temp\ccDINpEv.s:3560   .debug_str:00000000000004d1 .LASF23
C:\Users\Karzan\AppData\Local\Temp\ccDINpEv.s:3656   .debug_str:0000000000000706 .LASF24
C:\Users\Karzan\AppData\Local\Temp\ccDINpEv.s:3324   .debug_str:0000000000000015 .LASF25
C:\Users\Karzan\AppData\Local\Temp\ccDINpEv.s:3326   .debug_str:000000000000001e .LASF26
C:\Users\Karzan\AppData\Local\Temp\ccDINpEv.s:3530   .debug_str:0000000000000424 .LASF27
C:\Users\Karzan\AppData\Local\Temp\ccDINpEv.s:3532   .debug_str:000000000000042f .LASF28
C:\Users\Karzan\AppData\Local\Temp\ccDINpEv.s:3360   .debug_str:00000000000000d2 .LASF29
C:\Users\Karzan\AppData\Local\Temp\ccDINpEv.s:3362   .debug_str:00000000000000dc .LASF30
C:\Users\Karzan\AppData\Local\Temp\ccDINpEv.s:3692   .debug_str:000000000000084f .LASF31
C:\Users\Karzan\AppData\Local\Temp\ccDINpEv.s:3614   .debug_str:0000000000000639 .LASF32
C:\Users\Karzan\AppData\Local\Temp\ccDINpEv.s:3428   .debug_str:000000000000021d .LASF33
C:\Users\Karzan\AppData\Local\Temp\ccDINpEv.s:3380   .debug_str:0000000000000144 .LASF34
C:\Users\Karzan\AppData\Local\Temp\ccDINpEv.s:3620   .debug_str:0000000000000654 .LASF35
C:\Users\Karzan\AppData\Local\Temp\ccDINpEv.s:3670   .debug_str:00000000000007d7 .LASF36
C:\Users\Karzan\AppData\Local\Temp\ccDINpEv.s:3486   .debug_str:0000000000000343 .LASF37
C:\Users\Karzan\AppData\Local\Temp\ccDINpEv.s:3478   .debug_str:000000000000031f .LASF38
C:\Users\Karzan\AppData\Local\Temp\ccDINpEv.s:3344   .debug_str:000000000000006d .LASF39
C:\Users\Karzan\AppData\Local\Temp\ccDINpEv.s:3366   .debug_str:00000000000000ef .LASF40
C:\Users\Karzan\AppData\Local\Temp\ccDINpEv.s:3460   .debug_str:00000000000002bd .LASF41
C:\Users\Karzan\AppData\Local\Temp\ccDINpEv.s:3462   .debug_str:00000000000002c7 .LASF42
C:\Users\Karzan\AppData\Local\Temp\ccDINpEv.s:3370   .debug_str:0000000000000104 .LASF43
C:\Users\Karzan\AppData\Local\Temp\ccDINpEv.s:3682   .debug_str:0000000000000813 .LASF44
C:\Users\Karzan\AppData\Local\Temp\ccDINpEv.s:3474   .debug_str:000000000000030d .LASF45
C:\Users\Karzan\AppData\Local\Temp\ccDINpEv.s:3476   .debug_str:0000000000000316 .LASF46
C:\Users\Karzan\AppData\Local\Temp\ccDINpEv.s:3548   .debug_str:000000000000048f .LASF47
C:\Users\Karzan\AppData\Local\Temp\ccDINpEv.s:3322   .debug_str:000000000000000c .LASF48
C:\Users\Karzan\AppData\Local\Temp\ccDINpEv.s:3528   .debug_str:0000000000000419 .LASF49
GAS LISTING C:\Users\Karzan\AppData\Local\Temp\ccDINpEv.s 			page 13


C:\Users\Karzan\AppData\Local\Temp\ccDINpEv.s:3432   .debug_str:0000000000000237 .LASF50
C:\Users\Karzan\AppData\Local\Temp\ccDINpEv.s:3644   .debug_str:00000000000006be .LASF51
C:\Users\Karzan\AppData\Local\Temp\ccDINpEv.s:3506   .debug_str:000000000000039a .LASF52
C:\Users\Karzan\AppData\Local\Temp\ccDINpEv.s:3636   .debug_str:000000000000069a .LASF53
C:\Users\Karzan\AppData\Local\Temp\ccDINpEv.s:3408   .debug_str:00000000000001bf .LASF54
C:\Users\Karzan\AppData\Local\Temp\ccDINpEv.s:3710   .debug_str:00000000000008ab .LASF55
C:\Users\Karzan\AppData\Local\Temp\ccDINpEv.s:3668   .debug_str:00000000000007cb .LASF56
C:\Users\Karzan\AppData\Local\Temp\ccDINpEv.s:3624   .debug_str:0000000000000666 .LASF57
C:\Users\Karzan\AppData\Local\Temp\ccDINpEv.s:3542   .debug_str:0000000000000466 .LASF58
C:\Users\Karzan\AppData\Local\Temp\ccDINpEv.s:3352   .debug_str:0000000000000094 .LASF59
C:\Users\Karzan\AppData\Local\Temp\ccDINpEv.s:3618   .debug_str:000000000000064c .LASF60
C:\Users\Karzan\AppData\Local\Temp\ccDINpEv.s:3684   .debug_str:000000000000081d .LASF61
C:\Users\Karzan\AppData\Local\Temp\ccDINpEv.s:3496   .debug_str:0000000000000378 .LASF62
C:\Users\Karzan\AppData\Local\Temp\ccDINpEv.s:3456   .debug_str:00000000000002a6 .LASF63
C:\Users\Karzan\AppData\Local\Temp\ccDINpEv.s:3608   .debug_str:0000000000000623 .LASF64
C:\Users\Karzan\AppData\Local\Temp\ccDINpEv.s:3610   .debug_str:000000000000062b .LASF65
C:\Users\Karzan\AppData\Local\Temp\ccDINpEv.s:3584   .debug_str:000000000000059a .LASF66
C:\Users\Karzan\AppData\Local\Temp\ccDINpEv.s:3666   .debug_str:00000000000007c3 .LASF67
C:\Users\Karzan\AppData\Local\Temp\ccDINpEv.s:3518   .debug_str:00000000000003cd .LASF68
C:\Users\Karzan\AppData\Local\Temp\ccDINpEv.s:3572   .debug_str:000000000000056b .LASF69
C:\Users\Karzan\AppData\Local\Temp\ccDINpEv.s:3446   .debug_str:000000000000027d .LASF74
C:\Users\Karzan\AppData\Local\Temp\ccDINpEv.s:3448   .debug_str:0000000000000285 .LASF70
C:\Users\Karzan\AppData\Local\Temp\ccDINpEv.s:3604   .debug_str:0000000000000614 .LASF71
C:\Users\Karzan\AppData\Local\Temp\ccDINpEv.s:3440   .debug_str:0000000000000263 .LASF72
C:\Users\Karzan\AppData\Local\Temp\ccDINpEv.s:3678   .debug_str:0000000000000808 .LASF73
C:\Users\Karzan\AppData\Local\Temp\ccDINpEv.s:3424   .debug_str:000000000000020a .LASF75
C:\Users\Karzan\AppData\Local\Temp\ccDINpEv.s:3378   .debug_str:000000000000013b .LASF76
C:\Users\Karzan\AppData\Local\Temp\ccDINpEv.s:3704   .debug_str:000000000000088d .LASF77
C:\Users\Karzan\AppData\Local\Temp\ccDINpEv.s:3394   .debug_str:000000000000017d .LASF78
C:\Users\Karzan\AppData\Local\Temp\ccDINpEv.s:3718   .debug_str:00000000000008d0 .LASF79
C:\Users\Karzan\AppData\Local\Temp\ccDINpEv.s:3522   .debug_str:00000000000003f1 .LASF80
C:\Users\Karzan\AppData\Local\Temp\ccDINpEv.s:3512   .debug_str:00000000000003b3 .LASF81
C:\Users\Karzan\AppData\Local\Temp\ccDINpEv.s:3616   .debug_str:0000000000000642 .LASF82
C:\Users\Karzan\AppData\Local\Temp\ccDINpEv.s:3574   .debug_str:0000000000000574 .LASF83
C:\Users\Karzan\AppData\Local\Temp\ccDINpEv.s:3698   .debug_str:0000000000000866 .LASF84
C:\Users\Karzan\AppData\Local\Temp\ccDINpEv.s:3398   .debug_str:000000000000018c .LASF85
C:\Users\Karzan\AppData\Local\Temp\ccDINpEv.s:3332   .debug_str:0000000000000037 .LASF86
C:\Users\Karzan\AppData\Local\Temp\ccDINpEv.s:3320   .debug_str:0000000000000000 .LASF87
C:\Users\Karzan\AppData\Local\Temp\ccDINpEv.s:3622   .debug_str:000000000000065d .LASF88
C:\Users\Karzan\AppData\Local\Temp\ccDINpEv.s:3412   .debug_str:00000000000001d1 .LASF89
C:\Users\Karzan\AppData\Local\Temp\ccDINpEv.s:3534   .debug_str:000000000000043a .LASF90
C:\Users\Karzan\AppData\Local\Temp\ccDINpEv.s:3596   .debug_str:00000000000005e4 .LASF91
C:\Users\Karzan\AppData\Local\Temp\ccDINpEv.s:3434   .debug_str:0000000000000241 .LASF92
C:\Users\Karzan\AppData\Local\Temp\ccDINpEv.s:3576   .debug_str:000000000000057e .LASF93
C:\Users\Karzan\AppData\Local\Temp\ccDINpEv.s:3392   .debug_str:0000000000000177 .LASF94
C:\Users\Karzan\AppData\Local\Temp\ccDINpEv.s:3632   .debug_str:0000000000000687 .LASF95
C:\Users\Karzan\AppData\Local\Temp\ccDINpEv.s:3586   .debug_str:00000000000005a5 .LASF96
C:\Users\Karzan\AppData\Local\Temp\ccDINpEv.s:3410   .debug_str:00000000000001ca .LASF97
C:\Users\Karzan\AppData\Local\Temp\ccDINpEv.s:3470   .debug_str:0000000000000302 .LASF98
C:\Users\Karzan\AppData\Local\Temp\ccDINpEv.s:3364   .debug_str:00000000000000e6 .LASF99
C:\Users\Karzan\AppData\Local\Temp\ccDINpEv.s:3402   .debug_str:00000000000001a6 .LASF100
C:\Users\Karzan\AppData\Local\Temp\ccDINpEv.s:3452   .debug_str:0000000000000292 .LASF101
C:\Users\Karzan\AppData\Local\Temp\ccDINpEv.s:3510   .debug_str:00000000000003ac .LASF102
C:\Users\Karzan\AppData\Local\Temp\ccDINpEv.s:3612   .debug_str:0000000000000633 .LASF103
C:\Users\Karzan\AppData\Local\Temp\ccDINpEv.s:3384   .debug_str:0000000000000155 .LASF104
C:\Users\Karzan\AppData\Local\Temp\ccDINpEv.s:3390   .debug_str:0000000000000171 .LASF105
C:\Users\Karzan\AppData\Local\Temp\ccDINpEv.s:3694   .debug_str:0000000000000858 .LASF106
GAS LISTING C:\Users\Karzan\AppData\Local\Temp\ccDINpEv.s 			page 14


C:\Users\Karzan\AppData\Local\Temp\ccDINpEv.s:3630   .debug_str:000000000000067e .LASF107
C:\Users\Karzan\AppData\Local\Temp\ccDINpEv.s:3340   .debug_str:000000000000005a .LASF108
C:\Users\Karzan\AppData\Local\Temp\ccDINpEv.s:3580   .debug_str:000000000000058d .LASF109
C:\Users\Karzan\AppData\Local\Temp\ccDINpEv.s:3502   .debug_str:000000000000038e .LASF110
C:\Users\Karzan\AppData\Local\Temp\ccDINpEv.s:3588   .debug_str:00000000000005ad .LASF111
C:\Users\Karzan\AppData\Local\Temp\ccDINpEv.s:3578   .debug_str:0000000000000585 .LASF112
C:\Users\Karzan\AppData\Local\Temp\ccDINpEv.s:3606   .debug_str:000000000000061c .LASF113
C:\Users\Karzan\AppData\Local\Temp\ccDINpEv.s:3626   .debug_str:0000000000000672 .LASF114
C:\Users\Karzan\AppData\Local\Temp\ccDINpEv.s:3414   .debug_str:00000000000001d9 .LASF115
C:\Users\Karzan\AppData\Local\Temp\ccDINpEv.s:3646   .debug_str:00000000000006c8 .LASF116
C:\Users\Karzan\AppData\Local\Temp\ccDINpEv.s:3444   .debug_str:0000000000000275 .LASF117
C:\Users\Karzan\AppData\Local\Temp\ccDINpEv.s:3472   .debug_str:0000000000000308 .LASF118
C:\Users\Karzan\AppData\Local\Temp\ccDINpEv.s:3342   .debug_str:0000000000000062 .LASF119
C:\Users\Karzan\AppData\Local\Temp\ccDINpEv.s:3602   .debug_str:00000000000005fb .LASF120
C:\Users\Karzan\AppData\Local\Temp\ccDINpEv.s:3598   .debug_str:00000000000005e9 .LASF121
C:\Users\Karzan\AppData\Local\Temp\ccDINpEv.s:3538   .debug_str:000000000000044c .LASF122
C:\Users\Karzan\AppData\Local\Temp\ccDINpEv.s:3600   .debug_str:00000000000005f1 .LASF123
C:\Users\Karzan\AppData\Local\Temp\ccDINpEv.s:3494   .debug_str:0000000000000370 .LASF124
C:\Users\Karzan\AppData\Local\Temp\ccDINpEv.s:3416   .debug_str:00000000000001e0 .LASF125
C:\Users\Karzan\AppData\Local\Temp\ccDINpEv.s:3714   .debug_str:00000000000008c5 .LASF126
C:\Users\Karzan\AppData\Local\Temp\ccDINpEv.s:3546   .debug_str:0000000000000485 .LASF127
C:\Users\Karzan\AppData\Local\Temp\ccDINpEv.s:3466   .debug_str:00000000000002e8 .LASF128
C:\Users\Karzan\AppData\Local\Temp\ccDINpEv.s:3422   .debug_str:0000000000000202 .LASF129
C:\Users\Karzan\AppData\Local\Temp\ccDINpEv.s:3500   .debug_str:0000000000000389 .LASF130
C:\Users\Karzan\AppData\Local\Temp\ccDINpEv.s:3350   .debug_str:000000000000008b .LASF131
C:\Users\Karzan\AppData\Local\Temp\ccDINpEv.s:3688   .debug_str:0000000000000830 .LASF132
C:\Users\Karzan\AppData\Local\Temp\ccDINpEv.s:3404   .debug_str:00000000000001ae .LASF133
C:\Users\Karzan\AppData\Local\Temp\ccDINpEv.s:3396   .debug_str:0000000000000187 .LASF134
C:\Users\Karzan\AppData\Local\Temp\ccDINpEv.s:3628   .debug_str:0000000000000679 .LASF135
C:\Users\Karzan\AppData\Local\Temp\ccDINpEv.s:3582   .debug_str:0000000000000593 .LASF136
C:\Users\Karzan\AppData\Local\Temp\ccDINpEv.s:3680   .debug_str:000000000000080d .LASF137
C:\Users\Karzan\AppData\Local\Temp\ccDINpEv.s:3482   .debug_str:0000000000000331 .LASF138
C:\Users\Karzan\AppData\Local\Temp\ccDINpEv.s:3568   .debug_str:000000000000055c .LASF139
C:\Users\Karzan\AppData\Local\Temp\ccDINpEv.s:3338   .debug_str:0000000000000052 .LASF140
C:\Users\Karzan\AppData\Local\Temp\ccDINpEv.s:3640   .debug_str:00000000000006ae .LASF141
C:\Users\Karzan\AppData\Local\Temp\ccDINpEv.s:3504   .debug_str:0000000000000394 .LASF142
C:\Users\Karzan\AppData\Local\Temp\ccDINpEv.s:3664   .debug_str:00000000000007be .LASF143
C:\Users\Karzan\AppData\Local\Temp\ccDINpEv.s:3676   .debug_str:00000000000007fb .LASF144
C:\Users\Karzan\AppData\Local\Temp\ccDINpEv.s:3654   .debug_str:00000000000006f9 .LASF145
C:\Users\Karzan\AppData\Local\Temp\ccDINpEv.s:3490   .debug_str:0000000000000357 .LASF146
C:\Users\Karzan\AppData\Local\Temp\ccDINpEv.s:3700   .debug_str:0000000000000871 .LASF147
C:\Users\Karzan\AppData\Local\Temp\ccDINpEv.s:3540   .debug_str:0000000000000457 .LASF148
C:\Users\Karzan\AppData\Local\Temp\ccDINpEv.s:3484   .debug_str:0000000000000338 .LASF149
C:\Users\Karzan\AppData\Local\Temp\ccDINpEv.s:3706   .debug_str:0000000000000896 .LASF150
C:\Users\Karzan\AppData\Local\Temp\ccDINpEv.s:3592   .debug_str:00000000000005c8 .LASF151
C:\Users\Karzan\AppData\Local\Temp\ccDINpEv.s:3712   .debug_str:00000000000008b7 .LASF152
C:\Users\Karzan\AppData\Local\Temp\ccDINpEv.s:3376   .debug_str:000000000000012d .LASF153
C:\Users\Karzan\AppData\Local\Temp\ccDINpEv.s:3686   .debug_str:0000000000000826 .LASF154
C:\Users\Karzan\AppData\Local\Temp\ccDINpEv.s:3488   .debug_str:000000000000034b .LASF155
C:\Users\Karzan\AppData\Local\Temp\ccDINpEv.s:3348   .debug_str:000000000000007e .LASF156
C:\Users\Karzan\AppData\Local\Temp\ccDINpEv.s:3426   .debug_str:000000000000020f .LASF157
C:\Users\Karzan\AppData\Local\Temp\ccDINpEv.s:3374   .debug_str:000000000000011e .LASF158
C:\Users\Karzan\AppData\Local\Temp\ccDINpEv.s:3430   .debug_str:0000000000000226 .LASF159
C:\Users\Karzan\AppData\Local\Temp\ccDINpEv.s:3354   .debug_str:000000000000009b .LASF160
C:\Users\Karzan\AppData\Local\Temp\ccDINpEv.s:3356   .debug_str:00000000000000aa .LASF161
C:\Users\Karzan\AppData\Local\Temp\ccDINpEv.s:3570   .debug_str:0000000000000562 .LASF162
C:\Users\Karzan\AppData\Local\Temp\ccDINpEv.s:3526   .debug_str:0000000000000412 .LASF163
GAS LISTING C:\Users\Karzan\AppData\Local\Temp\ccDINpEv.s 			page 15


C:\Users\Karzan\AppData\Local\Temp\ccDINpEv.s:3516   .debug_str:00000000000003c4 .LASF164
C:\Users\Karzan\AppData\Local\Temp\ccDINpEv.s:3696   .debug_str:000000000000085e .LASF165
C:\Users\Karzan\AppData\Local\Temp\ccDINpEv.s:3368   .debug_str:00000000000000f9 .LASF197
C:\Users\Karzan\AppData\Local\Temp\ccDINpEv.s:3442   .debug_str:0000000000000269 .LASF167
C:\Users\Karzan\AppData\Local\Temp\ccDINpEv.s:3672   .debug_str:00000000000007df .LASF168
C:\Users\Karzan\AppData\Local\Temp\ccDINpEv.s:3536   .debug_str:0000000000000442 .LASF169
C:\Users\Karzan\AppData\Local\Temp\ccDINpEv.s:3498   .debug_str:000000000000037e .LASF170
C:\Users\Karzan\AppData\Local\Temp\ccDINpEv.s:3566   .debug_str:0000000000000550 .LASF171
C:\Users\Karzan\AppData\Local\Temp\ccDINpEv.s:3480   .debug_str:0000000000000327 .LASF172
C:\Users\Karzan\AppData\Local\Temp\ccDINpEv.s:227    .text.time_show:0000000000000000 .LFB9
C:\Users\Karzan\AppData\Local\Temp\ccDINpEv.s:260    .text.time_show:000000000000002c .LFE9
C:\Users\Karzan\AppData\Local\Temp\ccDINpEv.s:3088   .debug_loc:0000000000000000 .LLST7
C:\Users\Karzan\AppData\Local\Temp\ccDINpEv.s:252    .text.time_show:000000000000001e .LVL26
C:\Users\Karzan\AppData\Local\Temp\ccDINpEv.s:254    .text.time_show:0000000000000026 .LVL27
C:\Users\Karzan\AppData\Local\Temp\ccDINpEv.s:3702   .debug_str:0000000000000880 .LASF173
C:\Users\Karzan\AppData\Local\Temp\ccDINpEv.s:163    .text.time_display:0000000000000000 .LFB8
C:\Users\Karzan\AppData\Local\Temp\ccDINpEv.s:220    .text.time_display:0000000000000052 .LFE8
C:\Users\Karzan\AppData\Local\Temp\ccDINpEv.s:3101   .debug_loc:0000000000000020 .LLST2
C:\Users\Karzan\AppData\Local\Temp\ccDINpEv.s:3508   .debug_str:00000000000003a4 .LASF198
C:\Users\Karzan\AppData\Local\Temp\ccDINpEv.s:3119   .debug_loc:000000000000004c .LLST3
C:\Users\Karzan\AppData\Local\Temp\ccDINpEv.s:3133   .debug_loc:000000000000006d .LLST4
C:\Users\Karzan\AppData\Local\Temp\ccDINpEv.s:3167   .debug_loc:00000000000000a4 .LLST5
C:\Users\Karzan\AppData\Local\Temp\ccDINpEv.s:3213   .debug_loc:00000000000000f4 .LLST6
C:\Users\Karzan\AppData\Local\Temp\ccDINpEv.s:199    .text.time_display:0000000000000030 .LVL23
C:\Users\Karzan\AppData\Local\Temp\ccDINpEv.s:208    .text.time_display:0000000000000044 .LVL24
C:\Users\Karzan\AppData\Local\Temp\ccDINpEv.s:211    .text.time_display:000000000000004c .LVL25
C:\Users\Karzan\AppData\Local\Temp\ccDINpEv.s:3400   .debug_str:000000000000019a .LASF177
C:\Users\Karzan\AppData\Local\Temp\ccDINpEv.s:121    .text.time_adjust:0000000000000000 .LFB7
C:\Users\Karzan\AppData\Local\Temp\ccDINpEv.s:156    .text.time_adjust:0000000000000026 .LFE7
C:\Users\Karzan\AppData\Local\Temp\ccDINpEv.s:3247   .debug_loc:0000000000000138 .LLST1
C:\Users\Karzan\AppData\Local\Temp\ccDINpEv.s:133    .text.time_adjust:000000000000000c .LVL15
C:\Users\Karzan\AppData\Local\Temp\ccDINpEv.s:144    .text.time_adjust:000000000000001a .LVL16
C:\Users\Karzan\AppData\Local\Temp\ccDINpEv.s:154    .text.time_adjust:0000000000000026 .LVL17
C:\Users\Karzan\AppData\Local\Temp\ccDINpEv.s:3454   .debug_str:0000000000000298 .LASF199
C:\Users\Karzan\AppData\Local\Temp\ccDINpEv.s:3328   .debug_str:0000000000000027 .LASF178
C:\Users\Karzan\AppData\Local\Temp\ccDINpEv.s:3450   .debug_str:000000000000028b .LASF179
C:\Users\Karzan\AppData\Local\Temp\ccDINpEv.s:3514   .debug_str:00000000000003bd .LASF180
C:\Users\Karzan\AppData\Local\Temp\ccDINpEv.s:3438   .debug_str:0000000000000251 .LASF181
C:\Users\Karzan\AppData\Local\Temp\ccDINpEv.s:14     .text.rtc_configuration:0000000000000000 .LFB5
C:\Users\Karzan\AppData\Local\Temp\ccDINpEv.s:93     .text.rtc_configuration:000000000000009c .LFE5
C:\Users\Karzan\AppData\Local\Temp\ccDINpEv.s:3265   .debug_loc:0000000000000164 .LLST0
C:\Users\Karzan\AppData\Local\Temp\ccDINpEv.s:32     .text.rtc_configuration:0000000000000012 .LVL0
C:\Users\Karzan\AppData\Local\Temp\ccDINpEv.s:36     .text.rtc_configuration:000000000000001e .LVL1
C:\Users\Karzan\AppData\Local\Temp\ccDINpEv.s:42     .text.rtc_configuration:0000000000000028 .LVL2
C:\Users\Karzan\AppData\Local\Temp\ccDINpEv.s:45     .text.rtc_configuration:0000000000000030 .LVL3
C:\Users\Karzan\AppData\Local\Temp\ccDINpEv.s:49     .text.rtc_configuration:000000000000003c .LVL4
C:\Users\Karzan\AppData\Local\Temp\ccDINpEv.s:53     .text.rtc_configuration:0000000000000048 .LVL5
C:\Users\Karzan\AppData\Local\Temp\ccDINpEv.s:57     .text.rtc_configuration:0000000000000054 .LVL6
C:\Users\Karzan\AppData\Local\Temp\ccDINpEv.s:61     .text.rtc_configuration:0000000000000060 .LVL7
C:\Users\Karzan\AppData\Local\Temp\ccDINpEv.s:64     .text.rtc_configuration:0000000000000068 .LVL8
C:\Users\Karzan\AppData\Local\Temp\ccDINpEv.s:67     .text.rtc_configuration:0000000000000070 .LVL9
C:\Users\Karzan\AppData\Local\Temp\ccDINpEv.s:71     .text.rtc_configuration:000000000000007a .LVL10
C:\Users\Karzan\AppData\Local\Temp\ccDINpEv.s:74     .text.rtc_configuration:0000000000000082 .LVL11
C:\Users\Karzan\AppData\Local\Temp\ccDINpEv.s:79     .text.rtc_configuration:000000000000008e .LVL12
C:\Users\Karzan\AppData\Local\Temp\ccDINpEv.s:91     .text.rtc_configuration:000000000000009c .LVL13
C:\Users\Karzan\AppData\Local\Temp\ccDINpEv.s:100    .text.time_regulate:0000000000000000 .LFB6
C:\Users\Karzan\AppData\Local\Temp\ccDINpEv.s:114    .text.time_regulate:0000000000000008 .LFE6
GAS LISTING C:\Users\Karzan\AppData\Local\Temp\ccDINpEv.s 			page 16


C:\Users\Karzan\AppData\Local\Temp\ccDINpEv.s:3372   .debug_str:000000000000010e .LASF182
C:\Users\Karzan\AppData\Local\Temp\ccDINpEv.s:3334   .debug_str:000000000000003f .LASF183
C:\Users\Karzan\AppData\Local\Temp\ccDINpEv.s:3650   .debug_str:00000000000006d8 .LASF184
C:\Users\Karzan\AppData\Local\Temp\ccDINpEv.s:3520   .debug_str:00000000000003df .LASF185
C:\Users\Karzan\AppData\Local\Temp\ccDINpEv.s:3594   .debug_str:00000000000005d5 .LASF186
C:\Users\Karzan\AppData\Local\Temp\ccDINpEv.s:3708   .debug_str:000000000000089b .LASF187
C:\Users\Karzan\AppData\Local\Temp\ccDINpEv.s:3524   .debug_str:00000000000003fa .LASF188
C:\Users\Karzan\AppData\Local\Temp\ccDINpEv.s:3544   .debug_str:000000000000046d .LASF189
C:\Users\Karzan\AppData\Local\Temp\ccDINpEv.s:3336   .debug_str:0000000000000047 .LASF190
C:\Users\Karzan\AppData\Local\Temp\ccDINpEv.s:3492   .debug_str:0000000000000364 .LASF191
C:\Users\Karzan\AppData\Local\Temp\ccDINpEv.s:3662   .debug_str:00000000000007ab .LASF192
C:\Users\Karzan\AppData\Local\Temp\ccDINpEv.s:3690   .debug_str:000000000000083a .LASF193
C:\Users\Karzan\AppData\Local\Temp\ccDINpEv.s:3464   .debug_str:00000000000002d1 .LASF194
C:\Users\Karzan\AppData\Local\Temp\ccDINpEv.s:3652   .debug_str:00000000000006e4 .LASF195
C:\Users\Karzan\AppData\Local\Temp\ccDINpEv.s:3590   .debug_str:00000000000005b6 .LASF196
C:\Users\Karzan\AppData\Local\Temp\ccDINpEv.s:231    .text.time_show:0000000000000002 .LCFI6
C:\Users\Karzan\AppData\Local\Temp\ccDINpEv.s:182    .text.time_display:0000000000000010 .LCFI4
C:\Users\Karzan\AppData\Local\Temp\ccDINpEv.s:216    .text.time_display:0000000000000050 .LCFI5
C:\Users\Karzan\AppData\Local\Temp\ccDINpEv.s:166    .text.time_display:0000000000000000 .LVL18
C:\Users\Karzan\AppData\Local\Temp\ccDINpEv.s:197    .text.time_display:0000000000000028 .LVL22
C:\Users\Karzan\AppData\Local\Temp\ccDINpEv.s:175    .text.time_display:000000000000000a .LVL19
C:\Users\Karzan\AppData\Local\Temp\ccDINpEv.s:194    .text.time_display:0000000000000022 .LVL21
C:\Users\Karzan\AppData\Local\Temp\ccDINpEv.s:192    .text.time_display:000000000000001e .LVL20
C:\Users\Karzan\AppData\Local\Temp\ccDINpEv.s:127    .text.time_adjust:0000000000000002 .LCFI2
C:\Users\Karzan\AppData\Local\Temp\ccDINpEv.s:150    .text.time_adjust:000000000000001e .LCFI3
C:\Users\Karzan\AppData\Local\Temp\ccDINpEv.s:21     .text.rtc_configuration:0000000000000002 .LCFI0
C:\Users\Karzan\AppData\Local\Temp\ccDINpEv.s:87     .text.rtc_configuration:0000000000000094 .LCFI1
C:\Users\Karzan\AppData\Local\Temp\ccDINpEv.s:284    .debug_info:0000000000000000 .Ldebug_info0

UNDEFINED SYMBOLS
rcu_periph_clock_enable
pmu_backup_write_enable
bkp_deinit
rcu_osci_on
rcu_osci_stab_wait
rcu_rtc_clock_config
rtc_register_sync_wait
rtc_lwoff_wait
rtc_interrupt_enable
rtc_prescaler_set
rtc_counter_set
sprintf
LCD_ShowStr
LCD_Wait_On_Queue
rtc_counter_get
