GAS LISTING C:\Users\Karzan\AppData\Local\Temp\cceCzBAo.s 			page 1


   1              		.file	"eclicw.c"
   2              		.option nopic
   3              		.attribute arch, "rv32i2p0_m2p0_a2p0_c2p0"
   4              		.attribute unaligned_access, 0
   5              		.attribute stack_align, 16
   6              		.text
   7              	.Ltext0:
   8              		.cfi_sections	.debug_frame
   9              		.section	.text.eclicw_enable,"ax",@progbits
  10              		.align	1
  11              		.globl	eclicw_enable
  13              	eclicw_enable:
  14              	.LFB2:
  15              		.file 1 "eclicw.c"
   1:eclicw.c      **** #include "eclicw.h"
   2:eclicw.c      **** #include "gd32vf103.h"
   3:eclicw.c      **** 
   4:eclicw.c      **** static void (*pmtisr)(void)=NULL;
   5:eclicw.c      **** static void (*pu0tbeisr)(void)=NULL;
   6:eclicw.c      **** 
   7:eclicw.c      **** void eclicw_enable(int irqn, int level, int priority, void (*pISR)(void)){
  16              		.loc 1 7 74
  17              		.cfi_startproc
  18              	.LVL0:
   8:eclicw.c      ****    static uint32_t max_irqn=0;
  19              		.loc 1 8 4
   9:eclicw.c      ****    if (!max_irqn) {                             // Init Int vector table if not done!
  20              		.loc 1 9 4
  21              		.loc 1 9 8 is_stmt 0
  22 0000 B7070000 		lui	a5,%hi(.LANCHOR0)
  23 0004 93870700 		addi	a5,a5,%lo(.LANCHOR0)
  24              		.loc 1 9 7
  25 0008 9843     		lw	a4,0(a5)
   7:eclicw.c      ****    static uint32_t max_irqn=0;
  26              		.loc 1 7 74
  27 000a 0111     		addi	sp,sp,-32
  28              	.LCFI0:
  29              		.cfi_def_cfa_offset 32
  30 000c 22CC     		sw	s0,24(sp)
  31 000e 26CA     		sw	s1,20(sp)
  32 0010 4AC8     		sw	s2,16(sp)
  33 0012 4EC6     		sw	s3,12(sp)
  34 0014 06CE     		sw	ra,28(sp)
  35              		.cfi_offset 8, -8
  36              		.cfi_offset 9, -12
  37              		.cfi_offset 18, -16
  38              		.cfi_offset 19, -20
  39              		.cfi_offset 1, -4
   7:eclicw.c      ****    static uint32_t max_irqn=0;
  40              		.loc 1 7 74
  41 0016 2A84     		mv	s0,a0
  42 0018 AE89     		mv	s3,a1
  43 001a 3289     		mv	s2,a2
  44 001c B684     		mv	s1,a3
  45              		.loc 1 9 7
  46 001e 19EF     		bne	a4,zero,.L2
  10:eclicw.c      ****         max_irqn = *( volatile uint32_t * )( ECLIC_ADDR_BASE + ECLIC_INFO_OFFSET );
GAS LISTING C:\Users\Karzan\AppData\Local\Temp\cceCzBAo.s 			page 2


  47              		.loc 1 10 9 is_stmt 1
  48              		.loc 1 10 20 is_stmt 0
  49 0020 370700D2 		li	a4,-771751936
  50 0024 4843     		lw	a0,4(a4)
  51              	.LVL1:
  11:eclicw.c      ****         max_irqn &= ( 0x00001FFF );
  52              		.loc 1 11 9 is_stmt 1
  53              		.loc 1 11 18 is_stmt 0
  54 0026 4E05     		slli	a0,a0,19
  55 0028 4D81     		srli	a0,a0,19
  56 002a 88C3     		sw	a0,0(a5)
  12:eclicw.c      ****         eclic_init( max_irqn );
  57              		.loc 1 12 9 is_stmt 1
  58 002c 97000000 		call	eclic_init
  58      E7800000 
  59              	.LVL2:
  13:eclicw.c      ****         eclic_mode_enable();
  60              		.loc 1 13 9
  61 0034 97000000 		call	eclic_mode_enable
  61      E7800000 
  62              	.LVL3:
  63              	.L2:
  14:eclicw.c      ****     }
  15:eclicw.c      ****     
  16:eclicw.c      ****    eclic_set_vmode( irqn );                     // Manage the int through the vector table.
  64              		.loc 1 16 4
  65 003c 2285     		mv	a0,s0
  66 003e 97000000 		call	eclic_set_vmode
  66      E7800000 
  67              	.LVL4:
  17:eclicw.c      ****    eclic_enable_interrupt( irqn );              // Enable the selected interrupt...
  68              		.loc 1 17 4
  69 0046 2285     		mv	a0,s0
  70 0048 97000000 		call	eclic_enable_interrupt
  70      E7800000 
  71              	.LVL5:
  18:eclicw.c      ****    eclic_set_irq_lvl_abs( irqn, level );        // ...with selected level and...
  72              		.loc 1 18 4
  73 0050 93F5F90F 		andi	a1,s3,0xff
  74 0054 2285     		mv	a0,s0
  75 0056 97000000 		call	eclic_set_irq_lvl_abs
  75      E7800000 
  76              	.LVL6:
  19:eclicw.c      ****    eclic_set_irq_priority( irqn, priority );    // ...selected priorit!
  77              		.loc 1 19 4
  78 005e 9375F90F 		andi	a1,s2,0xff
  79 0062 2285     		mv	a0,s0
  80 0064 97000000 		call	eclic_set_irq_priority
  80      E7800000 
  81              	.LVL7:
  20:eclicw.c      **** 
  21:eclicw.c      ****    switch (irqn) {
  82              		.loc 1 21 4
  83 006c 9D47     		li	a5,7
  84 006e 630DF400 		beq	s0,a5,.L3
  85 0072 93078003 		li	a5,56
  86 0076 630DF400 		beq	s0,a5,.L4
GAS LISTING C:\Users\Karzan\AppData\Local\Temp\cceCzBAo.s 			page 3


  87              	.L1:
  22:eclicw.c      ****        case CLIC_INT_TMR : pmtisr=pISR;         // Save call-back to int's ISR.
  23:eclicw.c      ****        case USART0_IRQn  : pu0tbeisr=pISR;
  24:eclicw.c      ****    }
  25:eclicw.c      **** }
  88              		.loc 1 25 1 is_stmt 0
  89 007a F240     		lw	ra,28(sp)
  90              		.cfi_remember_state
  91              		.cfi_restore 1
  92 007c 6244     		lw	s0,24(sp)
  93              		.cfi_restore 8
  94              	.LVL8:
  95 007e D244     		lw	s1,20(sp)
  96              		.cfi_restore 9
  97              	.LVL9:
  98 0080 4249     		lw	s2,16(sp)
  99              		.cfi_restore 18
 100              	.LVL10:
 101 0082 B249     		lw	s3,12(sp)
 102              		.cfi_restore 19
 103              	.LVL11:
 104 0084 0561     		addi	sp,sp,32
 105              	.LCFI1:
 106              		.cfi_def_cfa_offset 0
 107 0086 8280     		jr	ra
 108              	.LVL12:
 109              	.L3:
 110              	.LCFI2:
 111              		.cfi_restore_state
  22:eclicw.c      ****        case CLIC_INT_TMR : pmtisr=pISR;         // Save call-back to int's ISR.
 112              		.loc 1 22 28 is_stmt 1
  22:eclicw.c      ****        case CLIC_INT_TMR : pmtisr=pISR;         // Save call-back to int's ISR.
 113              		.loc 1 22 34 is_stmt 0
 114 0088 B7070000 		lui	a5,%hi(.LANCHOR1)
 115 008c 23A09700 		sw	s1,%lo(.LANCHOR1)(a5)
 116              	.L4:
  23:eclicw.c      ****    }
 117              		.loc 1 23 28 is_stmt 1
  23:eclicw.c      ****    }
 118              		.loc 1 23 37 is_stmt 0
 119 0090 B7070000 		lui	a5,%hi(.LANCHOR2)
 120 0094 23A09700 		sw	s1,%lo(.LANCHOR2)(a5)
 121              		.loc 1 25 1
 122 0098 CDB7     		j	.L1
 123              		.cfi_endproc
 124              	.LFE2:
 126              		.section	.text.eclic_mtip_handler,"ax",@progbits
 127              		.align	1
 128              		.globl	eclic_mtip_handler
 130              	eclic_mtip_handler:
 131              	.LFB3:
  26:eclicw.c      **** 
  27:eclicw.c      **** __attribute__( ( interrupt ) )
  28:eclicw.c      **** void eclic_mtip_handler( void ) {               // c-wrapper saves environment...
 132              		.loc 1 28 33 is_stmt 1
 133              		.cfi_startproc
  29:eclicw.c      ****   (*pmtisr)();                                  // ...Call int's ISR...
GAS LISTING C:\Users\Karzan\AppData\Local\Temp\cceCzBAo.s 			page 4


 134              		.loc 1 29 3
  28:eclicw.c      ****   (*pmtisr)();                                  // ...Call int's ISR...
 135              		.loc 1 28 33 is_stmt 0
 136 0000 3971     		addi	sp,sp,-64
 137              	.LCFI3:
 138              		.cfi_def_cfa_offset 64
 139 0002 3ECC     		sw	a5,24(sp)
 140              		.cfi_offset 15, -40
 141              		.loc 1 29 4
 142 0004 B7070000 		lui	a5,%hi(.LANCHOR1)
 143 0008 83A70700 		lw	a5,%lo(.LANCHOR1)(a5)
  28:eclicw.c      ****   (*pmtisr)();                                  // ...Call int's ISR...
 144              		.loc 1 28 33
 145 000c 06DE     		sw	ra,60(sp)
 146 000e 16DC     		sw	t0,56(sp)
 147 0010 1ADA     		sw	t1,52(sp)
 148 0012 1ED8     		sw	t2,48(sp)
 149 0014 2AD6     		sw	a0,44(sp)
 150 0016 2ED4     		sw	a1,40(sp)
 151 0018 32D2     		sw	a2,36(sp)
 152 001a 36D0     		sw	a3,32(sp)
 153 001c 3ACE     		sw	a4,28(sp)
 154 001e 42CA     		sw	a6,20(sp)
 155 0020 46C8     		sw	a7,16(sp)
 156 0022 72C6     		sw	t3,12(sp)
 157 0024 76C4     		sw	t4,8(sp)
 158 0026 7AC2     		sw	t5,4(sp)
 159 0028 7EC0     		sw	t6,0(sp)
 160              		.cfi_offset 1, -4
 161              		.cfi_offset 5, -8
 162              		.cfi_offset 6, -12
 163              		.cfi_offset 7, -16
 164              		.cfi_offset 10, -20
 165              		.cfi_offset 11, -24
 166              		.cfi_offset 12, -28
 167              		.cfi_offset 13, -32
 168              		.cfi_offset 14, -36
 169              		.cfi_offset 16, -44
 170              		.cfi_offset 17, -48
 171              		.cfi_offset 28, -52
 172              		.cfi_offset 29, -56
 173              		.cfi_offset 30, -60
 174              		.cfi_offset 31, -64
 175              		.loc 1 29 4
 176 002a 8297     		jalr	a5
 177              	.LVL13:
  30:eclicw.c      **** }                                               // and restores environment (also (G)IE)!
 178              		.loc 1 30 1
 179 002c F250     		lw	ra,60(sp)
 180              		.cfi_restore 1
 181 002e E252     		lw	t0,56(sp)
 182              		.cfi_restore 5
 183 0030 5253     		lw	t1,52(sp)
 184              		.cfi_restore 6
 185 0032 C253     		lw	t2,48(sp)
 186              		.cfi_restore 7
 187 0034 3255     		lw	a0,44(sp)
GAS LISTING C:\Users\Karzan\AppData\Local\Temp\cceCzBAo.s 			page 5


 188              		.cfi_restore 10
 189 0036 A255     		lw	a1,40(sp)
 190              		.cfi_restore 11
 191 0038 1256     		lw	a2,36(sp)
 192              		.cfi_restore 12
 193 003a 8256     		lw	a3,32(sp)
 194              		.cfi_restore 13
 195 003c 7247     		lw	a4,28(sp)
 196              		.cfi_restore 14
 197 003e E247     		lw	a5,24(sp)
 198              		.cfi_restore 15
 199 0040 5248     		lw	a6,20(sp)
 200              		.cfi_restore 16
 201 0042 C248     		lw	a7,16(sp)
 202              		.cfi_restore 17
 203 0044 324E     		lw	t3,12(sp)
 204              		.cfi_restore 28
 205 0046 A24E     		lw	t4,8(sp)
 206              		.cfi_restore 29
 207 0048 124F     		lw	t5,4(sp)
 208              		.cfi_restore 30
 209 004a 824F     		lw	t6,0(sp)
 210              		.cfi_restore 31
 211 004c 2161     		addi	sp,sp,64
 212              	.LCFI4:
 213              		.cfi_def_cfa_offset 0
 214 004e 73002030 		mret
 215              		.cfi_endproc
 216              	.LFE3:
 218              		.section	.text.USART0_IRQHandler,"ax",@progbits
 219              		.align	1
 220              		.globl	USART0_IRQHandler
 222              	USART0_IRQHandler:
 223              	.LFB4:
  31:eclicw.c      **** 
  32:eclicw.c      **** __attribute__( ( interrupt ) )                  // !!! ALL USART0 INT GOES HERE !!!
  33:eclicw.c      **** void USART0_IRQHandler( void ) {                // c-wrapper saves environment...
 224              		.loc 1 33 32 is_stmt 1
 225              		.cfi_startproc
  34:eclicw.c      ****   (*pu0tbeisr)();                               // ...Call int's ISR...
 226              		.loc 1 34 3
  33:eclicw.c      ****   (*pu0tbeisr)();                               // ...Call int's ISR...
 227              		.loc 1 33 32 is_stmt 0
 228 0000 3971     		addi	sp,sp,-64
 229              	.LCFI5:
 230              		.cfi_def_cfa_offset 64
 231 0002 3ECC     		sw	a5,24(sp)
 232              		.cfi_offset 15, -40
 233              		.loc 1 34 4
 234 0004 B7070000 		lui	a5,%hi(.LANCHOR2)
 235 0008 83A70700 		lw	a5,%lo(.LANCHOR2)(a5)
  33:eclicw.c      ****   (*pu0tbeisr)();                               // ...Call int's ISR...
 236              		.loc 1 33 32
 237 000c 06DE     		sw	ra,60(sp)
 238 000e 16DC     		sw	t0,56(sp)
 239 0010 1ADA     		sw	t1,52(sp)
 240 0012 1ED8     		sw	t2,48(sp)
GAS LISTING C:\Users\Karzan\AppData\Local\Temp\cceCzBAo.s 			page 6


 241 0014 2AD6     		sw	a0,44(sp)
 242 0016 2ED4     		sw	a1,40(sp)
 243 0018 32D2     		sw	a2,36(sp)
 244 001a 36D0     		sw	a3,32(sp)
 245 001c 3ACE     		sw	a4,28(sp)
 246 001e 42CA     		sw	a6,20(sp)
 247 0020 46C8     		sw	a7,16(sp)
 248 0022 72C6     		sw	t3,12(sp)
 249 0024 76C4     		sw	t4,8(sp)
 250 0026 7AC2     		sw	t5,4(sp)
 251 0028 7EC0     		sw	t6,0(sp)
 252              		.cfi_offset 1, -4
 253              		.cfi_offset 5, -8
 254              		.cfi_offset 6, -12
 255              		.cfi_offset 7, -16
 256              		.cfi_offset 10, -20
 257              		.cfi_offset 11, -24
 258              		.cfi_offset 12, -28
 259              		.cfi_offset 13, -32
 260              		.cfi_offset 14, -36
 261              		.cfi_offset 16, -44
 262              		.cfi_offset 17, -48
 263              		.cfi_offset 28, -52
 264              		.cfi_offset 29, -56
 265              		.cfi_offset 30, -60
 266              		.cfi_offset 31, -64
 267              		.loc 1 34 4
 268 002a 8297     		jalr	a5
 269              	.LVL14:
  35:eclicw.c      **** }                                               // and restores environment (also (G)IE)!
 270              		.loc 1 35 1
 271 002c F250     		lw	ra,60(sp)
 272              		.cfi_restore 1
 273 002e E252     		lw	t0,56(sp)
 274              		.cfi_restore 5
 275 0030 5253     		lw	t1,52(sp)
 276              		.cfi_restore 6
 277 0032 C253     		lw	t2,48(sp)
 278              		.cfi_restore 7
 279 0034 3255     		lw	a0,44(sp)
 280              		.cfi_restore 10
 281 0036 A255     		lw	a1,40(sp)
 282              		.cfi_restore 11
 283 0038 1256     		lw	a2,36(sp)
 284              		.cfi_restore 12
 285 003a 8256     		lw	a3,32(sp)
 286              		.cfi_restore 13
 287 003c 7247     		lw	a4,28(sp)
 288              		.cfi_restore 14
 289 003e E247     		lw	a5,24(sp)
 290              		.cfi_restore 15
 291 0040 5248     		lw	a6,20(sp)
 292              		.cfi_restore 16
 293 0042 C248     		lw	a7,16(sp)
 294              		.cfi_restore 17
 295 0044 324E     		lw	t3,12(sp)
 296              		.cfi_restore 28
GAS LISTING C:\Users\Karzan\AppData\Local\Temp\cceCzBAo.s 			page 7


 297 0046 A24E     		lw	t4,8(sp)
 298              		.cfi_restore 29
 299 0048 124F     		lw	t5,4(sp)
 300              		.cfi_restore 30
 301 004a 824F     		lw	t6,0(sp)
 302              		.cfi_restore 31
 303 004c 2161     		addi	sp,sp,64
 304              	.LCFI6:
 305              		.cfi_def_cfa_offset 0
 306 004e 73002030 		mret
 307              		.cfi_endproc
 308              	.LFE4:
 310              		.section	.sbss.max_irqn.3501,"aw",@nobits
 311              		.align	2
 312              		.set	.LANCHOR0,. + 0
 315              	max_irqn.3501:
 316 0000 00000000 		.zero	4
 317              		.section	.sbss.pmtisr,"aw",@nobits
 318              		.align	2
 319              		.set	.LANCHOR1,. + 0
 322              	pmtisr:
 323 0000 00000000 		.zero	4
 324              		.section	.sbss.pu0tbeisr,"aw",@nobits
 325              		.align	2
 326              		.set	.LANCHOR2,. + 0
 329              	pu0tbeisr:
 330 0000 00000000 		.zero	4
 331              		.text
 332              	.Letext0:
 333              		.file 2 "c:\\users\\karzan\\downloads\\toolchain-gd32v-v202-win\\toolchain-gd32v-v202-win\\compile
 334              		.file 3 "c:\\users\\karzan\\downloads\\toolchain-gd32v-v202-win\\toolchain-gd32v-v202-win\\compile
 335              		.file 4 "./../../firmware/RISCV/drivers/n200_func.h"
 336              		.file 5 "./../../firmware/GD32VF103_standard_peripheral/gd32vf103.h"
 337              		.file 6 "./../../firmware/GD32VF103_standard_peripheral/system_gd32vf103.h"
GAS LISTING C:\Users\Karzan\AppData\Local\Temp\cceCzBAo.s 			page 8

