GAS LISTING C:\Users\Karzan\AppData\Local\Temp\cc9GHWCm.s 			page 1


   1              		.file	"main.c"
   2              		.option nopic
   3              		.attribute arch, "rv32i2p0_m2p0_a2p0_c2p0"
   4              		.attribute unaligned_access, 0
   5              		.attribute stack_align, 16
   6              		.text
   7              	.Ltext0:
   8              		.cfi_sections	.debug_frame
   9              		.section	.text.startup.main,"ax",@progbits
  10              		.align	1
  11              		.globl	main
  13              	main:
  14              	.LFB2:
  15              		.file 1 "main.c"
   1:main.c        **** #include "gd32vf103.h"
   2:main.c        **** #include "drivers.h"
   3:main.c        **** #include "adc.h"
   4:main.c        **** #include "servo.h"
   5:main.c        **** 
   6:main.c        **** // turns off all LEDs on 8x8 display
   7:main.c        **** #define L88_CLEAR \
   8:main.c        ****   for (int i = 0; i < 8; i++) l88mem(i, 0); 
   9:main.c        **** 
  10:main.c        **** int main(void){
  16              		.loc 1 10 15
  17              		.cfi_startproc
  11:main.c        ****   int ms=0, s=0, key, pKey=-1, c=0, idle=0, count=0, angle=0;
  18              		.loc 1 11 3
  19              	.LVL0:
  12:main.c        ****   int lookUpTbl[16]={1,4,7,14,2,5,8,0,3,6,9,15,10,11,12,13};
  20              		.loc 1 12 3
  10:main.c        ****   int ms=0, s=0, key, pKey=-1, c=0, idle=0, count=0, angle=0;
  21              		.loc 1 10 15 is_stmt 0
  22 0000 7571     		addi	sp,sp,-144
  23              	.LCFI0:
  24              		.cfi_def_cfa_offset 144
  25              		.loc 1 12 7
  26 0002 B7050000 		lui	a1,%hi(.LANCHOR0)
  27 0006 13060004 		li	a2,64
  28 000a 93850500 		addi	a1,a1,%lo(.LANCHOR0)
  29 000e 0810     		addi	a0,sp,32
  10:main.c        ****   int ms=0, s=0, key, pKey=-1, c=0, idle=0, count=0, angle=0;
  30              		.loc 1 10 15
  31 0010 22C5     		sw	s0,136(sp)
  32 0012 26C3     		sw	s1,132(sp)
  33 0014 06C7     		sw	ra,140(sp)
  34 0016 4AC1     		sw	s2,128(sp)
  35 0018 CEDE     		sw	s3,124(sp)
  36 001a D2DC     		sw	s4,120(sp)
  37 001c D6DA     		sw	s5,116(sp)
  38 001e DAD8     		sw	s6,112(sp)
  39 0020 DED6     		sw	s7,108(sp)
  40 0022 E2D4     		sw	s8,104(sp)
  41 0024 E6D2     		sw	s9,100(sp)
  42              		.cfi_offset 8, -8
  43              		.cfi_offset 9, -12
  44              		.cfi_offset 1, -4
GAS LISTING C:\Users\Karzan\AppData\Local\Temp\cc9GHWCm.s 			page 2


  45              		.cfi_offset 18, -16
  46              		.cfi_offset 19, -20
  47              		.cfi_offset 20, -24
  48              		.cfi_offset 21, -28
  49              		.cfi_offset 22, -32
  50              		.cfi_offset 23, -36
  51              		.cfi_offset 24, -40
  52              		.cfi_offset 25, -44
  53              	.LBB2:
  13:main.c        ****   int inputs[3] = {0,0,0};                  // strength cap 0% - 99% for inputs 
  14:main.c        ****   int pVal=0, adcr;
  15:main.c        **** 
  16:main.c        ****   L88_CLEAR;
  54              		.loc 1 16 3
  55 0026 0144     		li	s0,0
  56              	.LBE2:
  12:main.c        ****   int inputs[3] = {0,0,0};                  // strength cap 0% - 99% for inputs 
  57              		.loc 1 12 7
  58 0028 97000000 		call	memcpy
  58      E7800000 
  59              	.LVL1:
  13:main.c        ****   int inputs[3] = {0,0,0};                  // strength cap 0% - 99% for inputs 
  60              		.loc 1 13 3 is_stmt 1
  61              	.LBB3:
  62              		.loc 1 16 3 is_stmt 0
  63 0030 A144     		li	s1,8
  64              	.LBE3:
  13:main.c        ****   int inputs[3] = {0,0,0};                  // strength cap 0% - 99% for inputs 
  65              		.loc 1 13 7
  66 0032 02CA     		sw	zero,20(sp)
  67 0034 02CC     		sw	zero,24(sp)
  68 0036 02CE     		sw	zero,28(sp)
  14:main.c        **** 
  69              		.loc 1 14 3 is_stmt 1
  70              	.LVL2:
  71              		.loc 1 16 3
  72              	.LBB4:
  73              		.loc 1 16 3
  74              	.L2:
  75              		.loc 1 16 3 discriminator 3
  76 0038 2285     		mv	a0,s0
  77 003a 8145     		li	a1,0
  78 003c 0504     		addi	s0,s0,1
  79              	.LVL3:
  80 003e 97000000 		call	l88mem
  80      E7800000 
  81              	.LVL4:
  82 0046 E31994FE 		bne	s0,s1,.L2
  83              	.LBE4:
  84              		.loc 1 16 12 discriminator 4
  17:main.c        ****   t5omsi();                                 // Initialize timer5 1kHz
  85              		.loc 1 17 3 discriminator 4
  86 004a 97000000 		call	t5omsi
  86      E7800000 
  87              	.LVL5:
  18:main.c        ****   colinit();                                // Initialize column toolbox
  88              		.loc 1 18 3 discriminator 4
GAS LISTING C:\Users\Karzan\AppData\Local\Temp\cc9GHWCm.s 			page 3


  89 0052 97000000 		call	colinit
  89      E7800000 
  90              	.LVL6:
  19:main.c        ****   l88init();                                // Initialize 8*8 led toolbox
  91              		.loc 1 19 3 discriminator 4
  92 005a 97000000 		call	l88init
  92      E7800000 
  93              	.LVL7:
  20:main.c        ****   keyinit();                                // Initialize keyboard toolbox
  94              		.loc 1 20 3 discriminator 4
  95 0062 97000000 		call	keyinit
  95      E7800000 
  96              	.LVL8:
  21:main.c        ****   ADC3powerUpInit(1);                       // Initialize ADC0, Ch3 & Ch16
  97              		.loc 1 21 3 discriminator 4
  98 006a 0545     		li	a0,1
  99 006c 97000000 		call	ADC3powerUpInit
  99      E7800000 
 100              	.LVL9:
  22:main.c        ****   T1_init_PWM(0x3);                         // Timer #1, Ch #0 & 1 PWM
 101              		.loc 1 22 3 discriminator 4
 102 0074 0D45     		li	a0,3
 103 0076 97000000 		call	T1_init_PWM
 103      E7800000 
 104              	.LVL10:
  23:main.c        ****   Servo servo1 = __init_servo(TIMER_CH_0);  // one servo on pin A0..  
 105              		.loc 1 23 3 discriminator 4
 106              		.loc 1 23 18 is_stmt 0 discriminator 4
 107 007e 0145     		li	a0,0
 108 0080 97000000 		call	__init_servo
 108      E7800000 
 109              	.LVL11:
 110 0088 2AC2     		sw	a0,4(sp)
  24:main.c        ****   Servo servo2 = __init_servo(TIMER_CH_1);  // ..the other on pin A1
 111              		.loc 1 24 18 discriminator 4
 112 008a 0545     		li	a0,1
  23:main.c        ****   Servo servo1 = __init_servo(TIMER_CH_0);  // one servo on pin A0..  
 113              		.loc 1 23 18 discriminator 4
 114 008c 2EC4     		sw	a1,8(sp)
 115 008e 2E89     		mv	s2,a1
 116              	.LVL12:
 117              		.loc 1 24 3 is_stmt 1 discriminator 4
  25:main.c        **** 
  26:main.c        ****   while (1) {
  27:main.c        ****     idle++;                             // Manage Async events
  28:main.c        ****     
  29:main.c        ****     // ------ Exempel på att sätta servo motorns vinkel baserat på potentiometerns värde (EX1)-
  30:main.c        **** 
  31:main.c        ****     if (adc_flag_get(ADC0,ADC_FLAG_EOC)==SET) {   // ...ADC done?
 118              		.loc 1 31 9 is_stmt 0 discriminator 4
 119 0090 372A0140 		li	s4,1073815552
  24:main.c        ****   Servo servo2 = __init_servo(TIMER_CH_1);  // ..the other on pin A1
 120              		.loc 1 24 18 discriminator 4
 121 0094 97000000 		call	__init_servo
 121      E7800000 
 122              	.LVL13:
 123 009c 2AC6     		sw	a0,12(sp)
GAS LISTING C:\Users\Karzan\AppData\Local\Temp\cc9GHWCm.s 			page 4


 124 009e 2EC8     		sw	a1,16(sp)
 125              	.LVL14:
  11:main.c        ****   int lookUpTbl[16]={1,4,7,14,2,5,8,0,3,6,9,15,10,11,12,13};
 126              		.loc 1 11 45 discriminator 4
 127 00a0 0144     		li	s0,0
 128              	.LVL15:
  11:main.c        ****   int lookUpTbl[16]={1,4,7,14,2,5,8,0,3,6,9,15,10,11,12,13};
 129              		.loc 1 11 13 discriminator 4
 130 00a2 8149     		li	s3,0
  11:main.c        ****   int lookUpTbl[16]={1,4,7,14,2,5,8,0,3,6,9,15,10,11,12,13};
 131              		.loc 1 11 7 discriminator 4
 132 00a4 8144     		li	s1,0
 133              		.loc 1 31 9 discriminator 4
 134 00a6 130A0A40 		addi	s4,s4,1024
 135              		.loc 1 31 8 discriminator 4
 136 00aa 854B     		li	s7,1
  32:main.c        ****       adcr = adc_regular_data_read(ADC0);         // ......get data  0-4096 (12bit)
  33:main.c        ****       pVal = map(adcr,0,4096,0,180);              // potentiometer value in range (degrees)
  34:main.c        ****       l88mem(6, (servo1.val=pVal) );              // show movement on 8x8 led display  
  35:main.c        ****       //servo2.val = pVal;
  36:main.c        ****       adc_flag_clear(ADC0, ADC_FLAG_EOC);         // ......clear IF
  37:main.c        ****     }
  38:main.c        ****     
  39:main.c        ****     if (t5expq()) {                     // Manage periodic tasks
  40:main.c        ****       l88row(colset());                 // ...8*8LED and Keyboard
  41:main.c        ****       ms++;                             // ...One second heart beat
  42:main.c        ****       if (ms==1000){
 137              		.loc 1 42 10 discriminator 4
 138 00ac 130B803E 		li	s6,1000
  43:main.c        ****         ms=0;
  44:main.c        ****         l88mem(0,s++);
  45:main.c        ****       } else if (ms%10 == 0){            // ..every 10th ms..
 139              		.loc 1 45 20 discriminator 4
 140 00b0 A94A     		li	s5,10
  46:main.c        ****         // write the values to the servo motors 
  47:main.c        ****         servo_write(servo1);                  
  48:main.c        ****         //servo_write(servo2);
  49:main.c        ****       }
  50:main.c        ****       adc_software_trigger_enable(ADC0,  // Trigger another ADC conversion!
  51:main.c        ****                                     ADC_REGULAR_CHANNEL);
  52:main.c        ****     }
  53:main.c        ****     // ---------------- SLUT EXEMPEL 1 ---------------- 
  54:main.c        **** 
  55:main.c        ****     // IGNORERA NEDANSTÅENDE EXEMPEL 
  56:main.c        ****     // ------ Exempel på att sätta servo motorns vinkel baserat på tangentbordets värden (EX2)-
  57:main.c        ****   
  58:main.c        ****     if (t5expq()) {                     // Manage periodic tasks
  59:main.c        ****       l88row(colset());                 // ...8*8LED and Keyboard
  60:main.c        ****       ms++;                             // ...One second heart beat
  61:main.c        ****       if (ms==1000){
  62:main.c        ****         ms=0;
  63:main.c        ****         l88mem(1,s++);
  64:main.c        ****       }
  65:main.c        ****       if ( ((key=keyscan()) == 3 || key>10) && count != 0 ){    // ...Any cmd key pressed?
 141              		.loc 1 65 10 discriminator 4
 142 00b2 0D4C     		li	s8,3
 143              	.LVL16:
GAS LISTING C:\Users\Karzan\AppData\Local\Temp\cc9GHWCm.s 			page 5


 144              	.L3:
  26:main.c        ****     idle++;                             // Manage Async events
 145              		.loc 1 26 3 is_stmt 1
  27:main.c        ****     
 146              		.loc 1 27 5
  31:main.c        ****       adcr = adc_regular_data_read(ADC0);         // ......get data  0-4096 (12bit)
 147              		.loc 1 31 5
  31:main.c        ****       adcr = adc_regular_data_read(ADC0);         // ......get data  0-4096 (12bit)
 148              		.loc 1 31 9 is_stmt 0
 149 00b4 8945     		li	a1,2
 150 00b6 5285     		mv	a0,s4
 151 00b8 97000000 		call	adc_flag_get
 151      E7800000 
 152              	.LVL17:
  31:main.c        ****       adcr = adc_regular_data_read(ADC0);         // ......get data  0-4096 (12bit)
 153              		.loc 1 31 8
 154 00c0 631D7503 		bne	a0,s7,.L4
  32:main.c        ****       pVal = map(adcr,0,4096,0,180);              // potentiometer value in range (degrees)
 155              		.loc 1 32 7 is_stmt 1
  32:main.c        ****       pVal = map(adcr,0,4096,0,180);              // potentiometer value in range (degrees)
 156              		.loc 1 32 14 is_stmt 0
 157 00c4 5285     		mv	a0,s4
 158 00c6 97000000 		call	adc_regular_data_read
 158      E7800000 
 159              	.LVL18:
  33:main.c        ****       l88mem(6, (servo1.val=pVal) );              // show movement on 8x8 led display  
 160              		.loc 1 33 7 is_stmt 1
  33:main.c        ****       l88mem(6, (servo1.val=pVal) );              // show movement on 8x8 led display  
 161              		.loc 1 33 14 is_stmt 0
 162 00ce 1307400B 		li	a4,180
 163 00d2 8146     		li	a3,0
 164 00d4 0566     		li	a2,4096
 165 00d6 8145     		li	a1,0
 166 00d8 97000000 		call	map
 166      E7800000 
 167              	.LVL19:
  34:main.c        ****       //servo2.val = pVal;
 168              		.loc 1 34 7
 169 00e0 AA85     		mv	a1,a0
  33:main.c        ****       l88mem(6, (servo1.val=pVal) );              // show movement on 8x8 led display  
 170              		.loc 1 33 14
 171 00e2 2A89     		mv	s2,a0
 172              	.LVL20:
  34:main.c        ****       //servo2.val = pVal;
 173              		.loc 1 34 7 is_stmt 1
 174 00e4 1945     		li	a0,6
 175              	.LVL21:
 176 00e6 97000000 		call	l88mem
 176      E7800000 
 177              	.LVL22:
  36:main.c        ****     }
 178              		.loc 1 36 7
 179 00ee 8945     		li	a1,2
 180 00f0 5285     		mv	a0,s4
 181 00f2 97000000 		call	adc_flag_clear
 181      E7800000 
 182              	.LVL23:
GAS LISTING C:\Users\Karzan\AppData\Local\Temp\cc9GHWCm.s 			page 6


 183              	.L4:
  39:main.c        ****       l88row(colset());                 // ...8*8LED and Keyboard
 184              		.loc 1 39 5
  39:main.c        ****       l88row(colset());                 // ...8*8LED and Keyboard
 185              		.loc 1 39 9 is_stmt 0
 186 00fa 97000000 		call	t5expq
 186      E7800000 
 187              	.LVL24:
  39:main.c        ****       l88row(colset());                 // ...8*8LED and Keyboard
 188              		.loc 1 39 8
 189 0102 05CD     		beq	a0,zero,.L5
 190 0104 8504     		addi	s1,s1,1
 191              	.LVL25:
  40:main.c        ****       ms++;                             // ...One second heart beat
 192              		.loc 1 40 7 is_stmt 1
 193 0106 97000000 		call	colset
 193      E7800000 
 194              	.LVL26:
 195 010e 97000000 		call	l88row
 195      E7800000 
 196              	.LVL27:
  41:main.c        ****       if (ms==1000){
 197              		.loc 1 41 7
  42:main.c        ****         ms=0;
 198              		.loc 1 42 7
  42:main.c        ****         ms=0;
 199              		.loc 1 42 10 is_stmt 0
 200 0116 639C640B 		bne	s1,s6,.L6
  43:main.c        ****         l88mem(0,s++);
 201              		.loc 1 43 9 is_stmt 1
 202              	.LVL28:
  44:main.c        ****       } else if (ms%10 == 0){            // ..every 10th ms..
 203              		.loc 1 44 9
 204 011a 93841900 		addi	s1,s3,1
 205              	.LVL29:
 206 011e CE85     		mv	a1,s3
 207 0120 0145     		li	a0,0
 208 0122 A689     		mv	s3,s1
 209 0124 97000000 		call	l88mem
 209      E7800000 
 210              	.LVL30:
  43:main.c        ****         l88mem(0,s++);
 211              		.loc 1 43 11 is_stmt 0
 212 012c 8144     		li	s1,0
 213              	.LVL31:
 214              	.L7:
  50:main.c        ****                                     ADC_REGULAR_CHANNEL);
 215              		.loc 1 50 7 is_stmt 1
 216 012e 8545     		li	a1,1
 217 0130 5285     		mv	a0,s4
 218 0132 97000000 		call	adc_software_trigger_enable
 218      E7800000 
 219              	.LVL32:
 220              	.L5:
  58:main.c        ****       l88row(colset());                 // ...8*8LED and Keyboard
 221              		.loc 1 58 5
  58:main.c        ****       l88row(colset());                 // ...8*8LED and Keyboard
GAS LISTING C:\Users\Karzan\AppData\Local\Temp\cc9GHWCm.s 			page 7


 222              		.loc 1 58 9 is_stmt 0
 223 013a 97000000 		call	t5expq
 223      E7800000 
 224              	.LVL33:
  58:main.c        ****       l88row(colset());                 // ...8*8LED and Keyboard
 225              		.loc 1 58 8
 226 0142 2DD9     		beq	a0,zero,.L3
 227 0144 8504     		addi	s1,s1,1
 228              	.LVL34:
  59:main.c        ****       ms++;                             // ...One second heart beat
 229              		.loc 1 59 7 is_stmt 1
 230 0146 97000000 		call	colset
 230      E7800000 
 231              	.LVL35:
 232 014e 97000000 		call	l88row
 232      E7800000 
 233              	.LVL36:
  60:main.c        ****       if (ms==1000){
 234              		.loc 1 60 7
  61:main.c        ****         ms=0;
 235              		.loc 1 61 7
  61:main.c        ****         ms=0;
 236              		.loc 1 61 10 is_stmt 0
 237 0156 639C6401 		bne	s1,s6,.L9
  62:main.c        ****         l88mem(1,s++);
 238              		.loc 1 62 9 is_stmt 1
 239              	.LVL37:
  63:main.c        ****       }
 240              		.loc 1 63 9
 241 015a 93841900 		addi	s1,s3,1
 242              	.LVL38:
 243 015e CE85     		mv	a1,s3
 244 0160 0545     		li	a0,1
 245 0162 A689     		mv	s3,s1
 246 0164 97000000 		call	l88mem
 246      E7800000 
 247              	.LVL39:
  62:main.c        ****         l88mem(1,s++);
 248              		.loc 1 62 11 is_stmt 0
 249 016c 8144     		li	s1,0
 250              	.LVL40:
 251              	.L9:
 252              		.loc 1 65 7 is_stmt 1
 253              		.loc 1 65 18 is_stmt 0
 254 016e 97000000 		call	keyscan
 254      E7800000 
 255              	.LVL41:
 256              		.loc 1 65 10
 257 0176 63048501 		beq	a0,s8,.L31
 258              		.loc 1 65 34 discriminator 2
 259 017a 63D6AA08 		ble	a0,s5,.L11
 260              	.L31:
 261              		.loc 1 65 45 discriminator 3
 262 017e 51C8     		beq	s0,zero,.L12
  66:main.c        ****         // YES!.. run operation for respecive command
  67:main.c        ****         switch (pKey = lookUpTbl[key]) {
 263              		.loc 1 67 9 is_stmt 1
GAS LISTING C:\Users\Karzan\AppData\Local\Temp\cc9GHWCm.s 			page 8


 264              		.loc 1 67 22 is_stmt 0
 265 0180 9C10     		addi	a5,sp,96
 266 0182 0A05     		slli	a0,a0,2
 267              	.LVL42:
 268 0184 3E95     		add	a0,a5,a0
 269 0186 832705FC 		lw	a5,-64(a0)
 270              	.LVL43:
 271              		.loc 1 67 9
 272 018a 3947     		li	a4,14
 273 018c 638CE704 		beq	a5,a4,.L13
 274 0190 3D47     		li	a4,15
 275 0192 6387E706 		beq	a5,a4,.L14
 276 0196 3547     		li	a4,13
 277 0198 E39EE7F0 		bne	a5,a4,.L3
  68:main.c        ****           case 14: inputs[count] = 0; count--; break;                              // '*' - remove 
  69:main.c        ****           case 15: while((--count)!=0) inputs[count]=0; break;                     // '#' - remove 
  70:main.c        ****           case 13:                                                                 // 'D' - set LED
  71:main.c        ****             l88mem(2, (servo2.val = (inputs[0]*100) + inputs[1]*10 + inputs[2]));       // disp ang
 278              		.loc 1 71 13 is_stmt 1
 279              		.loc 1 71 47 is_stmt 0
 280 019c D247     		lw	a5,20(sp)
 281              	.LVL44:
 282 019e 930C4006 		li	s9,100
 283              		.loc 1 71 13
 284 01a2 0945     		li	a0,2
 285              	.LVL45:
 286              		.loc 1 71 47
 287 01a4 B38CFC02 		mul	s9,s9,a5
 288              		.loc 1 71 64
 289 01a8 E247     		lw	a5,24(sp)
 290 01aa B387FA02 		mul	a5,s5,a5
 291              		.loc 1 71 53
 292 01ae BE9C     		add	s9,s9,a5
 293              		.loc 1 71 68
 294 01b0 F247     		lw	a5,28(sp)
 295 01b2 BE9C     		add	s9,s9,a5
 296              	.LVL46:
 297              		.loc 1 71 13
 298 01b4 E685     		mv	a1,s9
 299 01b6 97000000 		call	l88mem
 299      E7800000 
 300              	.LVL47:
  72:main.c        ****             servo_write(servo2); break;                                                // set new L
 301              		.loc 1 72 13 is_stmt 1
 302 01be 3245     		lw	a0,12(sp)
 303 01c0 E685     		mv	a1,s9
 304 01c2 66C8     		sw	s9,16(sp)
 305 01c4 97000000 		call	servo_write
 305      E7800000 
 306              	.LVL48:
 307              		.loc 1 72 34
 308              		.loc 1 72 13 is_stmt 0
 309 01cc E5B5     		j	.L3
 310              	.LVL49:
 311              	.L6:
  45:main.c        ****         // write the values to the servo motors 
 312              		.loc 1 45 14 is_stmt 1
GAS LISTING C:\Users\Karzan\AppData\Local\Temp\cc9GHWCm.s 			page 9


  45:main.c        ****         // write the values to the servo motors 
 313              		.loc 1 45 20 is_stmt 0
 314 01ce B3E75403 		rem	a5,s1,s5
  45:main.c        ****         // write the values to the servo motors 
 315              		.loc 1 45 17
 316 01d2 B1FF     		bne	a5,zero,.L7
  47:main.c        ****         //servo_write(servo2);
 317              		.loc 1 47 9 is_stmt 1
 318 01d4 1245     		lw	a0,4(sp)
 319 01d6 CA85     		mv	a1,s2
 320 01d8 4AC4     		sw	s2,8(sp)
 321 01da 97000000 		call	servo_write
 321      E7800000 
 322              	.LVL50:
 323 01e2 B1B7     		j	.L7
 324              	.LVL51:
 325              	.L13:
  68:main.c        ****           case 15: while((--count)!=0) inputs[count]=0; break;                     // '#' - remove 
 326              		.loc 1 68 20
  68:main.c        ****           case 15: while((--count)!=0) inputs[count]=0; break;                     // '#' - remove 
 327              		.loc 1 68 34 is_stmt 0
 328 01e4 93172400 		slli	a5,s0,2
 329              	.LVL52:
 330 01e8 9810     		addi	a4,sp,96
 331 01ea BA97     		add	a5,a4,a5
 332 01ec 23AA07FA 		sw	zero,-76(a5)
  68:main.c        ****           case 15: while((--count)!=0) inputs[count]=0; break;                     // '#' - remove 
 333              		.loc 1 68 39 is_stmt 1
  68:main.c        ****           case 15: while((--count)!=0) inputs[count]=0; break;                     // '#' - remove 
 334              		.loc 1 68 44 is_stmt 0
 335 01f0 7D14     		addi	s0,s0,-1
 336              	.LVL53:
  68:main.c        ****           case 15: while((--count)!=0) inputs[count]=0; break;                     // '#' - remove 
 337              		.loc 1 68 48 is_stmt 1
  68:main.c        ****           case 15: while((--count)!=0) inputs[count]=0; break;                     // '#' - remove 
 338              		.loc 1 68 11 is_stmt 0
 339 01f2 C9B5     		j	.L3
 340              	.L16:
  69:main.c        ****           case 13:                                                                 // 'D' - set LED
 341              		.loc 1 69 40 is_stmt 1 discriminator 3
  69:main.c        ****           case 13:                                                                 // 'D' - set LED
 342              		.loc 1 69 53 is_stmt 0 discriminator 3
 343 01f4 93172400 		slli	a5,s0,2
 344 01f8 5808     		addi	a4,sp,20
 345 01fa BA97     		add	a5,a4,a5
 346 01fc 23A00700 		sw	zero,0(a5)
 347              	.L14:
  69:main.c        ****           case 13:                                                                 // 'D' - set LED
 348              		.loc 1 69 25 discriminator 1
 349 0200 7D14     		addi	s0,s0,-1
 350              	.LVL54:
 351 0202 6DF8     		bne	s0,zero,.L16
 352 0204 45BD     		j	.L3
 353              	.LVL55:
 354              	.L11:
  73:main.c        ****           default: break; // 'A','B','C' - NOP
  74:main.c        ****         }
GAS LISTING C:\Users\Karzan\AppData\Local\Temp\cc9GHWCm.s 			page 10


  75:main.c        ****       }
  76:main.c        ****       else if (key != -1 && !(count > 2)){                                  // ..a num was pressed 
 355              		.loc 1 76 12 is_stmt 1
 356              		.loc 1 76 15 is_stmt 0
 357 0206 FD57     		li	a5,-1
 358 0208 E306F5EA 		beq	a0,a5,.L3
 359              		.loc 1 76 26 discriminator 1
 360 020c 8947     		li	a5,2
 361 020e E3C387EA 		bgt	s0,a5,.L3
 362              	.L12:
  77:main.c        ****         if ((pKey = lookUpTbl[key]) < 10){                                    // ..and it's a int?.
 363              		.loc 1 77 9 is_stmt 1
 364              		.loc 1 77 19 is_stmt 0
 365 0212 9C10     		addi	a5,sp,96
 366 0214 0A05     		slli	a0,a0,2
 367              	.LVL56:
 368 0216 3E95     		add	a0,a5,a0
 369 0218 832705FC 		lw	a5,-64(a0)
 370              	.LVL57:
 371              		.loc 1 77 12
 372 021c 2547     		li	a4,9
 373 021e E34BF7E8 		bgt	a5,a4,.L3
  78:main.c        ****           inputs[count++] = pKey;                                           // Yes..save input valu
 374              		.loc 1 78 11 is_stmt 1
 375              		.loc 1 78 23 is_stmt 0
 376 0222 930C1400 		addi	s9,s0,1
 377              	.LVL58:
 378              		.loc 1 78 27
 379 0226 9810     		addi	a4,sp,96
 380 0228 0A04     		slli	s0,s0,2
 381 022a 3A94     		add	s0,a4,s0
 382 022c 232AF4FA 		sw	a5,-76(s0)
  79:main.c        ****           l88mem(2, (servo2.val = (inputs[0]*100) + inputs[1]*10 + inputs[2]));  // disp key input 
 383              		.loc 1 79 11 is_stmt 1
 384              	.LVL59:
 385              		.loc 1 79 45 is_stmt 0
 386 0230 D245     		lw	a1,20(sp)
 387 0232 93074006 		li	a5,100
 388              	.LVL60:
 389              		.loc 1 79 11
 390 0236 0945     		li	a0,2
 391              	.LVL61:
 392              		.loc 1 79 45
 393 0238 B387B702 		mul	a5,a5,a1
 394              		.loc 1 79 62
 395 023c E245     		lw	a1,24(sp)
  78:main.c        ****           inputs[count++] = pKey;                                           // Yes..save input valu
 396              		.loc 1 78 23
 397 023e 6684     		mv	s0,s9
 398              	.LVL62:
 399              		.loc 1 79 62
 400 0240 B385BA02 		mul	a1,s5,a1
 401              		.loc 1 79 51
 402 0244 AE97     		add	a5,a5,a1
 403              		.loc 1 79 11
 404 0246 F245     		lw	a1,28(sp)
 405 0248 BE95     		add	a1,a5,a1
GAS LISTING C:\Users\Karzan\AppData\Local\Temp\cc9GHWCm.s 			page 11


 406 024a 97000000 		call	l88mem
 406      E7800000 
 407              	.LVL63:
 408 0252 8DB5     		j	.L3
 409              		.cfi_endproc
 410              	.LFE2:
 412              		.section	.rodata
 413              		.align	2
 414              		.set	.LANCHOR0,. + 0
 415              	.LC0:
 416 0000 01000000 		.word	1
 417 0004 04000000 		.word	4
 418 0008 07000000 		.word	7
 419 000c 0E000000 		.word	14
 420 0010 02000000 		.word	2
 421 0014 05000000 		.word	5
 422 0018 08000000 		.word	8
 423 001c 00000000 		.word	0
 424 0020 03000000 		.word	3
 425 0024 06000000 		.word	6
 426 0028 09000000 		.word	9
 427 002c 0F000000 		.word	15
 428 0030 0A000000 		.word	10
 429 0034 0B000000 		.word	11
 430 0038 0C000000 		.word	12
 431 003c 0D000000 		.word	13
 432              		.text
 433              	.Letext0:
 434              		.file 2 "c:\\users\\karzan\\downloads\\toolchain-gd32v-v202-win\\toolchain-gd32v-v202-win\\compile
 435              		.file 3 "c:\\users\\karzan\\downloads\\toolchain-gd32v-v202-win\\toolchain-gd32v-v202-win\\compile
 436              		.file 4 "servo.h"
 437              		.file 5 "drivers.h"
 438              		.file 6 "adc.h"
 439              		.file 7 "./../../firmware/GD32VF103_standard_peripheral/Include/gd32vf103_adc.h"
 440              		.file 8 "./../../firmware/GD32VF103_standard_peripheral/system_gd32vf103.h"
 441              		.file 9 "./../../firmware/GD32VF103_standard_peripheral/gd32vf103.h"
 442              		.file 10 "<built-in>"
GAS LISTING C:\Users\Karzan\AppData\Local\Temp\cc9GHWCm.s 			page 12

