GAS LISTING C:\Users\Karzan\AppData\Local\Temp\cc9mKVZS.s 			page 1


   1              		.file	"pwm.c"
   2              		.option nopic
   3              		.attribute arch, "rv32i2p0_m2p0_a2p0_c2p0"
   4              		.attribute unaligned_access, 0
   5              		.attribute stack_align, 16
   6              		.text
   7              	.Ltext0:
   8              		.cfi_sections	.debug_frame
   9              		.section	.text.T1powerUpInitPWM,"ax",@progbits
  10              		.align	1
  11              		.globl	T1powerUpInitPWM
  13              	T1powerUpInitPWM:
  14              	.LFB2:
  15              		.file 1 "pwm.c"
   1:pwm.c         **** #include "pwm.h"
   2:pwm.c         **** #define SERVO_RANGE 180             // max servo rotation in deg (Servo in use: SG90)
   3:pwm.c         **** 
   4:pwm.c         **** int map();
   5:pwm.c         **** 
   6:pwm.c         **** void T1powerUpInitPWM(uint16_t ch){
  16              		.loc 1 6 35
  17              		.cfi_startproc
  18              	.LVL0:
   7:pwm.c         ****     timer_oc_parameter_struct timer_ocinitpara;
  19              		.loc 1 7 5
   8:pwm.c         ****     timer_parameter_struct timer_initpara;
  20              		.loc 1 8 5
   9:pwm.c         ****     rcu_periph_clock_enable(RCU_GPIOA);
  21              		.loc 1 9 5
   6:pwm.c         ****     timer_oc_parameter_struct timer_ocinitpara;
  22              		.loc 1 6 35 is_stmt 0
  23 0000 3971     		addi	sp,sp,-64
  24              	.LCFI0:
  25              		.cfi_def_cfa_offset 64
  26 0002 22DC     		sw	s0,56(sp)
  27              		.cfi_offset 8, -8
  28 0004 2A84     		mv	s0,a0
  29              		.loc 1 9 5
  30 0006 13052060 		li	a0,1538
  31              	.LVL1:
   6:pwm.c         ****     timer_oc_parameter_struct timer_ocinitpara;
  32              		.loc 1 6 35
  33 000a 06DE     		sw	ra,60(sp)
  34 000c 4ED6     		sw	s3,44(sp)
  35 000e 26DA     		sw	s1,52(sp)
  36 0010 4AD8     		sw	s2,48(sp)
  37              		.cfi_offset 1, -4
  38              		.cfi_offset 19, -20
  39              		.cfi_offset 9, -12
  40              		.cfi_offset 18, -16
  41              		.loc 1 9 5
  42 0012 97000000 		call	rcu_periph_clock_enable
  42      E7800000 
  43              	.LVL2:
  10:pwm.c         ****     rcu_periph_clock_enable(RCU_AF);
  44              		.loc 1 10 5 is_stmt 1
  45 001a 13050060 		li	a0,1536
GAS LISTING C:\Users\Karzan\AppData\Local\Temp\cc9mKVZS.s 			page 2


  46 001e 93791400 		andi	s3,s0,1
  47 0022 97000000 		call	rcu_periph_clock_enable
  47      E7800000 
  48              	.LVL3:
  11:pwm.c         ****     if (ch&0x1) gpio_init(GPIOA, GPIO_MODE_AF_PP, GPIO_OSPEED_50MHZ, GPIO_PIN_0);
  49              		.loc 1 11 5
  50              		.loc 1 11 8 is_stmt 0
  51 002a 638D0900 		beq	s3,zero,.L2
  52              		.loc 1 11 17 is_stmt 1 discriminator 1
  53 002e 37150140 		li	a0,1073811456
  54 0032 8546     		li	a3,1
  55 0034 0D46     		li	a2,3
  56 0036 E145     		li	a1,24
  57 0038 13050580 		addi	a0,a0,-2048
  58 003c 97000000 		call	gpio_init
  58      E7800000 
  59              	.LVL4:
  60              	.L2:
  12:pwm.c         ****     if (ch&0x2) gpio_init(GPIOA, GPIO_MODE_AF_PP, GPIO_OSPEED_50MHZ, GPIO_PIN_1);
  61              		.loc 1 12 5
  62 0044 13792400 		andi	s2,s0,2
  63              		.loc 1 12 8 is_stmt 0
  64 0048 630D0900 		beq	s2,zero,.L3
  65              		.loc 1 12 17 is_stmt 1 discriminator 1
  66 004c 37150140 		li	a0,1073811456
  67 0050 8946     		li	a3,2
  68 0052 0D46     		li	a2,3
  69 0054 E145     		li	a1,24
  70 0056 13050580 		addi	a0,a0,-2048
  71 005a 97000000 		call	gpio_init
  71      E7800000 
  72              	.LVL5:
  73              	.L3:
  13:pwm.c         ****     if (ch&0x4) gpio_init(GPIOA, GPIO_MODE_AF_PP, GPIO_OSPEED_50MHZ, GPIO_PIN_2);
  74              		.loc 1 13 5
  75 0062 93744400 		andi	s1,s0,4
  76              		.loc 1 13 8 is_stmt 0
  77 0066 81CC     		beq	s1,zero,.L4
  78              		.loc 1 13 17 is_stmt 1 discriminator 1
  79 0068 37150140 		li	a0,1073811456
  80 006c 9146     		li	a3,4
  81 006e 0D46     		li	a2,3
  82 0070 E145     		li	a1,24
  83 0072 13050580 		addi	a0,a0,-2048
  84 0076 97000000 		call	gpio_init
  84      E7800000 
  85              	.LVL6:
  86              	.L4:
  14:pwm.c         ****     if (ch&0x8) gpio_init(GPIOA, GPIO_MODE_AF_PP, GPIO_OSPEED_50MHZ, GPIO_PIN_0);
  87              		.loc 1 14 5
  88 007e 2188     		andi	s0,s0,8
  89              		.loc 1 14 8 is_stmt 0
  90 0080 01CC     		beq	s0,zero,.L5
  91              		.loc 1 14 17 is_stmt 1 discriminator 1
  92 0082 37150140 		li	a0,1073811456
  93 0086 8546     		li	a3,1
  94 0088 0D46     		li	a2,3
GAS LISTING C:\Users\Karzan\AppData\Local\Temp\cc9mKVZS.s 			page 3


  95 008a E145     		li	a1,24
  96 008c 13050580 		addi	a0,a0,-2048
  97 0090 97000000 		call	gpio_init
  97      E7800000 
  98              	.LVL7:
  99              	.L5:
  15:pwm.c         ****     rcu_periph_clock_enable(RCU_TIMER1);
 100              		.loc 1 15 5
 101 0098 13050070 		li	a0,1792
 102 009c 97000000 		call	rcu_periph_clock_enable
 102      E7800000 
 103              	.LVL8:
  16:pwm.c         **** 
  17:pwm.c         ****     timer_deinit(TIMER1);
 104              		.loc 1 17 5
 105 00a4 37050040 		li	a0,1073741824
 106 00a8 97000000 		call	timer_deinit
 106      E7800000 
 107              	.LVL9:
  18:pwm.c         ****     timer_struct_para_init(&timer_initpara);
 108              		.loc 1 18 5
 109 00b0 0808     		addi	a0,sp,16
 110 00b2 97000000 		call	timer_struct_para_init
 110      E7800000 
 111              	.LVL10:
  19:pwm.c         ****     timer_initpara.prescaler         = 107;
 112              		.loc 1 19 5
  20:pwm.c         ****     timer_initpara.alignedmode       = TIMER_COUNTER_EDGE;
 113              		.loc 1 20 5
  21:pwm.c         ****     timer_initpara.counterdirection  = TIMER_COUNTER_UP;
 114              		.loc 1 21 5
  19:pwm.c         ****     timer_initpara.prescaler         = 107;
 115              		.loc 1 19 38 is_stmt 0
 116 00ba 9307B006 		li	a5,107
 117 00be 3EC8     		sw	a5,16(sp)
  22:pwm.c         ****     timer_initpara.period            = 15999;
 118              		.loc 1 22 38
 119 00c0 9167     		li	a5,16384
 120 00c2 9387F7E7 		addi	a5,a5,-385
  23:pwm.c         ****     timer_initpara.clockdivision     = TIMER_CKDIV_DIV1;
  24:pwm.c         ****     timer_initpara.repetitioncounter = 0;
  25:pwm.c         ****     timer_init(TIMER1, &timer_initpara);
 121              		.loc 1 25 5
 122 00c6 0C08     		addi	a1,sp,16
 123 00c8 37050040 		li	a0,1073741824
  22:pwm.c         ****     timer_initpara.period            = 15999;
 124              		.loc 1 22 38
 125 00cc 3ECC     		sw	a5,24(sp)
  21:pwm.c         ****     timer_initpara.period            = 15999;
 126              		.loc 1 21 38
 127 00ce 231A0100 		sh	zero,20(sp)
  22:pwm.c         ****     timer_initpara.period            = 15999;
 128              		.loc 1 22 5 is_stmt 1
  23:pwm.c         ****     timer_initpara.clockdivision     = TIMER_CKDIV_DIV1;
 129              		.loc 1 23 5
  23:pwm.c         ****     timer_initpara.clockdivision     = TIMER_CKDIV_DIV1;
 130              		.loc 1 23 38 is_stmt 0
GAS LISTING C:\Users\Karzan\AppData\Local\Temp\cc9mKVZS.s 			page 4


 131 00d2 231E0100 		sh	zero,28(sp)
  24:pwm.c         ****     timer_init(TIMER1, &timer_initpara);
 132              		.loc 1 24 5 is_stmt 1
  24:pwm.c         ****     timer_init(TIMER1, &timer_initpara);
 133              		.loc 1 24 38 is_stmt 0
 134 00d6 230F0100 		sb	zero,30(sp)
 135              		.loc 1 25 5 is_stmt 1
 136 00da 97000000 		call	timer_init
 136      E7800000 
 137              	.LVL11:
  26:pwm.c         **** 
  27:pwm.c         ****     timer_channel_output_struct_para_init(&timer_ocinitpara);
 138              		.loc 1 27 5
 139 00e2 4800     		addi	a0,sp,4
 140 00e4 97000000 		call	timer_channel_output_struct_para_init
 140      E7800000 
 141              	.LVL12:
  28:pwm.c         ****     timer_ocinitpara.outputstate  = TIMER_CCX_ENABLE;
 142              		.loc 1 28 5
  29:pwm.c         ****     timer_ocinitpara.outputnstate = TIMER_CCXN_DISABLE;
 143              		.loc 1 29 5
  30:pwm.c         ****     timer_ocinitpara.ocpolarity   = TIMER_OC_POLARITY_HIGH;
 144              		.loc 1 30 5
  31:pwm.c         ****     timer_ocinitpara.ocnpolarity  = TIMER_OCN_POLARITY_HIGH;
 145              		.loc 1 31 5
  32:pwm.c         ****     timer_ocinitpara.ocidlestate  = TIMER_OC_IDLE_STATE_LOW;
 146              		.loc 1 32 5
  33:pwm.c         ****     timer_ocinitpara.ocnidlestate = TIMER_OCN_IDLE_STATE_LOW;
 147              		.loc 1 33 5
  28:pwm.c         ****     timer_ocinitpara.outputnstate = TIMER_CCXN_DISABLE;
 148              		.loc 1 28 35 is_stmt 0
 149 00ec 8547     		li	a5,1
 150 00ee 3EC2     		sw	a5,4(sp)
  30:pwm.c         ****     timer_ocinitpara.ocnpolarity  = TIMER_OCN_POLARITY_HIGH;
 151              		.loc 1 30 35
 152 00f0 02C4     		sw	zero,8(sp)
  32:pwm.c         ****     timer_ocinitpara.ocnidlestate = TIMER_OCN_IDLE_STATE_LOW;
 153              		.loc 1 32 35
 154 00f2 02C6     		sw	zero,12(sp)
  34:pwm.c         ****     if (ch&0x1) timer_channel_output_config(TIMER1,TIMER_CH_0,&timer_ocinitpara);
 155              		.loc 1 34 5 is_stmt 1
 156              		.loc 1 34 8 is_stmt 0
 157 00f4 638A0900 		beq	s3,zero,.L6
 158              		.loc 1 34 17 is_stmt 1 discriminator 1
 159 00f8 5000     		addi	a2,sp,4
 160 00fa 8145     		li	a1,0
 161 00fc 37050040 		li	a0,1073741824
 162 0100 97000000 		call	timer_channel_output_config
 162      E7800000 
 163              	.LVL13:
 164              	.L6:
  35:pwm.c         ****     if (ch&0x2) timer_channel_output_config(TIMER1,TIMER_CH_1,&timer_ocinitpara);
 165              		.loc 1 35 5
 166              		.loc 1 35 8 is_stmt 0
 167 0108 630A0900 		beq	s2,zero,.L7
 168              		.loc 1 35 17 is_stmt 1 discriminator 1
 169 010c 5000     		addi	a2,sp,4
GAS LISTING C:\Users\Karzan\AppData\Local\Temp\cc9mKVZS.s 			page 5


 170 010e 8545     		li	a1,1
 171 0110 37050040 		li	a0,1073741824
 172 0114 97000000 		call	timer_channel_output_config
 172      E7800000 
 173              	.LVL14:
 174              	.L7:
  36:pwm.c         ****     if (ch&0x4) timer_channel_output_config(TIMER1,TIMER_CH_2,&timer_ocinitpara);
 175              		.loc 1 36 5
 176              		.loc 1 36 8 is_stmt 0
 177 011c 89C8     		beq	s1,zero,.L8
 178              		.loc 1 36 17 is_stmt 1 discriminator 1
 179 011e 5000     		addi	a2,sp,4
 180 0120 8945     		li	a1,2
 181 0122 37050040 		li	a0,1073741824
 182 0126 97000000 		call	timer_channel_output_config
 182      E7800000 
 183              	.LVL15:
 184              	.L8:
  37:pwm.c         ****     if (ch&0x8) timer_channel_output_config(TIMER1,TIMER_CH_0,&timer_ocinitpara);
 185              		.loc 1 37 5
 186              		.loc 1 37 8 is_stmt 0
 187 012e 09C8     		beq	s0,zero,.L9
 188              		.loc 1 37 17 is_stmt 1 discriminator 1
 189 0130 5000     		addi	a2,sp,4
 190 0132 8145     		li	a1,0
 191 0134 37050040 		li	a0,1073741824
 192 0138 97000000 		call	timer_channel_output_config
 192      E7800000 
 193              	.LVL16:
 194              	.L9:
  38:pwm.c         **** 
  39:pwm.c         ****     if (ch&0x1) {
 195              		.loc 1 39 5
 196              		.loc 1 39 8 is_stmt 0
 197 0140 638D0902 		beq	s3,zero,.L10
  40:pwm.c         ****         timer_channel_output_pulse_value_config(TIMER1,TIMER_CH_0,11999);
 198              		.loc 1 40 9 is_stmt 1
 199 0144 0D66     		li	a2,12288
 200 0146 1306F6ED 		addi	a2,a2,-289
 201 014a 8145     		li	a1,0
 202 014c 37050040 		li	a0,1073741824
 203 0150 97000000 		call	timer_channel_output_pulse_value_config
 203      E7800000 
 204              	.LVL17:
  41:pwm.c         ****         timer_channel_output_mode_config(TIMER1,TIMER_CH_0,TIMER_OC_MODE_PWM0);
 205              		.loc 1 41 9
 206 0158 13060006 		li	a2,96
 207 015c 8145     		li	a1,0
 208 015e 37050040 		li	a0,1073741824
 209 0162 97000000 		call	timer_channel_output_mode_config
 209      E7800000 
 210              	.LVL18:
  42:pwm.c         ****         timer_channel_output_shadow_config(TIMER1,TIMER_CH_0,TIMER_OC_SHADOW_DISABLE);
 211              		.loc 1 42 9
 212 016a 0146     		li	a2,0
 213 016c 8145     		li	a1,0
 214 016e 37050040 		li	a0,1073741824
GAS LISTING C:\Users\Karzan\AppData\Local\Temp\cc9mKVZS.s 			page 6


 215 0172 97000000 		call	timer_channel_output_shadow_config
 215      E7800000 
 216              	.LVL19:
 217              	.L10:
  43:pwm.c         ****     }
  44:pwm.c         ****    if (ch&0x2) {
 218              		.loc 1 44 4
 219              		.loc 1 44 7 is_stmt 0
 220 017a 630D0902 		beq	s2,zero,.L11
  45:pwm.c         ****         timer_channel_output_pulse_value_config(TIMER1,TIMER_CH_1,11999);
 221              		.loc 1 45 9 is_stmt 1
 222 017e 0D66     		li	a2,12288
 223 0180 1306F6ED 		addi	a2,a2,-289
 224 0184 8545     		li	a1,1
 225 0186 37050040 		li	a0,1073741824
 226 018a 97000000 		call	timer_channel_output_pulse_value_config
 226      E7800000 
 227              	.LVL20:
  46:pwm.c         ****         timer_channel_output_mode_config(TIMER1,TIMER_CH_1,TIMER_OC_MODE_PWM0);
 228              		.loc 1 46 9
 229 0192 13060006 		li	a2,96
 230 0196 8545     		li	a1,1
 231 0198 37050040 		li	a0,1073741824
 232 019c 97000000 		call	timer_channel_output_mode_config
 232      E7800000 
 233              	.LVL21:
  47:pwm.c         ****         timer_channel_output_shadow_config(TIMER1,TIMER_CH_1,TIMER_OC_SHADOW_DISABLE);
 234              		.loc 1 47 9
 235 01a4 0146     		li	a2,0
 236 01a6 8545     		li	a1,1
 237 01a8 37050040 		li	a0,1073741824
 238 01ac 97000000 		call	timer_channel_output_shadow_config
 238      E7800000 
 239              	.LVL22:
 240              	.L11:
  48:pwm.c         ****     }
  49:pwm.c         ****    if (ch&0x4) {
 241              		.loc 1 49 4
 242              		.loc 1 49 7 is_stmt 0
 243 01b4 85CC     		beq	s1,zero,.L12
  50:pwm.c         ****         timer_channel_output_pulse_value_config(TIMER1,TIMER_CH_2,11999);
 244              		.loc 1 50 9 is_stmt 1
 245 01b6 0D66     		li	a2,12288
 246 01b8 1306F6ED 		addi	a2,a2,-289
 247 01bc 8945     		li	a1,2
 248 01be 37050040 		li	a0,1073741824
 249 01c2 97000000 		call	timer_channel_output_pulse_value_config
 249      E7800000 
 250              	.LVL23:
  51:pwm.c         ****         timer_channel_output_mode_config(TIMER1,TIMER_CH_2,TIMER_OC_MODE_PWM0);
 251              		.loc 1 51 9
 252 01ca 13060006 		li	a2,96
 253 01ce 8945     		li	a1,2
 254 01d0 37050040 		li	a0,1073741824
 255 01d4 97000000 		call	timer_channel_output_mode_config
 255      E7800000 
 256              	.LVL24:
GAS LISTING C:\Users\Karzan\AppData\Local\Temp\cc9mKVZS.s 			page 7


  52:pwm.c         ****         timer_channel_output_shadow_config(TIMER1,TIMER_CH_2,TIMER_OC_SHADOW_DISABLE);
 257              		.loc 1 52 9
 258 01dc 0146     		li	a2,0
 259 01de 8945     		li	a1,2
 260 01e0 37050040 		li	a0,1073741824
 261 01e4 97000000 		call	timer_channel_output_shadow_config
 261      E7800000 
 262              	.LVL25:
 263              	.L12:
  53:pwm.c         ****     }
  54:pwm.c         ****    if (ch&0x8) {
 264              		.loc 1 54 4
 265              		.loc 1 54 7 is_stmt 0
 266 01ec 05CC     		beq	s0,zero,.L13
  55:pwm.c         ****         timer_channel_output_pulse_value_config(TIMER1,TIMER_CH_0,11999);
 267              		.loc 1 55 9 is_stmt 1
 268 01ee 0D66     		li	a2,12288
 269 01f0 1306F6ED 		addi	a2,a2,-289
 270 01f4 8145     		li	a1,0
 271 01f6 37050040 		li	a0,1073741824
 272 01fa 97000000 		call	timer_channel_output_pulse_value_config
 272      E7800000 
 273              	.LVL26:
  56:pwm.c         ****         timer_channel_output_mode_config(TIMER1,TIMER_CH_0,TIMER_OC_MODE_PWM0);
 274              		.loc 1 56 9
 275 0202 13060006 		li	a2,96
 276 0206 8145     		li	a1,0
 277 0208 37050040 		li	a0,1073741824
 278 020c 97000000 		call	timer_channel_output_mode_config
 278      E7800000 
 279              	.LVL27:
  57:pwm.c         ****         timer_channel_output_shadow_config(TIMER1,TIMER_CH_0,TIMER_OC_SHADOW_DISABLE);
 280              		.loc 1 57 9
 281 0214 0146     		li	a2,0
 282 0216 8145     		li	a1,0
 283 0218 37050040 		li	a0,1073741824
 284 021c 97000000 		call	timer_channel_output_shadow_config
 284      E7800000 
 285              	.LVL28:
 286              	.L13:
  58:pwm.c         ****     }
  59:pwm.c         ****     
  60:pwm.c         ****     timer_auto_reload_shadow_enable(TIMER1);
 287              		.loc 1 60 5
 288 0224 37050040 		li	a0,1073741824
 289 0228 97000000 		call	timer_auto_reload_shadow_enable
 289      E7800000 
 290              	.LVL29:
  61:pwm.c         ****     timer_enable(TIMER1);
 291              		.loc 1 61 5
 292 0230 37050040 		li	a0,1073741824
 293 0234 97000000 		call	timer_enable
 293      E7800000 
 294              	.LVL30:
  62:pwm.c         **** }
 295              		.loc 1 62 1 is_stmt 0
 296 023c F250     		lw	ra,60(sp)
GAS LISTING C:\Users\Karzan\AppData\Local\Temp\cc9mKVZS.s 			page 8


 297              		.cfi_restore 1
 298 023e 6254     		lw	s0,56(sp)
 299              		.cfi_restore 8
 300 0240 D254     		lw	s1,52(sp)
 301              		.cfi_restore 9
 302 0242 4259     		lw	s2,48(sp)
 303              		.cfi_restore 18
 304 0244 B259     		lw	s3,44(sp)
 305              		.cfi_restore 19
 306 0246 2161     		addi	sp,sp,64
 307              	.LCFI1:
 308              		.cfi_def_cfa_offset 0
 309 0248 8280     		jr	ra
 310              		.cfi_endproc
 311              	.LFE2:
 313              		.section	.text.T1setPWMch2,"ax",@progbits
 314              		.align	1
 315              		.globl	T1setPWMch2
 317              	T1setPWMch2:
 318              	.LFB3:
  63:pwm.c         **** 
  64:pwm.c         **** void T1setPWMch2(int value){
 319              		.loc 1 64 28 is_stmt 1
 320              		.cfi_startproc
 321              	.LVL31:
  65:pwm.c         ****     timer_channel_output_pulse_value_config(TIMER1,TIMER_CH_2,value);
 322              		.loc 1 65 5
 323 0000 2A86     		mv	a2,a0
 324 0002 8945     		li	a1,2
 325 0004 37050040 		li	a0,1073741824
 326              	.LVL32:
 327 0008 17030000 		tail	timer_channel_output_pulse_value_config
 327      67000300 
 328              	.LVL33:
 329              		.cfi_endproc
 330              	.LFE3:
 332              		.globl	__floatsidf
 333              		.globl	__divdf3
 334              		.globl	__muldf3
 335              		.globl	__fixunsdfsi
 336              		.section	.text.T1setPWMmotorB,"ax",@progbits
 337              		.align	1
 338              		.globl	T1setPWMmotorB
 340              	T1setPWMmotorB:
 341              	.LFB4:
  66:pwm.c         **** }
  67:pwm.c         **** 
  68:pwm.c         **** void T1setPWMmotorB(int throttel){
 342              		.loc 1 68 34
 343              		.cfi_startproc
 344              	.LVL34:
  69:pwm.c         ****     if (throttel>0) {
 345              		.loc 1 69 5
 346              		.loc 1 69 8 is_stmt 0
 347 0000 6352A006 		ble	a0,zero,.L52
  70:pwm.c         ****        timer_channel_output_pulse_value_config(TIMER1,TIMER_CH_0, (throttel/100.0)*16000);
 348              		.loc 1 70 8 is_stmt 1
GAS LISTING C:\Users\Karzan\AppData\Local\Temp\cc9mKVZS.s 			page 9


  68:pwm.c         ****     if (throttel>0) {
 349              		.loc 1 68 34 is_stmt 0
 350 0004 4111     		addi	sp,sp,-16
 351              	.LCFI2:
 352              		.cfi_def_cfa_offset 16
 353 0006 06C6     		sw	ra,12(sp)
 354              		.cfi_offset 1, -4
 355              		.loc 1 70 76
 356 0008 97000000 		call	__floatsidf
 356      E7800000 
 357              	.LVL35:
 358 0010 B7070000 		lui	a5,%hi(.LC0)
 359 0014 03A60700 		lw	a2,%lo(.LC0)(a5)
 360 0018 83A64700 		lw	a3,%lo(.LC0+4)(a5)
 361 001c 97000000 		call	__divdf3
 361      E7800000 
 362              	.LVL36:
 363              		.loc 1 70 83
 364 0024 B7070000 		lui	a5,%hi(.LC1)
 365 0028 03A60700 		lw	a2,%lo(.LC1)(a5)
 366 002c 83A64700 		lw	a3,%lo(.LC1+4)(a5)
 367 0030 97000000 		call	__muldf3
 367      E7800000 
 368              	.LVL37:
 369              		.loc 1 70 8
 370 0038 97000000 		call	__fixunsdfsi
 370      E7800000 
 371              	.LVL38:
 372 0040 2A86     		mv	a2,a0
 373 0042 8145     		li	a1,0
 374 0044 37050040 		li	a0,1073741824
 375 0048 97000000 		call	timer_channel_output_pulse_value_config
 375      E7800000 
 376              	.LVL39:
  71:pwm.c         ****        timer_channel_output_pulse_value_config(TIMER1,TIMER_CH_2,0);
 377              		.loc 1 71 8 is_stmt 1
  72:pwm.c         ****     } 
  73:pwm.c         **** }
 378              		.loc 1 73 1 is_stmt 0
 379 0050 B240     		lw	ra,12(sp)
 380              		.cfi_restore 1
  71:pwm.c         ****        timer_channel_output_pulse_value_config(TIMER1,TIMER_CH_2,0);
 381              		.loc 1 71 8
 382 0052 0146     		li	a2,0
 383              		.loc 1 73 1
  71:pwm.c         ****        timer_channel_output_pulse_value_config(TIMER1,TIMER_CH_2,0);
 384              		.loc 1 71 8
 385 0054 8945     		li	a1,2
 386 0056 37050040 		li	a0,1073741824
 387              		.loc 1 73 1
 388 005a 4101     		addi	sp,sp,16
 389              	.LCFI3:
 390              		.cfi_def_cfa_offset 0
  71:pwm.c         ****        timer_channel_output_pulse_value_config(TIMER1,TIMER_CH_2,0);
 391              		.loc 1 71 8
 392 005c 17030000 		tail	timer_channel_output_pulse_value_config
 392      67000300 
GAS LISTING C:\Users\Karzan\AppData\Local\Temp\cc9mKVZS.s 			page 10


 393              	.LVL40:
 394              	.L52:
 395 0064 8280     		ret
 396              		.cfi_endproc
 397              	.LFE4:
 399              		.section	.text.setServo,"ax",@progbits
 400              		.align	1
 401              		.globl	setServo
 403              	setServo:
 404              	.LFB5:
  74:pwm.c         **** 
  75:pwm.c         **** // set the servo to a specified angle between from 0 to 180 degrees from timer1, channel 0
  76:pwm.c         **** void setServo(int angle){
 405              		.loc 1 76 25 is_stmt 1
 406              		.cfi_startproc
 407              	.LVL41:
  77:pwm.c         ****     if (angle >= 0 && angle <= 180){
 408              		.loc 1 77 5
 409              		.loc 1 77 8 is_stmt 0
 410 0000 9307400B 		li	a5,180
 411 0004 63E2A702 		bgtu	a0,a5,.L57
  78:pwm.c         ****         // send the corresponding PWM value of the angle 
  79:pwm.c         ****         timer_channel_output_pulse_value_config(TIMER1,TIMER_CH_0, map(angle, 0, SERVO_RANGE, 480, 
 412              		.loc 1 79 9 is_stmt 1
 413              	.LVL42:
 414              	.LBB4:
 415              	.LBB5:
  80:pwm.c         ****     }
  81:pwm.c         **** }
  82:pwm.c         **** 
  83:pwm.c         **** // remap a value from one range to the other
  84:pwm.c         **** int map(int value, int inMin, int inMax, int outMin, int outMax){               
  85:pwm.c         ****     return (value - inMin) * (outMax - outMin) / (inMax - inMin) + outMin;
 416              		.loc 1 85 5
 417              		.loc 1 85 28 is_stmt 0
 418 0008 0566     		li	a2,4096
 419 000a 13060682 		addi	a2,a2,-2016
 420 000e 3305C502 		mul	a0,a0,a2
 421              	.LVL43:
 422              	.LBE5:
 423              	.LBE4:
  79:pwm.c         ****     }
 424              		.loc 1 79 9
 425 0012 8145     		li	a1,0
 426              	.LBB7:
 427              	.LBB6:
 428              		.loc 1 85 48
 429 0014 3346F502 		div	a2,a0,a5
 430              	.LBE6:
 431              	.LBE7:
  79:pwm.c         ****     }
 432              		.loc 1 79 9
 433 0018 37050040 		li	a0,1073741824
 434 001c 1306061E 		addi	a2,a2,480
 435 0020 17030000 		tail	timer_channel_output_pulse_value_config
 435      67000300 
 436              	.LVL44:
GAS LISTING C:\Users\Karzan\AppData\Local\Temp\cc9mKVZS.s 			page 11


 437              	.L57:
  81:pwm.c         **** 
 438              		.loc 1 81 1
 439 0028 8280     		ret
 440              		.cfi_endproc
 441              	.LFE5:
 443              		.section	.text.map,"ax",@progbits
 444              		.align	1
 445              		.globl	map
 447              	map:
 448              	.LFB6:
  84:pwm.c         ****     return (value - inMin) * (outMax - outMin) / (inMax - inMin) + outMin;
 449              		.loc 1 84 65 is_stmt 1
 450              		.cfi_startproc
 451              	.LVL45:
 452              		.loc 1 85 5
 453              		.loc 1 85 19 is_stmt 0
 454 0000 0D8D     		sub	a0,a0,a1
 455              	.LVL46:
 456              		.loc 1 85 38
 457 0002 158F     		sub	a4,a4,a3
 458              	.LVL47:
 459              		.loc 1 85 28
 460 0004 3305E502 		mul	a0,a0,a4
 461              		.loc 1 85 57
 462 0008 0D8E     		sub	a2,a2,a1
 463              	.LVL48:
 464              		.loc 1 85 48
 465 000a 3345C502 		div	a0,a0,a2
  86:pwm.c         **** }...
 466              		.loc 1 86 1
 467 000e 3695     		add	a0,a0,a3
 468 0010 8280     		ret
 469              		.cfi_endproc
 470              	.LFE6:
 472              		.section	.rodata.T1setPWMmotorB.cst8,"aM",@progbits,8
 473              		.align	3
 474              	.LC0:
 475 0000 00000000 		.word	0
 476 0004 00005940 		.word	1079574528
 477              	.LC1:
 478 0008 00000000 		.word	0
 479 000c 0040CF40 		.word	1087324160
 480              		.text
 481              	.Letext0:
 482              		.file 2 "c:\\users\\karzan\\downloads\\toolchain-gd32v-v202-win\\toolchain-gd32v-v202-win\\compile
 483              		.file 3 "c:\\users\\karzan\\downloads\\toolchain-gd32v-v202-win\\toolchain-gd32v-v202-win\\compile
 484              		.file 4 "./../../firmware/GD32VF103_standard_peripheral/Include/gd32vf103_timer.h"
 485              		.file 5 "./../../firmware/GD32VF103_standard_peripheral/Include/gd32vf103_rcu.h"
 486              		.file 6 "./../../firmware/GD32VF103_standard_peripheral/Include/gd32vf103_gpio.h"
 487              		.file 7 "./../../firmware/GD32VF103_standard_peripheral/system_gd32vf103.h"
GAS LISTING C:\Users\Karzan\AppData\Local\Temp\cc9mKVZS.s 			page 12

