GAS LISTING C:\Users\Karzan\AppData\Local\Temp\ccRxzLoE.s 			page 1


   1              		.file	"servo.c"
   2              		.option nopic
   3              		.attribute arch, "rv32i2p0_m2p0_a2p0_c2p0"
   4              		.attribute unaligned_access, 0
   5              		.attribute stack_align, 16
   6              		.text
   7              	.Ltext0:
   8              		.cfi_sections	.debug_frame
   9              		.section	.text.T1_init_PWM,"ax",@progbits
  10              		.align	1
  11              		.globl	T1_init_PWM
  13              	T1_init_PWM:
  14              	.LFB2:
  15              		.file 1 "servo.c"
   1:servo.c       **** #include "servo.h"
   2:servo.c       **** 
   3:servo.c       **** #define SERVO_MAX_DEG     180                           // max servo rotation in deg (Servo in use:
   4:servo.c       **** #define SERVO_PERIOD      20000                         // 20ms pwm period
   5:servo.c       **** #define DUTY_LOWER        0.025                         // lower range of duty cycle: 0.5/20 = 2.5 
   6:servo.c       **** #define DUTY_UPPER        0.120                         // Upper range of duty cycle: 2.4/20 = 12.5
   7:servo.c       **** 
   8:servo.c       **** #define SERVO_MIN_VAL (DUTY_LOWER*SERVO_PERIOD)         // servos minimun pulse value
   9:servo.c       **** #define SERVO_MAX_VAL (DUTY_UPPER*SERVO_PERIOD)         // servos maximum pulse value
  10:servo.c       **** 
  11:servo.c       **** uint32_t map();
  12:servo.c       **** 
  13:servo.c       **** /*
  14:servo.c       **** Notering för initiering: 
  15:servo.c       ****     - SG90 kräver parametrarna; power&signal ~5V, duty cycle 1-2 ms, PWM period 20ms(signalfrekven
  16:servo.c       ****     - För att uppnå detta defineras prescalar till 108, så klockan räknar upp ett steg på 1MHz
  17:servo.c       ****       detta är för att processors arbetsfrekvens är 108 MHz (108Mhz / 108 = 1Mhz).
  18:servo.c       ****     - För att beräkna signalfrekvens divideras klockan med bestämda perioden (1MHz / 20000 =50Hz
  19:servo.c       ****     - Slutligen för duty cycle beräknas vilka pulsvärden som ger önskad pulsbredd.
  20:servo.c       ****       I det här fallet är undre gränsen 0.5ms och övre 2.4ms, beräknas med ({duty cycle} / {PW
  21:servo.c       ****       ex: -90deg har duty cycle 0.5ms ((0.5/20)*20000=500) och därmed har duty value 500  
  22:servo.c       **** 
  23:servo.c       **** */
  24:servo.c       **** void T1_init_PWM(uint16_t ch){
  16              		.loc 1 24 30
  17              		.cfi_startproc
  18              	.LVL0:
  25:servo.c       ****     timer_oc_parameter_struct timer_ocinitpara;
  19              		.loc 1 25 5
  26:servo.c       ****     timer_parameter_struct timer_initpara;
  20              		.loc 1 26 5
  27:servo.c       ****     rcu_periph_clock_enable(RCU_GPIOA);
  21              		.loc 1 27 5
  24:servo.c       ****     timer_oc_parameter_struct timer_ocinitpara;
  22              		.loc 1 24 30 is_stmt 0
  23 0000 3971     		addi	sp,sp,-64
  24              	.LCFI0:
  25              		.cfi_def_cfa_offset 64
  26 0002 22DC     		sw	s0,56(sp)
  27              		.cfi_offset 8, -8
  28 0004 2A84     		mv	s0,a0
  29              		.loc 1 27 5
  30 0006 13052060 		li	a0,1538
GAS LISTING C:\Users\Karzan\AppData\Local\Temp\ccRxzLoE.s 			page 2


  31              	.LVL1:
  24:servo.c       ****     timer_oc_parameter_struct timer_ocinitpara;
  32              		.loc 1 24 30
  33 000a 06DE     		sw	ra,60(sp)
  34 000c 4ED6     		sw	s3,44(sp)
  35 000e 26DA     		sw	s1,52(sp)
  36 0010 4AD8     		sw	s2,48(sp)
  37              		.cfi_offset 1, -4
  38              		.cfi_offset 19, -20
  39              		.cfi_offset 9, -12
  40              		.cfi_offset 18, -16
  41              		.loc 1 27 5
  42 0012 97000000 		call	rcu_periph_clock_enable
  42      E7800000 
  43              	.LVL2:
  28:servo.c       ****     rcu_periph_clock_enable(RCU_AF);
  44              		.loc 1 28 5 is_stmt 1
  45 001a 13050060 		li	a0,1536
  46 001e 93791400 		andi	s3,s0,1
  47 0022 97000000 		call	rcu_periph_clock_enable
  47      E7800000 
  48              	.LVL3:
  29:servo.c       ****     if (ch&0x1) gpio_init(GPIOA, GPIO_MODE_AF_PP, GPIO_OSPEED_50MHZ, GPIO_PIN_0);
  49              		.loc 1 29 5
  50              		.loc 1 29 8 is_stmt 0
  51 002a 638D0900 		beq	s3,zero,.L2
  52              		.loc 1 29 17 is_stmt 1 discriminator 1
  53 002e 37150140 		li	a0,1073811456
  54 0032 8546     		li	a3,1
  55 0034 0D46     		li	a2,3
  56 0036 E145     		li	a1,24
  57 0038 13050580 		addi	a0,a0,-2048
  58 003c 97000000 		call	gpio_init
  58      E7800000 
  59              	.LVL4:
  60              	.L2:
  30:servo.c       ****     if (ch&0x2) gpio_init(GPIOA, GPIO_MODE_AF_PP, GPIO_OSPEED_50MHZ, GPIO_PIN_1);
  61              		.loc 1 30 5
  62 0044 13792400 		andi	s2,s0,2
  63              		.loc 1 30 8 is_stmt 0
  64 0048 630D0900 		beq	s2,zero,.L3
  65              		.loc 1 30 17 is_stmt 1 discriminator 1
  66 004c 37150140 		li	a0,1073811456
  67 0050 8946     		li	a3,2
  68 0052 0D46     		li	a2,3
  69 0054 E145     		li	a1,24
  70 0056 13050580 		addi	a0,a0,-2048
  71 005a 97000000 		call	gpio_init
  71      E7800000 
  72              	.LVL5:
  73              	.L3:
  31:servo.c       ****     if (ch&0x4) gpio_init(GPIOA, GPIO_MODE_AF_PP, GPIO_OSPEED_50MHZ, GPIO_PIN_2);
  74              		.loc 1 31 5
  75 0062 93744400 		andi	s1,s0,4
  76              		.loc 1 31 8 is_stmt 0
  77 0066 81CC     		beq	s1,zero,.L4
  78              		.loc 1 31 17 is_stmt 1 discriminator 1
GAS LISTING C:\Users\Karzan\AppData\Local\Temp\ccRxzLoE.s 			page 3


  79 0068 37150140 		li	a0,1073811456
  80 006c 9146     		li	a3,4
  81 006e 0D46     		li	a2,3
  82 0070 E145     		li	a1,24
  83 0072 13050580 		addi	a0,a0,-2048
  84 0076 97000000 		call	gpio_init
  84      E7800000 
  85              	.LVL6:
  86              	.L4:
  32:servo.c       ****     if (ch&0x8) gpio_init(GPIOA, GPIO_MODE_AF_PP, GPIO_OSPEED_50MHZ, GPIO_PIN_3);
  87              		.loc 1 32 5
  88 007e 2188     		andi	s0,s0,8
  89              		.loc 1 32 8 is_stmt 0
  90 0080 01CC     		beq	s0,zero,.L5
  91              		.loc 1 32 17 is_stmt 1 discriminator 1
  92 0082 37150140 		li	a0,1073811456
  93 0086 A146     		li	a3,8
  94 0088 0D46     		li	a2,3
  95 008a E145     		li	a1,24
  96 008c 13050580 		addi	a0,a0,-2048
  97 0090 97000000 		call	gpio_init
  97      E7800000 
  98              	.LVL7:
  99              	.L5:
  33:servo.c       ****     rcu_periph_clock_enable(RCU_TIMER1);
 100              		.loc 1 33 5
 101 0098 13050070 		li	a0,1792
 102 009c 97000000 		call	rcu_periph_clock_enable
 102      E7800000 
 103              	.LVL8:
  34:servo.c       **** 
  35:servo.c       ****     timer_deinit(TIMER1);
 104              		.loc 1 35 5
 105 00a4 37050040 		li	a0,1073741824
 106 00a8 97000000 		call	timer_deinit
 106      E7800000 
 107              	.LVL9:
  36:servo.c       ****     timer_struct_para_init(&timer_initpara);
 108              		.loc 1 36 5
 109 00b0 0808     		addi	a0,sp,16
 110 00b2 97000000 		call	timer_struct_para_init
 110      E7800000 
 111              	.LVL10:
  37:servo.c       ****     timer_initpara.prescaler         = 108;
 112              		.loc 1 37 5
  38:servo.c       ****     timer_initpara.alignedmode       = TIMER_COUNTER_EDGE;
 113              		.loc 1 38 5
  39:servo.c       ****     timer_initpara.counterdirection  = TIMER_COUNTER_UP;
 114              		.loc 1 39 5
  37:servo.c       ****     timer_initpara.prescaler         = 108;
 115              		.loc 1 37 38 is_stmt 0
 116 00ba 9307C006 		li	a5,108
 117 00be 3EC8     		sw	a5,16(sp)
  40:servo.c       ****     timer_initpara.period            = SERVO_PERIOD;                   
 118              		.loc 1 40 38
 119 00c0 9567     		li	a5,20480
 120 00c2 938707E2 		addi	a5,a5,-480
GAS LISTING C:\Users\Karzan\AppData\Local\Temp\ccRxzLoE.s 			page 4


  41:servo.c       ****     timer_initpara.clockdivision     = TIMER_CKDIV_DIV1;
  42:servo.c       ****     timer_initpara.repetitioncounter = 0;
  43:servo.c       ****     timer_init(TIMER1, &timer_initpara);
 121              		.loc 1 43 5
 122 00c6 0C08     		addi	a1,sp,16
 123 00c8 37050040 		li	a0,1073741824
  40:servo.c       ****     timer_initpara.period            = SERVO_PERIOD;                   
 124              		.loc 1 40 38
 125 00cc 3ECC     		sw	a5,24(sp)
  39:servo.c       ****     timer_initpara.period            = SERVO_PERIOD;                   
 126              		.loc 1 39 38
 127 00ce 231A0100 		sh	zero,20(sp)
  40:servo.c       ****     timer_initpara.period            = SERVO_PERIOD;                   
 128              		.loc 1 40 5 is_stmt 1
  41:servo.c       ****     timer_initpara.clockdivision     = TIMER_CKDIV_DIV1;
 129              		.loc 1 41 5
  41:servo.c       ****     timer_initpara.clockdivision     = TIMER_CKDIV_DIV1;
 130              		.loc 1 41 38 is_stmt 0
 131 00d2 231E0100 		sh	zero,28(sp)
  42:servo.c       ****     timer_init(TIMER1, &timer_initpara);
 132              		.loc 1 42 5 is_stmt 1
  42:servo.c       ****     timer_init(TIMER1, &timer_initpara);
 133              		.loc 1 42 38 is_stmt 0
 134 00d6 230F0100 		sb	zero,30(sp)
 135              		.loc 1 43 5 is_stmt 1
 136 00da 97000000 		call	timer_init
 136      E7800000 
 137              	.LVL11:
  44:servo.c       **** 
  45:servo.c       ****     timer_channel_output_struct_para_init(&timer_ocinitpara);
 138              		.loc 1 45 5
 139 00e2 4800     		addi	a0,sp,4
 140 00e4 97000000 		call	timer_channel_output_struct_para_init
 140      E7800000 
 141              	.LVL12:
  46:servo.c       ****     timer_ocinitpara.outputstate  = TIMER_CCX_ENABLE;
 142              		.loc 1 46 5
  47:servo.c       ****     timer_ocinitpara.outputnstate = TIMER_CCXN_DISABLE;
 143              		.loc 1 47 5
  48:servo.c       ****     timer_ocinitpara.ocpolarity   = TIMER_OC_POLARITY_HIGH;
 144              		.loc 1 48 5
  49:servo.c       ****     timer_ocinitpara.ocnpolarity  = TIMER_OCN_POLARITY_HIGH;
 145              		.loc 1 49 5
  50:servo.c       ****     timer_ocinitpara.ocidlestate  = TIMER_OC_IDLE_STATE_LOW;
 146              		.loc 1 50 5
  51:servo.c       ****     timer_ocinitpara.ocnidlestate = TIMER_OCN_IDLE_STATE_LOW;
 147              		.loc 1 51 5
  46:servo.c       ****     timer_ocinitpara.outputnstate = TIMER_CCXN_DISABLE;
 148              		.loc 1 46 35 is_stmt 0
 149 00ec 8547     		li	a5,1
 150 00ee 3EC2     		sw	a5,4(sp)
  48:servo.c       ****     timer_ocinitpara.ocnpolarity  = TIMER_OCN_POLARITY_HIGH;
 151              		.loc 1 48 35
 152 00f0 02C4     		sw	zero,8(sp)
  50:servo.c       ****     timer_ocinitpara.ocnidlestate = TIMER_OCN_IDLE_STATE_LOW;
 153              		.loc 1 50 35
 154 00f2 02C6     		sw	zero,12(sp)
GAS LISTING C:\Users\Karzan\AppData\Local\Temp\ccRxzLoE.s 			page 5


  52:servo.c       ****     if (ch&0x1) timer_channel_output_config(TIMER1,TIMER_CH_0,&timer_ocinitpara);
 155              		.loc 1 52 5 is_stmt 1
 156              		.loc 1 52 8 is_stmt 0
 157 00f4 638A0900 		beq	s3,zero,.L6
 158              		.loc 1 52 17 is_stmt 1 discriminator 1
 159 00f8 5000     		addi	a2,sp,4
 160 00fa 8145     		li	a1,0
 161 00fc 37050040 		li	a0,1073741824
 162 0100 97000000 		call	timer_channel_output_config
 162      E7800000 
 163              	.LVL13:
 164              	.L6:
  53:servo.c       ****     if (ch&0x2) timer_channel_output_config(TIMER1,TIMER_CH_1,&timer_ocinitpara);
 165              		.loc 1 53 5
 166              		.loc 1 53 8 is_stmt 0
 167 0108 630A0900 		beq	s2,zero,.L7
 168              		.loc 1 53 17 is_stmt 1 discriminator 1
 169 010c 5000     		addi	a2,sp,4
 170 010e 8545     		li	a1,1
 171 0110 37050040 		li	a0,1073741824
 172 0114 97000000 		call	timer_channel_output_config
 172      E7800000 
 173              	.LVL14:
 174              	.L7:
  54:servo.c       ****     if (ch&0x4) timer_channel_output_config(TIMER2,TIMER_CH_2,&timer_ocinitpara);
 175              		.loc 1 54 5
 176              		.loc 1 54 8 is_stmt 0
 177 011c 99C8     		beq	s1,zero,.L8
 178              		.loc 1 54 17 is_stmt 1 discriminator 1
 179 011e 37050040 		li	a0,1073741824
 180 0122 5000     		addi	a2,sp,4
 181 0124 8945     		li	a1,2
 182 0126 13050540 		addi	a0,a0,1024
 183 012a 97000000 		call	timer_channel_output_config
 183      E7800000 
 184              	.LVL15:
 185              	.L8:
  55:servo.c       ****     if (ch&0x8) timer_channel_output_config(TIMER1,TIMER_CH_3,&timer_ocinitpara);
 186              		.loc 1 55 5
 187              		.loc 1 55 8 is_stmt 0
 188 0132 09C8     		beq	s0,zero,.L9
 189              		.loc 1 55 17 is_stmt 1 discriminator 1
 190 0134 5000     		addi	a2,sp,4
 191 0136 8D45     		li	a1,3
 192 0138 37050040 		li	a0,1073741824
 193 013c 97000000 		call	timer_channel_output_config
 193      E7800000 
 194              	.LVL16:
 195              	.L9:
  56:servo.c       **** 
  57:servo.c       ****     if (ch&0x1) {
 196              		.loc 1 57 5
 197              		.loc 1 57 8 is_stmt 0
 198 0144 638D0902 		beq	s3,zero,.L10
  58:servo.c       ****         timer_channel_output_pulse_value_config(TIMER1,TIMER_CH_0,11999);
 199              		.loc 1 58 9 is_stmt 1
 200 0148 0D66     		li	a2,12288
GAS LISTING C:\Users\Karzan\AppData\Local\Temp\ccRxzLoE.s 			page 6


 201 014a 1306F6ED 		addi	a2,a2,-289
 202 014e 8145     		li	a1,0
 203 0150 37050040 		li	a0,1073741824
 204 0154 97000000 		call	timer_channel_output_pulse_value_config
 204      E7800000 
 205              	.LVL17:
  59:servo.c       ****         timer_channel_output_mode_config(TIMER1,TIMER_CH_0,TIMER_OC_MODE_PWM0);
 206              		.loc 1 59 9
 207 015c 13060006 		li	a2,96
 208 0160 8145     		li	a1,0
 209 0162 37050040 		li	a0,1073741824
 210 0166 97000000 		call	timer_channel_output_mode_config
 210      E7800000 
 211              	.LVL18:
  60:servo.c       ****         timer_channel_output_shadow_config(TIMER1,TIMER_CH_0,TIMER_OC_SHADOW_DISABLE);
 212              		.loc 1 60 9
 213 016e 0146     		li	a2,0
 214 0170 8145     		li	a1,0
 215 0172 37050040 		li	a0,1073741824
 216 0176 97000000 		call	timer_channel_output_shadow_config
 216      E7800000 
 217              	.LVL19:
 218              	.L10:
  61:servo.c       ****     }
  62:servo.c       ****     if (ch&0x2) {
 219              		.loc 1 62 5
 220              		.loc 1 62 8 is_stmt 0
 221 017e 630D0902 		beq	s2,zero,.L11
  63:servo.c       ****         timer_channel_output_pulse_value_config(TIMER1,TIMER_CH_1,11999);
 222              		.loc 1 63 9 is_stmt 1
 223 0182 0D66     		li	a2,12288
 224 0184 1306F6ED 		addi	a2,a2,-289
 225 0188 8545     		li	a1,1
 226 018a 37050040 		li	a0,1073741824
 227 018e 97000000 		call	timer_channel_output_pulse_value_config
 227      E7800000 
 228              	.LVL20:
  64:servo.c       ****         timer_channel_output_mode_config(TIMER1,TIMER_CH_1,TIMER_OC_MODE_PWM0);
 229              		.loc 1 64 9
 230 0196 13060006 		li	a2,96
 231 019a 8545     		li	a1,1
 232 019c 37050040 		li	a0,1073741824
 233 01a0 97000000 		call	timer_channel_output_mode_config
 233      E7800000 
 234              	.LVL21:
  65:servo.c       ****         timer_channel_output_shadow_config(TIMER1,TIMER_CH_1,TIMER_OC_SHADOW_DISABLE);
 235              		.loc 1 65 9
 236 01a8 0146     		li	a2,0
 237 01aa 8545     		li	a1,1
 238 01ac 37050040 		li	a0,1073741824
 239 01b0 97000000 		call	timer_channel_output_shadow_config
 239      E7800000 
 240              	.LVL22:
 241              	.L11:
  66:servo.c       ****     }
  67:servo.c       ****     if (ch&0x4) {
 242              		.loc 1 67 5
GAS LISTING C:\Users\Karzan\AppData\Local\Temp\ccRxzLoE.s 			page 7


 243              		.loc 1 67 8 is_stmt 0
 244 01b8 85CC     		beq	s1,zero,.L12
  68:servo.c       ****         timer_channel_output_pulse_value_config(TIMER1,TIMER_CH_2,11999);
 245              		.loc 1 68 9 is_stmt 1
 246 01ba 0D66     		li	a2,12288
 247 01bc 1306F6ED 		addi	a2,a2,-289
 248 01c0 8945     		li	a1,2
 249 01c2 37050040 		li	a0,1073741824
 250 01c6 97000000 		call	timer_channel_output_pulse_value_config
 250      E7800000 
 251              	.LVL23:
  69:servo.c       ****         timer_channel_output_mode_config(TIMER1,TIMER_CH_2,TIMER_OC_MODE_PWM0);
 252              		.loc 1 69 9
 253 01ce 13060006 		li	a2,96
 254 01d2 8945     		li	a1,2
 255 01d4 37050040 		li	a0,1073741824
 256 01d8 97000000 		call	timer_channel_output_mode_config
 256      E7800000 
 257              	.LVL24:
  70:servo.c       ****         timer_channel_output_shadow_config(TIMER1,TIMER_CH_2,TIMER_OC_SHADOW_DISABLE);
 258              		.loc 1 70 9
 259 01e0 0146     		li	a2,0
 260 01e2 8945     		li	a1,2
 261 01e4 37050040 		li	a0,1073741824
 262 01e8 97000000 		call	timer_channel_output_shadow_config
 262      E7800000 
 263              	.LVL25:
 264              	.L12:
  71:servo.c       ****     }
  72:servo.c       ****     if (ch&0x8) {
 265              		.loc 1 72 5
 266              		.loc 1 72 8 is_stmt 0
 267 01f0 05CC     		beq	s0,zero,.L13
  73:servo.c       ****         timer_channel_output_pulse_value_config(TIMER1,TIMER_CH_3,11999);
 268              		.loc 1 73 9 is_stmt 1
 269 01f2 0D66     		li	a2,12288
 270 01f4 1306F6ED 		addi	a2,a2,-289
 271 01f8 8D45     		li	a1,3
 272 01fa 37050040 		li	a0,1073741824
 273 01fe 97000000 		call	timer_channel_output_pulse_value_config
 273      E7800000 
 274              	.LVL26:
  74:servo.c       ****         timer_channel_output_mode_config(TIMER1,TIMER_CH_3,TIMER_OC_MODE_PWM0);
 275              		.loc 1 74 9
 276 0206 13060006 		li	a2,96
 277 020a 8D45     		li	a1,3
 278 020c 37050040 		li	a0,1073741824
 279 0210 97000000 		call	timer_channel_output_mode_config
 279      E7800000 
 280              	.LVL27:
  75:servo.c       ****         timer_channel_output_shadow_config(TIMER1,TIMER_CH_3,TIMER_OC_SHADOW_DISABLE);
 281              		.loc 1 75 9
 282 0218 0146     		li	a2,0
 283 021a 8D45     		li	a1,3
 284 021c 37050040 		li	a0,1073741824
 285 0220 97000000 		call	timer_channel_output_shadow_config
 285      E7800000 
GAS LISTING C:\Users\Karzan\AppData\Local\Temp\ccRxzLoE.s 			page 8


 286              	.LVL28:
 287              	.L13:
  76:servo.c       ****     }
  77:servo.c       ****     
  78:servo.c       ****     timer_auto_reload_shadow_enable(TIMER1);
 288              		.loc 1 78 5
 289 0228 37050040 		li	a0,1073741824
 290 022c 97000000 		call	timer_auto_reload_shadow_enable
 290      E7800000 
 291              	.LVL29:
  79:servo.c       ****     timer_enable(TIMER1);
 292              		.loc 1 79 5
 293 0234 37050040 		li	a0,1073741824
 294 0238 97000000 		call	timer_enable
 294      E7800000 
 295              	.LVL30:
  80:servo.c       **** }
 296              		.loc 1 80 1 is_stmt 0
 297 0240 F250     		lw	ra,60(sp)
 298              		.cfi_restore 1
 299 0242 6254     		lw	s0,56(sp)
 300              		.cfi_restore 8
 301 0244 D254     		lw	s1,52(sp)
 302              		.cfi_restore 9
 303 0246 4259     		lw	s2,48(sp)
 304              		.cfi_restore 18
 305 0248 B259     		lw	s3,44(sp)
 306              		.cfi_restore 19
 307 024a 2161     		addi	sp,sp,64
 308              	.LCFI1:
 309              		.cfi_def_cfa_offset 0
 310 024c 8280     		jr	ra
 311              		.cfi_endproc
 312              	.LFE2:
 314              		.section	.text.__init_servo,"ax",@progbits
 315              		.align	1
 316              		.globl	__init_servo
 318              	__init_servo:
 319              	.LFB3:
  81:servo.c       **** 
  82:servo.c       **** // intitialize servo struct based on timer channel
  83:servo.c       **** Servo __init_servo(uint16_t ch){
 320              		.loc 1 83 32 is_stmt 1
 321              		.cfi_startproc
 322              	.LVL31:
  84:servo.c       ****     Servo init_servo = { .channel=ch, .val=-1 };
 323              		.loc 1 84 5
  85:servo.c       ****     return init_servo;           
 324              		.loc 1 85 5
  83:servo.c       ****     Servo init_servo = { .channel=ch, .val=-1 };
 325              		.loc 1 83 32 is_stmt 0
 326 0000 4111     		addi	sp,sp,-16
 327              	.LCFI2:
 328              		.cfi_def_cfa_offset 16
 329              		.loc 1 85 12
 330 0002 2314A100 		sh	a0,8(sp)
 331              	.LVL32:
GAS LISTING C:\Users\Karzan\AppData\Local\Temp\ccRxzLoE.s 			page 9


  86:servo.c       **** }
 332              		.loc 1 86 1
 333 0006 2245     		lw	a0,8(sp)
 334              	.LVL33:
 335 0008 FD55     		li	a1,-1
 336 000a 4101     		addi	sp,sp,16
 337              	.LCFI3:
 338              		.cfi_def_cfa_offset 0
 339              	.LVL34:
 340 000c 8280     		jr	ra
 341              		.cfi_endproc
 342              	.LFE3:
 344              		.section	.text.servo_write,"ax",@progbits
 345              		.align	1
 346              		.globl	servo_write
 348              	servo_write:
 349              	.LFB4:
  87:servo.c       **** 
  88:servo.c       **** // sets the servo to a specified angle between from 0 to max degrees from timer1
  89:servo.c       **** void servo_write(Servo motor){
 350              		.loc 1 89 30 is_stmt 1
 351              		.cfi_startproc
 352              	.LVL35:
  90:servo.c       ****     if (motor.val >= 0 && motor.val <= SERVO_MAX_DEG){
 353              		.loc 1 90 5
  89:servo.c       ****     if (motor.val >= 0 && motor.val <= SERVO_MAX_DEG){
 354              		.loc 1 89 30 is_stmt 0
 355 0000 4111     		addi	sp,sp,-16
 356              	.LCFI4:
 357              		.cfi_def_cfa_offset 16
  89:servo.c       ****     if (motor.val >= 0 && motor.val <= SERVO_MAX_DEG){
 358              		.loc 1 89 30
 359 0002 2AC4     		sw	a0,8(sp)
 360              		.loc 1 90 8
 361 0004 1306400B 		li	a2,180
 362 0008 6363B602 		bgtu	a1,a2,.L53
  91:servo.c       ****         // send the corresponding PWM value of the angle 
  92:servo.c       ****         /* < Koden når här men servo rör sig inte om 2 stycken är initierade >*/
  93:servo.c       ****         timer_channel_output_pulse_value_config(TIMER1, motor.channel, 
 363              		.loc 1 93 9 is_stmt 1
 364              	.LVL36:
 365              	.LBB4:
 366              	.LBB5:
  94:servo.c       ****                                                 map(motor.val, 0, SERVO_MAX_DEG, SERVO_MIN_VAL, SER
  95:servo.c       ****         //timer_channel_output_pulse_value_config(TIMER1,TIMER_CH_2, map(angle, 0, SERVO_MAX_DEG, S
  96:servo.c       ****     }
  97:servo.c       **** }
  98:servo.c       **** 
  99:servo.c       **** // remap a value from one range to the other
 100:servo.c       **** uint32_t map(int value, int inMin, int inMax, int outMin, int outMax){               
 101:servo.c       ****     return (value - inMin) * (outMax - outMin) / (inMax - inMin) + outMin;
 367              		.loc 1 101 5
 368              		.loc 1 101 28 is_stmt 0
 369 000c 9307C076 		li	a5,1900
 370 0010 B385F502 		mul	a1,a1,a5
 371              	.LVL37:
 372              	.LBE5:
GAS LISTING C:\Users\Karzan\AppData\Local\Temp\ccRxzLoE.s 			page 10


 373              	.LBE4:
  93:servo.c       ****                                                 map(motor.val, 0, SERVO_MAX_DEG, SERVO_MIN_VAL, SER
 374              		.loc 1 93 9
 375 0014 37050040 		li	a0,1073741824
 376              	.LBB7:
 377              	.LBB6:
 378              		.loc 1 101 48
 379 0018 33C6C502 		div	a2,a1,a2
 380              	.LBE6:
 381              	.LBE7:
  93:servo.c       ****                                                 map(motor.val, 0, SERVO_MAX_DEG, SERVO_MIN_VAL, SER
 382              		.loc 1 93 9
 383 001c 83558100 		lhu	a1,8(sp)
  97:servo.c       **** 
 384              		.loc 1 97 1
 385 0020 4101     		addi	sp,sp,16
 386              	.LCFI5:
 387              		.cfi_remember_state
 388              		.cfi_def_cfa_offset 0
  93:servo.c       ****                                                 map(motor.val, 0, SERVO_MAX_DEG, SERVO_MIN_VAL, SER
 389              		.loc 1 93 9
 390 0022 1306461F 		addi	a2,a2,500
 391 0026 17030000 		tail	timer_channel_output_pulse_value_config
 391      67000300 
 392              	.LVL38:
 393              	.L53:
 394              	.LCFI6:
 395              		.cfi_restore_state
  97:servo.c       **** 
 396              		.loc 1 97 1
 397 002e 4101     		addi	sp,sp,16
 398              	.LCFI7:
 399              		.cfi_def_cfa_offset 0
 400 0030 8280     		jr	ra
 401              		.cfi_endproc
 402              	.LFE4:
 404              		.section	.text.map,"ax",@progbits
 405              		.align	1
 406              		.globl	map
 408              	map:
 409              	.LFB5:
 100:servo.c       ****     return (value - inMin) * (outMax - outMin) / (inMax - inMin) + outMin;
 410              		.loc 1 100 70 is_stmt 1
 411              		.cfi_startproc
 412              	.LVL39:
 413              		.loc 1 101 5
 414              		.loc 1 101 19 is_stmt 0
 415 0000 0D8D     		sub	a0,a0,a1
 416              	.LVL40:
 417              		.loc 1 101 38
 418 0002 158F     		sub	a4,a4,a3
 419              	.LVL41:
 420              		.loc 1 101 28
 421 0004 3305E502 		mul	a0,a0,a4
 422              		.loc 1 101 57
 423 0008 0D8E     		sub	a2,a2,a1
 424              	.LVL42:
GAS LISTING C:\Users\Karzan\AppData\Local\Temp\ccRxzLoE.s 			page 11


 425              		.loc 1 101 48
 426 000a 3345C502 		div	a0,a0,a2
 102:servo.c       **** }...
 427              		.loc 1 102 1
 428 000e 3695     		add	a0,a0,a3
 429 0010 8280     		ret
 430              		.cfi_endproc
 431              	.LFE5:
 433              		.text
 434              	.Letext0:
 435              		.file 2 "c:\\users\\karzan\\downloads\\toolchain-gd32v-v202-win\\toolchain-gd32v-v202-win\\compile
 436              		.file 3 "c:\\users\\karzan\\downloads\\toolchain-gd32v-v202-win\\toolchain-gd32v-v202-win\\compile
 437              		.file 4 "./../../firmware/GD32VF103_standard_peripheral/Include/gd32vf103_timer.h"
 438              		.file 5 "servo.h"
 439              		.file 6 "./../../firmware/GD32VF103_standard_peripheral/Include/gd32vf103_rcu.h"
 440              		.file 7 "./../../firmware/GD32VF103_standard_peripheral/Include/gd32vf103_gpio.h"
 441              		.file 8 "./../../firmware/GD32VF103_standard_peripheral/system_gd32vf103.h"
GAS LISTING C:\Users\Karzan\AppData\Local\Temp\ccRxzLoE.s 			page 12

