GAS LISTING C:\Users\Karzan\AppData\Local\Temp\ccfo3ttS.s 			page 1


   1              		.file	"usart.c"
   2              		.option nopic
   3              		.attribute arch, "rv32i2p0_m2p0_a2p0_c2p0"
   4              		.attribute unaligned_access, 0
   5              		.attribute stack_align, 16
   6              		.text
   7              	.Ltext0:
   8              		.cfi_sections	.debug_frame
   9              		.section	.text.u0_TX_Queue,"ax",@progbits
  10              		.align	1
  11              		.globl	u0_TX_Queue
  13              	u0_TX_Queue:
  14              	.LFB2:
  15              		.file 1 "usart.c"
   1:usart.c       **** #include "gd32vf103.h"
   2:usart.c       **** #include "usart.h" 
   3:usart.c       **** #include "eclicw.h"   
   4:usart.c       **** 
   5:usart.c       **** int txr=0, txw=0, txq[256]={0};                     // 256 Byte wr queue
   6:usart.c       **** 
   7:usart.c       **** void u0_TX_Queue(void){
  16              		.loc 1 7 23
  17              		.cfi_startproc
   8:usart.c       ****     if (txr!=txw) {                                 // Buffer empty?
  18              		.loc 1 8 5
   7:usart.c       ****     if (txr!=txw) {                                 // Buffer empty?
  19              		.loc 1 7 23 is_stmt 0
  20 0000 4111     		addi	sp,sp,-16
  21              	.LCFI0:
  22              		.cfi_def_cfa_offset 16
  23 0002 22C4     		sw	s0,8(sp)
  24              		.cfi_offset 8, -8
  25              		.loc 1 8 12
  26 0004 37040000 		lui	s0,%hi(.LANCHOR0)
  27 0008 13040400 		addi	s0,s0,%lo(.LANCHOR0)
  28              		.loc 1 8 8
  29 000c B7070000 		lui	a5,%hi(.LANCHOR1)
  30 0010 1840     		lw	a4,0(s0)
  31 0012 83A70700 		lw	a5,%lo(.LANCHOR1)(a5)
   7:usart.c       ****     if (txr!=txw) {                                 // Buffer empty?
  32              		.loc 1 7 23
  33 0016 06C6     		sw	ra,12(sp)
  34 0018 26C2     		sw	s1,4(sp)
  35              		.cfi_offset 1, -4
  36              		.cfi_offset 9, -12
  37              		.loc 1 8 8
  38 001a 6309F704 		beq	a4,a5,.L2
   9:usart.c       ****        if (usart_flag_get(USART0,USART_FLAG_TBE)) { // ...no! Device redy?
  39              		.loc 1 9 8 is_stmt 1
  40              		.loc 1 9 12 is_stmt 0
  41 001e B7440140 		li	s1,1073823744
  42 0022 9D45     		li	a1,7
  43 0024 13850480 		addi	a0,s1,-2048
  44 0028 97000000 		call	usart_flag_get
  44      E7800000 
  45              	.LVL0:
  46              		.loc 1 9 11
GAS LISTING C:\Users\Karzan\AppData\Local\Temp\ccfo3ttS.s 			page 2


  47 0030 0DC9     		beq	a0,zero,.L1
  48              	.LBB4:
  49              	.LBB5:
  10:usart.c       ****           usart_data_transmit(USART0, txq[txr++]);  //        Yes Write!
  50              		.loc 1 10 11 is_stmt 1
  51              		.loc 1 10 46 is_stmt 0
  52 0032 1C40     		lw	a5,0(s0)
  53              		.loc 1 10 11
  54 0034 13850480 		addi	a0,s1,-2048
  55              		.loc 1 10 46
  56 0038 13871700 		addi	a4,a5,1
  57 003c 18C0     		sw	a4,0(s0)
  58              		.loc 1 10 42
  59 003e 13972700 		slli	a4,a5,2
  60 0042 B7070000 		lui	a5,%hi(.LANCHOR2)
  61 0046 93870700 		addi	a5,a5,%lo(.LANCHOR2)
  62 004a BA97     		add	a5,a5,a4
  63              		.loc 1 10 11
  64 004c 8C43     		lw	a1,0(a5)
  65 004e 97000000 		call	usart_data_transmit
  65      E7800000 
  66              	.LVL1:
  11:usart.c       ****           txr%=256;                                 //            wrap around.
  67              		.loc 1 11 11 is_stmt 1
  68              		.loc 1 11 14 is_stmt 0
  69 0056 1C40     		lw	a5,0(s0)
  70 0058 13070010 		li	a4,256
  71 005c B3E7E702 		rem	a5,a5,a4
  72 0060 1CC0     		sw	a5,0(s0)
  73              	.L1:
  74              	.LBE5:
  75              	.LBE4:
  12:usart.c       ****         }                                           //        No! Return!
  13:usart.c       ****     } else 
  14:usart.c       ****        usart_interrupt_disable(USART0, USART_INT_TBE);
  15:usart.c       **** }
  76              		.loc 1 15 1
  77 0062 B240     		lw	ra,12(sp)
  78              		.cfi_remember_state
  79              		.cfi_restore 1
  80 0064 2244     		lw	s0,8(sp)
  81              		.cfi_restore 8
  82 0066 9244     		lw	s1,4(sp)
  83              		.cfi_restore 9
  84 0068 4101     		addi	sp,sp,16
  85              	.LCFI1:
  86              		.cfi_def_cfa_offset 0
  87 006a 8280     		jr	ra
  88              	.L2:
  89              	.LCFI2:
  90              		.cfi_restore_state
  14:usart.c       **** }
  91              		.loc 1 14 8 is_stmt 1
  92              		.loc 1 15 1 is_stmt 0
  93 006c 2244     		lw	s0,8(sp)
  94              		.cfi_restore 8
  95 006e B240     		lw	ra,12(sp)
GAS LISTING C:\Users\Karzan\AppData\Local\Temp\ccfo3ttS.s 			page 3


  96              		.cfi_restore 1
  97 0070 9244     		lw	s1,4(sp)
  98              		.cfi_restore 9
  14:usart.c       **** }
  99              		.loc 1 14 8
 100 0072 37450140 		li	a0,1073823744
 101              		.loc 1 15 1
  14:usart.c       **** }
 102              		.loc 1 14 8
 103 0076 93057030 		li	a1,775
 104 007a 13050580 		addi	a0,a0,-2048
 105              		.loc 1 15 1
 106 007e 4101     		addi	sp,sp,16
 107              	.LCFI3:
 108              		.cfi_def_cfa_offset 0
  14:usart.c       **** }
 109              		.loc 1 14 8
 110 0080 17030000 		tail	usart_interrupt_disable
 110      67000300 
 111              	.LVL2:
 112              		.cfi_endproc
 113              	.LFE2:
 115              		.section	.text.putch,"ax",@progbits
 116              		.align	1
 117              		.globl	putch
 119              	putch:
 120              	.LFB3:
  16:usart.c       **** 
  17:usart.c       **** void putch(char ch){
 121              		.loc 1 17 20 is_stmt 1
 122              		.cfi_startproc
 123              	.LVL3:
  18:usart.c       ****    while (((txw+1)%256)==txr) u0_TX_Queue(); //If buffer full then spin...
 124              		.loc 1 18 4
  17:usart.c       ****    while (((txw+1)%256)==txr) u0_TX_Queue(); //If buffer full then spin...
 125              		.loc 1 17 20 is_stmt 0
 126 0000 0111     		addi	sp,sp,-32
 127              	.LCFI4:
 128              		.cfi_def_cfa_offset 32
 129 0002 22CC     		sw	s0,24(sp)
 130 0004 26CA     		sw	s1,20(sp)
 131 0006 4AC8     		sw	s2,16(sp)
 132 0008 06CE     		sw	ra,28(sp)
 133              		.cfi_offset 8, -8
 134              		.cfi_offset 9, -12
 135              		.cfi_offset 18, -16
 136              		.cfi_offset 1, -4
 137              		.loc 1 18 16
 138 000a 37090000 		lui	s2,%hi(.LANCHOR1)
 139              		.loc 1 18 19
 140 000e 93040010 		li	s1,256
 141              		.loc 1 18 24
 142 0012 37040000 		lui	s0,%hi(.LANCHOR0)
 143              	.LVL4:
 144              	.L9:
 145              		.loc 1 18 16 discriminator 1
 146 0016 13060900 		addi	a2,s2,%lo(.LANCHOR1)
GAS LISTING C:\Users\Karzan\AppData\Local\Temp\ccfo3ttS.s 			page 4


 147 001a 1C42     		lw	a5,0(a2)
 148              		.loc 1 18 10 discriminator 1
 149 001c 83260400 		lw	a3,%lo(.LANCHOR0)(s0)
 150              		.loc 1 18 16 discriminator 1
 151 0020 13871700 		addi	a4,a5,1
 152              		.loc 1 18 19 discriminator 1
 153 0024 33679702 		rem	a4,a4,s1
 154              		.loc 1 18 10 discriminator 1
 155 0028 630AD702 		beq	a4,a3,.L10
  19:usart.c       ****    txq[txw++]=ch;                            //...If/when not then store data...
 156              		.loc 1 19 4 is_stmt 1
 157              		.loc 1 19 14 is_stmt 0
 158 002c 93962700 		slli	a3,a5,2
 159 0030 B7070000 		lui	a5,%hi(.LANCHOR2)
  20:usart.c       ****    txw%=256;                                 //...and advance write index!
  21:usart.c       ****    usart_interrupt_enable(USART0, USART_INT_TBE);
  22:usart.c       **** }
 160              		.loc 1 22 1
 161 0034 6244     		lw	s0,24(sp)
 162              		.cfi_remember_state
 163              		.cfi_restore 8
  19:usart.c       ****    txq[txw++]=ch;                            //...If/when not then store data...
 164              		.loc 1 19 14
 165 0036 93870700 		addi	a5,a5,%lo(.LANCHOR2)
 166              		.loc 1 22 1
 167 003a F240     		lw	ra,28(sp)
 168              		.cfi_restore 1
 169 003c D244     		lw	s1,20(sp)
 170              		.cfi_restore 9
 171 003e 4249     		lw	s2,16(sp)
 172              		.cfi_restore 18
  19:usart.c       ****    txq[txw++]=ch;                            //...If/when not then store data...
 173              		.loc 1 19 14
 174 0040 B697     		add	a5,a5,a3
 175 0042 88C3     		sw	a0,0(a5)
  20:usart.c       ****    txw%=256;                                 //...and advance write index!
 176              		.loc 1 20 4 is_stmt 1
  20:usart.c       ****    txw%=256;                                 //...and advance write index!
 177              		.loc 1 20 7 is_stmt 0
 178 0044 18C2     		sw	a4,0(a2)
  21:usart.c       **** }
 179              		.loc 1 21 4 is_stmt 1
 180 0046 37450140 		li	a0,1073823744
 181              		.loc 1 22 1 is_stmt 0
  21:usart.c       **** }
 182              		.loc 1 21 4
 183 004a 93057030 		li	a1,775
 184 004e 13050580 		addi	a0,a0,-2048
 185              		.loc 1 22 1
 186 0052 0561     		addi	sp,sp,32
 187              	.LCFI5:
 188              		.cfi_def_cfa_offset 0
  21:usart.c       **** }
 189              		.loc 1 21 4
 190 0054 17030000 		tail	usart_interrupt_enable
 190      67000300 
 191              	.LVL5:
GAS LISTING C:\Users\Karzan\AppData\Local\Temp\ccfo3ttS.s 			page 5


 192              	.L10:
 193              	.LCFI6:
 194              		.cfi_restore_state
 195 005c 2AC6     		sw	a0,12(sp)
  18:usart.c       ****    txq[txw++]=ch;                            //...If/when not then store data...
 196              		.loc 1 18 31 is_stmt 1 discriminator 2
 197 005e 97000000 		call	u0_TX_Queue
 197      E7800000 
 198              	.LVL6:
 199 0066 3245     		lw	a0,12(sp)
 200 0068 7DB7     		j	.L9
 201              		.cfi_endproc
 202              	.LFE3:
 204              		.section	.text.putstr,"ax",@progbits
 205              		.align	1
 206              		.globl	putstr
 208              	putstr:
 209              	.LFB4:
  23:usart.c       **** /*
  24:usart.c       **** void putch(char ch){
  25:usart.c       ****   while (!usart_flag_get(USART0,USART_FLAG_TBE)); // Spin util buffer empty!
  26:usart.c       ****   usart_data_transmit(USART0, ch);                // USART0 TX!
  27:usart.c       **** }
  28:usart.c       **** */
  29:usart.c       **** void putstr(char str[]){
 210              		.loc 1 29 24
 211              		.cfi_startproc
 212              	.LVL7:
 213 0000 4111     		addi	sp,sp,-16
 214              	.LCFI7:
 215              		.cfi_def_cfa_offset 16
 216 0002 22C4     		sw	s0,8(sp)
 217 0004 06C6     		sw	ra,12(sp)
 218              		.cfi_offset 8, -8
 219              		.cfi_offset 1, -4
 220 0006 2A84     		mv	s0,a0
  30:usart.c       ****   while (*str) putch(*str++);
 221              		.loc 1 30 3
 222              	.LVL8:
 223              	.L13:
 224              		.loc 1 30 10 is_stmt 0 discriminator 1
 225 0008 03450400 		lbu	a0,0(s0)
 226              		.loc 1 30 9 discriminator 1
 227 000c 09E5     		bne	a0,zero,.L14
  31:usart.c       **** }
 228              		.loc 1 31 1
 229 000e B240     		lw	ra,12(sp)
 230              		.cfi_remember_state
 231              		.cfi_restore 1
 232 0010 2244     		lw	s0,8(sp)
 233              		.cfi_restore 8
 234              	.LVL9:
 235 0012 4101     		addi	sp,sp,16
 236              	.LCFI8:
 237              		.cfi_def_cfa_offset 0
 238 0014 8280     		jr	ra
 239              	.LVL10:
GAS LISTING C:\Users\Karzan\AppData\Local\Temp\ccfo3ttS.s 			page 6


 240              	.L14:
 241              	.LCFI9:
 242              		.cfi_restore_state
  30:usart.c       ****   while (*str) putch(*str++);
 243              		.loc 1 30 16 is_stmt 1 discriminator 2
  30:usart.c       ****   while (*str) putch(*str++);
 244              		.loc 1 30 26 is_stmt 0 discriminator 2
 245 0016 0504     		addi	s0,s0,1
 246              	.LVL11:
  30:usart.c       ****   while (*str) putch(*str++);
 247              		.loc 1 30 16 discriminator 2
 248 0018 97000000 		call	putch
 248      E7800000 
 249              	.LVL12:
 250 0020 E5B7     		j	.L13
 251              		.cfi_endproc
 252              	.LFE4:
 254              		.section	.text.u0init,"ax",@progbits
 255              		.align	1
 256              		.globl	u0init
 258              	u0init:
 259              	.LFB5:
  32:usart.c       **** 
  33:usart.c       **** void u0init(int enable){
 260              		.loc 1 33 24 is_stmt 1
 261              		.cfi_startproc
 262              	.LVL13:
  34:usart.c       ****     rcu_periph_clock_enable(RCU_GPIOA);
 263              		.loc 1 34 5
  33:usart.c       ****     rcu_periph_clock_enable(RCU_GPIOA);
 264              		.loc 1 33 24 is_stmt 0
 265 0000 4111     		addi	sp,sp,-16
 266              	.LCFI10:
 267              		.cfi_def_cfa_offset 16
 268 0002 26C2     		sw	s1,4(sp)
 269              		.cfi_offset 9, -12
 270 0004 AA84     		mv	s1,a0
 271              		.loc 1 34 5
 272 0006 13052060 		li	a0,1538
 273              	.LVL14:
  33:usart.c       ****     rcu_periph_clock_enable(RCU_GPIOA);
 274              		.loc 1 33 24
 275 000a 06C6     		sw	ra,12(sp)
 276 000c 22C4     		sw	s0,8(sp)
 277              		.cfi_offset 1, -4
 278              		.cfi_offset 8, -8
 279              		.loc 1 34 5
 280 000e 97000000 		call	rcu_periph_clock_enable
 280      E7800000 
 281              	.LVL15:
  35:usart.c       ****     gpio_init(GPIOA, GPIO_MODE_AF_PP, GPIO_OSPEED_50MHZ, GPIO_PIN_9);
 282              		.loc 1 35 5 is_stmt 1
 283 0016 37140140 		li	s0,1073811456
 284 001a 13050480 		addi	a0,s0,-2048
 285 001e 93060020 		li	a3,512
 286 0022 0D46     		li	a2,3
 287 0024 E145     		li	a1,24
GAS LISTING C:\Users\Karzan\AppData\Local\Temp\ccfo3ttS.s 			page 7


 288 0026 97000000 		call	gpio_init
 288      E7800000 
 289              	.LVL16:
  36:usart.c       ****     gpio_init(GPIOA, GPIO_MODE_IN_FLOATING, GPIO_OSPEED_50MHZ, GPIO_PIN_10);
 290              		.loc 1 36 5
 291 002e 93060040 		li	a3,1024
 292 0032 0D46     		li	a2,3
 293 0034 9145     		li	a1,4
 294 0036 13050480 		addi	a0,s0,-2048
 295 003a 97000000 		call	gpio_init
 295      E7800000 
 296              	.LVL17:
  37:usart.c       **** 
  38:usart.c       ****     rcu_periph_clock_enable(RCU_USART0);
 297              		.loc 1 38 5
 298 0042 1305E060 		li	a0,1550
  39:usart.c       ****     usart_deinit(USART0);
 299              		.loc 1 39 5 is_stmt 0
 300 0046 37440140 		li	s0,1073823744
  38:usart.c       ****     usart_deinit(USART0);
 301              		.loc 1 38 5
 302 004a 97000000 		call	rcu_periph_clock_enable
 302      E7800000 
 303              	.LVL18:
 304              		.loc 1 39 5 is_stmt 1
 305 0052 13050480 		addi	a0,s0,-2048
 306 0056 97000000 		call	usart_deinit
 306      E7800000 
 307              	.LVL19:
  40:usart.c       ****     usart_baudrate_set(USART0, 9600);
 308              		.loc 1 40 5
 309 005e 8965     		li	a1,8192
 310 0060 93850558 		addi	a1,a1,1408
 311 0064 13050480 		addi	a0,s0,-2048
 312 0068 97000000 		call	usart_baudrate_set
 312      E7800000 
 313              	.LVL20:
  41:usart.c       ****     usart_parity_config(USART0, USART_PM_NONE);
 314              		.loc 1 41 5
 315 0070 8145     		li	a1,0
 316 0072 13050480 		addi	a0,s0,-2048
 317 0076 97000000 		call	usart_parity_config
 317      E7800000 
 318              	.LVL21:
  42:usart.c       ****     usart_word_length_set(USART0, USART_WL_8BIT);
 319              		.loc 1 42 5
 320 007e 8145     		li	a1,0
 321 0080 13050480 		addi	a0,s0,-2048
 322 0084 97000000 		call	usart_word_length_set
 322      E7800000 
 323              	.LVL22:
  43:usart.c       ****     usart_stop_bit_set(USART0,USART_STB_2BIT);
 324              		.loc 1 43 5
 325 008c 8965     		li	a1,8192
 326 008e 13050480 		addi	a0,s0,-2048
 327 0092 97000000 		call	usart_stop_bit_set
 327      E7800000 
GAS LISTING C:\Users\Karzan\AppData\Local\Temp\ccfo3ttS.s 			page 8


 328              	.LVL23:
  44:usart.c       ****     usart_hardware_flow_rts_config(USART0, USART_RTS_DISABLE);
 329              		.loc 1 44 5
 330 009a 8145     		li	a1,0
 331 009c 13050480 		addi	a0,s0,-2048
 332 00a0 97000000 		call	usart_hardware_flow_rts_config
 332      E7800000 
 333              	.LVL24:
  45:usart.c       ****     usart_hardware_flow_cts_config(USART0, USART_CTS_DISABLE);
 334              		.loc 1 45 5
 335 00a8 8145     		li	a1,0
 336 00aa 13050480 		addi	a0,s0,-2048
 337 00ae 97000000 		call	usart_hardware_flow_cts_config
 337      E7800000 
 338              	.LVL25:
  46:usart.c       ****     usart_enable(USART0);
 339              		.loc 1 46 5
 340 00b6 13050480 		addi	a0,s0,-2048
 341 00ba 97000000 		call	usart_enable
 341      E7800000 
 342              	.LVL26:
  47:usart.c       ****     usart_transmit_config(USART0,USART_TRANSMIT_ENABLE);
 343              		.loc 1 47 5
 344 00c2 A145     		li	a1,8
 345 00c4 13050480 		addi	a0,s0,-2048
 346 00c8 97000000 		call	usart_transmit_config
 346      E7800000 
 347              	.LVL27:
  48:usart.c       ****     usart_receive_config(USART0,USART_RECEIVE_ENABLE);
 348              		.loc 1 48 5
 349 00d0 9145     		li	a1,4
 350 00d2 13050480 		addi	a0,s0,-2048
 351 00d6 97000000 		call	usart_receive_config
 351      E7800000 
 352              	.LVL28:
  49:usart.c       **** 
  50:usart.c       ****     if (enable) {
 353              		.loc 1 50 5
 354              		.loc 1 50 8 is_stmt 0
 355 00de 8DC0     		beq	s1,zero,.L16
  51:usart.c       ****         eclicw_enable(USART0_IRQn, 3, 1, &u0_TX_Queue);
 356              		.loc 1 51 9 is_stmt 1
  52:usart.c       ****     }
  53:usart.c       **** }...
 357              		.loc 1 53 1 is_stmt 0
 358 00e0 2244     		lw	s0,8(sp)
 359              		.cfi_remember_state
 360              		.cfi_restore 8
 361 00e2 B240     		lw	ra,12(sp)
 362              		.cfi_restore 1
 363 00e4 9244     		lw	s1,4(sp)
 364              		.cfi_restore 9
 365              	.LVL29:
  51:usart.c       ****         eclicw_enable(USART0_IRQn, 3, 1, &u0_TX_Queue);
 366              		.loc 1 51 9
 367 00e6 B7060000 		lui	a3,%hi(u0_TX_Queue)
 368              		.loc 1 53 1
GAS LISTING C:\Users\Karzan\AppData\Local\Temp\ccfo3ttS.s 			page 9


  51:usart.c       ****         eclicw_enable(USART0_IRQn, 3, 1, &u0_TX_Queue);
 369              		.loc 1 51 9
 370 00ea 93860600 		addi	a3,a3,%lo(u0_TX_Queue)
 371 00ee 0546     		li	a2,1
 372 00f0 8D45     		li	a1,3
 373 00f2 13058003 		li	a0,56
 374              		.loc 1 53 1
 375 00f6 4101     		addi	sp,sp,16
 376              	.LCFI11:
 377              		.cfi_def_cfa_offset 0
  51:usart.c       ****         eclicw_enable(USART0_IRQn, 3, 1, &u0_TX_Queue);
 378              		.loc 1 51 9
 379 00f8 17030000 		tail	eclicw_enable
 379      67000300 
 380              	.LVL30:
 381              	.L16:
 382              	.LCFI12:
 383              		.cfi_restore_state
 384              		.loc 1 53 1
 385 0100 B240     		lw	ra,12(sp)
 386              		.cfi_restore 1
 387 0102 2244     		lw	s0,8(sp)
 388              		.cfi_restore 8
 389 0104 9244     		lw	s1,4(sp)
 390              		.cfi_restore 9
 391              	.LVL31:
 392 0106 4101     		addi	sp,sp,16
 393              	.LCFI13:
 394              		.cfi_def_cfa_offset 0
 395 0108 8280     		jr	ra
 396              		.cfi_endproc
 397              	.LFE5:
 399              		.globl	txq
 400              		.globl	txw
 401              		.globl	txr
 402              		.section	.bss.txq,"aw",@nobits
 403              		.align	2
 404              		.set	.LANCHOR2,. + 0
 407              	txq:
 408 0000 00000000 		.zero	1024
 408      00000000 
 408      00000000 
 408      00000000 
 408      00000000 
 409              		.section	.sbss.txr,"aw",@nobits
 410              		.align	2
 411              		.set	.LANCHOR0,. + 0
 414              	txr:
 415 0000 00000000 		.zero	4
 416              		.section	.sbss.txw,"aw",@nobits
 417              		.align	2
 418              		.set	.LANCHOR1,. + 0
 421              	txw:
 422 0000 00000000 		.zero	4
 423              		.text
 424              	.Letext0:
 425              		.file 2 "c:\\users\\karzan\\downloads\\toolchain-gd32v-v202-win\\toolchain-gd32v-v202-win\\compile
GAS LISTING C:\Users\Karzan\AppData\Local\Temp\ccfo3ttS.s 			page 10


 426              		.file 3 "c:\\users\\karzan\\downloads\\toolchain-gd32v-v202-win\\toolchain-gd32v-v202-win\\compile
 427              		.file 4 "./../../firmware/GD32VF103_standard_peripheral/Include/gd32vf103_rcu.h"
 428              		.file 5 "./../../firmware/GD32VF103_standard_peripheral/Include/gd32vf103_usart.h"
 429              		.file 6 "./../../firmware/GD32VF103_standard_peripheral/Include/gd32vf103_gpio.h"
 430              		.file 7 "eclicw.h"
 431              		.file 8 "./../../firmware/GD32VF103_standard_peripheral/gd32vf103.h"
 432              		.file 9 "./../../firmware/GD32VF103_standard_peripheral/system_gd32vf103.h"
GAS LISTING C:\Users\Karzan\AppData\Local\Temp\ccfo3ttS.s 			page 11


DEFINED SYMBOLS
                            *ABS*:0000000000000000 usart.c
C:\Users\Karzan\AppData\Local\Temp\ccfo3ttS.s:13     .text.u0_TX_Queue:0000000000000000 u0_TX_Queue
C:\Users\Karzan\AppData\Local\Temp\ccfo3ttS.s:17     .text.u0_TX_Queue:0000000000000000 .L0 
C:\Users\Karzan\AppData\Local\Temp\ccfo3ttS.s:18     .text.u0_TX_Queue:0000000000000000 .L0 
C:\Users\Karzan\AppData\Local\Temp\ccfo3ttS.s:19     .text.u0_TX_Queue:0000000000000000 .L0 
C:\Users\Karzan\AppData\Local\Temp\ccfo3ttS.s:20     .text.u0_TX_Queue:0000000000000000 .L0 
C:\Users\Karzan\AppData\Local\Temp\ccfo3ttS.s:22     .text.u0_TX_Queue:0000000000000002 .L0 
C:\Users\Karzan\AppData\Local\Temp\ccfo3ttS.s:24     .text.u0_TX_Queue:0000000000000004 .L0 
C:\Users\Karzan\AppData\Local\Temp\ccfo3ttS.s:26     .text.u0_TX_Queue:0000000000000004 .L0 
C:\Users\Karzan\AppData\Local\Temp\ccfo3ttS.s:29     .text.u0_TX_Queue:000000000000000c .L0 
C:\Users\Karzan\AppData\Local\Temp\ccfo3ttS.s:33     .text.u0_TX_Queue:0000000000000016 .L0 
C:\Users\Karzan\AppData\Local\Temp\ccfo3ttS.s:35     .text.u0_TX_Queue:000000000000001a .L0 
C:\Users\Karzan\AppData\Local\Temp\ccfo3ttS.s:36     .text.u0_TX_Queue:000000000000001a .L0 
C:\Users\Karzan\AppData\Local\Temp\ccfo3ttS.s:38     .text.u0_TX_Queue:000000000000001a .L0 
C:\Users\Karzan\AppData\Local\Temp\ccfo3ttS.s:40     .text.u0_TX_Queue:000000000000001e .L0 
C:\Users\Karzan\AppData\Local\Temp\ccfo3ttS.s:41     .text.u0_TX_Queue:000000000000001e .L0 
C:\Users\Karzan\AppData\Local\Temp\ccfo3ttS.s:47     .text.u0_TX_Queue:0000000000000030 .L0 
C:\Users\Karzan\AppData\Local\Temp\ccfo3ttS.s:51     .text.u0_TX_Queue:0000000000000032 .L0 
C:\Users\Karzan\AppData\Local\Temp\ccfo3ttS.s:52     .text.u0_TX_Queue:0000000000000032 .L0 
C:\Users\Karzan\AppData\Local\Temp\ccfo3ttS.s:54     .text.u0_TX_Queue:0000000000000034 .L0 
C:\Users\Karzan\AppData\Local\Temp\ccfo3ttS.s:56     .text.u0_TX_Queue:0000000000000038 .L0 
C:\Users\Karzan\AppData\Local\Temp\ccfo3ttS.s:59     .text.u0_TX_Queue:000000000000003e .L0 
C:\Users\Karzan\AppData\Local\Temp\ccfo3ttS.s:64     .text.u0_TX_Queue:000000000000004c .L0 
C:\Users\Karzan\AppData\Local\Temp\ccfo3ttS.s:68     .text.u0_TX_Queue:0000000000000056 .L0 
C:\Users\Karzan\AppData\Local\Temp\ccfo3ttS.s:69     .text.u0_TX_Queue:0000000000000056 .L0 
C:\Users\Karzan\AppData\Local\Temp\ccfo3ttS.s:77     .text.u0_TX_Queue:0000000000000062 .L0 
C:\Users\Karzan\AppData\Local\Temp\ccfo3ttS.s:78     .text.u0_TX_Queue:0000000000000064 .L0 
C:\Users\Karzan\AppData\Local\Temp\ccfo3ttS.s:79     .text.u0_TX_Queue:0000000000000064 .L0 
C:\Users\Karzan\AppData\Local\Temp\ccfo3ttS.s:81     .text.u0_TX_Queue:0000000000000066 .L0 
C:\Users\Karzan\AppData\Local\Temp\ccfo3ttS.s:83     .text.u0_TX_Queue:0000000000000068 .L0 
C:\Users\Karzan\AppData\Local\Temp\ccfo3ttS.s:86     .text.u0_TX_Queue:000000000000006a .L0 
C:\Users\Karzan\AppData\Local\Temp\ccfo3ttS.s:90     .text.u0_TX_Queue:000000000000006c .L0 
C:\Users\Karzan\AppData\Local\Temp\ccfo3ttS.s:92     .text.u0_TX_Queue:000000000000006c .L0 
C:\Users\Karzan\AppData\Local\Temp\ccfo3ttS.s:93     .text.u0_TX_Queue:000000000000006c .L0 
C:\Users\Karzan\AppData\Local\Temp\ccfo3ttS.s:94     .text.u0_TX_Queue:000000000000006e .L0 
C:\Users\Karzan\AppData\Local\Temp\ccfo3ttS.s:96     .text.u0_TX_Queue:0000000000000070 .L0 
C:\Users\Karzan\AppData\Local\Temp\ccfo3ttS.s:98     .text.u0_TX_Queue:0000000000000072 .L0 
C:\Users\Karzan\AppData\Local\Temp\ccfo3ttS.s:100    .text.u0_TX_Queue:0000000000000072 .L0 
C:\Users\Karzan\AppData\Local\Temp\ccfo3ttS.s:102    .text.u0_TX_Queue:0000000000000076 .L0 
C:\Users\Karzan\AppData\Local\Temp\ccfo3ttS.s:103    .text.u0_TX_Queue:0000000000000076 .L0 
C:\Users\Karzan\AppData\Local\Temp\ccfo3ttS.s:106    .text.u0_TX_Queue:000000000000007e .L0 
C:\Users\Karzan\AppData\Local\Temp\ccfo3ttS.s:108    .text.u0_TX_Queue:0000000000000080 .L0 
C:\Users\Karzan\AppData\Local\Temp\ccfo3ttS.s:110    .text.u0_TX_Queue:0000000000000080 .L0 
C:\Users\Karzan\AppData\Local\Temp\ccfo3ttS.s:112    .text.u0_TX_Queue:0000000000000088 .L0 
C:\Users\Karzan\AppData\Local\Temp\ccfo3ttS.s:119    .text.putch:0000000000000000 putch
C:\Users\Karzan\AppData\Local\Temp\ccfo3ttS.s:122    .text.putch:0000000000000000 .L0 
C:\Users\Karzan\AppData\Local\Temp\ccfo3ttS.s:124    .text.putch:0000000000000000 .L0 
C:\Users\Karzan\AppData\Local\Temp\ccfo3ttS.s:125    .text.putch:0000000000000000 .L0 
C:\Users\Karzan\AppData\Local\Temp\ccfo3ttS.s:126    .text.putch:0000000000000000 .L0 
C:\Users\Karzan\AppData\Local\Temp\ccfo3ttS.s:128    .text.putch:0000000000000002 .L0 
C:\Users\Karzan\AppData\Local\Temp\ccfo3ttS.s:133    .text.putch:000000000000000a .L0 
C:\Users\Karzan\AppData\Local\Temp\ccfo3ttS.s:134    .text.putch:000000000000000a .L0 
C:\Users\Karzan\AppData\Local\Temp\ccfo3ttS.s:135    .text.putch:000000000000000a .L0 
C:\Users\Karzan\AppData\Local\Temp\ccfo3ttS.s:136    .text.putch:000000000000000a .L0 
C:\Users\Karzan\AppData\Local\Temp\ccfo3ttS.s:138    .text.putch:000000000000000a .L0 
C:\Users\Karzan\AppData\Local\Temp\ccfo3ttS.s:140    .text.putch:000000000000000e .L0 
GAS LISTING C:\Users\Karzan\AppData\Local\Temp\ccfo3ttS.s 			page 12


C:\Users\Karzan\AppData\Local\Temp\ccfo3ttS.s:142    .text.putch:0000000000000012 .L0 
C:\Users\Karzan\AppData\Local\Temp\ccfo3ttS.s:146    .text.putch:0000000000000016 .L0 
C:\Users\Karzan\AppData\Local\Temp\ccfo3ttS.s:149    .text.putch:000000000000001c .L0 
C:\Users\Karzan\AppData\Local\Temp\ccfo3ttS.s:151    .text.putch:0000000000000020 .L0 
C:\Users\Karzan\AppData\Local\Temp\ccfo3ttS.s:153    .text.putch:0000000000000024 .L0 
C:\Users\Karzan\AppData\Local\Temp\ccfo3ttS.s:155    .text.putch:0000000000000028 .L0 
C:\Users\Karzan\AppData\Local\Temp\ccfo3ttS.s:157    .text.putch:000000000000002c .L0 
C:\Users\Karzan\AppData\Local\Temp\ccfo3ttS.s:158    .text.putch:000000000000002c .L0 
C:\Users\Karzan\AppData\Local\Temp\ccfo3ttS.s:161    .text.putch:0000000000000034 .L0 
C:\Users\Karzan\AppData\Local\Temp\ccfo3ttS.s:162    .text.putch:0000000000000036 .L0 
C:\Users\Karzan\AppData\Local\Temp\ccfo3ttS.s:163    .text.putch:0000000000000036 .L0 
C:\Users\Karzan\AppData\Local\Temp\ccfo3ttS.s:165    .text.putch:0000000000000036 .L0 
C:\Users\Karzan\AppData\Local\Temp\ccfo3ttS.s:167    .text.putch:000000000000003a .L0 
C:\Users\Karzan\AppData\Local\Temp\ccfo3ttS.s:168    .text.putch:000000000000003c .L0 
C:\Users\Karzan\AppData\Local\Temp\ccfo3ttS.s:170    .text.putch:000000000000003e .L0 
C:\Users\Karzan\AppData\Local\Temp\ccfo3ttS.s:172    .text.putch:0000000000000040 .L0 
C:\Users\Karzan\AppData\Local\Temp\ccfo3ttS.s:174    .text.putch:0000000000000040 .L0 
C:\Users\Karzan\AppData\Local\Temp\ccfo3ttS.s:177    .text.putch:0000000000000044 .L0 
C:\Users\Karzan\AppData\Local\Temp\ccfo3ttS.s:178    .text.putch:0000000000000044 .L0 
C:\Users\Karzan\AppData\Local\Temp\ccfo3ttS.s:180    .text.putch:0000000000000046 .L0 
C:\Users\Karzan\AppData\Local\Temp\ccfo3ttS.s:182    .text.putch:000000000000004a .L0 
C:\Users\Karzan\AppData\Local\Temp\ccfo3ttS.s:183    .text.putch:000000000000004a .L0 
C:\Users\Karzan\AppData\Local\Temp\ccfo3ttS.s:186    .text.putch:0000000000000052 .L0 
C:\Users\Karzan\AppData\Local\Temp\ccfo3ttS.s:188    .text.putch:0000000000000054 .L0 
C:\Users\Karzan\AppData\Local\Temp\ccfo3ttS.s:190    .text.putch:0000000000000054 .L0 
C:\Users\Karzan\AppData\Local\Temp\ccfo3ttS.s:194    .text.putch:000000000000005c .L0 
C:\Users\Karzan\AppData\Local\Temp\ccfo3ttS.s:197    .text.putch:000000000000005e .L0 
C:\Users\Karzan\AppData\Local\Temp\ccfo3ttS.s:201    .text.putch:000000000000006a .L0 
C:\Users\Karzan\AppData\Local\Temp\ccfo3ttS.s:208    .text.putstr:0000000000000000 putstr
C:\Users\Karzan\AppData\Local\Temp\ccfo3ttS.s:211    .text.putstr:0000000000000000 .L0 
C:\Users\Karzan\AppData\Local\Temp\ccfo3ttS.s:213    .text.putstr:0000000000000000 .L0 
C:\Users\Karzan\AppData\Local\Temp\ccfo3ttS.s:215    .text.putstr:0000000000000002 .L0 
C:\Users\Karzan\AppData\Local\Temp\ccfo3ttS.s:218    .text.putstr:0000000000000006 .L0 
C:\Users\Karzan\AppData\Local\Temp\ccfo3ttS.s:219    .text.putstr:0000000000000006 .L0 
C:\Users\Karzan\AppData\Local\Temp\ccfo3ttS.s:224    .text.putstr:0000000000000008 .L0 
C:\Users\Karzan\AppData\Local\Temp\ccfo3ttS.s:225    .text.putstr:0000000000000008 .L0 
C:\Users\Karzan\AppData\Local\Temp\ccfo3ttS.s:227    .text.putstr:000000000000000c .L0 
C:\Users\Karzan\AppData\Local\Temp\ccfo3ttS.s:229    .text.putstr:000000000000000e .L0 
C:\Users\Karzan\AppData\Local\Temp\ccfo3ttS.s:230    .text.putstr:0000000000000010 .L0 
C:\Users\Karzan\AppData\Local\Temp\ccfo3ttS.s:231    .text.putstr:0000000000000010 .L0 
C:\Users\Karzan\AppData\Local\Temp\ccfo3ttS.s:233    .text.putstr:0000000000000012 .L0 
C:\Users\Karzan\AppData\Local\Temp\ccfo3ttS.s:237    .text.putstr:0000000000000014 .L0 
C:\Users\Karzan\AppData\Local\Temp\ccfo3ttS.s:242    .text.putstr:0000000000000016 .L0 
C:\Users\Karzan\AppData\Local\Temp\ccfo3ttS.s:244    .text.putstr:0000000000000016 .L0 
C:\Users\Karzan\AppData\Local\Temp\ccfo3ttS.s:245    .text.putstr:0000000000000016 .L0 
C:\Users\Karzan\AppData\Local\Temp\ccfo3ttS.s:248    .text.putstr:0000000000000018 .L0 
C:\Users\Karzan\AppData\Local\Temp\ccfo3ttS.s:251    .text.putstr:0000000000000022 .L0 
C:\Users\Karzan\AppData\Local\Temp\ccfo3ttS.s:258    .text.u0init:0000000000000000 u0init
C:\Users\Karzan\AppData\Local\Temp\ccfo3ttS.s:261    .text.u0init:0000000000000000 .L0 
C:\Users\Karzan\AppData\Local\Temp\ccfo3ttS.s:263    .text.u0init:0000000000000000 .L0 
C:\Users\Karzan\AppData\Local\Temp\ccfo3ttS.s:264    .text.u0init:0000000000000000 .L0 
C:\Users\Karzan\AppData\Local\Temp\ccfo3ttS.s:265    .text.u0init:0000000000000000 .L0 
C:\Users\Karzan\AppData\Local\Temp\ccfo3ttS.s:267    .text.u0init:0000000000000002 .L0 
C:\Users\Karzan\AppData\Local\Temp\ccfo3ttS.s:269    .text.u0init:0000000000000004 .L0 
C:\Users\Karzan\AppData\Local\Temp\ccfo3ttS.s:272    .text.u0init:0000000000000006 .L0 
C:\Users\Karzan\AppData\Local\Temp\ccfo3ttS.s:275    .text.u0init:000000000000000a .L0 
C:\Users\Karzan\AppData\Local\Temp\ccfo3ttS.s:277    .text.u0init:000000000000000e .L0 
GAS LISTING C:\Users\Karzan\AppData\Local\Temp\ccfo3ttS.s 			page 13


C:\Users\Karzan\AppData\Local\Temp\ccfo3ttS.s:278    .text.u0init:000000000000000e .L0 
C:\Users\Karzan\AppData\Local\Temp\ccfo3ttS.s:280    .text.u0init:000000000000000e .L0 
C:\Users\Karzan\AppData\Local\Temp\ccfo3ttS.s:283    .text.u0init:0000000000000016 .L0 
C:\Users\Karzan\AppData\Local\Temp\ccfo3ttS.s:291    .text.u0init:000000000000002e .L0 
C:\Users\Karzan\AppData\Local\Temp\ccfo3ttS.s:298    .text.u0init:0000000000000042 .L0 
C:\Users\Karzan\AppData\Local\Temp\ccfo3ttS.s:300    .text.u0init:0000000000000046 .L0 
C:\Users\Karzan\AppData\Local\Temp\ccfo3ttS.s:302    .text.u0init:000000000000004a .L0 
C:\Users\Karzan\AppData\Local\Temp\ccfo3ttS.s:305    .text.u0init:0000000000000052 .L0 
C:\Users\Karzan\AppData\Local\Temp\ccfo3ttS.s:309    .text.u0init:000000000000005e .L0 
C:\Users\Karzan\AppData\Local\Temp\ccfo3ttS.s:315    .text.u0init:0000000000000070 .L0 
C:\Users\Karzan\AppData\Local\Temp\ccfo3ttS.s:320    .text.u0init:000000000000007e .L0 
C:\Users\Karzan\AppData\Local\Temp\ccfo3ttS.s:325    .text.u0init:000000000000008c .L0 
C:\Users\Karzan\AppData\Local\Temp\ccfo3ttS.s:330    .text.u0init:000000000000009a .L0 
C:\Users\Karzan\AppData\Local\Temp\ccfo3ttS.s:335    .text.u0init:00000000000000a8 .L0 
C:\Users\Karzan\AppData\Local\Temp\ccfo3ttS.s:340    .text.u0init:00000000000000b6 .L0 
C:\Users\Karzan\AppData\Local\Temp\ccfo3ttS.s:344    .text.u0init:00000000000000c2 .L0 
C:\Users\Karzan\AppData\Local\Temp\ccfo3ttS.s:349    .text.u0init:00000000000000d0 .L0 
C:\Users\Karzan\AppData\Local\Temp\ccfo3ttS.s:354    .text.u0init:00000000000000de .L0 
C:\Users\Karzan\AppData\Local\Temp\ccfo3ttS.s:355    .text.u0init:00000000000000de .L0 
C:\Users\Karzan\AppData\Local\Temp\ccfo3ttS.s:357    .text.u0init:00000000000000e0 .L0 
C:\Users\Karzan\AppData\Local\Temp\ccfo3ttS.s:358    .text.u0init:00000000000000e0 .L0 
C:\Users\Karzan\AppData\Local\Temp\ccfo3ttS.s:359    .text.u0init:00000000000000e2 .L0 
C:\Users\Karzan\AppData\Local\Temp\ccfo3ttS.s:360    .text.u0init:00000000000000e2 .L0 
C:\Users\Karzan\AppData\Local\Temp\ccfo3ttS.s:362    .text.u0init:00000000000000e4 .L0 
C:\Users\Karzan\AppData\Local\Temp\ccfo3ttS.s:364    .text.u0init:00000000000000e6 .L0 
C:\Users\Karzan\AppData\Local\Temp\ccfo3ttS.s:367    .text.u0init:00000000000000e6 .L0 
C:\Users\Karzan\AppData\Local\Temp\ccfo3ttS.s:369    .text.u0init:00000000000000ea .L0 
C:\Users\Karzan\AppData\Local\Temp\ccfo3ttS.s:370    .text.u0init:00000000000000ea .L0 
C:\Users\Karzan\AppData\Local\Temp\ccfo3ttS.s:375    .text.u0init:00000000000000f6 .L0 
C:\Users\Karzan\AppData\Local\Temp\ccfo3ttS.s:377    .text.u0init:00000000000000f8 .L0 
C:\Users\Karzan\AppData\Local\Temp\ccfo3ttS.s:379    .text.u0init:00000000000000f8 .L0 
C:\Users\Karzan\AppData\Local\Temp\ccfo3ttS.s:383    .text.u0init:0000000000000100 .L0 
C:\Users\Karzan\AppData\Local\Temp\ccfo3ttS.s:385    .text.u0init:0000000000000100 .L0 
C:\Users\Karzan\AppData\Local\Temp\ccfo3ttS.s:386    .text.u0init:0000000000000102 .L0 
C:\Users\Karzan\AppData\Local\Temp\ccfo3ttS.s:388    .text.u0init:0000000000000104 .L0 
C:\Users\Karzan\AppData\Local\Temp\ccfo3ttS.s:390    .text.u0init:0000000000000106 .L0 
C:\Users\Karzan\AppData\Local\Temp\ccfo3ttS.s:394    .text.u0init:0000000000000108 .L0 
C:\Users\Karzan\AppData\Local\Temp\ccfo3ttS.s:396    .text.u0init:000000000000010a .L0 
C:\Users\Karzan\AppData\Local\Temp\ccfo3ttS.s:407    .bss.txq:0000000000000000 txq
C:\Users\Karzan\AppData\Local\Temp\ccfo3ttS.s:421    .sbss.txw:0000000000000000 txw
C:\Users\Karzan\AppData\Local\Temp\ccfo3ttS.s:414    .sbss.txr:0000000000000000 txr
C:\Users\Karzan\AppData\Local\Temp\ccfo3ttS.s:404    .bss.txq:0000000000000000 .LANCHOR2
C:\Users\Karzan\AppData\Local\Temp\ccfo3ttS.s:411    .sbss.txr:0000000000000000 .LANCHOR0
C:\Users\Karzan\AppData\Local\Temp\ccfo3ttS.s:418    .sbss.txw:0000000000000000 .LANCHOR1
C:\Users\Karzan\AppData\Local\Temp\ccfo3ttS.s:115    .text.u0_TX_Queue:0000000000000088 .L0 
C:\Users\Karzan\AppData\Local\Temp\ccfo3ttS.s:204    .text.putch:000000000000006a .L0 
C:\Users\Karzan\AppData\Local\Temp\ccfo3ttS.s:254    .text.putstr:0000000000000022 .L0 
C:\Users\Karzan\AppData\Local\Temp\ccfo3ttS.s:402    .text.u0init:000000000000010a .L0 
                     .debug_frame:0000000000000000 .L0 
C:\Users\Karzan\AppData\Local\Temp\ccfo3ttS.s:88     .text.u0_TX_Queue:000000000000006c .L2
C:\Users\Karzan\AppData\Local\Temp\ccfo3ttS.s:73     .text.u0_TX_Queue:0000000000000062 .L1
C:\Users\Karzan\AppData\Local\Temp\ccfo3ttS.s:192    .text.putch:000000000000005c .L10
C:\Users\Karzan\AppData\Local\Temp\ccfo3ttS.s:144    .text.putch:0000000000000016 .L9
C:\Users\Karzan\AppData\Local\Temp\ccfo3ttS.s:240    .text.putstr:0000000000000016 .L14
C:\Users\Karzan\AppData\Local\Temp\ccfo3ttS.s:223    .text.putstr:0000000000000008 .L13
C:\Users\Karzan\AppData\Local\Temp\ccfo3ttS.s:381    .text.u0init:0000000000000100 .L16
C:\Users\Karzan\AppData\Local\Temp\ccfo3ttS.s:1513   .debug_abbrev:0000000000000000 .Ldebug_abbrev0
GAS LISTING C:\Users\Karzan\AppData\Local\Temp\ccfo3ttS.s 			page 14


C:\Users\Karzan\AppData\Local\Temp\ccfo3ttS.s:2336   .debug_str:00000000000005ae .LASF158
C:\Users\Karzan\AppData\Local\Temp\ccfo3ttS.s:2246   .debug_str:0000000000000375 .LASF159
C:\Users\Karzan\AppData\Local\Temp\ccfo3ttS.s:2208   .debug_str:0000000000000225 .LASF160
C:\Users\Karzan\AppData\Local\Temp\ccfo3ttS.s:2112   .debug_ranges:0000000000000000 .Ldebug_ranges0
C:\Users\Karzan\AppData\Local\Temp\ccfo3ttS.s:2124   .debug_line:0000000000000000 .Ldebug_line0
C:\Users\Karzan\AppData\Local\Temp\ccfo3ttS.s:2328   .debug_str:000000000000057c .LASF161
C:\Users\Karzan\AppData\Local\Temp\ccfo3ttS.s:2330   .debug_str:0000000000000581 .LASF0
C:\Users\Karzan\AppData\Local\Temp\ccfo3ttS.s:2350   .debug_str:000000000000067d .LASF1
C:\Users\Karzan\AppData\Local\Temp\ccfo3ttS.s:2288   .debug_str:0000000000000468 .LASF2
C:\Users\Karzan\AppData\Local\Temp\ccfo3ttS.s:2358   .debug_str:00000000000006bf .LASF3
C:\Users\Karzan\AppData\Local\Temp\ccfo3ttS.s:2300   .debug_str:00000000000004ad .LASF4
C:\Users\Karzan\AppData\Local\Temp\ccfo3ttS.s:2434   .debug_str:00000000000008ca .LASF5
C:\Users\Karzan\AppData\Local\Temp\ccfo3ttS.s:2168   .debug_str:000000000000011b .LASF6
C:\Users\Karzan\AppData\Local\Temp\ccfo3ttS.s:2448   .debug_str:0000000000000939 .LASF7
C:\Users\Karzan\AppData\Local\Temp\ccfo3ttS.s:2340   .debug_str:0000000000000641 .LASF8
C:\Users\Karzan\AppData\Local\Temp\ccfo3ttS.s:2198   .debug_str:00000000000001e0 .LASF9
C:\Users\Karzan\AppData\Local\Temp\ccfo3ttS.s:2286   .debug_str:000000000000045b .LASF10
C:\Users\Karzan\AppData\Local\Temp\ccfo3ttS.s:2154   .debug_str:00000000000000cd .LASF11
C:\Users\Karzan\AppData\Local\Temp\ccfo3ttS.s:2366   .debug_str:00000000000006ed .LASF12
C:\Users\Karzan\AppData\Local\Temp\ccfo3ttS.s:2222   .debug_str:00000000000002ce .LASF13
C:\Users\Karzan\AppData\Local\Temp\ccfo3ttS.s:2432   .debug_str:00000000000008bf .LASF14
C:\Users\Karzan\AppData\Local\Temp\ccfo3ttS.s:2292   .debug_str:0000000000000481 .LASF15
C:\Users\Karzan\AppData\Local\Temp\ccfo3ttS.s:2428   .debug_str:0000000000000899 .LASF16
C:\Users\Karzan\AppData\Local\Temp\ccfo3ttS.s:2238   .debug_str:000000000000032f .LASF17
C:\Users\Karzan\AppData\Local\Temp\ccfo3ttS.s:2150   .debug_str:00000000000000ae .LASF18
C:\Users\Karzan\AppData\Local\Temp\ccfo3ttS.s:2356   .debug_str:00000000000006ac .LASF19
C:\Users\Karzan\AppData\Local\Temp\ccfo3ttS.s:2186   .debug_str:000000000000019a .LASF20
C:\Users\Karzan\AppData\Local\Temp\ccfo3ttS.s:2420   .debug_str:000000000000085a .LASF21
C:\Users\Karzan\AppData\Local\Temp\ccfo3ttS.s:2284   .debug_str:0000000000000448 .LASF22
C:\Users\Karzan\AppData\Local\Temp\ccfo3ttS.s:2146   .debug_str:0000000000000095 .LASF23
C:\Users\Karzan\AppData\Local\Temp\ccfo3ttS.s:2206   .debug_str:0000000000000218 .LASF24
C:\Users\Karzan\AppData\Local\Temp\ccfo3ttS.s:2226   .debug_str:00000000000002e4 .LASF25
C:\Users\Karzan\AppData\Local\Temp\ccfo3ttS.s:2138   .debug_str:0000000000000062 .LASF26
C:\Users\Karzan\AppData\Local\Temp\ccfo3ttS.s:2386   .debug_str:000000000000076e .LASF27
C:\Users\Karzan\AppData\Local\Temp\ccfo3ttS.s:2376   .debug_str:000000000000072e .LASF28
C:\Users\Karzan\AppData\Local\Temp\ccfo3ttS.s:2408   .debug_str:000000000000080b .LASF29
C:\Users\Karzan\AppData\Local\Temp\ccfo3ttS.s:2302   .debug_str:00000000000004bc .LASF30
C:\Users\Karzan\AppData\Local\Temp\ccfo3ttS.s:2442   .debug_str:00000000000008ff .LASF31
C:\Users\Karzan\AppData\Local\Temp\ccfo3ttS.s:2134   .debug_str:000000000000003e .LASF32
C:\Users\Karzan\AppData\Local\Temp\ccfo3ttS.s:2152   .debug_str:00000000000000c1 .LASF33
C:\Users\Karzan\AppData\Local\Temp\ccfo3ttS.s:2360   .debug_str:00000000000006cd .LASF34
C:\Users\Karzan\AppData\Local\Temp\ccfo3ttS.s:2218   .debug_str:00000000000002b1 .LASF35
C:\Users\Karzan\AppData\Local\Temp\ccfo3ttS.s:2398   .debug_str:00000000000007d3 .LASF36
C:\Users\Karzan\AppData\Local\Temp\ccfo3ttS.s:2256   .debug_str:00000000000003a9 .LASF37
C:\Users\Karzan\AppData\Local\Temp\ccfo3ttS.s:2316   .debug_str:0000000000000529 .LASF38
C:\Users\Karzan\AppData\Local\Temp\ccfo3ttS.s:2372   .debug_str:000000000000070f .LASF39
C:\Users\Karzan\AppData\Local\Temp\ccfo3ttS.s:2310   .debug_str:00000000000004fe .LASF40
C:\Users\Karzan\AppData\Local\Temp\ccfo3ttS.s:2180   .debug_str:0000000000000166 .LASF41
C:\Users\Karzan\AppData\Local\Temp\ccfo3ttS.s:2164   .debug_str:0000000000000104 .LASF42
C:\Users\Karzan\AppData\Local\Temp\ccfo3ttS.s:2348   .debug_str:0000000000000671 .LASF43
C:\Users\Karzan\AppData\Local\Temp\ccfo3ttS.s:2200   .debug_str:00000000000001e9 .LASF44
C:\Users\Karzan\AppData\Local\Temp\ccfo3ttS.s:2342   .debug_str:000000000000064a .LASF45
C:\Users\Karzan\AppData\Local\Temp\ccfo3ttS.s:2344   .debug_str:0000000000000659 .LASF46
C:\Users\Karzan\AppData\Local\Temp\ccfo3ttS.s:2380   .debug_str:000000000000074e .LASF47
C:\Users\Karzan\AppData\Local\Temp\ccfo3ttS.s:2178   .debug_str:000000000000015c .LASF48
C:\Users\Karzan\AppData\Local\Temp\ccfo3ttS.s:2426   .debug_str:000000000000088d .LASF49
C:\Users\Karzan\AppData\Local\Temp\ccfo3ttS.s:2406   .debug_str:0000000000000801 .LASF50
GAS LISTING C:\Users\Karzan\AppData\Local\Temp\ccfo3ttS.s 			page 15


C:\Users\Karzan\AppData\Local\Temp\ccfo3ttS.s:2280   .debug_str:000000000000042e .LASF51
C:\Users\Karzan\AppData\Local\Temp\ccfo3ttS.s:2166   .debug_str:0000000000000110 .LASF52
C:\Users\Karzan\AppData\Local\Temp\ccfo3ttS.s:2290   .debug_str:0000000000000475 .LASF53
C:\Users\Karzan\AppData\Local\Temp\ccfo3ttS.s:2170   .debug_str:0000000000000124 .LASF54
C:\Users\Karzan\AppData\Local\Temp\ccfo3ttS.s:2378   .debug_str:000000000000073b .LASF55
C:\Users\Karzan\AppData\Local\Temp\ccfo3ttS.s:2236   .debug_str:000000000000031c .LASF56
C:\Users\Karzan\AppData\Local\Temp\ccfo3ttS.s:2144   .debug_str:0000000000000082 .LASF57
C:\Users\Karzan\AppData\Local\Temp\ccfo3ttS.s:2312   .debug_str:0000000000000508 .LASF58
C:\Users\Karzan\AppData\Local\Temp\ccfo3ttS.s:2182   .debug_str:0000000000000170 .LASF59
C:\Users\Karzan\AppData\Local\Temp\ccfo3ttS.s:2322   .debug_str:0000000000000553 .LASF60
C:\Users\Karzan\AppData\Local\Temp\ccfo3ttS.s:2334   .debug_str:00000000000005a0 .LASF61
C:\Users\Karzan\AppData\Local\Temp\ccfo3ttS.s:2194   .debug_str:00000000000001cb .LASF62
C:\Users\Karzan\AppData\Local\Temp\ccfo3ttS.s:2294   .debug_str:000000000000048c .LASF63
C:\Users\Karzan\AppData\Local\Temp\ccfo3ttS.s:2248   .debug_str:000000000000037d .LASF64
C:\Users\Karzan\AppData\Local\Temp\ccfo3ttS.s:2394   .debug_str:00000000000007b1 .LASF65
C:\Users\Karzan\AppData\Local\Temp\ccfo3ttS.s:2148   .debug_str:00000000000000a1 .LASF66
C:\Users\Karzan\AppData\Local\Temp\ccfo3ttS.s:2244   .debug_str:0000000000000369 .LASF67
C:\Users\Karzan\AppData\Local\Temp\ccfo3ttS.s:2416   .debug_str:0000000000000845 .LASF72
C:\Users\Karzan\AppData\Local\Temp\ccfo3ttS.s:2400   .debug_str:00000000000007e0 .LASF68
C:\Users\Karzan\AppData\Local\Temp\ccfo3ttS.s:2158   .debug_str:00000000000000e1 .LASF69
C:\Users\Karzan\AppData\Local\Temp\ccfo3ttS.s:2430   .debug_str:00000000000008ac .LASF70
C:\Users\Karzan\AppData\Local\Temp\ccfo3ttS.s:2346   .debug_str:0000000000000668 .LASF71
C:\Users\Karzan\AppData\Local\Temp\ccfo3ttS.s:2404   .debug_str:00000000000007f6 .LASF73
C:\Users\Karzan\AppData\Local\Temp\ccfo3ttS.s:2374   .debug_str:000000000000071c .LASF74
C:\Users\Karzan\AppData\Local\Temp\ccfo3ttS.s:2264   .debug_str:00000000000003d4 .LASF75
C:\Users\Karzan\AppData\Local\Temp\ccfo3ttS.s:2184   .debug_str:0000000000000183 .LASF76
C:\Users\Karzan\AppData\Local\Temp\ccfo3ttS.s:2242   .debug_str:0000000000000361 .LASF77
C:\Users\Karzan\AppData\Local\Temp\ccfo3ttS.s:2174   .debug_str:0000000000000143 .LASF78
C:\Users\Karzan\AppData\Local\Temp\ccfo3ttS.s:2326   .debug_str:000000000000056c .LASF135
C:\Users\Karzan\AppData\Local\Temp\ccfo3ttS.s:2140   .debug_str:0000000000000070 .LASF79
C:\Users\Karzan\AppData\Local\Temp\ccfo3ttS.s:2142   .debug_str:0000000000000079 .LASF80
C:\Users\Karzan\AppData\Local\Temp\ccfo3ttS.s:2450   .debug_str:0000000000000945 .LASF81
C:\Users\Karzan\AppData\Local\Temp\ccfo3ttS.s:2384   .debug_str:0000000000000765 .LASF82
C:\Users\Karzan\AppData\Local\Temp\ccfo3ttS.s:2422   .debug_str:000000000000086d .LASF83
C:\Users\Karzan\AppData\Local\Temp\ccfo3ttS.s:2250   .debug_str:0000000000000388 .LASF84
C:\Users\Karzan\AppData\Local\Temp\ccfo3ttS.s:2252   .debug_str:0000000000000393 .LASF85
C:\Users\Karzan\AppData\Local\Temp\ccfo3ttS.s:2254   .debug_str:000000000000039e .LASF86
C:\Users\Karzan\AppData\Local\Temp\ccfo3ttS.s:2190   .debug_str:00000000000001b8 .LASF87
C:\Users\Karzan\AppData\Local\Temp\ccfo3ttS.s:2258   .debug_str:00000000000003b6 .LASF88
C:\Users\Karzan\AppData\Local\Temp\ccfo3ttS.s:2260   .debug_str:00000000000003c1 .LASF89
C:\Users\Karzan\AppData\Local\Temp\ccfo3ttS.s:2216   .debug_str:00000000000002a7 .LASF90
C:\Users\Karzan\AppData\Local\Temp\ccfo3ttS.s:2230   .debug_str:00000000000002fb .LASF91
C:\Users\Karzan\AppData\Local\Temp\ccfo3ttS.s:2232   .debug_str:0000000000000304 .LASF92
C:\Users\Karzan\AppData\Local\Temp\ccfo3ttS.s:2338   .debug_str:0000000000000636 .LASF93
C:\Users\Karzan\AppData\Local\Temp\ccfo3ttS.s:2418   .debug_str:000000000000084f .LASF94
C:\Users\Karzan\AppData\Local\Temp\ccfo3ttS.s:2362   .debug_str:00000000000006d9 .LASF95
C:\Users\Karzan\AppData\Local\Temp\ccfo3ttS.s:2364   .debug_str:00000000000006e3 .LASF96
C:\Users\Karzan\AppData\Local\Temp\ccfo3ttS.s:2212   .debug_str:0000000000000295 .LASF97
C:\Users\Karzan\AppData\Local\Temp\ccfo3ttS.s:2214   .debug_str:000000000000029e .LASF98
C:\Users\Karzan\AppData\Local\Temp\ccfo3ttS.s:2296   .debug_str:000000000000049b .LASF99
C:\Users\Karzan\AppData\Local\Temp\ccfo3ttS.s:2298   .debug_str:00000000000004a4 .LASF100
C:\Users\Karzan\AppData\Local\Temp\ccfo3ttS.s:2156   .debug_str:00000000000000d8 .LASF101
C:\Users\Karzan\AppData\Local\Temp\ccfo3ttS.s:2402   .debug_str:00000000000007ee .LASF102
C:\Users\Karzan\AppData\Local\Temp\ccfo3ttS.s:2192   .debug_str:00000000000001c3 .LASF103
C:\Users\Karzan\AppData\Local\Temp\ccfo3ttS.s:2262   .debug_str:00000000000003cc .LASF104
C:\Users\Karzan\AppData\Local\Temp\ccfo3ttS.s:2392   .debug_str:00000000000007aa .LASF105
C:\Users\Karzan\AppData\Local\Temp\ccfo3ttS.s:2266   .debug_str:00000000000003e2 .LASF106
GAS LISTING C:\Users\Karzan\AppData\Local\Temp\ccfo3ttS.s 			page 16


C:\Users\Karzan\AppData\Local\Temp\ccfo3ttS.s:2268   .debug_str:00000000000003ec .LASF107
C:\Users\Karzan\AppData\Local\Temp\ccfo3ttS.s:2270   .debug_str:00000000000003f6 .LASF108
C:\Users\Karzan\AppData\Local\Temp\ccfo3ttS.s:2272   .debug_str:0000000000000400 .LASF109
C:\Users\Karzan\AppData\Local\Temp\ccfo3ttS.s:2274   .debug_str:000000000000040a .LASF110
C:\Users\Karzan\AppData\Local\Temp\ccfo3ttS.s:2412   .debug_str:0000000000000833 .LASF111
C:\Users\Karzan\AppData\Local\Temp\ccfo3ttS.s:2414   .debug_str:000000000000083c .LASF112
C:\Users\Karzan\AppData\Local\Temp\ccfo3ttS.s:2188   .debug_str:00000000000001ad .LASF113
C:\Users\Karzan\AppData\Local\Temp\ccfo3ttS.s:2228   .debug_str:00000000000002f2 .LASF114
C:\Users\Karzan\AppData\Local\Temp\ccfo3ttS.s:2224   .debug_str:00000000000002d9 .LASF115
C:\Users\Karzan\AppData\Local\Temp\ccfo3ttS.s:2162   .debug_str:00000000000000f5 .LASF116
C:\Users\Karzan\AppData\Local\Temp\ccfo3ttS.s:2282   .debug_str:0000000000000439 .LASF117
C:\Users\Karzan\AppData\Local\Temp\ccfo3ttS.s:2352   .debug_str:000000000000068a .LASF118
C:\Users\Karzan\AppData\Local\Temp\ccfo3ttS.s:2444   .debug_str:0000000000000913 .LASF119
C:\Users\Karzan\AppData\Local\Temp\ccfo3ttS.s:2306   .debug_str:00000000000004df .LASF120
C:\Users\Karzan\AppData\Local\Temp\ccfo3ttS.s:2210   .debug_str:0000000000000285 .LASF121
C:\Users\Karzan\AppData\Local\Temp\ccfo3ttS.s:2220   .debug_str:00000000000002bd .LASF122
C:\Users\Karzan\AppData\Local\Temp\ccfo3ttS.s:2136   .debug_str:0000000000000052 .LASF123
C:\Users\Karzan\AppData\Local\Temp\ccfo3ttS.s:2368   .debug_str:00000000000006f8 .LASF124
C:\Users\Karzan\AppData\Local\Temp\ccfo3ttS.s:2176   .debug_str:000000000000014c .LASF125
C:\Users\Karzan\AppData\Local\Temp\ccfo3ttS.s:2234   .debug_str:000000000000030d .LASF126
C:\Users\Karzan\AppData\Local\Temp\ccfo3ttS.s:2276   .debug_str:0000000000000414 .LASF127
C:\Users\Karzan\AppData\Local\Temp\ccfo3ttS.s:2396   .debug_str:00000000000007c6 .LASF128
C:\Users\Karzan\AppData\Local\Temp\ccfo3ttS.s:2318   .debug_str:0000000000000536 .LASF129
C:\Users\Karzan\AppData\Local\Temp\ccfo3ttS.s:2308   .debug_str:00000000000004ef .LASF130
C:\Users\Karzan\AppData\Local\Temp\ccfo3ttS.s:2204   .debug_str:000000000000020a .LASF131
C:\Users\Karzan\AppData\Local\Temp\ccfo3ttS.s:2440   .debug_str:00000000000008f1 .LASF132
C:\Users\Karzan\AppData\Local\Temp\ccfo3ttS.s:2320   .debug_str:0000000000000545 .LASF133
C:\Users\Karzan\AppData\Local\Temp\ccfo3ttS.s:2324   .debug_str:0000000000000560 .LASF134
C:\Users\Karzan\AppData\Local\Temp\ccfo3ttS.s:2382   .debug_str:000000000000075e .LASF136
C:\Users\Karzan\AppData\Local\Temp\ccfo3ttS.s:259    .text.u0init:0000000000000000 .LFB5
C:\Users\Karzan\AppData\Local\Temp\ccfo3ttS.s:397    .text.u0init:000000000000010a .LFE5
C:\Users\Karzan\AppData\Local\Temp\ccfo3ttS.s:1933   .debug_loc:0000000000000000 .LLST5
C:\Users\Karzan\AppData\Local\Temp\ccfo3ttS.s:2196   .debug_str:00000000000001d9 .LASF138
C:\Users\Karzan\AppData\Local\Temp\ccfo3ttS.s:1961   .debug_loc:0000000000000044 .LLST6
C:\Users\Karzan\AppData\Local\Temp\ccfo3ttS.s:281    .text.u0init:0000000000000016 .LVL15
C:\Users\Karzan\AppData\Local\Temp\ccfo3ttS.s:289    .text.u0init:000000000000002e .LVL16
C:\Users\Karzan\AppData\Local\Temp\ccfo3ttS.s:296    .text.u0init:0000000000000042 .LVL17
C:\Users\Karzan\AppData\Local\Temp\ccfo3ttS.s:303    .text.u0init:0000000000000052 .LVL18
C:\Users\Karzan\AppData\Local\Temp\ccfo3ttS.s:307    .text.u0init:000000000000005e .LVL19
C:\Users\Karzan\AppData\Local\Temp\ccfo3ttS.s:313    .text.u0init:0000000000000070 .LVL20
C:\Users\Karzan\AppData\Local\Temp\ccfo3ttS.s:318    .text.u0init:000000000000007e .LVL21
C:\Users\Karzan\AppData\Local\Temp\ccfo3ttS.s:323    .text.u0init:000000000000008c .LVL22
C:\Users\Karzan\AppData\Local\Temp\ccfo3ttS.s:328    .text.u0init:000000000000009a .LVL23
C:\Users\Karzan\AppData\Local\Temp\ccfo3ttS.s:333    .text.u0init:00000000000000a8 .LVL24
C:\Users\Karzan\AppData\Local\Temp\ccfo3ttS.s:338    .text.u0init:00000000000000b6 .LVL25
C:\Users\Karzan\AppData\Local\Temp\ccfo3ttS.s:342    .text.u0init:00000000000000c2 .LVL26
C:\Users\Karzan\AppData\Local\Temp\ccfo3ttS.s:347    .text.u0init:00000000000000d0 .LVL27
C:\Users\Karzan\AppData\Local\Temp\ccfo3ttS.s:352    .text.u0init:00000000000000de .LVL28
C:\Users\Karzan\AppData\Local\Temp\ccfo3ttS.s:380    .text.u0init:0000000000000100 .LVL30
C:\Users\Karzan\AppData\Local\Temp\ccfo3ttS.s:2370   .debug_str:0000000000000708 .LASF137
C:\Users\Karzan\AppData\Local\Temp\ccfo3ttS.s:209    .text.putstr:0000000000000000 .LFB4
C:\Users\Karzan\AppData\Local\Temp\ccfo3ttS.s:252    .text.putstr:0000000000000022 .LFE4
C:\Users\Karzan\AppData\Local\Temp\ccfo3ttS.s:1990   .debug_loc:0000000000000089 .LLST3
C:\Users\Karzan\AppData\Local\Temp\ccfo3ttS.s:2013   .debug_loc:00000000000000c1 .LLST4
C:\Users\Karzan\AppData\Local\Temp\ccfo3ttS.s:249    .text.putstr:0000000000000020 .LVL12
C:\Users\Karzan\AppData\Local\Temp\ccfo3ttS.s:2132   .debug_str:0000000000000039 .LASF139
C:\Users\Karzan\AppData\Local\Temp\ccfo3ttS.s:2130   .debug_str:0000000000000033 .LASF140
GAS LISTING C:\Users\Karzan\AppData\Local\Temp\ccfo3ttS.s 			page 17


C:\Users\Karzan\AppData\Local\Temp\ccfo3ttS.s:120    .text.putch:0000000000000000 .LFB3
C:\Users\Karzan\AppData\Local\Temp\ccfo3ttS.s:202    .text.putch:000000000000006a .LFE3
C:\Users\Karzan\AppData\Local\Temp\ccfo3ttS.s:2028   .debug_loc:00000000000000ea .LLST1
C:\Users\Karzan\AppData\Local\Temp\ccfo3ttS.s:2051   .debug_loc:0000000000000122 .LLST2
C:\Users\Karzan\AppData\Local\Temp\ccfo3ttS.s:191    .text.putch:000000000000005c .LVL5
C:\Users\Karzan\AppData\Local\Temp\ccfo3ttS.s:198    .text.putch:0000000000000066 .LVL6
C:\Users\Karzan\AppData\Local\Temp\ccfo3ttS.s:2278   .debug_str:0000000000000422 .LASF162
C:\Users\Karzan\AppData\Local\Temp\ccfo3ttS.s:14     .text.u0_TX_Queue:0000000000000000 .LFB2
C:\Users\Karzan\AppData\Local\Temp\ccfo3ttS.s:113    .text.u0_TX_Queue:0000000000000088 .LFE2
C:\Users\Karzan\AppData\Local\Temp\ccfo3ttS.s:2065   .debug_loc:0000000000000143 .LLST0
C:\Users\Karzan\AppData\Local\Temp\ccfo3ttS.s:48     .text.u0_TX_Queue:0000000000000032 .LBB4
C:\Users\Karzan\AppData\Local\Temp\ccfo3ttS.s:75     .text.u0_TX_Queue:0000000000000062 .LBE4
C:\Users\Karzan\AppData\Local\Temp\ccfo3ttS.s:66     .text.u0_TX_Queue:0000000000000056 .LVL1
C:\Users\Karzan\AppData\Local\Temp\ccfo3ttS.s:45     .text.u0_TX_Queue:0000000000000030 .LVL0
C:\Users\Karzan\AppData\Local\Temp\ccfo3ttS.s:111    .text.u0_TX_Queue:0000000000000088 .LVL2
C:\Users\Karzan\AppData\Local\Temp\ccfo3ttS.s:2446   .debug_str:0000000000000921 .LASF141
C:\Users\Karzan\AppData\Local\Temp\ccfo3ttS.s:2160   .debug_str:00000000000000eb .LASF142
C:\Users\Karzan\AppData\Local\Temp\ccfo3ttS.s:2332   .debug_str:0000000000000593 .LASF143
C:\Users\Karzan\AppData\Local\Temp\ccfo3ttS.s:2354   .debug_str:0000000000000699 .LASF144
C:\Users\Karzan\AppData\Local\Temp\ccfo3ttS.s:2304   .debug_str:00000000000004cb .LASF145
C:\Users\Karzan\AppData\Local\Temp\ccfo3ttS.s:2424   .debug_str:0000000000000877 .LASF146
C:\Users\Karzan\AppData\Local\Temp\ccfo3ttS.s:2172   .debug_str:0000000000000130 .LASF147
C:\Users\Karzan\AppData\Local\Temp\ccfo3ttS.s:2240   .debug_str:0000000000000342 .LASF148
C:\Users\Karzan\AppData\Local\Temp\ccfo3ttS.s:2126   .debug_str:0000000000000000 .LASF149
C:\Users\Karzan\AppData\Local\Temp\ccfo3ttS.s:2438   .debug_str:00000000000008e4 .LASF150
C:\Users\Karzan\AppData\Local\Temp\ccfo3ttS.s:2388   .debug_str:000000000000077d .LASF151
C:\Users\Karzan\AppData\Local\Temp\ccfo3ttS.s:2202   .debug_str:00000000000001f5 .LASF152
C:\Users\Karzan\AppData\Local\Temp\ccfo3ttS.s:2314   .debug_str:000000000000051b .LASF153
C:\Users\Karzan\AppData\Local\Temp\ccfo3ttS.s:2390   .debug_str:0000000000000793 .LASF154
C:\Users\Karzan\AppData\Local\Temp\ccfo3ttS.s:2128   .debug_str:000000000000001f .LASF155
C:\Users\Karzan\AppData\Local\Temp\ccfo3ttS.s:2436   .debug_str:00000000000008d5 .LASF156
C:\Users\Karzan\AppData\Local\Temp\ccfo3ttS.s:2410   .debug_str:000000000000081b .LASF157
C:\Users\Karzan\AppData\Local\Temp\ccfo3ttS.s:266    .text.u0init:0000000000000002 .LCFI10
C:\Users\Karzan\AppData\Local\Temp\ccfo3ttS.s:376    .text.u0init:00000000000000f8 .LCFI11
C:\Users\Karzan\AppData\Local\Temp\ccfo3ttS.s:382    .text.u0init:0000000000000100 .LCFI12
C:\Users\Karzan\AppData\Local\Temp\ccfo3ttS.s:393    .text.u0init:0000000000000108 .LCFI13
C:\Users\Karzan\AppData\Local\Temp\ccfo3ttS.s:262    .text.u0init:0000000000000000 .LVL13
C:\Users\Karzan\AppData\Local\Temp\ccfo3ttS.s:273    .text.u0init:000000000000000a .LVL14
C:\Users\Karzan\AppData\Local\Temp\ccfo3ttS.s:365    .text.u0init:00000000000000e6 .LVL29
C:\Users\Karzan\AppData\Local\Temp\ccfo3ttS.s:391    .text.u0init:0000000000000106 .LVL31
C:\Users\Karzan\AppData\Local\Temp\ccfo3ttS.s:214    .text.putstr:0000000000000002 .LCFI7
C:\Users\Karzan\AppData\Local\Temp\ccfo3ttS.s:236    .text.putstr:0000000000000014 .LCFI8
C:\Users\Karzan\AppData\Local\Temp\ccfo3ttS.s:241    .text.putstr:0000000000000016 .LCFI9
C:\Users\Karzan\AppData\Local\Temp\ccfo3ttS.s:212    .text.putstr:0000000000000000 .LVL7
C:\Users\Karzan\AppData\Local\Temp\ccfo3ttS.s:222    .text.putstr:0000000000000008 .LVL8
C:\Users\Karzan\AppData\Local\Temp\ccfo3ttS.s:234    .text.putstr:0000000000000012 .LVL9
C:\Users\Karzan\AppData\Local\Temp\ccfo3ttS.s:239    .text.putstr:0000000000000016 .LVL10
C:\Users\Karzan\AppData\Local\Temp\ccfo3ttS.s:127    .text.putch:0000000000000002 .LCFI4
C:\Users\Karzan\AppData\Local\Temp\ccfo3ttS.s:187    .text.putch:0000000000000054 .LCFI5
C:\Users\Karzan\AppData\Local\Temp\ccfo3ttS.s:193    .text.putch:000000000000005c .LCFI6
C:\Users\Karzan\AppData\Local\Temp\ccfo3ttS.s:123    .text.putch:0000000000000000 .LVL3
C:\Users\Karzan\AppData\Local\Temp\ccfo3ttS.s:143    .text.putch:0000000000000016 .LVL4
C:\Users\Karzan\AppData\Local\Temp\ccfo3ttS.s:21     .text.u0_TX_Queue:0000000000000002 .LCFI0
C:\Users\Karzan\AppData\Local\Temp\ccfo3ttS.s:85     .text.u0_TX_Queue:000000000000006a .LCFI1
C:\Users\Karzan\AppData\Local\Temp\ccfo3ttS.s:89     .text.u0_TX_Queue:000000000000006c .LCFI2
C:\Users\Karzan\AppData\Local\Temp\ccfo3ttS.s:107    .text.u0_TX_Queue:0000000000000080 .LCFI3
C:\Users\Karzan\AppData\Local\Temp\ccfo3ttS.s:434    .debug_info:0000000000000000 .Ldebug_info0
GAS LISTING C:\Users\Karzan\AppData\Local\Temp\ccfo3ttS.s 			page 18



UNDEFINED SYMBOLS
usart_flag_get
usart_data_transmit
usart_interrupt_disable
usart_interrupt_enable
rcu_periph_clock_enable
gpio_init
usart_deinit
usart_baudrate_set
usart_parity_config
usart_word_length_set
usart_stop_bit_set
usart_hardware_flow_rts_config
usart_hardware_flow_cts_config
usart_enable
usart_transmit_config
usart_receive_config
eclicw_enable
