GAS LISTING C:\Users\Karzan\AppData\Local\Temp\ccfo3ttS.s 			page 1


   1              		.file	"usart.c"
   2              		.option nopic
   3              		.attribute arch, "rv32i2p0_m2p0_a2p0_c2p0"
   4              		.attribute unaligned_access, 0
   5              		.attribute stack_align, 16
   6              		.text
   7              	.Ltext0:
   8              		.cfi_sections	.debug_frame
   9              		.section	.text.u0_TX_Queue,"ax",@progbits
  10              		.align	1
  11              		.globl	u0_TX_Queue
  13              	u0_TX_Queue:
  14              	.LFB2:
  15              		.file 1 "usart.c"
   1:usart.c       **** #include "gd32vf103.h"
   2:usart.c       **** #include "usart.h" 
   3:usart.c       **** #include "eclicw.h"   
   4:usart.c       **** 
   5:usart.c       **** int txr=0, txw=0, txq[256]={0};                     // 256 Byte wr queue
   6:usart.c       **** 
   7:usart.c       **** void u0_TX_Queue(void){
  16              		.loc 1 7 23
  17              		.cfi_startproc
   8:usart.c       ****     if (txr!=txw) {                                 // Buffer empty?
  18              		.loc 1 8 5
   7:usart.c       ****     if (txr!=txw) {                                 // Buffer empty?
  19              		.loc 1 7 23 is_stmt 0
  20 0000 4111     		addi	sp,sp,-16
  21              	.LCFI0:
  22              		.cfi_def_cfa_offset 16
  23 0002 22C4     		sw	s0,8(sp)
  24              		.cfi_offset 8, -8
  25              		.loc 1 8 12
  26 0004 37040000 		lui	s0,%hi(.LANCHOR0)
  27 0008 13040400 		addi	s0,s0,%lo(.LANCHOR0)
  28              		.loc 1 8 8
  29 000c B7070000 		lui	a5,%hi(.LANCHOR1)
  30 0010 1840     		lw	a4,0(s0)
  31 0012 83A70700 		lw	a5,%lo(.LANCHOR1)(a5)
   7:usart.c       ****     if (txr!=txw) {                                 // Buffer empty?
  32              		.loc 1 7 23
  33 0016 06C6     		sw	ra,12(sp)
  34 0018 26C2     		sw	s1,4(sp)
  35              		.cfi_offset 1, -4
  36              		.cfi_offset 9, -12
  37              		.loc 1 8 8
  38 001a 6309F704 		beq	a4,a5,.L2
   9:usart.c       ****        if (usart_flag_get(USART0,USART_FLAG_TBE)) { // ...no! Device redy?
  39              		.loc 1 9 8 is_stmt 1
  40              		.loc 1 9 12 is_stmt 0
  41 001e B7440140 		li	s1,1073823744
  42 0022 9D45     		li	a1,7
  43 0024 13850480 		addi	a0,s1,-2048
  44 0028 97000000 		call	usart_flag_get
  44      E7800000 
  45              	.LVL0:
  46              		.loc 1 9 11
GAS LISTING C:\Users\Karzan\AppData\Local\Temp\ccfo3ttS.s 			page 2


  47 0030 0DC9     		beq	a0,zero,.L1
  48              	.LBB4:
  49              	.LBB5:
  10:usart.c       ****           usart_data_transmit(USART0, txq[txr++]);  //        Yes Write!
  50              		.loc 1 10 11 is_stmt 1
  51              		.loc 1 10 46 is_stmt 0
  52 0032 1C40     		lw	a5,0(s0)
  53              		.loc 1 10 11
  54 0034 13850480 		addi	a0,s1,-2048
  55              		.loc 1 10 46
  56 0038 13871700 		addi	a4,a5,1
  57 003c 18C0     		sw	a4,0(s0)
  58              		.loc 1 10 42
  59 003e 13972700 		slli	a4,a5,2
  60 0042 B7070000 		lui	a5,%hi(.LANCHOR2)
  61 0046 93870700 		addi	a5,a5,%lo(.LANCHOR2)
  62 004a BA97     		add	a5,a5,a4
  63              		.loc 1 10 11
  64 004c 8C43     		lw	a1,0(a5)
  65 004e 97000000 		call	usart_data_transmit
  65      E7800000 
  66              	.LVL1:
  11:usart.c       ****           txr%=256;                                 //            wrap around.
  67              		.loc 1 11 11 is_stmt 1
  68              		.loc 1 11 14 is_stmt 0
  69 0056 1C40     		lw	a5,0(s0)
  70 0058 13070010 		li	a4,256
  71 005c B3E7E702 		rem	a5,a5,a4
  72 0060 1CC0     		sw	a5,0(s0)
  73              	.L1:
  74              	.LBE5:
  75              	.LBE4:
  12:usart.c       ****         }                                           //        No! Return!
  13:usart.c       ****     } else 
  14:usart.c       ****        usart_interrupt_disable(USART0, USART_INT_TBE);
  15:usart.c       **** }
  76              		.loc 1 15 1
  77 0062 B240     		lw	ra,12(sp)
  78              		.cfi_remember_state
  79              		.cfi_restore 1
  80 0064 2244     		lw	s0,8(sp)
  81              		.cfi_restore 8
  82 0066 9244     		lw	s1,4(sp)
  83              		.cfi_restore 9
  84 0068 4101     		addi	sp,sp,16
  85              	.LCFI1:
  86              		.cfi_def_cfa_offset 0
  87 006a 8280     		jr	ra
  88              	.L2:
  89              	.LCFI2:
  90              		.cfi_restore_state
  14:usart.c       **** }
  91              		.loc 1 14 8 is_stmt 1
  92              		.loc 1 15 1 is_stmt 0
  93 006c 2244     		lw	s0,8(sp)
  94              		.cfi_restore 8
  95 006e B240     		lw	ra,12(sp)
GAS LISTING C:\Users\Karzan\AppData\Local\Temp\ccfo3ttS.s 			page 3


  96              		.cfi_restore 1
  97 0070 9244     		lw	s1,4(sp)
  98              		.cfi_restore 9
  14:usart.c       **** }
  99              		.loc 1 14 8
 100 0072 37450140 		li	a0,1073823744
 101              		.loc 1 15 1
  14:usart.c       **** }
 102              		.loc 1 14 8
 103 0076 93057030 		li	a1,775
 104 007a 13050580 		addi	a0,a0,-2048
 105              		.loc 1 15 1
 106 007e 4101     		addi	sp,sp,16
 107              	.LCFI3:
 108              		.cfi_def_cfa_offset 0
  14:usart.c       **** }
 109              		.loc 1 14 8
 110 0080 17030000 		tail	usart_interrupt_disable
 110      67000300 
 111              	.LVL2:
 112              		.cfi_endproc
 113              	.LFE2:
 115              		.section	.text.putch,"ax",@progbits
 116              		.align	1
 117              		.globl	putch
 119              	putch:
 120              	.LFB3:
  16:usart.c       **** 
  17:usart.c       **** void putch(char ch){
 121              		.loc 1 17 20 is_stmt 1
 122              		.cfi_startproc
 123              	.LVL3:
  18:usart.c       ****    while (((txw+1)%256)==txr) u0_TX_Queue(); //If buffer full then spin...
 124              		.loc 1 18 4
  17:usart.c       ****    while (((txw+1)%256)==txr) u0_TX_Queue(); //If buffer full then spin...
 125              		.loc 1 17 20 is_stmt 0
 126 0000 0111     		addi	sp,sp,-32
 127              	.LCFI4:
 128              		.cfi_def_cfa_offset 32
 129 0002 22CC     		sw	s0,24(sp)
 130 0004 26CA     		sw	s1,20(sp)
 131 0006 4AC8     		sw	s2,16(sp)
 132 0008 06CE     		sw	ra,28(sp)
 133              		.cfi_offset 8, -8
 134              		.cfi_offset 9, -12
 135              		.cfi_offset 18, -16
 136              		.cfi_offset 1, -4
 137              		.loc 1 18 16
 138 000a 37090000 		lui	s2,%hi(.LANCHOR1)
 139              		.loc 1 18 19
 140 000e 93040010 		li	s1,256
 141              		.loc 1 18 24
 142 0012 37040000 		lui	s0,%hi(.LANCHOR0)
 143              	.LVL4:
 144              	.L9:
 145              		.loc 1 18 16 discriminator 1
 146 0016 13060900 		addi	a2,s2,%lo(.LANCHOR1)
GAS LISTING C:\Users\Karzan\AppData\Local\Temp\ccfo3ttS.s 			page 4


 147 001a 1C42     		lw	a5,0(a2)
 148              		.loc 1 18 10 discriminator 1
 149 001c 83260400 		lw	a3,%lo(.LANCHOR0)(s0)
 150              		.loc 1 18 16 discriminator 1
 151 0020 13871700 		addi	a4,a5,1
 152              		.loc 1 18 19 discriminator 1
 153 0024 33679702 		rem	a4,a4,s1
 154              		.loc 1 18 10 discriminator 1
 155 0028 630AD702 		beq	a4,a3,.L10
  19:usart.c       ****    txq[txw++]=ch;                            //...If/when not then store data...
 156              		.loc 1 19 4 is_stmt 1
 157              		.loc 1 19 14 is_stmt 0
 158 002c 93962700 		slli	a3,a5,2
 159 0030 B7070000 		lui	a5,%hi(.LANCHOR2)
  20:usart.c       ****    txw%=256;                                 //...and advance write index!
  21:usart.c       ****    usart_interrupt_enable(USART0, USART_INT_TBE);
  22:usart.c       **** }
 160              		.loc 1 22 1
 161 0034 6244     		lw	s0,24(sp)
 162              		.cfi_remember_state
 163              		.cfi_restore 8
  19:usart.c       ****    txq[txw++]=ch;                            //...If/when not then store data...
 164              		.loc 1 19 14
 165 0036 93870700 		addi	a5,a5,%lo(.LANCHOR2)
 166              		.loc 1 22 1
 167 003a F240     		lw	ra,28(sp)
 168              		.cfi_restore 1
 169 003c D244     		lw	s1,20(sp)
 170              		.cfi_restore 9
 171 003e 4249     		lw	s2,16(sp)
 172              		.cfi_restore 18
  19:usart.c       ****    txq[txw++]=ch;                            //...If/when not then store data...
 173              		.loc 1 19 14
 174 0040 B697     		add	a5,a5,a3
 175 0042 88C3     		sw	a0,0(a5)
  20:usart.c       ****    txw%=256;                                 //...and advance write index!
 176              		.loc 1 20 4 is_stmt 1
  20:usart.c       ****    txw%=256;                                 //...and advance write index!
 177              		.loc 1 20 7 is_stmt 0
 178 0044 18C2     		sw	a4,0(a2)
  21:usart.c       **** }
 179              		.loc 1 21 4 is_stmt 1
 180 0046 37450140 		li	a0,1073823744
 181              		.loc 1 22 1 is_stmt 0
  21:usart.c       **** }
 182              		.loc 1 21 4
 183 004a 93057030 		li	a1,775
 184 004e 13050580 		addi	a0,a0,-2048
 185              		.loc 1 22 1
 186 0052 0561     		addi	sp,sp,32
 187              	.LCFI5:
 188              		.cfi_def_cfa_offset 0
  21:usart.c       **** }
 189              		.loc 1 21 4
 190 0054 17030000 		tail	usart_interrupt_enable
 190      67000300 
 191              	.LVL5:
GAS LISTING C:\Users\Karzan\AppData\Local\Temp\ccfo3ttS.s 			page 5


 192              	.L10:
 193              	.LCFI6:
 194              		.cfi_restore_state
 195 005c 2AC6     		sw	a0,12(sp)
  18:usart.c       ****    txq[txw++]=ch;                            //...If/when not then store data...
 196              		.loc 1 18 31 is_stmt 1 discriminator 2
 197 005e 97000000 		call	u0_TX_Queue
 197      E7800000 
 198              	.LVL6:
 199 0066 3245     		lw	a0,12(sp)
 200 0068 7DB7     		j	.L9
 201              		.cfi_endproc
 202              	.LFE3:
 204              		.section	.text.putstr,"ax",@progbits
 205              		.align	1
 206              		.globl	putstr
 208              	putstr:
 209              	.LFB4:
  23:usart.c       **** /*
  24:usart.c       **** void putch(char ch){
  25:usart.c       ****   while (!usart_flag_get(USART0,USART_FLAG_TBE)); // Spin util buffer empty!
  26:usart.c       ****   usart_data_transmit(USART0, ch);                // USART0 TX!
  27:usart.c       **** }
  28:usart.c       **** */
  29:usart.c       **** void putstr(char str[]){
 210              		.loc 1 29 24
 211              		.cfi_startproc
 212              	.LVL7:
 213 0000 4111     		addi	sp,sp,-16
 214              	.LCFI7:
 215              		.cfi_def_cfa_offset 16
 216 0002 22C4     		sw	s0,8(sp)
 217 0004 06C6     		sw	ra,12(sp)
 218              		.cfi_offset 8, -8
 219              		.cfi_offset 1, -4
 220 0006 2A84     		mv	s0,a0
  30:usart.c       ****   while (*str) putch(*str++);
 221              		.loc 1 30 3
 222              	.LVL8:
 223              	.L13:
 224              		.loc 1 30 10 is_stmt 0 discriminator 1
 225 0008 03450400 		lbu	a0,0(s0)
 226              		.loc 1 30 9 discriminator 1
 227 000c 09E5     		bne	a0,zero,.L14
  31:usart.c       **** }
 228              		.loc 1 31 1
 229 000e B240     		lw	ra,12(sp)
 230              		.cfi_remember_state
 231              		.cfi_restore 1
 232 0010 2244     		lw	s0,8(sp)
 233              		.cfi_restore 8
 234              	.LVL9:
 235 0012 4101     		addi	sp,sp,16
 236              	.LCFI8:
 237              		.cfi_def_cfa_offset 0
 238 0014 8280     		jr	ra
 239              	.LVL10:
GAS LISTING C:\Users\Karzan\AppData\Local\Temp\ccfo3ttS.s 			page 6


 240              	.L14:
 241              	.LCFI9:
 242              		.cfi_restore_state
  30:usart.c       ****   while (*str) putch(*str++);
 243              		.loc 1 30 16 is_stmt 1 discriminator 2
  30:usart.c       ****   while (*str) putch(*str++);
 244              		.loc 1 30 26 is_stmt 0 discriminator 2
 245 0016 0504     		addi	s0,s0,1
 246              	.LVL11:
  30:usart.c       ****   while (*str) putch(*str++);
 247              		.loc 1 30 16 discriminator 2
 248 0018 97000000 		call	putch
 248      E7800000 
 249              	.LVL12:
 250 0020 E5B7     		j	.L13
 251              		.cfi_endproc
 252              	.LFE4:
 254              		.section	.text.u0init,"ax",@progbits
 255              		.align	1
 256              		.globl	u0init
 258              	u0init:
 259              	.LFB5:
  32:usart.c       **** 
  33:usart.c       **** void u0init(int enable){
 260              		.loc 1 33 24 is_stmt 1
 261              		.cfi_startproc
 262              	.LVL13:
  34:usart.c       ****     rcu_periph_clock_enable(RCU_GPIOA);
 263              		.loc 1 34 5
  33:usart.c       ****     rcu_periph_clock_enable(RCU_GPIOA);
 264              		.loc 1 33 24 is_stmt 0
 265 0000 4111     		addi	sp,sp,-16
 266              	.LCFI10:
 267              		.cfi_def_cfa_offset 16
 268 0002 26C2     		sw	s1,4(sp)
 269              		.cfi_offset 9, -12
 270 0004 AA84     		mv	s1,a0
 271              		.loc 1 34 5
 272 0006 13052060 		li	a0,1538
 273              	.LVL14:
  33:usart.c       ****     rcu_periph_clock_enable(RCU_GPIOA);
 274              		.loc 1 33 24
 275 000a 06C6     		sw	ra,12(sp)
 276 000c 22C4     		sw	s0,8(sp)
 277              		.cfi_offset 1, -4
 278              		.cfi_offset 8, -8
 279              		.loc 1 34 5
 280 000e 97000000 		call	rcu_periph_clock_enable
 280      E7800000 
 281              	.LVL15:
  35:usart.c       ****     gpio_init(GPIOA, GPIO_MODE_AF_PP, GPIO_OSPEED_50MHZ, GPIO_PIN_9);
 282              		.loc 1 35 5 is_stmt 1
 283 0016 37140140 		li	s0,1073811456
 284 001a 13050480 		addi	a0,s0,-2048
 285 001e 93060020 		li	a3,512
 286 0022 0D46     		li	a2,3
 287 0024 E145     		li	a1,24
GAS LISTING C:\Users\Karzan\AppData\Local\Temp\ccfo3ttS.s 			page 7


 288 0026 97000000 		call	gpio_init
 288      E7800000 
 289              	.LVL16:
  36:usart.c       ****     gpio_init(GPIOA, GPIO_MODE_IN_FLOATING, GPIO_OSPEED_50MHZ, GPIO_PIN_10);
 290              		.loc 1 36 5
 291 002e 93060040 		li	a3,1024
 292 0032 0D46     		li	a2,3
 293 0034 9145     		li	a1,4
 294 0036 13050480 		addi	a0,s0,-2048
 295 003a 97000000 		call	gpio_init
 295      E7800000 
 296              	.LVL17:
  37:usart.c       **** 
  38:usart.c       ****     rcu_periph_clock_enable(RCU_USART0);
 297              		.loc 1 38 5
 298 0042 1305E060 		li	a0,1550
  39:usart.c       ****     usart_deinit(USART0);
 299              		.loc 1 39 5 is_stmt 0
 300 0046 37440140 		li	s0,1073823744
  38:usart.c       ****     usart_deinit(USART0);
 301              		.loc 1 38 5
 302 004a 97000000 		call	rcu_periph_clock_enable
 302      E7800000 
 303              	.LVL18:
 304              		.loc 1 39 5 is_stmt 1
 305 0052 13050480 		addi	a0,s0,-2048
 306 0056 97000000 		call	usart_deinit
 306      E7800000 
 307              	.LVL19:
  40:usart.c       ****     usart_baudrate_set(USART0, 9600);
 308              		.loc 1 40 5
 309 005e 8965     		li	a1,8192
 310 0060 93850558 		addi	a1,a1,1408
 311 0064 13050480 		addi	a0,s0,-2048
 312 0068 97000000 		call	usart_baudrate_set
 312      E7800000 
 313              	.LVL20:
  41:usart.c       ****     usart_parity_config(USART0, USART_PM_NONE);
 314              		.loc 1 41 5
 315 0070 8145     		li	a1,0
 316 0072 13050480 		addi	a0,s0,-2048
 317 0076 97000000 		call	usart_parity_config
 317      E7800000 
 318              	.LVL21:
  42:usart.c       ****     usart_word_length_set(USART0, USART_WL_8BIT);
 319              		.loc 1 42 5
 320 007e 8145     		li	a1,0
 321 0080 13050480 		addi	a0,s0,-2048
 322 0084 97000000 		call	usart_word_length_set
 322      E7800000 
 323              	.LVL22:
  43:usart.c       ****     usart_stop_bit_set(USART0,USART_STB_2BIT);
 324              		.loc 1 43 5
 325 008c 8965     		li	a1,8192
 326 008e 13050480 		addi	a0,s0,-2048
 327 0092 97000000 		call	usart_stop_bit_set
 327      E7800000 
GAS LISTING C:\Users\Karzan\AppData\Local\Temp\ccfo3ttS.s 			page 8


 328              	.LVL23:
  44:usart.c       ****     usart_hardware_flow_rts_config(USART0, USART_RTS_DISABLE);
 329              		.loc 1 44 5
 330 009a 8145     		li	a1,0
 331 009c 13050480 		addi	a0,s0,-2048
 332 00a0 97000000 		call	usart_hardware_flow_rts_config
 332      E7800000 
 333              	.LVL24:
  45:usart.c       ****     usart_hardware_flow_cts_config(USART0, USART_CTS_DISABLE);
 334              		.loc 1 45 5
 335 00a8 8145     		li	a1,0
 336 00aa 13050480 		addi	a0,s0,-2048
 337 00ae 97000000 		call	usart_hardware_flow_cts_config
 337      E7800000 
 338              	.LVL25:
  46:usart.c       ****     usart_enable(USART0);
 339              		.loc 1 46 5
 340 00b6 13050480 		addi	a0,s0,-2048
 341 00ba 97000000 		call	usart_enable
 341      E7800000 
 342              	.LVL26:
  47:usart.c       ****     usart_transmit_config(USART0,USART_TRANSMIT_ENABLE);
 343              		.loc 1 47 5
 344 00c2 A145     		li	a1,8
 345 00c4 13050480 		addi	a0,s0,-2048
 346 00c8 97000000 		call	usart_transmit_config
 346      E7800000 
 347              	.LVL27:
  48:usart.c       ****     usart_receive_config(USART0,USART_RECEIVE_ENABLE);
 348              		.loc 1 48 5
 349 00d0 9145     		li	a1,4
 350 00d2 13050480 		addi	a0,s0,-2048
 351 00d6 97000000 		call	usart_receive_config
 351      E7800000 
 352              	.LVL28:
  49:usart.c       **** 
  50:usart.c       ****     if (enable) {
 353              		.loc 1 50 5
 354              		.loc 1 50 8 is_stmt 0
 355 00de 8DC0     		beq	s1,zero,.L16
  51:usart.c       ****         eclicw_enable(USART0_IRQn, 3, 1, &u0_TX_Queue);
 356              		.loc 1 51 9 is_stmt 1
  52:usart.c       ****     }
  53:usart.c       **** }...
 357              		.loc 1 53 1 is_stmt 0
 358 00e0 2244     		lw	s0,8(sp)
 359              		.cfi_remember_state
 360              		.cfi_restore 8
 361 00e2 B240     		lw	ra,12(sp)
 362              		.cfi_restore 1
 363 00e4 9244     		lw	s1,4(sp)
 364              		.cfi_restore 9
 365              	.LVL29:
  51:usart.c       ****         eclicw_enable(USART0_IRQn, 3, 1, &u0_TX_Queue);
 366              		.loc 1 51 9
 367 00e6 B7060000 		lui	a3,%hi(u0_TX_Queue)
 368              		.loc 1 53 1
GAS LISTING C:\Users\Karzan\AppData\Local\Temp\ccfo3ttS.s 			page 9


  51:usart.c       ****         eclicw_enable(USART0_IRQn, 3, 1, &u0_TX_Queue);
 369              		.loc 1 51 9
 370 00ea 93860600 		addi	a3,a3,%lo(u0_TX_Queue)
 371 00ee 0546     		li	a2,1
 372 00f0 8D45     		li	a1,3
 373 00f2 13058003 		li	a0,56
 374              		.loc 1 53 1
 375 00f6 4101     		addi	sp,sp,16
 376              	.LCFI11:
 377              		.cfi_def_cfa_offset 0
  51:usart.c       ****         eclicw_enable(USART0_IRQn, 3, 1, &u0_TX_Queue);
 378              		.loc 1 51 9
 379 00f8 17030000 		tail	eclicw_enable
 379      67000300 
 380              	.LVL30:
 381              	.L16:
 382              	.LCFI12:
 383              		.cfi_restore_state
 384              		.loc 1 53 1
 385 0100 B240     		lw	ra,12(sp)
 386              		.cfi_restore 1
 387 0102 2244     		lw	s0,8(sp)
 388              		.cfi_restore 8
 389 0104 9244     		lw	s1,4(sp)
 390              		.cfi_restore 9
 391              	.LVL31:
 392 0106 4101     		addi	sp,sp,16
 393              	.LCFI13:
 394              		.cfi_def_cfa_offset 0
 395 0108 8280     		jr	ra
 396              		.cfi_endproc
 397              	.LFE5:
 399              		.globl	txq
 400              		.globl	txw
 401              		.globl	txr
 402              		.section	.bss.txq,"aw",@nobits
 403              		.align	2
 404              		.set	.LANCHOR2,. + 0
 407              	txq:
 408 0000 00000000 		.zero	1024
 408      00000000 
 408      00000000 
 408      00000000 
 408      00000000 
 409              		.section	.sbss.txr,"aw",@nobits
 410              		.align	2
 411              		.set	.LANCHOR0,. + 0
 414              	txr:
 415 0000 00000000 		.zero	4
 416              		.section	.sbss.txw,"aw",@nobits
 417              		.align	2
 418              		.set	.LANCHOR1,. + 0
 421              	txw:
 422 0000 00000000 		.zero	4
 423              		.text
 424              	.Letext0:
 425              		.file 2 "c:\\users\\karzan\\downloads\\toolchain-gd32v-v202-win\\toolchain-gd32v-v202-win\\compile
GAS LISTING C:\Users\Karzan\AppData\Local\Temp\ccfo3ttS.s 			page 10


 426              		.file 3 "c:\\users\\karzan\\downloads\\toolchain-gd32v-v202-win\\toolchain-gd32v-v202-win\\compile
 427              		.file 4 "./../../firmware/GD32VF103_standard_peripheral/Include/gd32vf103_rcu.h"
 428              		.file 5 "./../../firmware/GD32VF103_standard_peripheral/Include/gd32vf103_usart.h"
 429              		.file 6 "./../../firmware/GD32VF103_standard_peripheral/Include/gd32vf103_gpio.h"
 430              		.file 7 "eclicw.h"
 431              		.file 8 "./../../firmware/GD32VF103_standard_peripheral/gd32vf103.h"
 432              		.file 9 "./../../firmware/GD32VF103_standard_peripheral/system_gd32vf103.h"
GAS LISTING C:\Users\Karzan\AppData\Local\Temp\ccfo3ttS.s 			page 11

